ARM GAS  C:\Users\LilRobby\AppData\Local\Temp\ccdIMQzd.s 			page 1


   1              		.syntax unified
   2              		.cpu cortex-m3
   3              		.fpu softvfp
   4              		.eabi_attribute 20, 1
   5              		.eabi_attribute 21, 1
   6              		.eabi_attribute 23, 3
   7              		.eabi_attribute 24, 1
   8              		.eabi_attribute 25, 1
   9              		.eabi_attribute 26, 1
  10              		.eabi_attribute 30, 6
  11              		.eabi_attribute 34, 1
  12              		.eabi_attribute 18, 4
  13              		.thumb
  14              		.file	"cyfitter_cfg.c"
  15              		.text
  16              	.Ltext0:
  17              		.cfi_sections	.debug_frame
  18              		.section	.text.CYMEMZERO,"ax",%progbits
  19              		.align	2
  20              		.thumb
  21              		.thumb_func
  22              		.type	CYMEMZERO, %function
  23              	CYMEMZERO:
  24              	.LFB0:
  25              		.file 1 "Generated_Source\\PSoC5\\cyfitter_cfg.c"
   1:Generated_Source\PSoC5/cyfitter_cfg.c **** /*******************************************************************************
   2:Generated_Source\PSoC5/cyfitter_cfg.c **** * File Name: cyfitter_cfg.c
   3:Generated_Source\PSoC5/cyfitter_cfg.c **** * 
   4:Generated_Source\PSoC5/cyfitter_cfg.c **** * PSoC Creator  4.0 Update 1
   5:Generated_Source\PSoC5/cyfitter_cfg.c **** *
   6:Generated_Source\PSoC5/cyfitter_cfg.c **** * Description:
   7:Generated_Source\PSoC5/cyfitter_cfg.c **** * This file contains device initialization code.
   8:Generated_Source\PSoC5/cyfitter_cfg.c **** * Except for the user defined sections in CyClockStartupError(), this file should not be modified.
   9:Generated_Source\PSoC5/cyfitter_cfg.c **** * This file is automatically generated by PSoC Creator.
  10:Generated_Source\PSoC5/cyfitter_cfg.c **** *
  11:Generated_Source\PSoC5/cyfitter_cfg.c **** ********************************************************************************
  12:Generated_Source\PSoC5/cyfitter_cfg.c **** * Copyright (c) 2007-2016 Cypress Semiconductor.  All rights reserved.
  13:Generated_Source\PSoC5/cyfitter_cfg.c **** * You may use this file only in accordance with the license, terms, conditions, 
  14:Generated_Source\PSoC5/cyfitter_cfg.c **** * disclaimers, and limitations in the end user license agreement accompanying 
  15:Generated_Source\PSoC5/cyfitter_cfg.c **** * the software package with which this file was provided.
  16:Generated_Source\PSoC5/cyfitter_cfg.c **** ********************************************************************************/
  17:Generated_Source\PSoC5/cyfitter_cfg.c **** 
  18:Generated_Source\PSoC5/cyfitter_cfg.c **** #include <string.h>
  19:Generated_Source\PSoC5/cyfitter_cfg.c **** #include "cytypes.h"
  20:Generated_Source\PSoC5/cyfitter_cfg.c **** #include "cydevice_trm.h"
  21:Generated_Source\PSoC5/cyfitter_cfg.c **** #include "cyfitter.h"
  22:Generated_Source\PSoC5/cyfitter_cfg.c **** #include "CyLib.h"
  23:Generated_Source\PSoC5/cyfitter_cfg.c **** #include "cyfitter_cfg.h"
  24:Generated_Source\PSoC5/cyfitter_cfg.c **** 
  25:Generated_Source\PSoC5/cyfitter_cfg.c **** 
  26:Generated_Source\PSoC5/cyfitter_cfg.c **** #if defined(__GNUC__) || defined(__ARMCC_VERSION)
  27:Generated_Source\PSoC5/cyfitter_cfg.c ****     #define CYPACKED 
  28:Generated_Source\PSoC5/cyfitter_cfg.c ****     #define CYPACKED_ATTR __attribute__ ((packed))
  29:Generated_Source\PSoC5/cyfitter_cfg.c ****     #define CYALIGNED __attribute__ ((aligned))
  30:Generated_Source\PSoC5/cyfitter_cfg.c ****     #define CY_CFG_UNUSED __attribute__ ((unused))
  31:Generated_Source\PSoC5/cyfitter_cfg.c ****     #ifndef CY_CFG_SECTION
  32:Generated_Source\PSoC5/cyfitter_cfg.c ****         #define CY_CFG_SECTION __attribute__ ((section(".psocinit")))
ARM GAS  C:\Users\LilRobby\AppData\Local\Temp\ccdIMQzd.s 			page 2


  33:Generated_Source\PSoC5/cyfitter_cfg.c ****     #endif
  34:Generated_Source\PSoC5/cyfitter_cfg.c ****     
  35:Generated_Source\PSoC5/cyfitter_cfg.c ****     #if defined(__ARMCC_VERSION)
  36:Generated_Source\PSoC5/cyfitter_cfg.c ****         #define CY_CFG_MEMORY_BARRIER() __memory_changed()
  37:Generated_Source\PSoC5/cyfitter_cfg.c ****     #else
  38:Generated_Source\PSoC5/cyfitter_cfg.c ****         #define CY_CFG_MEMORY_BARRIER() __sync_synchronize()
  39:Generated_Source\PSoC5/cyfitter_cfg.c ****     #endif
  40:Generated_Source\PSoC5/cyfitter_cfg.c ****     
  41:Generated_Source\PSoC5/cyfitter_cfg.c **** #elif defined(__ICCARM__)
  42:Generated_Source\PSoC5/cyfitter_cfg.c ****     #include <intrinsics.h>
  43:Generated_Source\PSoC5/cyfitter_cfg.c **** 
  44:Generated_Source\PSoC5/cyfitter_cfg.c ****     #define CYPACKED __packed
  45:Generated_Source\PSoC5/cyfitter_cfg.c ****     #define CYPACKED_ATTR 
  46:Generated_Source\PSoC5/cyfitter_cfg.c ****     #define CYALIGNED _Pragma("data_alignment=4")
  47:Generated_Source\PSoC5/cyfitter_cfg.c ****     #define CY_CFG_UNUSED _Pragma("diag_suppress=Pe177")
  48:Generated_Source\PSoC5/cyfitter_cfg.c ****     #define CY_CFG_SECTION _Pragma("location=\".psocinit\"")
  49:Generated_Source\PSoC5/cyfitter_cfg.c ****     
  50:Generated_Source\PSoC5/cyfitter_cfg.c ****     #define CY_CFG_MEMORY_BARRIER() __DMB()
  51:Generated_Source\PSoC5/cyfitter_cfg.c ****     
  52:Generated_Source\PSoC5/cyfitter_cfg.c **** #else
  53:Generated_Source\PSoC5/cyfitter_cfg.c ****     #error Unsupported toolchain
  54:Generated_Source\PSoC5/cyfitter_cfg.c **** #endif
  55:Generated_Source\PSoC5/cyfitter_cfg.c **** 
  56:Generated_Source\PSoC5/cyfitter_cfg.c **** 
  57:Generated_Source\PSoC5/cyfitter_cfg.c **** CY_CFG_UNUSED
  58:Generated_Source\PSoC5/cyfitter_cfg.c **** static void CYMEMZERO(void *s, size_t n);
  59:Generated_Source\PSoC5/cyfitter_cfg.c **** CY_CFG_UNUSED
  60:Generated_Source\PSoC5/cyfitter_cfg.c **** static void CYMEMZERO(void *s, size_t n)
  61:Generated_Source\PSoC5/cyfitter_cfg.c **** {
  26              		.loc 1 61 0
  27              		.cfi_startproc
  28              		@ args = 0, pretend = 0, frame = 8
  29              		@ frame_needed = 1, uses_anonymous_args = 0
  30 0000 80B5     		push	{r7, lr}
  31              		.cfi_def_cfa_offset 8
  32              		.cfi_offset 7, -8
  33              		.cfi_offset 14, -4
  34 0002 82B0     		sub	sp, sp, #8
  35              		.cfi_def_cfa_offset 16
  36 0004 00AF     		add	r7, sp, #0
  37              		.cfi_def_cfa_register 7
  38 0006 7860     		str	r0, [r7, #4]
  39 0008 3960     		str	r1, [r7]
  62:Generated_Source\PSoC5/cyfitter_cfg.c **** 	(void)memset(s, 0, n);
  40              		.loc 1 62 0
  41 000a 7868     		ldr	r0, [r7, #4]
  42 000c 0021     		movs	r1, #0
  43 000e 3A68     		ldr	r2, [r7]
  44 0010 FFF7FEFF 		bl	memset
  63:Generated_Source\PSoC5/cyfitter_cfg.c **** }
  45              		.loc 1 63 0
  46 0014 0837     		adds	r7, r7, #8
  47              		.cfi_def_cfa_offset 8
  48 0016 BD46     		mov	sp, r7
  49              		.cfi_def_cfa_register 13
  50              		@ sp needed
  51 0018 80BD     		pop	{r7, pc}
ARM GAS  C:\Users\LilRobby\AppData\Local\Temp\ccdIMQzd.s 			page 3


  52              		.cfi_endproc
  53              	.LFE0:
  54              		.size	CYMEMZERO, .-CYMEMZERO
  55 001a 00BF     		.section	.text.CYCONFIGCPY,"ax",%progbits
  56              		.align	2
  57              		.thumb
  58              		.thumb_func
  59              		.type	CYCONFIGCPY, %function
  60              	CYCONFIGCPY:
  61              	.LFB1:
  64:Generated_Source\PSoC5/cyfitter_cfg.c **** CY_CFG_UNUSED
  65:Generated_Source\PSoC5/cyfitter_cfg.c **** static void CYCONFIGCPY(void *dest, const void *src, size_t n);
  66:Generated_Source\PSoC5/cyfitter_cfg.c **** CY_CFG_UNUSED
  67:Generated_Source\PSoC5/cyfitter_cfg.c **** static void CYCONFIGCPY(void *dest, const void *src, size_t n)
  68:Generated_Source\PSoC5/cyfitter_cfg.c **** {
  62              		.loc 1 68 0
  63              		.cfi_startproc
  64              		@ args = 0, pretend = 0, frame = 16
  65              		@ frame_needed = 1, uses_anonymous_args = 0
  66 0000 80B5     		push	{r7, lr}
  67              		.cfi_def_cfa_offset 8
  68              		.cfi_offset 7, -8
  69              		.cfi_offset 14, -4
  70 0002 84B0     		sub	sp, sp, #16
  71              		.cfi_def_cfa_offset 24
  72 0004 00AF     		add	r7, sp, #0
  73              		.cfi_def_cfa_register 7
  74 0006 F860     		str	r0, [r7, #12]
  75 0008 B960     		str	r1, [r7, #8]
  76 000a 7A60     		str	r2, [r7, #4]
  69:Generated_Source\PSoC5/cyfitter_cfg.c **** 	(void)memcpy(dest, src, n);
  77              		.loc 1 69 0
  78 000c F868     		ldr	r0, [r7, #12]
  79 000e B968     		ldr	r1, [r7, #8]
  80 0010 7A68     		ldr	r2, [r7, #4]
  81 0012 FFF7FEFF 		bl	memcpy
  70:Generated_Source\PSoC5/cyfitter_cfg.c **** }
  82              		.loc 1 70 0
  83 0016 1037     		adds	r7, r7, #16
  84              		.cfi_def_cfa_offset 8
  85 0018 BD46     		mov	sp, r7
  86              		.cfi_def_cfa_register 13
  87              		@ sp needed
  88 001a 80BD     		pop	{r7, pc}
  89              		.cfi_endproc
  90              	.LFE1:
  91              		.size	CYCONFIGCPY, .-CYCONFIGCPY
  92              		.section	.text.CYCONFIGCPYCODE,"ax",%progbits
  93              		.align	2
  94              		.thumb
  95              		.thumb_func
  96              		.type	CYCONFIGCPYCODE, %function
  97              	CYCONFIGCPYCODE:
  98              	.LFB2:
  71:Generated_Source\PSoC5/cyfitter_cfg.c **** CY_CFG_UNUSED
  72:Generated_Source\PSoC5/cyfitter_cfg.c **** static void CYCONFIGCPYCODE(void *dest, const void *src, size_t n);
  73:Generated_Source\PSoC5/cyfitter_cfg.c **** CY_CFG_UNUSED
ARM GAS  C:\Users\LilRobby\AppData\Local\Temp\ccdIMQzd.s 			page 4


  74:Generated_Source\PSoC5/cyfitter_cfg.c **** static void CYCONFIGCPYCODE(void *dest, const void *src, size_t n)
  75:Generated_Source\PSoC5/cyfitter_cfg.c **** {
  99              		.loc 1 75 0
 100              		.cfi_startproc
 101              		@ args = 0, pretend = 0, frame = 16
 102              		@ frame_needed = 1, uses_anonymous_args = 0
 103 0000 80B5     		push	{r7, lr}
 104              		.cfi_def_cfa_offset 8
 105              		.cfi_offset 7, -8
 106              		.cfi_offset 14, -4
 107 0002 84B0     		sub	sp, sp, #16
 108              		.cfi_def_cfa_offset 24
 109 0004 00AF     		add	r7, sp, #0
 110              		.cfi_def_cfa_register 7
 111 0006 F860     		str	r0, [r7, #12]
 112 0008 B960     		str	r1, [r7, #8]
 113 000a 7A60     		str	r2, [r7, #4]
  76:Generated_Source\PSoC5/cyfitter_cfg.c **** 	(void)memcpy(dest, src, n);
 114              		.loc 1 76 0
 115 000c F868     		ldr	r0, [r7, #12]
 116 000e B968     		ldr	r1, [r7, #8]
 117 0010 7A68     		ldr	r2, [r7, #4]
 118 0012 FFF7FEFF 		bl	memcpy
  77:Generated_Source\PSoC5/cyfitter_cfg.c **** }
 119              		.loc 1 77 0
 120 0016 1037     		adds	r7, r7, #16
 121              		.cfi_def_cfa_offset 8
 122 0018 BD46     		mov	sp, r7
 123              		.cfi_def_cfa_register 13
 124              		@ sp needed
 125 001a 80BD     		pop	{r7, pc}
 126              		.cfi_endproc
 127              	.LFE2:
 128              		.size	CYCONFIGCPYCODE, .-CYCONFIGCPYCODE
 129              		.section	.text.cfg_write_bytes32,"ax",%progbits
 130              		.align	2
 131              		.thumb
 132              		.thumb_func
 133              		.type	cfg_write_bytes32, %function
 134              	cfg_write_bytes32:
 135              	.LFB3:
  78:Generated_Source\PSoC5/cyfitter_cfg.c **** 
  79:Generated_Source\PSoC5/cyfitter_cfg.c **** 
  80:Generated_Source\PSoC5/cyfitter_cfg.c **** 
  81:Generated_Source\PSoC5/cyfitter_cfg.c **** 
  82:Generated_Source\PSoC5/cyfitter_cfg.c **** /* Clock startup error codes                                                   */
  83:Generated_Source\PSoC5/cyfitter_cfg.c **** #define CYCLOCKSTART_NO_ERROR    0u
  84:Generated_Source\PSoC5/cyfitter_cfg.c **** #define CYCLOCKSTART_XTAL_ERROR  1u
  85:Generated_Source\PSoC5/cyfitter_cfg.c **** #define CYCLOCKSTART_32KHZ_ERROR 2u
  86:Generated_Source\PSoC5/cyfitter_cfg.c **** #define CYCLOCKSTART_PLL_ERROR   3u
  87:Generated_Source\PSoC5/cyfitter_cfg.c **** 
  88:Generated_Source\PSoC5/cyfitter_cfg.c **** 
  89:Generated_Source\PSoC5/cyfitter_cfg.c **** #ifdef CY_NEED_CYCLOCKSTARTUPERROR
  90:Generated_Source\PSoC5/cyfitter_cfg.c **** /*******************************************************************************
  91:Generated_Source\PSoC5/cyfitter_cfg.c **** * Function Name: CyClockStartupError
  92:Generated_Source\PSoC5/cyfitter_cfg.c **** ********************************************************************************
  93:Generated_Source\PSoC5/cyfitter_cfg.c **** * Summary:
ARM GAS  C:\Users\LilRobby\AppData\Local\Temp\ccdIMQzd.s 			page 5


  94:Generated_Source\PSoC5/cyfitter_cfg.c **** *  If an error is encountered during clock configuration (crystal startup error,
  95:Generated_Source\PSoC5/cyfitter_cfg.c **** *  PLL lock error, etc.), the system will end up here.  Unless reimplemented by
  96:Generated_Source\PSoC5/cyfitter_cfg.c **** *  the customer, this function will stop in an infinite loop.
  97:Generated_Source\PSoC5/cyfitter_cfg.c **** *
  98:Generated_Source\PSoC5/cyfitter_cfg.c **** * Parameters:
  99:Generated_Source\PSoC5/cyfitter_cfg.c **** *   void
 100:Generated_Source\PSoC5/cyfitter_cfg.c **** *
 101:Generated_Source\PSoC5/cyfitter_cfg.c **** * Return:
 102:Generated_Source\PSoC5/cyfitter_cfg.c **** *   void
 103:Generated_Source\PSoC5/cyfitter_cfg.c **** *
 104:Generated_Source\PSoC5/cyfitter_cfg.c **** *******************************************************************************/
 105:Generated_Source\PSoC5/cyfitter_cfg.c **** CY_CFG_UNUSED
 106:Generated_Source\PSoC5/cyfitter_cfg.c **** static void CyClockStartupError(uint8 errorCode);
 107:Generated_Source\PSoC5/cyfitter_cfg.c **** CY_CFG_UNUSED
 108:Generated_Source\PSoC5/cyfitter_cfg.c **** static void CyClockStartupError(uint8 errorCode)
 109:Generated_Source\PSoC5/cyfitter_cfg.c **** {
 110:Generated_Source\PSoC5/cyfitter_cfg.c ****     /* To remove the compiler warning if errorCode not used.                */
 111:Generated_Source\PSoC5/cyfitter_cfg.c ****     errorCode = errorCode;
 112:Generated_Source\PSoC5/cyfitter_cfg.c **** 
 113:Generated_Source\PSoC5/cyfitter_cfg.c ****     /* If we have a clock startup error (bad MHz crystal, PLL lock, etc.),  */
 114:Generated_Source\PSoC5/cyfitter_cfg.c ****     /* we will end up here to allow the customer to implement something to  */
 115:Generated_Source\PSoC5/cyfitter_cfg.c ****     /* deal with the clock condition.                                       */
 116:Generated_Source\PSoC5/cyfitter_cfg.c **** 
 117:Generated_Source\PSoC5/cyfitter_cfg.c **** #ifdef CY_CFG_CLOCK_STARTUP_ERROR_CALLBACK
 118:Generated_Source\PSoC5/cyfitter_cfg.c **** 	CY_CFG_Clock_Startup_ErrorCallback();
 119:Generated_Source\PSoC5/cyfitter_cfg.c **** #else
 120:Generated_Source\PSoC5/cyfitter_cfg.c **** 	/*  If not using CY_CFG_CLOCK_STARTUP_ERROR_CALLBACK, place your clock startup code here. */
 121:Generated_Source\PSoC5/cyfitter_cfg.c ****     /* `#START CyClockStartupError` */
 122:Generated_Source\PSoC5/cyfitter_cfg.c **** 
 123:Generated_Source\PSoC5/cyfitter_cfg.c ****     /* If we have a clock startup error (bad MHz crystal, PLL lock, etc.),  */
 124:Generated_Source\PSoC5/cyfitter_cfg.c ****     /* we will end up here to allow the customer to implement something to  */
 125:Generated_Source\PSoC5/cyfitter_cfg.c ****     /* deal with the clock condition.                                       */
 126:Generated_Source\PSoC5/cyfitter_cfg.c **** 
 127:Generated_Source\PSoC5/cyfitter_cfg.c ****     /* `#END` */
 128:Generated_Source\PSoC5/cyfitter_cfg.c **** 
 129:Generated_Source\PSoC5/cyfitter_cfg.c ****     /* If nothing else, stop here since the clocks have not started         */
 130:Generated_Source\PSoC5/cyfitter_cfg.c ****     /* correctly.                                                           */
 131:Generated_Source\PSoC5/cyfitter_cfg.c ****     while(1) {}
 132:Generated_Source\PSoC5/cyfitter_cfg.c **** #endif /* CY_CFG_CLOCK_STARTUP_ERROR_CALLBACK */ 
 133:Generated_Source\PSoC5/cyfitter_cfg.c **** }
 134:Generated_Source\PSoC5/cyfitter_cfg.c **** #endif
 135:Generated_Source\PSoC5/cyfitter_cfg.c **** 
 136:Generated_Source\PSoC5/cyfitter_cfg.c **** #define CY_CFG_BASE_ADDR_COUNT 17u
 137:Generated_Source\PSoC5/cyfitter_cfg.c **** CYPACKED typedef struct
 138:Generated_Source\PSoC5/cyfitter_cfg.c **** {
 139:Generated_Source\PSoC5/cyfitter_cfg.c **** 	uint8 offset;
 140:Generated_Source\PSoC5/cyfitter_cfg.c **** 	uint8 value;
 141:Generated_Source\PSoC5/cyfitter_cfg.c **** } CYPACKED_ATTR cy_cfg_addrvalue_t;
 142:Generated_Source\PSoC5/cyfitter_cfg.c **** 
 143:Generated_Source\PSoC5/cyfitter_cfg.c **** #define cy_cfg_addr_table ((const uint32 CYFAR *)0x48000000u)
 144:Generated_Source\PSoC5/cyfitter_cfg.c **** #define cy_cfg_data_table ((const cy_cfg_addrvalue_t CYFAR *)0x48000044u)
 145:Generated_Source\PSoC5/cyfitter_cfg.c **** 
 146:Generated_Source\PSoC5/cyfitter_cfg.c **** /* UDB_0_4_0_CONFIG Address: CYDEV_UCFG_B0_P6_U1_BASE Size (bytes): 128 */
 147:Generated_Source\PSoC5/cyfitter_cfg.c **** #define BS_UDB_0_4_0_CONFIG_VAL ((const uint8 CYFAR *)0x48000200u)
 148:Generated_Source\PSoC5/cyfitter_cfg.c **** 
 149:Generated_Source\PSoC5/cyfitter_cfg.c **** /* IOPINS0_7 Address: CYREG_PRT12_DM0 Size (bytes): 8 */
 150:Generated_Source\PSoC5/cyfitter_cfg.c **** #define BS_IOPINS0_7_VAL ((const uint8 CYFAR *)0x48000280u)
ARM GAS  C:\Users\LilRobby\AppData\Local\Temp\ccdIMQzd.s 			page 6


 151:Generated_Source\PSoC5/cyfitter_cfg.c **** 
 152:Generated_Source\PSoC5/cyfitter_cfg.c **** /* IOPINS0_1 Address: CYREG_PRT1_DM0 Size (bytes): 8 */
 153:Generated_Source\PSoC5/cyfitter_cfg.c **** #define BS_IOPINS0_1_VAL ((const uint8 CYFAR *)0x48000288u)
 154:Generated_Source\PSoC5/cyfitter_cfg.c **** 
 155:Generated_Source\PSoC5/cyfitter_cfg.c **** /* IOPINS0_6 Address: CYREG_PRT6_DR Size (bytes): 10 */
 156:Generated_Source\PSoC5/cyfitter_cfg.c **** #define BS_IOPINS0_6_VAL ((const uint8 CYFAR *)0x48000290u)
 157:Generated_Source\PSoC5/cyfitter_cfg.c **** 
 158:Generated_Source\PSoC5/cyfitter_cfg.c **** 
 159:Generated_Source\PSoC5/cyfitter_cfg.c **** /*******************************************************************************
 160:Generated_Source\PSoC5/cyfitter_cfg.c **** * Function Name: cfg_write_bytes32
 161:Generated_Source\PSoC5/cyfitter_cfg.c **** ********************************************************************************
 162:Generated_Source\PSoC5/cyfitter_cfg.c **** * Summary:
 163:Generated_Source\PSoC5/cyfitter_cfg.c **** *  This function is used for setting up the chip configuration areas that
 164:Generated_Source\PSoC5/cyfitter_cfg.c **** *  contain relatively sparse data.
 165:Generated_Source\PSoC5/cyfitter_cfg.c **** *
 166:Generated_Source\PSoC5/cyfitter_cfg.c **** * Parameters:
 167:Generated_Source\PSoC5/cyfitter_cfg.c **** *   void
 168:Generated_Source\PSoC5/cyfitter_cfg.c **** *
 169:Generated_Source\PSoC5/cyfitter_cfg.c **** * Return:
 170:Generated_Source\PSoC5/cyfitter_cfg.c **** *   void
 171:Generated_Source\PSoC5/cyfitter_cfg.c **** *
 172:Generated_Source\PSoC5/cyfitter_cfg.c **** *******************************************************************************/
 173:Generated_Source\PSoC5/cyfitter_cfg.c **** static void cfg_write_bytes32(const uint32 addr_table[], const cy_cfg_addrvalue_t data_table[]);
 174:Generated_Source\PSoC5/cyfitter_cfg.c **** static void cfg_write_bytes32(const uint32 addr_table[], const cy_cfg_addrvalue_t data_table[])
 175:Generated_Source\PSoC5/cyfitter_cfg.c **** {
 136              		.loc 1 175 0
 137              		.cfi_startproc
 138              		@ args = 0, pretend = 0, frame = 24
 139              		@ frame_needed = 1, uses_anonymous_args = 0
 140              		@ link register save eliminated.
 141 0000 80B4     		push	{r7}
 142              		.cfi_def_cfa_offset 4
 143              		.cfi_offset 7, -4
 144 0002 87B0     		sub	sp, sp, #28
 145              		.cfi_def_cfa_offset 32
 146 0004 00AF     		add	r7, sp, #0
 147              		.cfi_def_cfa_register 7
 148 0006 7860     		str	r0, [r7, #4]
 149 0008 3960     		str	r1, [r7]
 176:Generated_Source\PSoC5/cyfitter_cfg.c **** 	/* For 32-bit little-endian architectures */
 177:Generated_Source\PSoC5/cyfitter_cfg.c **** 	uint32 i, j = 0u;
 150              		.loc 1 177 0
 151 000a 0023     		movs	r3, #0
 152 000c 3B61     		str	r3, [r7, #16]
 178:Generated_Source\PSoC5/cyfitter_cfg.c **** 	for (i = 0u; i < CY_CFG_BASE_ADDR_COUNT; i++)
 153              		.loc 1 178 0
 154 000e 0023     		movs	r3, #0
 155 0010 7B61     		str	r3, [r7, #20]
 156 0012 27E0     		b	.L5
 157              	.L8:
 158              	.LBB2:
 179:Generated_Source\PSoC5/cyfitter_cfg.c **** 	{
 180:Generated_Source\PSoC5/cyfitter_cfg.c **** 		uint32 baseAddr = addr_table[i];
 159              		.loc 1 180 0
 160 0014 7B69     		ldr	r3, [r7, #20]
 161 0016 9B00     		lsls	r3, r3, #2
 162 0018 7A68     		ldr	r2, [r7, #4]
ARM GAS  C:\Users\LilRobby\AppData\Local\Temp\ccdIMQzd.s 			page 7


 163 001a 1344     		add	r3, r3, r2
 164 001c 1B68     		ldr	r3, [r3]
 165 001e BB60     		str	r3, [r7, #8]
 181:Generated_Source\PSoC5/cyfitter_cfg.c **** 		uint8 count = (uint8)baseAddr;
 166              		.loc 1 181 0
 167 0020 BB68     		ldr	r3, [r7, #8]
 168 0022 FB73     		strb	r3, [r7, #15]
 182:Generated_Source\PSoC5/cyfitter_cfg.c **** 		baseAddr &= 0xFFFFFF00u;
 169              		.loc 1 182 0
 170 0024 BB68     		ldr	r3, [r7, #8]
 171 0026 23F0FF03 		bic	r3, r3, #255
 172 002a BB60     		str	r3, [r7, #8]
 183:Generated_Source\PSoC5/cyfitter_cfg.c **** 		while (count != 0u)
 173              		.loc 1 183 0
 174 002c 14E0     		b	.L6
 175              	.L7:
 184:Generated_Source\PSoC5/cyfitter_cfg.c **** 		{
 185:Generated_Source\PSoC5/cyfitter_cfg.c **** 			CY_SET_XTND_REG8((void CYFAR *)(baseAddr + data_table[j].offset), data_table[j].value);
 176              		.loc 1 185 0
 177 002e 3B69     		ldr	r3, [r7, #16]
 178 0030 5B00     		lsls	r3, r3, #1
 179 0032 3A68     		ldr	r2, [r7]
 180 0034 1344     		add	r3, r3, r2
 181 0036 1B78     		ldrb	r3, [r3]	@ zero_extendqisi2
 182 0038 1A46     		mov	r2, r3
 183 003a BB68     		ldr	r3, [r7, #8]
 184 003c 1344     		add	r3, r3, r2
 185 003e 1946     		mov	r1, r3
 186 0040 3B69     		ldr	r3, [r7, #16]
 187 0042 5B00     		lsls	r3, r3, #1
 188 0044 3A68     		ldr	r2, [r7]
 189 0046 1344     		add	r3, r3, r2
 190 0048 5B78     		ldrb	r3, [r3, #1]	@ zero_extendqisi2
 191 004a 0B70     		strb	r3, [r1]
 186:Generated_Source\PSoC5/cyfitter_cfg.c **** 			j++;
 192              		.loc 1 186 0
 193 004c 3B69     		ldr	r3, [r7, #16]
 194 004e 0133     		adds	r3, r3, #1
 195 0050 3B61     		str	r3, [r7, #16]
 187:Generated_Source\PSoC5/cyfitter_cfg.c **** 			count--;
 196              		.loc 1 187 0
 197 0052 FB7B     		ldrb	r3, [r7, #15]	@ zero_extendqisi2
 198 0054 013B     		subs	r3, r3, #1
 199 0056 FB73     		strb	r3, [r7, #15]
 200              	.L6:
 183:Generated_Source\PSoC5/cyfitter_cfg.c **** 		{
 201              		.loc 1 183 0
 202 0058 FB7B     		ldrb	r3, [r7, #15]	@ zero_extendqisi2
 203 005a 002B     		cmp	r3, #0
 204 005c E7D1     		bne	.L7
 205              	.LBE2:
 178:Generated_Source\PSoC5/cyfitter_cfg.c **** 	{
 206              		.loc 1 178 0 discriminator 2
 207 005e 7B69     		ldr	r3, [r7, #20]
 208 0060 0133     		adds	r3, r3, #1
 209 0062 7B61     		str	r3, [r7, #20]
 210              	.L5:
ARM GAS  C:\Users\LilRobby\AppData\Local\Temp\ccdIMQzd.s 			page 8


 178:Generated_Source\PSoC5/cyfitter_cfg.c **** 	{
 211              		.loc 1 178 0 is_stmt 0 discriminator 1
 212 0064 7B69     		ldr	r3, [r7, #20]
 213 0066 102B     		cmp	r3, #16
 214 0068 D4D9     		bls	.L8
 188:Generated_Source\PSoC5/cyfitter_cfg.c **** 		}
 189:Generated_Source\PSoC5/cyfitter_cfg.c **** 	}
 190:Generated_Source\PSoC5/cyfitter_cfg.c **** }
 215              		.loc 1 190 0 is_stmt 1
 216 006a 1C37     		adds	r7, r7, #28
 217              		.cfi_def_cfa_offset 4
 218 006c BD46     		mov	sp, r7
 219              		.cfi_def_cfa_register 13
 220              		@ sp needed
 221 006e 5DF8047B 		ldr	r7, [sp], #4
 222              		.cfi_restore 7
 223              		.cfi_def_cfa_offset 0
 224 0072 7047     		bx	lr
 225              		.cfi_endproc
 226              	.LFE3:
 227              		.size	cfg_write_bytes32, .-cfg_write_bytes32
 228              		.section	.text.ClockSetup,"ax",%progbits
 229              		.align	2
 230              		.thumb
 231              		.thumb_func
 232              		.type	ClockSetup, %function
 233              	ClockSetup:
 234              	.LFB4:
 191:Generated_Source\PSoC5/cyfitter_cfg.c **** 
 192:Generated_Source\PSoC5/cyfitter_cfg.c **** /*******************************************************************************
 193:Generated_Source\PSoC5/cyfitter_cfg.c **** * Function Name: ClockSetup
 194:Generated_Source\PSoC5/cyfitter_cfg.c **** ********************************************************************************
 195:Generated_Source\PSoC5/cyfitter_cfg.c **** *
 196:Generated_Source\PSoC5/cyfitter_cfg.c **** * Summary:
 197:Generated_Source\PSoC5/cyfitter_cfg.c **** *  Performs the initialization of all of the clocks in the device based on the
 198:Generated_Source\PSoC5/cyfitter_cfg.c **** *  settings in the Clock tab of the DWR.  This includes enabling the requested
 199:Generated_Source\PSoC5/cyfitter_cfg.c **** *  clocks and setting the necessary dividers to produce the desired frequency. 
 200:Generated_Source\PSoC5/cyfitter_cfg.c **** *
 201:Generated_Source\PSoC5/cyfitter_cfg.c **** * Parameters:
 202:Generated_Source\PSoC5/cyfitter_cfg.c **** *  void
 203:Generated_Source\PSoC5/cyfitter_cfg.c **** *
 204:Generated_Source\PSoC5/cyfitter_cfg.c **** * Return:
 205:Generated_Source\PSoC5/cyfitter_cfg.c **** *  void
 206:Generated_Source\PSoC5/cyfitter_cfg.c **** *
 207:Generated_Source\PSoC5/cyfitter_cfg.c **** *******************************************************************************/
 208:Generated_Source\PSoC5/cyfitter_cfg.c **** static void ClockSetup(void);
 209:Generated_Source\PSoC5/cyfitter_cfg.c **** static void ClockSetup(void)
 210:Generated_Source\PSoC5/cyfitter_cfg.c **** {
 235              		.loc 1 210 0
 236              		.cfi_startproc
 237              		@ args = 0, pretend = 0, frame = 8
 238              		@ frame_needed = 1, uses_anonymous_args = 0
 239 0000 80B5     		push	{r7, lr}
 240              		.cfi_def_cfa_offset 8
 241              		.cfi_offset 7, -8
 242              		.cfi_offset 14, -4
 243 0002 82B0     		sub	sp, sp, #8
ARM GAS  C:\Users\LilRobby\AppData\Local\Temp\ccdIMQzd.s 			page 9


 244              		.cfi_def_cfa_offset 16
 245 0004 00AF     		add	r7, sp, #0
 246              		.cfi_def_cfa_register 7
 211:Generated_Source\PSoC5/cyfitter_cfg.c **** 	uint32 timeout;
 212:Generated_Source\PSoC5/cyfitter_cfg.c **** 	uint8 pllLock;
 213:Generated_Source\PSoC5/cyfitter_cfg.c **** 
 214:Generated_Source\PSoC5/cyfitter_cfg.c **** 
 215:Generated_Source\PSoC5/cyfitter_cfg.c **** 	/* Configure Digital Clocks based on settings from Clock DWR */
 216:Generated_Source\PSoC5/cyfitter_cfg.c **** 	CY_SET_XTND_REG16((void CYFAR *)(CYREG_CLKDIST_DCFG0_CFG0), 0x0000u);
 247              		.loc 1 216 0
 248 0006 2C4B     		ldr	r3, .L13
 249 0008 0022     		movs	r2, #0
 250 000a 1A80     		strh	r2, [r3]	@ movhi
 217:Generated_Source\PSoC5/cyfitter_cfg.c **** 	CY_SET_XTND_REG8((void CYFAR *)(CYREG_CLKDIST_DCFG0_CFG0 + 0x2u), 0x58u);
 251              		.loc 1 217 0
 252 000c 2B4B     		ldr	r3, .L13+4
 253 000e 5822     		movs	r2, #88
 254 0010 1A70     		strb	r2, [r3]
 218:Generated_Source\PSoC5/cyfitter_cfg.c **** 
 219:Generated_Source\PSoC5/cyfitter_cfg.c **** 	/* Configure ILO based on settings from Clock DWR */
 220:Generated_Source\PSoC5/cyfitter_cfg.c **** 	CY_SET_XTND_REG8((void CYFAR *)(CYREG_SLOWCLK_ILO_CR0), 0x06u);
 255              		.loc 1 220 0
 256 0012 2B4B     		ldr	r3, .L13+8
 257 0014 0622     		movs	r2, #6
 258 0016 1A70     		strb	r2, [r3]
 221:Generated_Source\PSoC5/cyfitter_cfg.c **** 
 222:Generated_Source\PSoC5/cyfitter_cfg.c **** 	/* Configure IMO based on settings from Clock DWR */
 223:Generated_Source\PSoC5/cyfitter_cfg.c **** 	CY_SET_XTND_REG8((void CYFAR *)(CYREG_FASTCLK_IMO_CR), 0x52u);
 259              		.loc 1 223 0
 260 0018 2A4B     		ldr	r3, .L13+12
 261 001a 5222     		movs	r2, #82
 262 001c 1A70     		strb	r2, [r3]
 224:Generated_Source\PSoC5/cyfitter_cfg.c **** 	CY_SET_XTND_REG8((void CYFAR *)(CYREG_IMO_TR1), (CY_GET_XTND_REG8((void CYFAR *)CYREG_FLSHID_CUST_
 263              		.loc 1 224 0
 264 001e 2A4B     		ldr	r3, .L13+16
 265 0020 2A4A     		ldr	r2, .L13+20
 266 0022 1278     		ldrb	r2, [r2]
 267 0024 D2B2     		uxtb	r2, r2
 268 0026 1A70     		strb	r2, [r3]
 225:Generated_Source\PSoC5/cyfitter_cfg.c **** 
 226:Generated_Source\PSoC5/cyfitter_cfg.c **** 	/* Configure Bus/Master Clock based on settings from Clock DWR */
 227:Generated_Source\PSoC5/cyfitter_cfg.c **** 	CY_SET_XTND_REG16((void CYFAR *)(CYREG_CLKDIST_MSTR0), 0x0000u);
 269              		.loc 1 227 0
 270 0028 294B     		ldr	r3, .L13+24
 271 002a 0022     		movs	r2, #0
 272 002c 1A80     		strh	r2, [r3]	@ movhi
 228:Generated_Source\PSoC5/cyfitter_cfg.c **** 
 229:Generated_Source\PSoC5/cyfitter_cfg.c **** 	/* Configure PLL based on settings from Clock DWR */
 230:Generated_Source\PSoC5/cyfitter_cfg.c **** 	CY_SET_XTND_REG16((void CYFAR *)(CYREG_FASTCLK_PLL_P), 0x0708u);
 273              		.loc 1 230 0
 274 002e 294B     		ldr	r3, .L13+28
 275 0030 4FF4E162 		mov	r2, #1800
 276 0034 1A80     		strh	r2, [r3]	@ movhi
 231:Generated_Source\PSoC5/cyfitter_cfg.c **** 	CY_SET_XTND_REG16((void CYFAR *)(CYREG_FASTCLK_PLL_CFG0), 0x1251u);
 277              		.loc 1 231 0
 278 0036 284B     		ldr	r3, .L13+32
 279 0038 41F25122 		movw	r2, #4689
ARM GAS  C:\Users\LilRobby\AppData\Local\Temp\ccdIMQzd.s 			page 10


 280 003c 1A80     		strh	r2, [r3]	@ movhi
 232:Generated_Source\PSoC5/cyfitter_cfg.c **** 	/* Wait up to 250us for the PLL to lock */
 233:Generated_Source\PSoC5/cyfitter_cfg.c **** 	pllLock = 0u;
 281              		.loc 1 233 0
 282 003e 0023     		movs	r3, #0
 283 0040 FB70     		strb	r3, [r7, #3]
 234:Generated_Source\PSoC5/cyfitter_cfg.c **** 	for (timeout = 250u / 10u; (timeout > 0u) && (pllLock != 0x03u); timeout--)
 284              		.loc 1 234 0
 285 0042 1923     		movs	r3, #25
 286 0044 7B60     		str	r3, [r7, #4]
 287 0046 14E0     		b	.L10
 288              	.L12:
 235:Generated_Source\PSoC5/cyfitter_cfg.c **** 	{ 
 236:Generated_Source\PSoC5/cyfitter_cfg.c **** 		pllLock = 0x03u & ((uint8)((uint8)pllLock << 1) | ((CY_GET_XTND_REG8((void CYFAR *)CYREG_FASTCLK_
 289              		.loc 1 236 0 discriminator 4
 290 0048 FB78     		ldrb	r3, [r7, #3]
 291 004a 5B00     		lsls	r3, r3, #1
 292 004c DAB2     		uxtb	r2, r3
 293 004e 234B     		ldr	r3, .L13+36
 294 0050 1B78     		ldrb	r3, [r3]
 295 0052 DBB2     		uxtb	r3, r3
 296 0054 03F00103 		and	r3, r3, #1
 297 0058 DBB2     		uxtb	r3, r3
 298 005a 1343     		orrs	r3, r3, r2
 299 005c DBB2     		uxtb	r3, r3
 300 005e 03F00303 		and	r3, r3, #3
 301 0062 FB70     		strb	r3, [r7, #3]
 237:Generated_Source\PSoC5/cyfitter_cfg.c **** 		CyDelayCycles(10u * 48u); /* Delay 10us based on 48MHz clock */
 302              		.loc 1 237 0 discriminator 4
 303 0064 4FF4F070 		mov	r0, #480
 304 0068 FFF7FEFF 		bl	CyDelayCycles
 234:Generated_Source\PSoC5/cyfitter_cfg.c **** 	for (timeout = 250u / 10u; (timeout > 0u) && (pllLock != 0x03u); timeout--)
 305              		.loc 1 234 0 discriminator 4
 306 006c 7B68     		ldr	r3, [r7, #4]
 307 006e 013B     		subs	r3, r3, #1
 308 0070 7B60     		str	r3, [r7, #4]
 309              	.L10:
 234:Generated_Source\PSoC5/cyfitter_cfg.c **** 	for (timeout = 250u / 10u; (timeout > 0u) && (pllLock != 0x03u); timeout--)
 310              		.loc 1 234 0 is_stmt 0 discriminator 1
 311 0072 7B68     		ldr	r3, [r7, #4]
 312 0074 002B     		cmp	r3, #0
 313 0076 02D0     		beq	.L11
 234:Generated_Source\PSoC5/cyfitter_cfg.c **** 	for (timeout = 250u / 10u; (timeout > 0u) && (pllLock != 0x03u); timeout--)
 314              		.loc 1 234 0 discriminator 3
 315 0078 FB78     		ldrb	r3, [r7, #3]	@ zero_extendqisi2
 316 007a 032B     		cmp	r3, #3
 317 007c E4D1     		bne	.L12
 318              	.L11:
 238:Generated_Source\PSoC5/cyfitter_cfg.c **** 	}
 239:Generated_Source\PSoC5/cyfitter_cfg.c **** 	CY_SET_XTND_REG8((void CYFAR *)(CYREG_CLKDIST_MSTR0), 0x07u);
 319              		.loc 1 239 0 is_stmt 1
 320 007e 144B     		ldr	r3, .L13+24
 321 0080 0722     		movs	r2, #7
 322 0082 1A70     		strb	r2, [r3]
 240:Generated_Source\PSoC5/cyfitter_cfg.c **** 	CY_SET_XTND_REG8((void CYFAR *)(CYREG_CLKDIST_BCFG0), 0x00u);
 323              		.loc 1 240 0
 324 0084 164B     		ldr	r3, .L13+40
ARM GAS  C:\Users\LilRobby\AppData\Local\Temp\ccdIMQzd.s 			page 11


 325 0086 0022     		movs	r2, #0
 326 0088 1A70     		strb	r2, [r3]
 241:Generated_Source\PSoC5/cyfitter_cfg.c **** 	CY_SET_XTND_REG8((void CYFAR *)(CYREG_CLKDIST_BCFG2), 0x48u);
 327              		.loc 1 241 0
 328 008a 164B     		ldr	r3, .L13+44
 329 008c 4822     		movs	r2, #72
 330 008e 1A70     		strb	r2, [r3]
 242:Generated_Source\PSoC5/cyfitter_cfg.c **** 	CY_SET_XTND_REG8((void CYFAR *)(CYREG_CLKDIST_MSTR0), 0x00u);
 331              		.loc 1 242 0
 332 0090 0F4B     		ldr	r3, .L13+24
 333 0092 0022     		movs	r2, #0
 334 0094 1A70     		strb	r2, [r3]
 243:Generated_Source\PSoC5/cyfitter_cfg.c **** 
 244:Generated_Source\PSoC5/cyfitter_cfg.c **** 	/* Configure USB Clock based on settings from Clock DWR */
 245:Generated_Source\PSoC5/cyfitter_cfg.c **** 	CY_SET_XTND_REG8((void CYFAR *)(CYREG_CLKDIST_UCFG), 0x00u);
 335              		.loc 1 245 0
 336 0096 144B     		ldr	r3, .L13+48
 337 0098 0022     		movs	r2, #0
 338 009a 1A70     		strb	r2, [r3]
 246:Generated_Source\PSoC5/cyfitter_cfg.c **** 	CY_SET_XTND_REG8((void CYFAR *)(CYREG_CLKDIST_LD), 0x02u);
 339              		.loc 1 246 0
 340 009c 134B     		ldr	r3, .L13+52
 341 009e 0222     		movs	r2, #2
 342 00a0 1A70     		strb	r2, [r3]
 247:Generated_Source\PSoC5/cyfitter_cfg.c **** 
 248:Generated_Source\PSoC5/cyfitter_cfg.c **** 	CY_SET_XTND_REG8((void CYFAR *)(CYREG_PM_ACT_CFG2), ((CY_GET_XTND_REG8((void CYFAR *)CYREG_PM_ACT_
 343              		.loc 1 248 0
 344 00a2 134A     		ldr	r2, .L13+56
 345 00a4 124B     		ldr	r3, .L13+56
 346 00a6 1B78     		ldrb	r3, [r3]
 347 00a8 DBB2     		uxtb	r3, r3
 348 00aa 43F00103 		orr	r3, r3, #1
 349 00ae DBB2     		uxtb	r3, r3
 350 00b0 1370     		strb	r3, [r2]
 249:Generated_Source\PSoC5/cyfitter_cfg.c **** }
 351              		.loc 1 249 0
 352 00b2 0837     		adds	r7, r7, #8
 353              		.cfi_def_cfa_offset 8
 354 00b4 BD46     		mov	sp, r7
 355              		.cfi_def_cfa_register 13
 356              		@ sp needed
 357 00b6 80BD     		pop	{r7, pc}
 358              	.L14:
 359              		.align	2
 360              	.L13:
 361 00b8 80400040 		.word	1073758336
 362 00bc 82400040 		.word	1073758338
 363 00c0 00430040 		.word	1073758976
 364 00c4 00420040 		.word	1073758720
 365 00c8 A1460040 		.word	1073759905
 366 00cc 0F010049 		.word	1224737039
 367 00d0 04400040 		.word	1073758212
 368 00d4 22420040 		.word	1073758754
 369 00d8 20420040 		.word	1073758752
 370 00dc 25420040 		.word	1073758757
 371 00e0 06400040 		.word	1073758214
 372 00e4 08400040 		.word	1073758216
ARM GAS  C:\Users\LilRobby\AppData\Local\Temp\ccdIMQzd.s 			page 12


 373 00e8 09400040 		.word	1073758217
 374 00ec 01400040 		.word	1073758209
 375 00f0 A2430040 		.word	1073759138
 376              		.cfi_endproc
 377              	.LFE4:
 378              		.size	ClockSetup, .-ClockSetup
 379              		.section	.text.AnalogSetDefault,"ax",%progbits
 380              		.align	2
 381              		.thumb
 382              		.thumb_func
 383              		.type	AnalogSetDefault, %function
 384              	AnalogSetDefault:
 385              	.LFB5:
 250:Generated_Source\PSoC5/cyfitter_cfg.c **** 
 251:Generated_Source\PSoC5/cyfitter_cfg.c **** 
 252:Generated_Source\PSoC5/cyfitter_cfg.c **** /* Analog API Functions */
 253:Generated_Source\PSoC5/cyfitter_cfg.c **** 
 254:Generated_Source\PSoC5/cyfitter_cfg.c **** 
 255:Generated_Source\PSoC5/cyfitter_cfg.c **** /*******************************************************************************
 256:Generated_Source\PSoC5/cyfitter_cfg.c **** * Function Name: AnalogSetDefault
 257:Generated_Source\PSoC5/cyfitter_cfg.c **** ********************************************************************************
 258:Generated_Source\PSoC5/cyfitter_cfg.c **** *
 259:Generated_Source\PSoC5/cyfitter_cfg.c **** * Summary:
 260:Generated_Source\PSoC5/cyfitter_cfg.c **** *  Sets up the analog portions of the chip to default values based on chip
 261:Generated_Source\PSoC5/cyfitter_cfg.c **** *  configuration options from the project.
 262:Generated_Source\PSoC5/cyfitter_cfg.c **** *
 263:Generated_Source\PSoC5/cyfitter_cfg.c **** * Parameters:
 264:Generated_Source\PSoC5/cyfitter_cfg.c **** *  void
 265:Generated_Source\PSoC5/cyfitter_cfg.c **** *
 266:Generated_Source\PSoC5/cyfitter_cfg.c **** * Return:
 267:Generated_Source\PSoC5/cyfitter_cfg.c **** *  void
 268:Generated_Source\PSoC5/cyfitter_cfg.c **** *
 269:Generated_Source\PSoC5/cyfitter_cfg.c **** *******************************************************************************/
 270:Generated_Source\PSoC5/cyfitter_cfg.c **** static void AnalogSetDefault(void);
 271:Generated_Source\PSoC5/cyfitter_cfg.c **** static void AnalogSetDefault(void)
 272:Generated_Source\PSoC5/cyfitter_cfg.c **** {
 386              		.loc 1 272 0
 387              		.cfi_startproc
 388              		@ args = 0, pretend = 0, frame = 8
 389              		@ frame_needed = 1, uses_anonymous_args = 0
 390              		@ link register save eliminated.
 391 0000 80B4     		push	{r7}
 392              		.cfi_def_cfa_offset 4
 393              		.cfi_offset 7, -4
 394 0002 83B0     		sub	sp, sp, #12
 395              		.cfi_def_cfa_offset 16
 396 0004 00AF     		add	r7, sp, #0
 397              		.cfi_def_cfa_register 7
 273:Generated_Source\PSoC5/cyfitter_cfg.c **** 	uint8 bg_xover_inl_trim = CY_GET_XTND_REG8((void CYFAR *)(CYREG_FLSHID_MFG_CFG_BG_XOVER_INL_TRIM +
 398              		.loc 1 273 0
 399 0006 0B4B     		ldr	r3, .L16
 400 0008 1B78     		ldrb	r3, [r3]
 401 000a FB71     		strb	r3, [r7, #7]
 274:Generated_Source\PSoC5/cyfitter_cfg.c **** 	CY_SET_XTND_REG8((void CYFAR *)(CYREG_BG_DFT0), (bg_xover_inl_trim & 0x07u));
 402              		.loc 1 274 0
 403 000c 0A4A     		ldr	r2, .L16+4
 404 000e FB79     		ldrb	r3, [r7, #7]
ARM GAS  C:\Users\LilRobby\AppData\Local\Temp\ccdIMQzd.s 			page 13


 405 0010 03F00703 		and	r3, r3, #7
 406 0014 DBB2     		uxtb	r3, r3
 407 0016 1370     		strb	r3, [r2]
 275:Generated_Source\PSoC5/cyfitter_cfg.c **** 	CY_SET_XTND_REG8((void CYFAR *)(CYREG_BG_DFT1), ((bg_xover_inl_trim >> 4) & 0x0Fu));
 408              		.loc 1 275 0
 409 0018 084A     		ldr	r2, .L16+8
 410 001a FB79     		ldrb	r3, [r7, #7]	@ zero_extendqisi2
 411 001c 1B09     		lsrs	r3, r3, #4
 412 001e DBB2     		uxtb	r3, r3
 413 0020 1370     		strb	r3, [r2]
 276:Generated_Source\PSoC5/cyfitter_cfg.c **** 	CY_SET_XTND_REG8((void CYFAR *)CYREG_PUMP_CR0, 0x44u);
 414              		.loc 1 276 0
 415 0022 074B     		ldr	r3, .L16+12
 416 0024 4422     		movs	r2, #68
 417 0026 1A70     		strb	r2, [r3]
 277:Generated_Source\PSoC5/cyfitter_cfg.c **** }
 418              		.loc 1 277 0
 419 0028 0C37     		adds	r7, r7, #12
 420              		.cfi_def_cfa_offset 4
 421 002a BD46     		mov	sp, r7
 422              		.cfi_def_cfa_register 13
 423              		@ sp needed
 424 002c 5DF8047B 		ldr	r7, [sp], #4
 425              		.cfi_restore 7
 426              		.cfi_def_cfa_offset 0
 427 0030 7047     		bx	lr
 428              	.L17:
 429 0032 00BF     		.align	2
 430              	.L16:
 431 0034 CF010049 		.word	1224737231
 432 0038 6E580040 		.word	1073764462
 433 003c 6F580040 		.word	1073764463
 434 0040 76580040 		.word	1073764470
 435              		.cfi_endproc
 436              	.LFE5:
 437              		.size	AnalogSetDefault, .-AnalogSetDefault
 438              		.section	.text.SetAnalogRoutingPumps,"ax",%progbits
 439              		.align	2
 440              		.global	SetAnalogRoutingPumps
 441              		.thumb
 442              		.thumb_func
 443              		.type	SetAnalogRoutingPumps, %function
 444              	SetAnalogRoutingPumps:
 445              	.LFB6:
 278:Generated_Source\PSoC5/cyfitter_cfg.c **** 
 279:Generated_Source\PSoC5/cyfitter_cfg.c **** 
 280:Generated_Source\PSoC5/cyfitter_cfg.c **** /*******************************************************************************
 281:Generated_Source\PSoC5/cyfitter_cfg.c **** * Function Name: SetAnalogRoutingPumps
 282:Generated_Source\PSoC5/cyfitter_cfg.c **** ********************************************************************************
 283:Generated_Source\PSoC5/cyfitter_cfg.c **** *
 284:Generated_Source\PSoC5/cyfitter_cfg.c **** * Summary:
 285:Generated_Source\PSoC5/cyfitter_cfg.c **** * Enables or disables the analog pumps feeding analog routing switches.
 286:Generated_Source\PSoC5/cyfitter_cfg.c **** * Intended to be called at startup, based on the Vdda system configuration;
 287:Generated_Source\PSoC5/cyfitter_cfg.c **** * may be called during operation when the user informs us that the Vdda voltage
 288:Generated_Source\PSoC5/cyfitter_cfg.c **** * crossed the pump threshold.
 289:Generated_Source\PSoC5/cyfitter_cfg.c **** *
 290:Generated_Source\PSoC5/cyfitter_cfg.c **** * Parameters:
ARM GAS  C:\Users\LilRobby\AppData\Local\Temp\ccdIMQzd.s 			page 14


 291:Generated_Source\PSoC5/cyfitter_cfg.c **** *  enabled - 1 to enable the pumps, 0 to disable the pumps
 292:Generated_Source\PSoC5/cyfitter_cfg.c **** *
 293:Generated_Source\PSoC5/cyfitter_cfg.c **** * Return:
 294:Generated_Source\PSoC5/cyfitter_cfg.c **** *  void
 295:Generated_Source\PSoC5/cyfitter_cfg.c **** *
 296:Generated_Source\PSoC5/cyfitter_cfg.c **** *******************************************************************************/
 297:Generated_Source\PSoC5/cyfitter_cfg.c **** void SetAnalogRoutingPumps(uint8 enabled)
 298:Generated_Source\PSoC5/cyfitter_cfg.c **** {
 446              		.loc 1 298 0
 447              		.cfi_startproc
 448              		@ args = 0, pretend = 0, frame = 16
 449              		@ frame_needed = 1, uses_anonymous_args = 0
 450              		@ link register save eliminated.
 451 0000 80B4     		push	{r7}
 452              		.cfi_def_cfa_offset 4
 453              		.cfi_offset 7, -4
 454 0002 85B0     		sub	sp, sp, #20
 455              		.cfi_def_cfa_offset 24
 456 0004 00AF     		add	r7, sp, #0
 457              		.cfi_def_cfa_register 7
 458 0006 0346     		mov	r3, r0
 459 0008 FB71     		strb	r3, [r7, #7]
 299:Generated_Source\PSoC5/cyfitter_cfg.c **** 	uint8 regValue = CY_GET_XTND_REG8((void CYFAR *)CYREG_PUMP_CR0);
 460              		.loc 1 299 0
 461 000a 064B     		ldr	r3, .L21
 462 000c 1B78     		ldrb	r3, [r3]
 463 000e FB73     		strb	r3, [r7, #15]
 300:Generated_Source\PSoC5/cyfitter_cfg.c **** 	if (enabled != 0u)
 464              		.loc 1 300 0
 465 0010 FB79     		ldrb	r3, [r7, #7]	@ zero_extendqisi2
 466 0012 002B     		cmp	r3, #0
 301:Generated_Source\PSoC5/cyfitter_cfg.c **** 	{
 302:Generated_Source\PSoC5/cyfitter_cfg.c **** 		regValue |= 0x00u;
 303:Generated_Source\PSoC5/cyfitter_cfg.c **** 	}
 304:Generated_Source\PSoC5/cyfitter_cfg.c **** 	else
 305:Generated_Source\PSoC5/cyfitter_cfg.c **** 	{
 306:Generated_Source\PSoC5/cyfitter_cfg.c **** 		regValue &= (uint8)~0x00u;
 307:Generated_Source\PSoC5/cyfitter_cfg.c **** 	}
 308:Generated_Source\PSoC5/cyfitter_cfg.c **** 	CY_SET_XTND_REG8((void CYFAR *)CYREG_PUMP_CR0, regValue);
 467              		.loc 1 308 0
 468 0014 034A     		ldr	r2, .L21
 469 0016 FB7B     		ldrb	r3, [r7, #15]
 470 0018 1370     		strb	r3, [r2]
 309:Generated_Source\PSoC5/cyfitter_cfg.c **** }
 471              		.loc 1 309 0
 472 001a 1437     		adds	r7, r7, #20
 473              		.cfi_def_cfa_offset 4
 474 001c BD46     		mov	sp, r7
 475              		.cfi_def_cfa_register 13
 476              		@ sp needed
 477 001e 5DF8047B 		ldr	r7, [sp], #4
 478              		.cfi_restore 7
 479              		.cfi_def_cfa_offset 0
 480 0022 7047     		bx	lr
 481              	.L22:
 482              		.align	2
 483              	.L21:
ARM GAS  C:\Users\LilRobby\AppData\Local\Temp\ccdIMQzd.s 			page 15


 484 0024 76580040 		.word	1073764470
 485              		.cfi_endproc
 486              	.LFE6:
 487              		.size	SetAnalogRoutingPumps, .-SetAnalogRoutingPumps
 488              		.section	.text.cyfitter_cfg,"ax",%progbits
 489              		.align	2
 490              		.global	cyfitter_cfg
 491              		.thumb
 492              		.thumb_func
 493              		.type	cyfitter_cfg, %function
 494              	cyfitter_cfg:
 495              	.LFB7:
 310:Generated_Source\PSoC5/cyfitter_cfg.c **** 
 311:Generated_Source\PSoC5/cyfitter_cfg.c **** #define CY_AMUX_UNUSED CYREG_BOOST_SR
 312:Generated_Source\PSoC5/cyfitter_cfg.c **** 
 313:Generated_Source\PSoC5/cyfitter_cfg.c **** 
 314:Generated_Source\PSoC5/cyfitter_cfg.c **** /*******************************************************************************
 315:Generated_Source\PSoC5/cyfitter_cfg.c **** * Function Name: cyfitter_cfg
 316:Generated_Source\PSoC5/cyfitter_cfg.c **** ********************************************************************************
 317:Generated_Source\PSoC5/cyfitter_cfg.c **** * Summary:
 318:Generated_Source\PSoC5/cyfitter_cfg.c **** *  This function is called by the start-up code for the selected device. It
 319:Generated_Source\PSoC5/cyfitter_cfg.c **** *  performs all of the necessary device configuration based on the design
 320:Generated_Source\PSoC5/cyfitter_cfg.c **** *  settings.  This includes settings from the Design Wide Resources (DWR) such
 321:Generated_Source\PSoC5/cyfitter_cfg.c **** *  as Clocks and Pins as well as any component configuration that is necessary.
 322:Generated_Source\PSoC5/cyfitter_cfg.c **** *
 323:Generated_Source\PSoC5/cyfitter_cfg.c **** * Parameters:  
 324:Generated_Source\PSoC5/cyfitter_cfg.c **** *   void
 325:Generated_Source\PSoC5/cyfitter_cfg.c **** *
 326:Generated_Source\PSoC5/cyfitter_cfg.c **** * Return:
 327:Generated_Source\PSoC5/cyfitter_cfg.c **** *   void
 328:Generated_Source\PSoC5/cyfitter_cfg.c **** *
 329:Generated_Source\PSoC5/cyfitter_cfg.c **** *******************************************************************************/
 330:Generated_Source\PSoC5/cyfitter_cfg.c **** 
 331:Generated_Source\PSoC5/cyfitter_cfg.c **** void cyfitter_cfg(void)
 332:Generated_Source\PSoC5/cyfitter_cfg.c **** {
 496              		.loc 1 332 0
 497              		.cfi_startproc
 498              		@ args = 0, pretend = 0, frame = 24
 499              		@ frame_needed = 1, uses_anonymous_args = 0
 500 0000 80B5     		push	{r7, lr}
 501              		.cfi_def_cfa_offset 8
 502              		.cfi_offset 7, -8
 503              		.cfi_offset 14, -4
 504 0002 86B0     		sub	sp, sp, #24
 505              		.cfi_def_cfa_offset 32
 506 0004 00AF     		add	r7, sp, #0
 507              		.cfi_def_cfa_register 7
 333:Generated_Source\PSoC5/cyfitter_cfg.c **** #ifdef CYGlobalIntDisable
 334:Generated_Source\PSoC5/cyfitter_cfg.c **** 	/* Disable interrupts by default. Let user enable if/when they want. */
 335:Generated_Source\PSoC5/cyfitter_cfg.c **** 	CYGlobalIntDisable
 508              		.loc 1 335 0
 509              	@ 335 "Generated_Source\PSoC5\cyfitter_cfg.c" 1
 510 0006 72B6     		CPSID   i
 511              	@ 0 "" 2
 336:Generated_Source\PSoC5/cyfitter_cfg.c **** #endif
 337:Generated_Source\PSoC5/cyfitter_cfg.c **** 
 338:Generated_Source\PSoC5/cyfitter_cfg.c **** 	/* Enable/Disable Debug functionality based on settings from System DWR */
ARM GAS  C:\Users\LilRobby\AppData\Local\Temp\ccdIMQzd.s 			page 16


 339:Generated_Source\PSoC5/cyfitter_cfg.c **** 	CY_SET_XTND_REG8((void CYFAR *)CYREG_MLOGIC_DEBUG, (CY_GET_XTND_REG8((void CYFAR *)CYREG_MLOGIC_DE
 512              		.loc 1 339 0
 513              		.thumb
 514 0008 4A4A     		ldr	r2, .L28
 515 000a 4A4B     		ldr	r3, .L28
 516 000c 1B78     		ldrb	r3, [r3]
 517 000e DBB2     		uxtb	r3, r3
 518 0010 43F00403 		orr	r3, r3, #4
 519 0014 DBB2     		uxtb	r3, r3
 520 0016 1370     		strb	r3, [r2]
 521              	.LBB3:
 340:Generated_Source\PSoC5/cyfitter_cfg.c **** 
 341:Generated_Source\PSoC5/cyfitter_cfg.c **** 	{
 342:Generated_Source\PSoC5/cyfitter_cfg.c **** 
 343:Generated_Source\PSoC5/cyfitter_cfg.c **** 		CYPACKED typedef struct {
 344:Generated_Source\PSoC5/cyfitter_cfg.c **** 			void CYFAR *address;
 345:Generated_Source\PSoC5/cyfitter_cfg.c **** 			uint16 size;
 346:Generated_Source\PSoC5/cyfitter_cfg.c **** 		} CYPACKED_ATTR cfg_memset_t;
 347:Generated_Source\PSoC5/cyfitter_cfg.c **** 
 348:Generated_Source\PSoC5/cyfitter_cfg.c **** 
 349:Generated_Source\PSoC5/cyfitter_cfg.c **** 		CYPACKED typedef struct {
 350:Generated_Source\PSoC5/cyfitter_cfg.c **** 			void CYFAR *dest;
 351:Generated_Source\PSoC5/cyfitter_cfg.c **** 			const void CYFAR *src;
 352:Generated_Source\PSoC5/cyfitter_cfg.c **** 			uint16 size;
 353:Generated_Source\PSoC5/cyfitter_cfg.c **** 		} CYPACKED_ATTR cfg_memcpy_t;
 354:Generated_Source\PSoC5/cyfitter_cfg.c **** 
 355:Generated_Source\PSoC5/cyfitter_cfg.c **** 		static const cfg_memset_t CYCODE cfg_memset_list [] = {
 356:Generated_Source\PSoC5/cyfitter_cfg.c **** 			/* address, size */
 357:Generated_Source\PSoC5/cyfitter_cfg.c **** 			{(void CYFAR *)(CYREG_PRT0_DR), 16u},
 358:Generated_Source\PSoC5/cyfitter_cfg.c **** 			{(void CYFAR *)(CYREG_PRT2_DR), 64u},
 359:Generated_Source\PSoC5/cyfitter_cfg.c **** 			{(void CYFAR *)(CYREG_PRT15_DR), 16u},
 360:Generated_Source\PSoC5/cyfitter_cfg.c **** 			{(void CYFAR *)(CYDEV_UCFG_B0_P0_U0_BASE), 3200u},
 361:Generated_Source\PSoC5/cyfitter_cfg.c **** 			{(void CYFAR *)(CYDEV_UCFG_B0_P6_ROUTE_BASE), 768u},
 362:Generated_Source\PSoC5/cyfitter_cfg.c **** 			{(void CYFAR *)(CYDEV_UCFG_B1_P2_U0_BASE), 2048u},
 363:Generated_Source\PSoC5/cyfitter_cfg.c **** 			{(void CYFAR *)(CYDEV_UCFG_DSI0_BASE), 2560u},
 364:Generated_Source\PSoC5/cyfitter_cfg.c **** 			{(void CYFAR *)(CYDEV_UCFG_DSI12_BASE), 512u},
 365:Generated_Source\PSoC5/cyfitter_cfg.c **** 			{(void CYFAR *)(CYREG_BCTL0_MDCLK_EN), 32u},
 366:Generated_Source\PSoC5/cyfitter_cfg.c **** 		};
 367:Generated_Source\PSoC5/cyfitter_cfg.c **** 
 368:Generated_Source\PSoC5/cyfitter_cfg.c **** 		static const cfg_memcpy_t CYCODE cfg_memcpy_list [] = {
 369:Generated_Source\PSoC5/cyfitter_cfg.c **** 			/* dest, src, size */
 370:Generated_Source\PSoC5/cyfitter_cfg.c **** 			{(void CYFAR *)(CYDEV_UCFG_B0_P6_U1_BASE), BS_UDB_0_4_0_CONFIG_VAL, 128u},
 371:Generated_Source\PSoC5/cyfitter_cfg.c **** 		};
 372:Generated_Source\PSoC5/cyfitter_cfg.c **** 
 373:Generated_Source\PSoC5/cyfitter_cfg.c **** 		uint8 CYDATA i;
 374:Generated_Source\PSoC5/cyfitter_cfg.c **** 
 375:Generated_Source\PSoC5/cyfitter_cfg.c **** 		/* Zero out critical memory blocks before beginning configuration */
 376:Generated_Source\PSoC5/cyfitter_cfg.c **** 		for (i = 0u; i < (sizeof(cfg_memset_list)/sizeof(cfg_memset_list[0])); i++)
 522              		.loc 1 376 0
 523 0018 0023     		movs	r3, #0
 524 001a FB75     		strb	r3, [r7, #23]
 525 001c 13E0     		b	.L24
 526              	.L25:
 527              	.LBB4:
 377:Generated_Source\PSoC5/cyfitter_cfg.c **** 		{
 378:Generated_Source\PSoC5/cyfitter_cfg.c **** 			const cfg_memset_t CYCODE * CYDATA ms = &cfg_memset_list[i];
 528              		.loc 1 378 0 discriminator 3
ARM GAS  C:\Users\LilRobby\AppData\Local\Temp\ccdIMQzd.s 			page 17


 529 001e FA7D     		ldrb	r2, [r7, #23]	@ zero_extendqisi2
 530 0020 1346     		mov	r3, r2
 531 0022 5B00     		lsls	r3, r3, #1
 532 0024 1344     		add	r3, r3, r2
 533 0026 5B00     		lsls	r3, r3, #1
 534 0028 434A     		ldr	r2, .L28+4
 535 002a 1344     		add	r3, r3, r2
 536 002c 3B61     		str	r3, [r7, #16]
 379:Generated_Source\PSoC5/cyfitter_cfg.c **** 			CYMEMZERO(ms->address, (size_t)(uint32)(ms->size));
 537              		.loc 1 379 0 discriminator 3
 538 002e 3B69     		ldr	r3, [r7, #16]
 539 0030 1A68     		ldr	r2, [r3]	@ unaligned
 540 0032 3B69     		ldr	r3, [r7, #16]
 541 0034 9B88     		ldrh	r3, [r3, #4]	@ unaligned
 542 0036 9BB2     		uxth	r3, r3
 543 0038 1046     		mov	r0, r2
 544 003a 1946     		mov	r1, r3
 545 003c FFF7FEFF 		bl	CYMEMZERO
 546              	.LBE4:
 376:Generated_Source\PSoC5/cyfitter_cfg.c **** 		{
 547              		.loc 1 376 0 discriminator 3
 548 0040 FB7D     		ldrb	r3, [r7, #23]	@ zero_extendqisi2
 549 0042 0133     		adds	r3, r3, #1
 550 0044 FB75     		strb	r3, [r7, #23]
 551              	.L24:
 376:Generated_Source\PSoC5/cyfitter_cfg.c **** 		{
 552              		.loc 1 376 0 is_stmt 0 discriminator 1
 553 0046 FB7D     		ldrb	r3, [r7, #23]	@ zero_extendqisi2
 554 0048 082B     		cmp	r3, #8
 555 004a E8D9     		bls	.L25
 380:Generated_Source\PSoC5/cyfitter_cfg.c **** 		}
 381:Generated_Source\PSoC5/cyfitter_cfg.c **** 
 382:Generated_Source\PSoC5/cyfitter_cfg.c **** 		/* Copy device configuration data into registers */
 383:Generated_Source\PSoC5/cyfitter_cfg.c **** 		for (i = 0u; i < (sizeof(cfg_memcpy_list)/sizeof(cfg_memcpy_list[0])); i++)
 556              		.loc 1 383 0 is_stmt 1
 557 004c 0023     		movs	r3, #0
 558 004e FB75     		strb	r3, [r7, #23]
 559 0050 1CE0     		b	.L26
 560              	.L27:
 561              	.LBB5:
 384:Generated_Source\PSoC5/cyfitter_cfg.c **** 		{
 385:Generated_Source\PSoC5/cyfitter_cfg.c **** 			const cfg_memcpy_t CYCODE * CYDATA mc = &cfg_memcpy_list[i];
 562              		.loc 1 385 0 discriminator 3
 563 0052 FA7D     		ldrb	r2, [r7, #23]	@ zero_extendqisi2
 564 0054 1346     		mov	r3, r2
 565 0056 9B00     		lsls	r3, r3, #2
 566 0058 1344     		add	r3, r3, r2
 567 005a 5B00     		lsls	r3, r3, #1
 568 005c 374A     		ldr	r2, .L28+8
 569 005e 1344     		add	r3, r3, r2
 570 0060 FB60     		str	r3, [r7, #12]
 386:Generated_Source\PSoC5/cyfitter_cfg.c **** 			void * CYDATA destPtr = mc->dest;
 571              		.loc 1 386 0 discriminator 3
 572 0062 FB68     		ldr	r3, [r7, #12]
 573 0064 1B68     		ldr	r3, [r3]	@ unaligned
 574 0066 BB60     		str	r3, [r7, #8]
 387:Generated_Source\PSoC5/cyfitter_cfg.c **** 			const void * CYDATA srcPtr = mc->src;
ARM GAS  C:\Users\LilRobby\AppData\Local\Temp\ccdIMQzd.s 			page 18


 575              		.loc 1 387 0 discriminator 3
 576 0068 FB68     		ldr	r3, [r7, #12]
 577 006a 5B68     		ldr	r3, [r3, #4]	@ unaligned
 578 006c 7B60     		str	r3, [r7, #4]
 388:Generated_Source\PSoC5/cyfitter_cfg.c **** 			uint16 CYDATA numBytes = mc->size;
 579              		.loc 1 388 0 discriminator 3
 580 006e FB68     		ldr	r3, [r7, #12]
 581 0070 1A7A     		ldrb	r2, [r3, #8]	@ zero_extendqisi2
 582 0072 5B7A     		ldrb	r3, [r3, #9]	@ zero_extendqisi2
 583 0074 1B02     		lsls	r3, r3, #8
 584 0076 1343     		orrs	r3, r3, r2
 585 0078 7B80     		strh	r3, [r7, #2]	@ movhi
 389:Generated_Source\PSoC5/cyfitter_cfg.c **** 			CYCONFIGCPY(destPtr, srcPtr, numBytes);
 586              		.loc 1 389 0 discriminator 3
 587 007a 7B88     		ldrh	r3, [r7, #2]
 588 007c B868     		ldr	r0, [r7, #8]
 589 007e 7968     		ldr	r1, [r7, #4]
 590 0080 1A46     		mov	r2, r3
 591 0082 FFF7FEFF 		bl	CYCONFIGCPY
 592              	.LBE5:
 383:Generated_Source\PSoC5/cyfitter_cfg.c **** 		{
 593              		.loc 1 383 0 discriminator 3
 594 0086 FB7D     		ldrb	r3, [r7, #23]	@ zero_extendqisi2
 595 0088 0133     		adds	r3, r3, #1
 596 008a FB75     		strb	r3, [r7, #23]
 597              	.L26:
 383:Generated_Source\PSoC5/cyfitter_cfg.c **** 		{
 598              		.loc 1 383 0 is_stmt 0 discriminator 1
 599 008c FB7D     		ldrb	r3, [r7, #23]	@ zero_extendqisi2
 600 008e 002B     		cmp	r3, #0
 601 0090 DFD0     		beq	.L27
 390:Generated_Source\PSoC5/cyfitter_cfg.c **** 		}
 391:Generated_Source\PSoC5/cyfitter_cfg.c **** 
 392:Generated_Source\PSoC5/cyfitter_cfg.c **** 		cfg_write_bytes32(cy_cfg_addr_table, cy_cfg_data_table);
 602              		.loc 1 392 0 is_stmt 1
 603 0092 4FF09040 		mov	r0, #1207959552
 604 0096 2A49     		ldr	r1, .L28+12
 605 0098 FFF7FEFF 		bl	cfg_write_bytes32
 393:Generated_Source\PSoC5/cyfitter_cfg.c **** 
 394:Generated_Source\PSoC5/cyfitter_cfg.c **** 		/* Enable digital routing */
 395:Generated_Source\PSoC5/cyfitter_cfg.c **** 		CY_SET_XTND_REG8((void CYFAR *)CYREG_BCTL0_BANK_CTL, CY_GET_XTND_REG8((void CYFAR *)CYREG_BCTL0_B
 606              		.loc 1 395 0
 607 009c 294A     		ldr	r2, .L28+16
 608 009e 294B     		ldr	r3, .L28+16
 609 00a0 1B78     		ldrb	r3, [r3]
 610 00a2 DBB2     		uxtb	r3, r3
 611 00a4 43F00203 		orr	r3, r3, #2
 612 00a8 DBB2     		uxtb	r3, r3
 613 00aa 1370     		strb	r3, [r2]
 396:Generated_Source\PSoC5/cyfitter_cfg.c **** 		CY_SET_XTND_REG8((void CYFAR *)CYREG_BCTL1_BANK_CTL, CY_GET_XTND_REG8((void CYFAR *)CYREG_BCTL1_B
 614              		.loc 1 396 0
 615 00ac 264A     		ldr	r2, .L28+20
 616 00ae 264B     		ldr	r3, .L28+20
 617 00b0 1B78     		ldrb	r3, [r3]
 618 00b2 DBB2     		uxtb	r3, r3
 619 00b4 43F00203 		orr	r3, r3, #2
 620 00b8 DBB2     		uxtb	r3, r3
ARM GAS  C:\Users\LilRobby\AppData\Local\Temp\ccdIMQzd.s 			page 19


 621 00ba 1370     		strb	r3, [r2]
 397:Generated_Source\PSoC5/cyfitter_cfg.c **** 
 398:Generated_Source\PSoC5/cyfitter_cfg.c **** 		/* Enable UDB array */
 399:Generated_Source\PSoC5/cyfitter_cfg.c **** 		CY_SET_XTND_REG8((void CYFAR *)CYREG_PM_ACT_CFG0, CY_GET_XTND_REG8((void CYFAR *)CYREG_PM_ACT_CFG
 622              		.loc 1 399 0
 623 00bc 234A     		ldr	r2, .L28+24
 624 00be 234B     		ldr	r3, .L28+24
 625 00c0 1B78     		ldrb	r3, [r3]
 626 00c2 DBB2     		uxtb	r3, r3
 627 00c4 43F04003 		orr	r3, r3, #64
 628 00c8 DBB2     		uxtb	r3, r3
 629 00ca 1370     		strb	r3, [r2]
 400:Generated_Source\PSoC5/cyfitter_cfg.c **** 		CY_SET_XTND_REG8((void CYFAR *)CYREG_PM_AVAIL_CR2, CY_GET_XTND_REG8((void CYFAR *)CYREG_PM_AVAIL_
 630              		.loc 1 400 0
 631 00cc 204A     		ldr	r2, .L28+28
 632 00ce 204B     		ldr	r3, .L28+28
 633 00d0 1B78     		ldrb	r3, [r3]
 634 00d2 DBB2     		uxtb	r3, r3
 635 00d4 43F01003 		orr	r3, r3, #16
 636 00d8 DBB2     		uxtb	r3, r3
 637 00da 1370     		strb	r3, [r2]
 638              	.LBE3:
 401:Generated_Source\PSoC5/cyfitter_cfg.c **** 	}
 402:Generated_Source\PSoC5/cyfitter_cfg.c **** 
 403:Generated_Source\PSoC5/cyfitter_cfg.c **** 
 404:Generated_Source\PSoC5/cyfitter_cfg.c **** 	/* Perform second pass device configuration. These items must be configured in specific order afte
 405:Generated_Source\PSoC5/cyfitter_cfg.c **** 	CYCONFIGCPY((void CYFAR *)(CYREG_PRT12_DM0), (const void CYFAR *)(BS_IOPINS0_7_VAL), 8u);
 639              		.loc 1 405 0
 640 00dc 1D48     		ldr	r0, .L28+32
 641 00de 1E49     		ldr	r1, .L28+36
 642 00e0 0822     		movs	r2, #8
 643 00e2 FFF7FEFF 		bl	CYCONFIGCPY
 406:Generated_Source\PSoC5/cyfitter_cfg.c **** 	CYCONFIGCPY((void CYFAR *)(CYREG_PRT1_DM0), (const void CYFAR *)(BS_IOPINS0_1_VAL), 8u);
 644              		.loc 1 406 0
 645 00e6 1D48     		ldr	r0, .L28+40
 646 00e8 1D49     		ldr	r1, .L28+44
 647 00ea 0822     		movs	r2, #8
 648 00ec FFF7FEFF 		bl	CYCONFIGCPY
 407:Generated_Source\PSoC5/cyfitter_cfg.c **** 	CYCONFIGCPY((void CYFAR *)(CYREG_PRT6_DR), (const void CYFAR *)(BS_IOPINS0_6_VAL), 10u);
 649              		.loc 1 407 0
 650 00f0 1C48     		ldr	r0, .L28+48
 651 00f2 1D49     		ldr	r1, .L28+52
 652 00f4 0A22     		movs	r2, #10
 653 00f6 FFF7FEFF 		bl	CYCONFIGCPY
 408:Generated_Source\PSoC5/cyfitter_cfg.c **** 	/* Switch Boost to the precision bandgap reference from its internal reference */
 409:Generated_Source\PSoC5/cyfitter_cfg.c **** 	CY_SET_REG8((void CYXDATA *)CYREG_BOOST_CR2, (CY_GET_REG8((void CYXDATA *)CYREG_BOOST_CR2) | 0x08u
 654              		.loc 1 409 0
 655 00fa 1C4A     		ldr	r2, .L28+56
 656 00fc 1B4B     		ldr	r3, .L28+56
 657 00fe 1B78     		ldrb	r3, [r3]
 658 0100 DBB2     		uxtb	r3, r3
 659 0102 43F00803 		orr	r3, r3, #8
 660 0106 DBB2     		uxtb	r3, r3
 661 0108 1370     		strb	r3, [r2]
 410:Generated_Source\PSoC5/cyfitter_cfg.c **** 
 411:Generated_Source\PSoC5/cyfitter_cfg.c **** 	/* Set Flash Cycles based on max possible frequency in case a glitch occurs during ClockSetup(). *
 412:Generated_Source\PSoC5/cyfitter_cfg.c **** 	CY_SET_XTND_REG8((void CYFAR *)(CYREG_CACHE_CC_CTL), (((CYDEV_INSTRUCT_CACHE_ENABLED) != 0) ? 0x01
ARM GAS  C:\Users\LilRobby\AppData\Local\Temp\ccdIMQzd.s 			page 20


 662              		.loc 1 412 0
 663 010a 194B     		ldr	r3, .L28+60
 664 010c 0122     		movs	r2, #1
 665 010e 1A70     		strb	r2, [r3]
 413:Generated_Source\PSoC5/cyfitter_cfg.c **** 	/* Setup clocks based on selections from Clock DWR */
 414:Generated_Source\PSoC5/cyfitter_cfg.c **** 	ClockSetup();
 666              		.loc 1 414 0
 667 0110 FFF7FEFF 		bl	ClockSetup
 415:Generated_Source\PSoC5/cyfitter_cfg.c **** 	/* Set Flash Cycles based on newly configured 24.00MHz Bus Clock. */
 416:Generated_Source\PSoC5/cyfitter_cfg.c **** 	CY_SET_XTND_REG8((void CYFAR *)(CYREG_CACHE_CC_CTL), (((CYDEV_INSTRUCT_CACHE_ENABLED) != 0) ? 0x81
 668              		.loc 1 416 0
 669 0114 164B     		ldr	r3, .L28+60
 670 0116 8122     		movs	r2, #129
 671 0118 1A70     		strb	r2, [r3]
 417:Generated_Source\PSoC5/cyfitter_cfg.c **** 	CY_SET_XTND_REG8((void CYFAR *)(CYREG_PANTHER_WAITPIPE), 0x01u);
 672              		.loc 1 417 0
 673 011a 164B     		ldr	r3, .L28+64
 674 011c 0122     		movs	r2, #1
 675 011e 1A70     		strb	r2, [r3]
 418:Generated_Source\PSoC5/cyfitter_cfg.c **** 
 419:Generated_Source\PSoC5/cyfitter_cfg.c **** 	/* Perform basic analog initialization to defaults */
 420:Generated_Source\PSoC5/cyfitter_cfg.c **** 	AnalogSetDefault();
 676              		.loc 1 420 0
 677 0120 FFF7FEFF 		bl	AnalogSetDefault
 421:Generated_Source\PSoC5/cyfitter_cfg.c **** 
 422:Generated_Source\PSoC5/cyfitter_cfg.c **** 	/* Configure alternate active mode */
 423:Generated_Source\PSoC5/cyfitter_cfg.c **** 	CYCONFIGCPY((void CYFAR *)CYDEV_PM_STBY_BASE, (const void CYFAR *)CYDEV_PM_ACT_BASE, 14u);
 678              		.loc 1 423 0
 679 0124 1448     		ldr	r0, .L28+68
 680 0126 0949     		ldr	r1, .L28+24
 681 0128 0E22     		movs	r2, #14
 682 012a FFF7FEFF 		bl	CYCONFIGCPY
 424:Generated_Source\PSoC5/cyfitter_cfg.c **** }
 683              		.loc 1 424 0
 684 012e 1837     		adds	r7, r7, #24
 685              		.cfi_def_cfa_offset 8
 686 0130 BD46     		mov	sp, r7
 687              		.cfi_def_cfa_register 13
 688              		@ sp needed
 689 0132 80BD     		pop	{r7, pc}
 690              	.L29:
 691              		.align	2
 692              	.L28:
 693 0134 E8460040 		.word	1073759976
 694 0138 00000000 		.word	cfg_memset_list.4835
 695 013c 38000000 		.word	cfg_memcpy_list.4836
 696 0140 44000048 		.word	1207959620
 697 0144 03500140 		.word	1073827843
 698 0148 13500140 		.word	1073827859
 699 014c A0430040 		.word	1073759136
 700 0150 C2430040 		.word	1073759170
 701 0154 C2510040 		.word	1073762754
 702 0158 80020048 		.word	1207960192
 703 015c 12510040 		.word	1073762578
 704 0160 88020048 		.word	1207960200
 705 0164 60510040 		.word	1073762656
 706 0168 90020048 		.word	1207960208
ARM GAS  C:\Users\LilRobby\AppData\Local\Temp\ccdIMQzd.s 			page 21


 707 016c 22430040 		.word	1073759010
 708 0170 00480040 		.word	1073760256
 709 0174 04000840 		.word	1074266116
 710 0178 B0430040 		.word	1073759152
 711              		.cfi_endproc
 712              	.LFE7:
 713              		.size	cyfitter_cfg, .-cyfitter_cfg
 714              		.section	.rodata
 715              		.align	2
 716              		.type	cfg_memset_list.4835, %object
 717              		.size	cfg_memset_list.4835, 54
 718              	cfg_memset_list.4835:
 719 0000 00510040 		.word	1073762560
 720 0004 1000     		.short	16
 721 0006 20510040 		.4byte	1073762592
 722 000a 4000     		.short	64
 723 000c F0510040 		.word	1073762800
 724 0010 1000     		.short	16
 725 0012 00000140 		.4byte	1073807360
 726 0016 800C     		.short	3200
 727 0018 000D0140 		.word	1073810688
 728 001c 0003     		.short	768
 729 001e 00140140 		.4byte	1073812480
 730 0022 0008     		.short	2048
 731 0024 00400140 		.word	1073823744
 732 0028 000A     		.short	2560
 733 002a 004C0140 		.4byte	1073826816
 734 002e 0002     		.short	512
 735 0030 00500140 		.word	1073827840
 736 0034 2000     		.short	32
 737 0036 0000     		.align	2
 738              		.type	cfg_memcpy_list.4836, %object
 739              		.size	cfg_memcpy_list.4836, 10
 740              	cfg_memcpy_list.4836:
 741 0038 800C0140 		.word	1073810560
 742 003c 00020048 		.word	1207960064
 743 0040 8000     		.short	128
 744 0042 0000     		.text
 745              	.Letext0:
 746              		.file 2 "c:\\program files (x86)\\cypress\\psoc creator\\4.0\\psoc creator\\import\\gnu\\arm\\4.9.
 747              		.file 3 "Generated_Source\\PSoC5\\cytypes.h"