ARM GAS  C:\Users\LilRobby\AppData\Local\Temp\cctnJiOb.s 			page 1


   1              		.syntax unified
   2              		.cpu cortex-m3
   3              		.fpu softvfp
   4              		.eabi_attribute 20, 1
   5              		.eabi_attribute 21, 1
   6              		.eabi_attribute 23, 3
   7              		.eabi_attribute 24, 1
   8              		.eabi_attribute 25, 1
   9              		.eabi_attribute 26, 1
  10              		.eabi_attribute 30, 6
  11              		.eabi_attribute 34, 1
  12              		.eabi_attribute 18, 4
  13              		.thumb
  14              		.file	"main.c"
  15              		.text
  16              	.Ltext0:
  17              		.cfi_sections	.debug_frame
  18              		.comm	cursor_x,2,2
  19              		.comm	cursor_y,2,2
  20              		.comm	textcolor,2,2
  21              		.comm	textbgcolor,2,2
  22              		.comm	textsize,1,1
  23              		.comm	rotation,1,1
  24              		.comm	wrap,1,1
  25              		.comm	_width,4,4
  26              		.comm	_height,4,4
  27              		.section	.rodata
  28              		.align	2
  29              	.LC0:
  30 0000 74667420 		.ascii	"tft lcd screen with word wrap\000"
  30      6C636420 
  30      73637265 
  30      656E2077 
  30      69746820 
  31 001e 0000     		.align	2
  32              	.LC1:
  33 0020 782C793A 		.ascii	"x,y: %i    %i\000"
  33      20256920 
  33      20202025 
  33      6900
  34 002e 0000     		.section	.text.main,"ax",%progbits
  35              		.align	2
  36              		.global	main
  37              		.thumb
  38              		.thumb_func
  39              		.type	main, %function
  40              	main:
  41              	.LFB56:
  42              		.file 1 "main.c"
   1:main.c        **** /*******************************************************************************
   2:main.c        **** * \file main.c
   3:main.c        **** * \brief This file is used to demonstrate the TFTSHIELD API.
   4:main.c        **** *
   5:main.c        **** * Version 1.0
   6:main.c        **** *
   7:main.c        **** * \author Robert Barron
   8:main.c        **** *
ARM GAS  C:\Users\LilRobby\AppData\Local\Temp\cctnJiOb.s 			page 2


   9:main.c        **** * \bug 
  10:main.c        **** *******************************************************************************/
  11:main.c        **** #include <project.h>
  12:main.c        **** #include "stdio.h"
  13:main.c        **** 
  14:main.c        **** // This is calibration data for the raw touch data to the screen coordinates
  15:main.c        **** #define TS_MINX 150
  16:main.c        **** #define TS_MINY 130
  17:main.c        **** #define TS_MAXX 3800
  18:main.c        **** #define TS_MAXY 4000
  19:main.c        **** long mapCoor(long x, long in_min, long in_max, long out_min, long out_max);
  20:main.c        **** 
  21:main.c        **** int main()
  22:main.c        **** {   
  43              		.loc 1 22 0
  44              		.cfi_startproc
  45              		@ args = 0, pretend = 0, frame = 64
  46              		@ frame_needed = 1, uses_anonymous_args = 0
  47 0000 90B5     		push	{r4, r7, lr}
  48              		.cfi_def_cfa_offset 12
  49              		.cfi_offset 4, -12
  50              		.cfi_offset 7, -8
  51              		.cfi_offset 14, -4
  52 0002 93B0     		sub	sp, sp, #76
  53              		.cfi_def_cfa_offset 88
  54 0004 02AF     		add	r7, sp, #8
  55              		.cfi_def_cfa 7, 80
  23:main.c        ****     //initializes tft
  24:main.c        ****     CyDelay(1000);
  56              		.loc 1 24 0
  57 0006 4FF47A70 		mov	r0, #1000
  58 000a FFF7FEFF 		bl	CyDelay
  25:main.c        ****     Clock_1_SetDividerValue(24);
  59              		.loc 1 25 0
  60 000e 1720     		movs	r0, #23
  61 0010 0121     		movs	r1, #1
  62 0012 FFF7FEFF 		bl	Clock_1_SetDividerRegister
  26:main.c        ****     CyDelay(10);
  63              		.loc 1 26 0
  64 0016 0A20     		movs	r0, #10
  65 0018 FFF7FEFF 		bl	CyDelay
  27:main.c        ****     //TFTSHIELD_1_StartTouch();
  28:main.c        ****     bool touch_en = 0;
  66              		.loc 1 28 0
  67 001c 0023     		movs	r3, #0
  68 001e 87F83F30 		strb	r3, [r7, #63]
  29:main.c        ****     uint16_t x, y;
  30:main.c        ****     uint8_t z, buf;
  31:main.c        ****     char buffer[50];
  32:main.c        ****     
  33:main.c        ****     while(!TFTSHIELD_1_StartTouch())
  69              		.loc 1 33 0
  70 0022 00BF     		nop
  71              	.L2:
  72              		.loc 1 33 0 is_stmt 0 discriminator 1
  73 0024 FFF7FEFF 		bl	TFTSHIELD_1_StartTouch
  74 0028 0346     		mov	r3, r0
ARM GAS  C:\Users\LilRobby\AppData\Local\Temp\cctnJiOb.s 			page 3


  75 002a 83F00103 		eor	r3, r3, #1
  76 002e DBB2     		uxtb	r3, r3
  77 0030 002B     		cmp	r3, #0
  78 0032 F7D1     		bne	.L2
  34:main.c        ****     {
  35:main.c        ****        
  36:main.c        ****     }
  37:main.c        ****     touch_en = 1;
  79              		.loc 1 37 0 is_stmt 1
  80 0034 0123     		movs	r3, #1
  81 0036 87F83F30 		strb	r3, [r7, #63]
  38:main.c        ****     Clock_1_SetDividerValue(1);
  82              		.loc 1 38 0
  83 003a 0020     		movs	r0, #0
  84 003c 0121     		movs	r1, #1
  85 003e FFF7FEFF 		bl	Clock_1_SetDividerRegister
  39:main.c        ****     CyDelay(10);
  86              		.loc 1 39 0
  87 0042 0A20     		movs	r0, #10
  88 0044 FFF7FEFF 		bl	CyDelay
  40:main.c        ****     TFTSHIELD_1_Start();
  89              		.loc 1 40 0
  90 0048 FFF7FEFF 		bl	TFTSHIELD_1_Start
  41:main.c        ****     
  42:main.c        ****     TFTSHIELD_1_FillScreen(BLACK);
  91              		.loc 1 42 0
  92 004c 0020     		movs	r0, #0
  93 004e FFF7FEFF 		bl	TFTSHIELD_1_FillScreen
  43:main.c        ****     //start at 0,0 for text
  44:main.c        ****     TFTSHIELD_1_SetCursor(0,0);
  94              		.loc 1 44 0
  95 0052 0020     		movs	r0, #0
  96 0054 0021     		movs	r1, #0
  97 0056 FFF7FEFF 		bl	TFTSHIELD_1_SetCursor
  45:main.c        ****     TFTSHIELD_1_SetTextColor(WHITE);  
  98              		.loc 1 45 0
  99 005a 4FF6FF70 		movw	r0, #65535
 100 005e FFF7FEFF 		bl	TFTSHIELD_1_SetTextColor
  46:main.c        ****     TFTSHIELD_1_SetTextSize(2);
 101              		.loc 1 46 0
 102 0062 0220     		movs	r0, #2
 103 0064 FFF7FEFF 		bl	TFTSHIELD_1_SetTextSize
  47:main.c        ****     
  48:main.c        ****     //landscape orientation
  49:main.c        ****     TFTSHIELD_1_SetRotation(0);
 104              		.loc 1 49 0
 105 0068 0020     		movs	r0, #0
 106 006a FFF7FEFF 		bl	TFTSHIELD_1_SetRotation
  50:main.c        ****     TFTSHIELD_1_PrintString("tft lcd screen with word wrap");
 107              		.loc 1 50 0
 108 006e 5648     		ldr	r0, .L5
 109 0070 FFF7FEFF 		bl	TFTSHIELD_1_PrintString
  51:main.c        ****     
  52:main.c        ****     TFTSHIELD_1_DrawLine(50, 150, 100, 150, GREEN);
 110              		.loc 1 52 0
 111 0074 4FF4FC63 		mov	r3, #2016
 112 0078 0093     		str	r3, [sp]
ARM GAS  C:\Users\LilRobby\AppData\Local\Temp\cctnJiOb.s 			page 4


 113 007a 3220     		movs	r0, #50
 114 007c 9621     		movs	r1, #150
 115 007e 6422     		movs	r2, #100
 116 0080 9623     		movs	r3, #150
 117 0082 FFF7FEFF 		bl	TFTSHIELD_1_DrawLine
  53:main.c        ****     TFTSHIELD_1_DrawLine(35, 100, 35 , 200, BLUE);
 118              		.loc 1 53 0
 119 0086 1F23     		movs	r3, #31
 120 0088 0093     		str	r3, [sp]
 121 008a 2320     		movs	r0, #35
 122 008c 6421     		movs	r1, #100
 123 008e 2322     		movs	r2, #35
 124 0090 C823     		movs	r3, #200
 125 0092 FFF7FEFF 		bl	TFTSHIELD_1_DrawLine
  54:main.c        ****     TFTSHIELD_1_FillCircle(100,100,10,MAGENTA);
 126              		.loc 1 54 0
 127 0096 6420     		movs	r0, #100
 128 0098 6421     		movs	r1, #100
 129 009a 0A22     		movs	r2, #10
 130 009c 4FF61F03 		movw	r3, #63519
 131 00a0 FFF7FEFF 		bl	TFTSHIELD_1_FillCircle
  55:main.c        ****     
  56:main.c        ****     TFTSHIELD_1_FillRect(150, 150, 75,75, YELLOW);
 132              		.loc 1 56 0
 133 00a4 4FF6E073 		movw	r3, #65504
 134 00a8 0093     		str	r3, [sp]
 135 00aa 9620     		movs	r0, #150
 136 00ac 9621     		movs	r1, #150
 137 00ae 4B22     		movs	r2, #75
 138 00b0 4B23     		movs	r3, #75
 139 00b2 FFF7FEFF 		bl	TFTSHIELD_1_FillRect
  57:main.c        ****     if(touch_en)
  58:main.c        ****     {
  59:main.c        ****        // TFTSHIELD_1_PrintString("GO1");
  60:main.c        ****     }
  61:main.c        ****     //initializes touchscreen
  62:main.c        ****     //clock must be set to 1MHZ when polling the touchscreen..
  63:main.c        ****     Clock_1_SetDividerValue(24);
 140              		.loc 1 63 0
 141 00b6 1720     		movs	r0, #23
 142 00b8 0121     		movs	r1, #1
 143 00ba FFF7FEFF 		bl	Clock_1_SetDividerRegister
  64:main.c        ****     CyDelay(10);
 144              		.loc 1 64 0
 145 00be 0A20     		movs	r0, #10
 146 00c0 FFF7FEFF 		bl	CyDelay
  65:main.c        ****     
  66:main.c        ****     //int touchon = 0;
  67:main.c        ****     if(TFTSHIELD_1_StartTouch())
 147              		.loc 1 67 0
 148 00c4 FFF7FEFF 		bl	TFTSHIELD_1_StartTouch
 149 00c8 0346     		mov	r3, r0
 150 00ca 002B     		cmp	r3, #0
 151 00cc 0AD0     		beq	.L3
  68:main.c        ****     {
  69:main.c        ****          //touchon = 1;  
  70:main.c        ****         Clock_1_SetDividerValue(1);
ARM GAS  C:\Users\LilRobby\AppData\Local\Temp\cctnJiOb.s 			page 5


 152              		.loc 1 70 0
 153 00ce 0020     		movs	r0, #0
 154 00d0 0121     		movs	r1, #1
 155 00d2 FFF7FEFF 		bl	Clock_1_SetDividerRegister
  71:main.c        ****         CyDelay(1);
 156              		.loc 1 71 0
 157 00d6 0120     		movs	r0, #1
 158 00d8 FFF7FEFF 		bl	CyDelay
  72:main.c        ****         //TFTSHIELD_1_PrintString("     GO2");
  73:main.c        ****         Clock_1_SetDividerValue(24);
 159              		.loc 1 73 0
 160 00dc 1720     		movs	r0, #23
 161 00de 0121     		movs	r1, #1
 162 00e0 FFF7FEFF 		bl	Clock_1_SetDividerRegister
 163              	.L3:
  74:main.c        ****     } 
  75:main.c        ****     
  76:main.c        ****     
  77:main.c        ****     
  78:main.c        ****     for(;;)
  79:main.c        ****     {
  80:main.c        ****         Clock_1_SetDividerValue(24);
 164              		.loc 1 80 0
 165 00e4 1720     		movs	r0, #23
 166 00e6 0121     		movs	r1, #1
 167 00e8 FFF7FEFF 		bl	Clock_1_SetDividerRegister
  81:main.c        ****         //Clock_1_SetDividerValue(24);
  82:main.c        ****         CyDelay(1);
 168              		.loc 1 82 0
 169 00ec 0120     		movs	r0, #1
 170 00ee FFF7FEFF 		bl	CyDelay
  83:main.c        ****         if(TFTSHIELD_1_Touched())
 171              		.loc 1 83 0
 172 00f2 FFF7FEFF 		bl	TFTSHIELD_1_Touched
 173 00f6 0346     		mov	r3, r0
 174 00f8 002B     		cmp	r3, #0
 175 00fa 5AD0     		beq	.L4
  84:main.c        ****         {
  85:main.c        ****             Clock_1_SetDividerValue(1);
 176              		.loc 1 85 0
 177 00fc 0020     		movs	r0, #0
 178 00fe 0121     		movs	r1, #1
 179 0100 FFF7FEFF 		bl	Clock_1_SetDividerRegister
  86:main.c        ****             CyDelay(1);
 180              		.loc 1 86 0
 181 0104 0120     		movs	r0, #1
 182 0106 FFF7FEFF 		bl	CyDelay
  87:main.c        ****             TFTSHIELD_1_FillRect(0, 0, 240,50, BLACK);
 183              		.loc 1 87 0
 184 010a 0023     		movs	r3, #0
 185 010c 0093     		str	r3, [sp]
 186 010e 0020     		movs	r0, #0
 187 0110 0021     		movs	r1, #0
 188 0112 F022     		movs	r2, #240
 189 0114 3223     		movs	r3, #50
 190 0116 FFF7FEFF 		bl	TFTSHIELD_1_FillRect
  88:main.c        ****             TFTSHIELD_1_SetCursor(0,5);
ARM GAS  C:\Users\LilRobby\AppData\Local\Temp\cctnJiOb.s 			page 6


 191              		.loc 1 88 0
 192 011a 0020     		movs	r0, #0
 193 011c 0521     		movs	r1, #5
 194 011e FFF7FEFF 		bl	TFTSHIELD_1_SetCursor
  89:main.c        ****             
  90:main.c        ****             Clock_1_SetDividerValue(24);
 195              		.loc 1 90 0
 196 0122 1720     		movs	r0, #23
 197 0124 0121     		movs	r1, #1
 198 0126 FFF7FEFF 		bl	Clock_1_SetDividerRegister
  91:main.c        ****            
  92:main.c        ****             TFTSHIELD_1_ReadData(&x,&y,&z);
 199              		.loc 1 92 0
 200 012a 07F13C01 		add	r1, r7, #60
 201 012e 07F13A02 		add	r2, r7, #58
 202 0132 07F13903 		add	r3, r7, #57
 203 0136 0846     		mov	r0, r1
 204 0138 1146     		mov	r1, r2
 205 013a 1A46     		mov	r2, r3
 206 013c FFF7FEFF 		bl	TFTSHIELD_1_ReadData
  93:main.c        ****             x = mapCoor(x, TS_MINX, TS_MAXX, 0, 240);
 207              		.loc 1 93 0
 208 0140 BB8F     		ldrh	r3, [r7, #60]
 209 0142 1A46     		mov	r2, r3
 210 0144 F023     		movs	r3, #240
 211 0146 0093     		str	r3, [sp]
 212 0148 1046     		mov	r0, r2
 213 014a 9621     		movs	r1, #150
 214 014c 40F6D862 		movw	r2, #3800
 215 0150 0023     		movs	r3, #0
 216 0152 FFF7FEFF 		bl	mapCoor
 217 0156 0346     		mov	r3, r0
 218 0158 9BB2     		uxth	r3, r3
 219 015a BB87     		strh	r3, [r7, #60]	@ movhi
  94:main.c        ****             y = mapCoor(y, TS_MINY, TS_MAXY, 0, 320);
 220              		.loc 1 94 0
 221 015c 7B8F     		ldrh	r3, [r7, #58]
 222 015e 1A46     		mov	r2, r3
 223 0160 4FF4A073 		mov	r3, #320
 224 0164 0093     		str	r3, [sp]
 225 0166 1046     		mov	r0, r2
 226 0168 8221     		movs	r1, #130
 227 016a 4FF47A62 		mov	r2, #4000
 228 016e 0023     		movs	r3, #0
 229 0170 FFF7FEFF 		bl	mapCoor
 230 0174 0346     		mov	r3, r0
 231 0176 9BB2     		uxth	r3, r3
 232 0178 7B87     		strh	r3, [r7, #58]	@ movhi
  95:main.c        ****             sprintf(buffer,"x,y: %i    %i",x,y);
 233              		.loc 1 95 0
 234 017a BB8F     		ldrh	r3, [r7, #60]
 235 017c 1A46     		mov	r2, r3
 236 017e 7B8F     		ldrh	r3, [r7, #58]
 237 0180 1C46     		mov	r4, r3
 238 0182 3B1D     		adds	r3, r7, #4
 239 0184 1846     		mov	r0, r3
 240 0186 1149     		ldr	r1, .L5+4
ARM GAS  C:\Users\LilRobby\AppData\Local\Temp\cctnJiOb.s 			page 7


 241 0188 2346     		mov	r3, r4
 242 018a FFF7FEFF 		bl	sprintf
  96:main.c        ****             Clock_1_SetDividerValue(1);
 243              		.loc 1 96 0
 244 018e 0020     		movs	r0, #0
 245 0190 0121     		movs	r1, #1
 246 0192 FFF7FEFF 		bl	Clock_1_SetDividerRegister
  97:main.c        ****             CyDelay(1);
 247              		.loc 1 97 0
 248 0196 0120     		movs	r0, #1
 249 0198 FFF7FEFF 		bl	CyDelay
  98:main.c        ****             TFTSHIELD_1_PrintString(buffer);
 250              		.loc 1 98 0
 251 019c 3B1D     		adds	r3, r7, #4
 252 019e 1846     		mov	r0, r3
 253 01a0 FFF7FEFF 		bl	TFTSHIELD_1_PrintString
  99:main.c        ****             CyDelay(1);
 254              		.loc 1 99 0
 255 01a4 0120     		movs	r0, #1
 256 01a6 FFF7FEFF 		bl	CyDelay
 100:main.c        ****                 
 101:main.c        ****             Clock_1_SetDividerValue(24);
 257              		.loc 1 101 0
 258 01aa 1720     		movs	r0, #23
 259 01ac 0121     		movs	r1, #1
 260 01ae FFF7FEFF 		bl	Clock_1_SetDividerRegister
 261              	.L4:
 102:main.c        ****         }
 103:main.c        ****         TFTSHIELD_1_WriteRegister8(STMPE_INT_STA, 0xFF); // reset all ints
 262              		.loc 1 103 0
 263 01b2 0B20     		movs	r0, #11
 264 01b4 FF21     		movs	r1, #255
 265 01b6 FFF7FEFF 		bl	TFTSHIELD_1_WriteRegister8
 104:main.c        ****         TFTSHIELD_1_ResetBuffer();
 266              		.loc 1 104 0
 267 01ba FFF7FEFF 		bl	TFTSHIELD_1_ResetBuffer
 105:main.c        ****         
 106:main.c        ****             //TFTSHIELD_1_FillRect(150, 150, 75,75, GREEN); 
 107:main.c        ****            
 108:main.c        ****       // }
 109:main.c        ****       // else
 110:main.c        ****        //{
 111:main.c        ****          //  TFTSHIELD_1_FillRect(150, 150, 75,75, RED); 
 112:main.c        ****       // }
 113:main.c        ****         CyDelay(10);
 268              		.loc 1 113 0
 269 01be 0A20     		movs	r0, #10
 270 01c0 FFF7FEFF 		bl	CyDelay
 114:main.c        ****     }
 271              		.loc 1 114 0
 272 01c4 8EE7     		b	.L3
 273              	.L6:
 274 01c6 00BF     		.align	2
 275              	.L5:
 276 01c8 00000000 		.word	.LC0
 277 01cc 20000000 		.word	.LC1
 278              		.cfi_endproc
ARM GAS  C:\Users\LilRobby\AppData\Local\Temp\cctnJiOb.s 			page 8


 279              	.LFE56:
 280              		.size	main, .-main
 281              		.section	.text.mapCoor,"ax",%progbits
 282              		.align	2
 283              		.global	mapCoor
 284              		.thumb
 285              		.thumb_func
 286              		.type	mapCoor, %function
 287              	mapCoor:
 288              	.LFB57:
 115:main.c        **** }
 116:main.c        **** 
 117:main.c        **** long mapCoor(long x, long in_min, long in_max, long out_min, long out_max)
 118:main.c        **** {
 289              		.loc 1 118 0
 290              		.cfi_startproc
 291              		@ args = 4, pretend = 0, frame = 16
 292              		@ frame_needed = 1, uses_anonymous_args = 0
 293              		@ link register save eliminated.
 294 0000 80B4     		push	{r7}
 295              		.cfi_def_cfa_offset 4
 296              		.cfi_offset 7, -4
 297 0002 85B0     		sub	sp, sp, #20
 298              		.cfi_def_cfa_offset 24
 299 0004 00AF     		add	r7, sp, #0
 300              		.cfi_def_cfa_register 7
 301 0006 F860     		str	r0, [r7, #12]
 302 0008 B960     		str	r1, [r7, #8]
 303 000a 7A60     		str	r2, [r7, #4]
 304 000c 3B60     		str	r3, [r7]
 119:main.c        ****   return (x - in_min) * (out_max - out_min) / (in_max - in_min) + out_min;
 305              		.loc 1 119 0
 306 000e FA68     		ldr	r2, [r7, #12]
 307 0010 BB68     		ldr	r3, [r7, #8]
 308 0012 D31A     		subs	r3, r2, r3
 309 0014 B969     		ldr	r1, [r7, #24]
 310 0016 3A68     		ldr	r2, [r7]
 311 0018 8A1A     		subs	r2, r1, r2
 312 001a 02FB03F2 		mul	r2, r2, r3
 313 001e 7968     		ldr	r1, [r7, #4]
 314 0020 BB68     		ldr	r3, [r7, #8]
 315 0022 CB1A     		subs	r3, r1, r3
 316 0024 92FBF3F2 		sdiv	r2, r2, r3
 317 0028 3B68     		ldr	r3, [r7]
 318 002a 1344     		add	r3, r3, r2
 120:main.c        **** }
 319              		.loc 1 120 0
 320 002c 1846     		mov	r0, r3
 321 002e 1437     		adds	r7, r7, #20
 322              		.cfi_def_cfa_offset 4
 323 0030 BD46     		mov	sp, r7
 324              		.cfi_def_cfa_register 13
 325              		@ sp needed
 326 0032 5DF8047B 		ldr	r7, [sp], #4
 327              		.cfi_restore 7
 328              		.cfi_def_cfa_offset 0
 329 0036 7047     		bx	lr
ARM GAS  C:\Users\LilRobby\AppData\Local\Temp\cctnJiOb.s 			page 9


 330              		.cfi_endproc
 331              	.LFE57:
 332              		.size	mapCoor, .-mapCoor
 333              		.text
 334              	.Letext0:
 335              		.file 2 "c:\\program files (x86)\\cypress\\psoc creator\\4.0\\psoc creator\\import\\gnu\\arm\\4.9.
 336              		.file 3 "c:\\program files (x86)\\cypress\\psoc creator\\4.0\\psoc creator\\import\\gnu\\arm\\4.9.
 337              		.file 4 "Generated_Source\\PSoC5/TFTSHIELD_1.h"
 338              		.file 5 "Generated_Source\\PSoC5/core_cm3.h"