ARM GAS  C:\Users\Brian\AppData\Local\Temp\ccJGU8mr.s 			page 1


   1              		.syntax unified
   2              		.cpu cortex-m3
   3              		.fpu softvfp
   4              		.eabi_attribute 20, 1
   5              		.eabi_attribute 21, 1
   6              		.eabi_attribute 23, 3
   7              		.eabi_attribute 24, 1
   8              		.eabi_attribute 25, 1
   9              		.eabi_attribute 26, 1
  10              		.eabi_attribute 30, 6
  11              		.eabi_attribute 34, 1
  12              		.eabi_attribute 18, 4
  13              		.thumb
  14              		.file	"main.c"
  15              		.text
  16              	.Ltext0:
  17              		.cfi_sections	.debug_frame
  18              		.comm	cursor_x,2,2
  19              		.comm	cursor_y,2,2
  20              		.comm	textcolor,2,2
  21              		.comm	textbgcolor,2,2
  22              		.comm	textsize,1,1
  23              		.comm	rotation,1,1
  24              		.comm	wrap,1,1
  25              		.comm	_width,4,4
  26              		.comm	_height,4,4
  27              		.section	.rodata
  28              		.align	2
  29              	.LC0:
  30 0000 782C792C 		.ascii	"x,y,z: %i    %i\000"
  30      7A3A2025 
  30      69202020 
  30      20256900 
  31              		.section	.text.main,"ax",%progbits
  32              		.align	2
  33              		.global	main
  34              		.thumb
  35              		.thumb_func
  36              		.type	main, %function
  37              	main:
  38              	.LFB56:
  39              		.file 1 ".\\main.c"
   1:.\main.c      **** /*******************************************************************************
   2:.\main.c      **** * \file main.c
   3:.\main.c      **** * \brief This file is used to demonstrate the TFTSHIELD API.
   4:.\main.c      **** *
   5:.\main.c      **** * Version 1.0
   6:.\main.c      **** *
   7:.\main.c      **** * \author Robert Barron
   8:.\main.c      **** *
   9:.\main.c      **** * \bug 
  10:.\main.c      **** *******************************************************************************/
  11:.\main.c      **** #include <project.h>
  12:.\main.c      **** #include "stdio.h"
  13:.\main.c      **** int main()
  14:.\main.c      **** {   
  40              		.loc 1 14 0
ARM GAS  C:\Users\Brian\AppData\Local\Temp\ccJGU8mr.s 			page 2


  41              		.cfi_startproc
  42              		@ args = 0, pretend = 0, frame = 64
  43              		@ frame_needed = 1, uses_anonymous_args = 0
  44 0000 80B5     		push	{r7, lr}
  45              	.LCFI0:
  46              		.cfi_def_cfa_offset 8
  47              		.cfi_offset 7, -8
  48              		.cfi_offset 14, -4
  49 0002 92B0     		sub	sp, sp, #72
  50              	.LCFI1:
  51              		.cfi_def_cfa_offset 80
  52 0004 02AF     		add	r7, sp, #8
  53              	.LCFI2:
  54              		.cfi_def_cfa 7, 72
  15:.\main.c      ****     //initializes tft
  16:.\main.c      ****     CyDelay(1000);
  55              		.loc 1 16 0
  56 0006 4FF47A70 		mov	r0, #1000
  57 000a FFF7FEFF 		bl	CyDelay
  17:.\main.c      ****     Clock_1_SetDividerValue(24);
  58              		.loc 1 17 0
  59 000e 4FF01700 		mov	r0, #23
  60 0012 4FF00101 		mov	r1, #1
  61 0016 FFF7FEFF 		bl	Clock_1_SetDividerRegister
  18:.\main.c      ****     CyDelay(10);
  62              		.loc 1 18 0
  63 001a 4FF00A00 		mov	r0, #10
  64 001e FFF7FEFF 		bl	CyDelay
  19:.\main.c      ****     //TFTSHIELD_1_StartTouch();
  20:.\main.c      ****     bool touch_en = 0;
  65              		.loc 1 20 0
  66 0022 4FF00003 		mov	r3, #0
  67 0026 87F83F30 		strb	r3, [r7, #63]
  21:.\main.c      ****     
  22:.\main.c      ****     while(!TFTSHIELD_1_StartTouch())
  68              		.loc 1 22 0
  69 002a 00BF     		nop
  70              	.L2:
  71              		.loc 1 22 0 is_stmt 0 discriminator 1
  72 002c FFF7FEFF 		bl	TFTSHIELD_1_StartTouch
  73 0030 0346     		mov	r3, r0
  74 0032 83F00103 		eor	r3, r3, #1
  75 0036 DBB2     		uxtb	r3, r3
  76 0038 002B     		cmp	r3, #0
  77 003a F7D1     		bne	.L2
  23:.\main.c      ****     {
  24:.\main.c      ****        
  25:.\main.c      ****     }
  26:.\main.c      ****     touch_en = 1;
  78              		.loc 1 26 0 is_stmt 1
  79 003c 4FF00103 		mov	r3, #1
  80 0040 87F83F30 		strb	r3, [r7, #63]
  27:.\main.c      ****     Clock_1_SetDividerValue(1);
  81              		.loc 1 27 0
  82 0044 4FF00000 		mov	r0, #0
  83 0048 4FF00101 		mov	r1, #1
  84 004c FFF7FEFF 		bl	Clock_1_SetDividerRegister
ARM GAS  C:\Users\Brian\AppData\Local\Temp\ccJGU8mr.s 			page 3


  28:.\main.c      ****     CyDelay(10);
  85              		.loc 1 28 0
  86 0050 4FF00A00 		mov	r0, #10
  87 0054 FFF7FEFF 		bl	CyDelay
  29:.\main.c      ****     TFTSHIELD_1_Start();
  88              		.loc 1 29 0
  89 0058 FFF7FEFF 		bl	TFTSHIELD_1_Start
  30:.\main.c      ****     
  31:.\main.c      ****     TFTSHIELD_1_FillScreen(BLACK);
  90              		.loc 1 31 0
  91 005c 4FF00000 		mov	r0, #0
  92 0060 FFF7FEFF 		bl	TFTSHIELD_1_FillScreen
  32:.\main.c      ****     //start at 0,0 for text
  33:.\main.c      ****     TFTSHIELD_1_SetCursor(0,0);
  93              		.loc 1 33 0
  94 0064 4FF00000 		mov	r0, #0
  95 0068 4FF00001 		mov	r1, #0
  96 006c FFF7FEFF 		bl	TFTSHIELD_1_SetCursor
  34:.\main.c      ****     TFTSHIELD_1_SetTextColor(WHITE);  
  97              		.loc 1 34 0
  98 0070 4FF6FF70 		movw	r0, #65535
  99 0074 FFF7FEFF 		bl	TFTSHIELD_1_SetTextColor
  35:.\main.c      ****     TFTSHIELD_1_SetTextSize(2);
 100              		.loc 1 35 0
 101 0078 4FF00200 		mov	r0, #2
 102 007c FFF7FEFF 		bl	TFTSHIELD_1_SetTextSize
  36:.\main.c      ****     
  37:.\main.c      ****     //landscape orientation
  38:.\main.c      ****     TFTSHIELD_1_SetRotation(1);
 103              		.loc 1 38 0
 104 0080 4FF00100 		mov	r0, #1
 105 0084 FFF7FEFF 		bl	TFTSHIELD_1_SetRotation
  39:.\main.c      ****     //TFTSHIELD_1_PrintString("tft lcd screen with word wrap working blah blah blah");
  40:.\main.c      ****     
  41:.\main.c      ****     TFTSHIELD_1_DrawLine(50, 150, 100, 150, GREEN);
 106              		.loc 1 41 0
 107 0088 4FF4FC63 		mov	r3, #2016
 108 008c 0093     		str	r3, [sp, #0]
 109 008e 4FF03200 		mov	r0, #50
 110 0092 4FF09601 		mov	r1, #150
 111 0096 4FF06402 		mov	r2, #100
 112 009a 4FF09603 		mov	r3, #150
 113 009e FFF7FEFF 		bl	TFTSHIELD_1_DrawLine
  42:.\main.c      ****     TFTSHIELD_1_DrawLine(35, 100, 35 , 200, BLUE);
 114              		.loc 1 42 0
 115 00a2 4FF01F03 		mov	r3, #31
 116 00a6 0093     		str	r3, [sp, #0]
 117 00a8 4FF02300 		mov	r0, #35
 118 00ac 4FF06401 		mov	r1, #100
 119 00b0 4FF02302 		mov	r2, #35
 120 00b4 4FF0C803 		mov	r3, #200
 121 00b8 FFF7FEFF 		bl	TFTSHIELD_1_DrawLine
  43:.\main.c      ****     TFTSHIELD_1_FillCircle(100,100,10,MAGENTA);
 122              		.loc 1 43 0
 123 00bc 4FF06400 		mov	r0, #100
 124 00c0 4FF06401 		mov	r1, #100
 125 00c4 4FF00A02 		mov	r2, #10
ARM GAS  C:\Users\Brian\AppData\Local\Temp\ccJGU8mr.s 			page 4


 126 00c8 4FF61F03 		movw	r3, #63519
 127 00cc FFF7FEFF 		bl	TFTSHIELD_1_FillCircle
  44:.\main.c      ****     
  45:.\main.c      ****     //TFTSHIELD_1_FillRect(150, 150, 75,75, YELLOW);
  46:.\main.c      ****     if(touch_en)
  47:.\main.c      ****     {
  48:.\main.c      ****        // TFTSHIELD_1_PrintString("GO1");
  49:.\main.c      ****     }
  50:.\main.c      ****     //initializes touchscreen
  51:.\main.c      ****     //clock must be set to 1MHZ when polling the touchscreen..
  52:.\main.c      ****     Clock_1_SetDividerValue(24);
 128              		.loc 1 52 0
 129 00d0 4FF01700 		mov	r0, #23
 130 00d4 4FF00101 		mov	r1, #1
 131 00d8 FFF7FEFF 		bl	Clock_1_SetDividerRegister
  53:.\main.c      ****     CyDelay(10);
 132              		.loc 1 53 0
 133 00dc 4FF00A00 		mov	r0, #10
 134 00e0 FFF7FEFF 		bl	CyDelay
  54:.\main.c      ****     
  55:.\main.c      ****     //int touchon = 0;
  56:.\main.c      ****     if(TFTSHIELD_1_StartTouch())
 135              		.loc 1 56 0
 136 00e4 FFF7FEFF 		bl	TFTSHIELD_1_StartTouch
 137 00e8 0346     		mov	r3, r0
 138 00ea 002B     		cmp	r3, #0
 139 00ec 0FD0     		beq	.L3
  57:.\main.c      ****     {
  58:.\main.c      ****          //touchon = 1;  
  59:.\main.c      ****         Clock_1_SetDividerValue(1);
 140              		.loc 1 59 0
 141 00ee 4FF00000 		mov	r0, #0
 142 00f2 4FF00101 		mov	r1, #1
 143 00f6 FFF7FEFF 		bl	Clock_1_SetDividerRegister
  60:.\main.c      ****         CyDelay(1);
 144              		.loc 1 60 0
 145 00fa 4FF00100 		mov	r0, #1
 146 00fe FFF7FEFF 		bl	CyDelay
  61:.\main.c      ****         //TFTSHIELD_1_PrintString("     GO2");
  62:.\main.c      ****         Clock_1_SetDividerValue(24);
 147              		.loc 1 62 0
 148 0102 4FF01700 		mov	r0, #23
 149 0106 4FF00101 		mov	r1, #1
 150 010a FFF7FEFF 		bl	Clock_1_SetDividerRegister
 151              	.L3:
 152              	.LBB2:
  63:.\main.c      ****     } 
  64:.\main.c      ****     
  65:.\main.c      ****     
  66:.\main.c      ****     
  67:.\main.c      ****     for(;;)
  68:.\main.c      ****     {
  69:.\main.c      ****         Clock_1_SetDividerValue(24);
 153              		.loc 1 69 0
 154 010e 4FF01700 		mov	r0, #23
 155 0112 4FF00101 		mov	r1, #1
 156 0116 FFF7FEFF 		bl	Clock_1_SetDividerRegister
ARM GAS  C:\Users\Brian\AppData\Local\Temp\ccJGU8mr.s 			page 5


  70:.\main.c      ****         uint16_t x, y;
  71:.\main.c      ****         uint8_t z, buf;
  72:.\main.c      ****         char buffer[50];
  73:.\main.c      ****         //Clock_1_SetDividerValue(24);
  74:.\main.c      ****         CyDelay(1);
 157              		.loc 1 74 0
 158 011a 4FF00100 		mov	r0, #1
 159 011e FFF7FEFF 		bl	CyDelay
  75:.\main.c      ****         while(TFTSHIELD_1_Touched())
 160              		.loc 1 75 0
 161 0122 5CE0     		b	.L4
 162              	.L5:
  76:.\main.c      ****         {
  77:.\main.c      ****             Clock_1_SetDividerValue(24);
 163              		.loc 1 77 0
 164 0124 4FF01700 		mov	r0, #23
 165 0128 4FF00101 		mov	r1, #1
 166 012c FFF7FEFF 		bl	Clock_1_SetDividerRegister
  78:.\main.c      ****                
  79:.\main.c      ****             //while(!TFTSHIELD_1_BufferEmpty())
  80:.\main.c      ****             //{
  81:.\main.c      ****                 //TFTSHIELD_1_BufferSize();
  82:.\main.c      ****                 buf = TFTSHIELD_1_BufferSize();
 167              		.loc 1 82 0
 168 0130 FFF7FEFF 		bl	TFTSHIELD_1_BufferSize
 169 0134 0346     		mov	r3, r0
 170 0136 87F83E30 		strb	r3, [r7, #62]
  83:.\main.c      ****                 z = 255;
 171              		.loc 1 83 0
 172 013a 4FF0FF03 		mov	r3, #255
 173 013e 87F83930 		strb	r3, [r7, #57]
  84:.\main.c      ****                 TFTSHIELD_1_ReadData(&x,&y,&z);
 174              		.loc 1 84 0
 175 0142 07F13C01 		add	r1, r7, #60
 176 0146 07F13A02 		add	r2, r7, #58
 177 014a 07F13903 		add	r3, r7, #57
 178 014e 0846     		mov	r0, r1
 179 0150 1146     		mov	r1, r2
 180 0152 1A46     		mov	r2, r3
 181 0154 FFF7FEFF 		bl	TFTSHIELD_1_ReadData
  85:.\main.c      ****                 sprintf(buffer,"x,y,z: %i    %i",buf,z);
 182              		.loc 1 85 0
 183 0158 97F83E20 		ldrb	r2, [r7, #62]	@ zero_extendqisi2
 184 015c 97F83930 		ldrb	r3, [r7, #57]	@ zero_extendqisi2
 185 0160 07F10401 		add	r1, r7, #4
 186 0164 0846     		mov	r0, r1
 187 0166 40F20001 		movw	r1, #:lower16:.LC0
 188 016a C0F20001 		movt	r1, #:upper16:.LC0
 189 016e FFF7FEFF 		bl	sprintf
  86:.\main.c      ****                 Clock_1_SetDividerValue(1);
 190              		.loc 1 86 0
 191 0172 4FF00000 		mov	r0, #0
 192 0176 4FF00101 		mov	r1, #1
 193 017a FFF7FEFF 		bl	Clock_1_SetDividerRegister
  87:.\main.c      ****                 CyDelay(1);
 194              		.loc 1 87 0
 195 017e 4FF00100 		mov	r0, #1
ARM GAS  C:\Users\Brian\AppData\Local\Temp\ccJGU8mr.s 			page 6


 196 0182 FFF7FEFF 		bl	CyDelay
  88:.\main.c      ****                 TFTSHIELD_1_PrintString(buffer);
 197              		.loc 1 88 0
 198 0186 07F10403 		add	r3, r7, #4
 199 018a 1846     		mov	r0, r3
 200 018c FFF7FEFF 		bl	TFTSHIELD_1_PrintString
  89:.\main.c      ****                 CyDelay(1);
 201              		.loc 1 89 0
 202 0190 4FF00100 		mov	r0, #1
 203 0194 FFF7FEFF 		bl	CyDelay
  90:.\main.c      ****                 TFTSHIELD_1_FillRect(40, 0, 200,20, BLACK);
 204              		.loc 1 90 0
 205 0198 4FF00003 		mov	r3, #0
 206 019c 0093     		str	r3, [sp, #0]
 207 019e 4FF02800 		mov	r0, #40
 208 01a2 4FF00001 		mov	r1, #0
 209 01a6 4FF0C802 		mov	r2, #200
 210 01aa 4FF01403 		mov	r3, #20
 211 01ae FFF7FEFF 		bl	TFTSHIELD_1_FillRect
  91:.\main.c      ****                 TFTSHIELD_1_SetCursor(0,0);
 212              		.loc 1 91 0
 213 01b2 4FF00000 		mov	r0, #0
 214 01b6 4FF00001 		mov	r1, #0
 215 01ba FFF7FEFF 		bl	TFTSHIELD_1_SetCursor
  92:.\main.c      ****                 Clock_1_SetDividerValue(24);
 216              		.loc 1 92 0
 217 01be 4FF01700 		mov	r0, #23
 218 01c2 4FF00101 		mov	r1, #1
 219 01c6 FFF7FEFF 		bl	Clock_1_SetDividerRegister
  93:.\main.c      ****                 CyDelay(1);
 220              		.loc 1 93 0
 221 01ca 4FF00100 		mov	r0, #1
 222 01ce FFF7FEFF 		bl	CyDelay
  94:.\main.c      ****                 
  95:.\main.c      ****                 /*if(buf == 0)
  96:.\main.c      ****                 {
  97:.\main.c      ****                     TFTSHIELD_1_WriteRegister8(STMPE_INT_STA, 0xFF); // reset all ints
  98:.\main.c      ****                 }*/
  99:.\main.c      ****             //}
 100:.\main.c      ****             Clock_1_SetDividerValue(24);
 223              		.loc 1 100 0
 224 01d2 4FF01700 		mov	r0, #23
 225 01d6 4FF00101 		mov	r1, #1
 226 01da FFF7FEFF 		bl	Clock_1_SetDividerRegister
 227              	.L4:
  75:.\main.c      ****         while(TFTSHIELD_1_Touched())
 228              		.loc 1 75 0 discriminator 1
 229 01de FFF7FEFF 		bl	TFTSHIELD_1_Touched
 230 01e2 0346     		mov	r3, r0
 231 01e4 002B     		cmp	r3, #0
 232 01e6 9DD1     		bne	.L5
 101:.\main.c      ****             
 102:.\main.c      ****              
 103:.\main.c      ****         }
 104:.\main.c      ****         TFTSHIELD_1_WriteRegister8(STMPE_INT_STA, 0xFF); // reset all ints
 233              		.loc 1 104 0
 234 01e8 4FF00B00 		mov	r0, #11
ARM GAS  C:\Users\Brian\AppData\Local\Temp\ccJGU8mr.s 			page 7


 235 01ec 4FF0FF01 		mov	r1, #255
 236 01f0 FFF7FEFF 		bl	TFTSHIELD_1_WriteRegister8
 105:.\main.c      ****         TFTSHIELD_1_ResetBuffer();
 237              		.loc 1 105 0
 238 01f4 FFF7FEFF 		bl	TFTSHIELD_1_ResetBuffer
 106:.\main.c      ****         
 107:.\main.c      ****             //TFTSHIELD_1_FillRect(150, 150, 75,75, GREEN); 
 108:.\main.c      ****            
 109:.\main.c      ****       // }
 110:.\main.c      ****       // else
 111:.\main.c      ****        //{
 112:.\main.c      ****          //  TFTSHIELD_1_FillRect(150, 150, 75,75, RED); 
 113:.\main.c      ****       // }
 114:.\main.c      ****         CyDelay(10);
 239              		.loc 1 114 0
 240 01f8 4FF00A00 		mov	r0, #10
 241 01fc FFF7FEFF 		bl	CyDelay
 242              	.LBE2:
 115:.\main.c      ****     }
 243              		.loc 1 115 0
 244 0200 85E7     		b	.L3
 245              		.cfi_endproc
 246              	.LFE56:
 247              		.size	main, .-main
 248 0202 00BF     		.text
 249              	.Letext0:
 250              		.file 2 "c:\\program files (x86)\\cypress\\psoc creator\\3.0\\psoc creator\\import\\gnu_cs\\arm\\4
 251              		.file 3 "./Generated_Source/PSoC5/TFTSHIELD_1.h"
 252              		.file 4 "./Generated_Source/PSoC5/core_cm3.h"