ARM GAS  C:\Users\Brian\AppData\Local\Temp\ccPAhBxt.s 			page 1


   1              		.syntax unified
   2              		.cpu cortex-m3
   3              		.fpu softvfp
   4              		.eabi_attribute 20, 1
   5              		.eabi_attribute 21, 1
   6              		.eabi_attribute 23, 3
   7              		.eabi_attribute 24, 1
   8              		.eabi_attribute 25, 1
   9              		.eabi_attribute 26, 1
  10              		.eabi_attribute 30, 6
  11              		.eabi_attribute 34, 1
  12              		.eabi_attribute 18, 4
  13              		.thumb
  14              		.file	"TFTSHIELD_1.c"
  15              		.text
  16              	.Ltext0:
  17              		.cfi_sections	.debug_frame
  18              		.comm	cursor_x,2,2
  19              		.comm	cursor_y,2,2
  20              		.comm	textcolor,2,2
  21              		.comm	textbgcolor,2,2
  22              		.comm	textsize,1,1
  23              		.comm	rotation,1,1
  24              		.comm	wrap,1,1
  25              		.comm	_width,4,4
  26              		.comm	_height,4,4
  27              		.global	fontA
  28              		.section	.rodata
  29              		.align	2
  30              		.type	fontA, %object
  31              		.size	fontA, 768
  32              	fontA:
  33 0000 00       		.byte	0
  34 0001 00       		.byte	0
  35 0002 00       		.byte	0
  36 0003 00       		.byte	0
  37 0004 00       		.byte	0
  38 0005 00       		.byte	0
  39 0006 00       		.byte	0
  40 0007 00       		.byte	0
  41 0008 00       		.byte	0
  42 0009 00       		.byte	0
  43 000a 00       		.byte	0
  44 000b 00       		.byte	0
  45 000c 00       		.byte	0
  46 000d 00       		.byte	0
  47 000e 00       		.byte	0
  48 000f 00       		.byte	0
  49 0010 00       		.byte	0
  50 0011 00       		.byte	0
  51 0012 00       		.byte	0
  52 0013 00       		.byte	0
  53 0014 00       		.byte	0
  54 0015 00       		.byte	0
  55 0016 00       		.byte	0
  56 0017 00       		.byte	0
  57 0018 00       		.byte	0
ARM GAS  C:\Users\Brian\AppData\Local\Temp\ccPAhBxt.s 			page 2


  58 0019 00       		.byte	0
  59 001a 00       		.byte	0
  60 001b 00       		.byte	0
  61 001c 00       		.byte	0
  62 001d 00       		.byte	0
  63 001e 00       		.byte	0
  64 001f 00       		.byte	0
  65 0020 00       		.byte	0
  66 0021 00       		.byte	0
  67 0022 00       		.byte	0
  68 0023 00       		.byte	0
  69 0024 00       		.byte	0
  70 0025 00       		.byte	0
  71 0026 00       		.byte	0
  72 0027 00       		.byte	0
  73 0028 00       		.byte	0
  74 0029 00       		.byte	0
  75 002a 00       		.byte	0
  76 002b 00       		.byte	0
  77 002c 00       		.byte	0
  78 002d 00       		.byte	0
  79 002e 00       		.byte	0
  80 002f 00       		.byte	0
  81 0030 00       		.byte	0
  82 0031 00       		.byte	0
  83 0032 00       		.byte	0
  84 0033 00       		.byte	0
  85 0034 00       		.byte	0
  86 0035 00       		.byte	0
  87 0036 00       		.byte	0
  88 0037 00       		.byte	0
  89 0038 00       		.byte	0
  90 0039 00       		.byte	0
  91 003a 00       		.byte	0
  92 003b 00       		.byte	0
  93 003c 00       		.byte	0
  94 003d 00       		.byte	0
  95 003e 00       		.byte	0
  96 003f 00       		.byte	0
  97 0040 00       		.byte	0
  98 0041 00       		.byte	0
  99 0042 00       		.byte	0
 100 0043 00       		.byte	0
 101 0044 00       		.byte	0
 102 0045 00       		.byte	0
 103 0046 00       		.byte	0
 104 0047 00       		.byte	0
 105 0048 00       		.byte	0
 106 0049 00       		.byte	0
 107 004a 00       		.byte	0
 108 004b 00       		.byte	0
 109 004c 00       		.byte	0
 110 004d 00       		.byte	0
 111 004e 00       		.byte	0
 112 004f 00       		.byte	0
 113 0050 00       		.byte	0
 114 0051 00       		.byte	0
ARM GAS  C:\Users\Brian\AppData\Local\Temp\ccPAhBxt.s 			page 3


 115 0052 00       		.byte	0
 116 0053 00       		.byte	0
 117 0054 00       		.byte	0
 118 0055 00       		.byte	0
 119 0056 00       		.byte	0
 120 0057 00       		.byte	0
 121 0058 00       		.byte	0
 122 0059 00       		.byte	0
 123 005a 00       		.byte	0
 124 005b 00       		.byte	0
 125 005c 00       		.byte	0
 126 005d 00       		.byte	0
 127 005e 00       		.byte	0
 128 005f 00       		.byte	0
 129 0060 00       		.byte	0
 130 0061 00       		.byte	0
 131 0062 00       		.byte	0
 132 0063 00       		.byte	0
 133 0064 00       		.byte	0
 134 0065 00       		.byte	0
 135 0066 00       		.byte	0
 136 0067 00       		.byte	0
 137 0068 00       		.byte	0
 138 0069 00       		.byte	0
 139 006a 00       		.byte	0
 140 006b 00       		.byte	0
 141 006c 00       		.byte	0
 142 006d 00       		.byte	0
 143 006e 00       		.byte	0
 144 006f 00       		.byte	0
 145 0070 00       		.byte	0
 146 0071 00       		.byte	0
 147 0072 00       		.byte	0
 148 0073 00       		.byte	0
 149 0074 00       		.byte	0
 150 0075 00       		.byte	0
 151 0076 00       		.byte	0
 152 0077 00       		.byte	0
 153 0078 00       		.byte	0
 154 0079 00       		.byte	0
 155 007a 00       		.byte	0
 156 007b 00       		.byte	0
 157 007c 00       		.byte	0
 158 007d 00       		.byte	0
 159 007e 00       		.byte	0
 160 007f 00       		.byte	0
 161 0080 00       		.byte	0
 162 0081 00       		.byte	0
 163 0082 00       		.byte	0
 164 0083 00       		.byte	0
 165 0084 00       		.byte	0
 166 0085 00       		.byte	0
 167 0086 00       		.byte	0
 168 0087 00       		.byte	0
 169 0088 00       		.byte	0
 170 0089 00       		.byte	0
 171 008a 00       		.byte	0
ARM GAS  C:\Users\Brian\AppData\Local\Temp\ccPAhBxt.s 			page 4


 172 008b 00       		.byte	0
 173 008c 00       		.byte	0
 174 008d 00       		.byte	0
 175 008e 00       		.byte	0
 176 008f 00       		.byte	0
 177 0090 00       		.byte	0
 178 0091 00       		.byte	0
 179 0092 00       		.byte	0
 180 0093 00       		.byte	0
 181 0094 00       		.byte	0
 182 0095 00       		.byte	0
 183 0096 00       		.byte	0
 184 0097 00       		.byte	0
 185 0098 00       		.byte	0
 186 0099 00       		.byte	0
 187 009a 00       		.byte	0
 188 009b 00       		.byte	0
 189 009c 00       		.byte	0
 190 009d 00       		.byte	0
 191 009e 00       		.byte	0
 192 009f 00       		.byte	0
 193 00a0 00       		.byte	0
 194 00a1 00       		.byte	0
 195 00a2 00       		.byte	0
 196 00a3 00       		.byte	0
 197 00a4 00       		.byte	0
 198 00a5 00       		.byte	0
 199 00a6 00       		.byte	0
 200 00a7 00       		.byte	0
 201 00a8 00       		.byte	0
 202 00a9 00       		.byte	0
 203 00aa 00       		.byte	0
 204 00ab 00       		.byte	0
 205 00ac 00       		.byte	0
 206 00ad 00       		.byte	0
 207 00ae 00       		.byte	0
 208 00af 00       		.byte	0
 209 00b0 00       		.byte	0
 210 00b1 00       		.byte	0
 211 00b2 00       		.byte	0
 212 00b3 00       		.byte	0
 213 00b4 00       		.byte	0
 214 00b5 00       		.byte	0
 215 00b6 00       		.byte	0
 216 00b7 00       		.byte	0
 217 00b8 00       		.byte	0
 218 00b9 00       		.byte	0
 219 00ba 00       		.byte	0
 220 00bb 00       		.byte	0
 221 00bc 00       		.byte	0
 222 00bd 00       		.byte	0
 223 00be 00       		.byte	0
 224 00bf 00       		.byte	0
 225 00c0 00       		.byte	0
 226 00c1 00       		.byte	0
 227 00c2 00       		.byte	0
 228 00c3 00       		.byte	0
ARM GAS  C:\Users\Brian\AppData\Local\Temp\ccPAhBxt.s 			page 5


 229 00c4 00       		.byte	0
 230 00c5 00       		.byte	0
 231 00c6 00       		.byte	0
 232 00c7 00       		.byte	0
 233 00c8 00       		.byte	0
 234 00c9 4F       		.byte	79
 235 00ca 00       		.byte	0
 236 00cb 00       		.byte	0
 237 00cc 00       		.byte	0
 238 00cd 00       		.byte	0
 239 00ce 07       		.byte	7
 240 00cf 00       		.byte	0
 241 00d0 07       		.byte	7
 242 00d1 00       		.byte	0
 243 00d2 00       		.byte	0
 244 00d3 14       		.byte	20
 245 00d4 7F       		.byte	127
 246 00d5 14       		.byte	20
 247 00d6 7F       		.byte	127
 248 00d7 14       		.byte	20
 249 00d8 00       		.byte	0
 250 00d9 24       		.byte	36
 251 00da 2A       		.byte	42
 252 00db 7F       		.byte	127
 253 00dc 2A       		.byte	42
 254 00dd 12       		.byte	18
 255 00de 00       		.byte	0
 256 00df 23       		.byte	35
 257 00e0 13       		.byte	19
 258 00e1 08       		.byte	8
 259 00e2 64       		.byte	100
 260 00e3 62       		.byte	98
 261 00e4 00       		.byte	0
 262 00e5 36       		.byte	54
 263 00e6 49       		.byte	73
 264 00e7 55       		.byte	85
 265 00e8 22       		.byte	34
 266 00e9 50       		.byte	80
 267 00ea 00       		.byte	0
 268 00eb 00       		.byte	0
 269 00ec 05       		.byte	5
 270 00ed 03       		.byte	3
 271 00ee 00       		.byte	0
 272 00ef 00       		.byte	0
 273 00f0 00       		.byte	0
 274 00f1 00       		.byte	0
 275 00f2 1C       		.byte	28
 276 00f3 22       		.byte	34
 277 00f4 41       		.byte	65
 278 00f5 00       		.byte	0
 279 00f6 00       		.byte	0
 280 00f7 00       		.byte	0
 281 00f8 41       		.byte	65
 282 00f9 22       		.byte	34
 283 00fa 1C       		.byte	28
 284 00fb 00       		.byte	0
 285 00fc 00       		.byte	0
ARM GAS  C:\Users\Brian\AppData\Local\Temp\ccPAhBxt.s 			page 6


 286 00fd 14       		.byte	20
 287 00fe 08       		.byte	8
 288 00ff 3E       		.byte	62
 289 0100 08       		.byte	8
 290 0101 14       		.byte	20
 291 0102 00       		.byte	0
 292 0103 08       		.byte	8
 293 0104 08       		.byte	8
 294 0105 3E       		.byte	62
 295 0106 08       		.byte	8
 296 0107 08       		.byte	8
 297 0108 00       		.byte	0
 298 0109 00       		.byte	0
 299 010a 50       		.byte	80
 300 010b 30       		.byte	48
 301 010c 00       		.byte	0
 302 010d 00       		.byte	0
 303 010e 00       		.byte	0
 304 010f 08       		.byte	8
 305 0110 08       		.byte	8
 306 0111 08       		.byte	8
 307 0112 08       		.byte	8
 308 0113 08       		.byte	8
 309 0114 00       		.byte	0
 310 0115 00       		.byte	0
 311 0116 60       		.byte	96
 312 0117 60       		.byte	96
 313 0118 00       		.byte	0
 314 0119 00       		.byte	0
 315 011a 00       		.byte	0
 316 011b 20       		.byte	32
 317 011c 10       		.byte	16
 318 011d 08       		.byte	8
 319 011e 04       		.byte	4
 320 011f 02       		.byte	2
 321 0120 00       		.byte	0
 322 0121 3E       		.byte	62
 323 0122 51       		.byte	81
 324 0123 49       		.byte	73
 325 0124 45       		.byte	69
 326 0125 3E       		.byte	62
 327 0126 00       		.byte	0
 328 0127 00       		.byte	0
 329 0128 42       		.byte	66
 330 0129 7F       		.byte	127
 331 012a 40       		.byte	64
 332 012b 00       		.byte	0
 333 012c 00       		.byte	0
 334 012d 42       		.byte	66
 335 012e 61       		.byte	97
 336 012f 51       		.byte	81
 337 0130 49       		.byte	73
 338 0131 46       		.byte	70
 339 0132 00       		.byte	0
 340 0133 21       		.byte	33
 341 0134 41       		.byte	65
 342 0135 45       		.byte	69
ARM GAS  C:\Users\Brian\AppData\Local\Temp\ccPAhBxt.s 			page 7


 343 0136 4B       		.byte	75
 344 0137 31       		.byte	49
 345 0138 00       		.byte	0
 346 0139 18       		.byte	24
 347 013a 14       		.byte	20
 348 013b 12       		.byte	18
 349 013c 7F       		.byte	127
 350 013d 10       		.byte	16
 351 013e 00       		.byte	0
 352 013f 27       		.byte	39
 353 0140 45       		.byte	69
 354 0141 45       		.byte	69
 355 0142 45       		.byte	69
 356 0143 39       		.byte	57
 357 0144 00       		.byte	0
 358 0145 3C       		.byte	60
 359 0146 4A       		.byte	74
 360 0147 49       		.byte	73
 361 0148 49       		.byte	73
 362 0149 30       		.byte	48
 363 014a 00       		.byte	0
 364 014b 01       		.byte	1
 365 014c 71       		.byte	113
 366 014d 09       		.byte	9
 367 014e 05       		.byte	5
 368 014f 03       		.byte	3
 369 0150 00       		.byte	0
 370 0151 36       		.byte	54
 371 0152 49       		.byte	73
 372 0153 49       		.byte	73
 373 0154 49       		.byte	73
 374 0155 36       		.byte	54
 375 0156 00       		.byte	0
 376 0157 06       		.byte	6
 377 0158 49       		.byte	73
 378 0159 49       		.byte	73
 379 015a 29       		.byte	41
 380 015b 1E       		.byte	30
 381 015c 00       		.byte	0
 382 015d 36       		.byte	54
 383 015e 36       		.byte	54
 384 015f 00       		.byte	0
 385 0160 00       		.byte	0
 386 0161 00       		.byte	0
 387 0162 00       		.byte	0
 388 0163 56       		.byte	86
 389 0164 36       		.byte	54
 390 0165 00       		.byte	0
 391 0166 00       		.byte	0
 392 0167 00       		.byte	0
 393 0168 00       		.byte	0
 394 0169 08       		.byte	8
 395 016a 14       		.byte	20
 396 016b 22       		.byte	34
 397 016c 41       		.byte	65
 398 016d 00       		.byte	0
 399 016e 00       		.byte	0
ARM GAS  C:\Users\Brian\AppData\Local\Temp\ccPAhBxt.s 			page 8


 400 016f 14       		.byte	20
 401 0170 14       		.byte	20
 402 0171 14       		.byte	20
 403 0172 14       		.byte	20
 404 0173 14       		.byte	20
 405 0174 00       		.byte	0
 406 0175 00       		.byte	0
 407 0176 41       		.byte	65
 408 0177 22       		.byte	34
 409 0178 14       		.byte	20
 410 0179 08       		.byte	8
 411 017a 00       		.byte	0
 412 017b 02       		.byte	2
 413 017c 01       		.byte	1
 414 017d 51       		.byte	81
 415 017e 09       		.byte	9
 416 017f 06       		.byte	6
 417 0180 00       		.byte	0
 418 0181 30       		.byte	48
 419 0182 49       		.byte	73
 420 0183 79       		.byte	121
 421 0184 41       		.byte	65
 422 0185 3E       		.byte	62
 423 0186 00       		.byte	0
 424 0187 7E       		.byte	126
 425 0188 11       		.byte	17
 426 0189 11       		.byte	17
 427 018a 11       		.byte	17
 428 018b 7E       		.byte	126
 429 018c 00       		.byte	0
 430 018d 7F       		.byte	127
 431 018e 49       		.byte	73
 432 018f 49       		.byte	73
 433 0190 49       		.byte	73
 434 0191 36       		.byte	54
 435 0192 00       		.byte	0
 436 0193 3E       		.byte	62
 437 0194 41       		.byte	65
 438 0195 41       		.byte	65
 439 0196 41       		.byte	65
 440 0197 22       		.byte	34
 441 0198 00       		.byte	0
 442 0199 7F       		.byte	127
 443 019a 41       		.byte	65
 444 019b 41       		.byte	65
 445 019c 22       		.byte	34
 446 019d 1C       		.byte	28
 447 019e 00       		.byte	0
 448 019f 7F       		.byte	127
 449 01a0 49       		.byte	73
 450 01a1 49       		.byte	73
 451 01a2 49       		.byte	73
 452 01a3 41       		.byte	65
 453 01a4 00       		.byte	0
 454 01a5 7F       		.byte	127
 455 01a6 09       		.byte	9
 456 01a7 09       		.byte	9
ARM GAS  C:\Users\Brian\AppData\Local\Temp\ccPAhBxt.s 			page 9


 457 01a8 09       		.byte	9
 458 01a9 01       		.byte	1
 459 01aa 00       		.byte	0
 460 01ab 3E       		.byte	62
 461 01ac 41       		.byte	65
 462 01ad 49       		.byte	73
 463 01ae 49       		.byte	73
 464 01af 7A       		.byte	122
 465 01b0 00       		.byte	0
 466 01b1 7F       		.byte	127
 467 01b2 08       		.byte	8
 468 01b3 08       		.byte	8
 469 01b4 08       		.byte	8
 470 01b5 7F       		.byte	127
 471 01b6 00       		.byte	0
 472 01b7 00       		.byte	0
 473 01b8 41       		.byte	65
 474 01b9 7F       		.byte	127
 475 01ba 41       		.byte	65
 476 01bb 00       		.byte	0
 477 01bc 00       		.byte	0
 478 01bd 20       		.byte	32
 479 01be 40       		.byte	64
 480 01bf 41       		.byte	65
 481 01c0 3F       		.byte	63
 482 01c1 01       		.byte	1
 483 01c2 00       		.byte	0
 484 01c3 7F       		.byte	127
 485 01c4 08       		.byte	8
 486 01c5 14       		.byte	20
 487 01c6 22       		.byte	34
 488 01c7 41       		.byte	65
 489 01c8 00       		.byte	0
 490 01c9 7F       		.byte	127
 491 01ca 40       		.byte	64
 492 01cb 40       		.byte	64
 493 01cc 40       		.byte	64
 494 01cd 40       		.byte	64
 495 01ce 00       		.byte	0
 496 01cf 7F       		.byte	127
 497 01d0 02       		.byte	2
 498 01d1 0C       		.byte	12
 499 01d2 02       		.byte	2
 500 01d3 7F       		.byte	127
 501 01d4 00       		.byte	0
 502 01d5 7F       		.byte	127
 503 01d6 04       		.byte	4
 504 01d7 08       		.byte	8
 505 01d8 10       		.byte	16
 506 01d9 7F       		.byte	127
 507 01da 00       		.byte	0
 508 01db 3E       		.byte	62
 509 01dc 41       		.byte	65
 510 01dd 41       		.byte	65
 511 01de 41       		.byte	65
 512 01df 3E       		.byte	62
 513 01e0 00       		.byte	0
ARM GAS  C:\Users\Brian\AppData\Local\Temp\ccPAhBxt.s 			page 10


 514 01e1 7F       		.byte	127
 515 01e2 09       		.byte	9
 516 01e3 09       		.byte	9
 517 01e4 09       		.byte	9
 518 01e5 06       		.byte	6
 519 01e6 00       		.byte	0
 520 01e7 3E       		.byte	62
 521 01e8 41       		.byte	65
 522 01e9 51       		.byte	81
 523 01ea 21       		.byte	33
 524 01eb 5E       		.byte	94
 525 01ec 00       		.byte	0
 526 01ed 7F       		.byte	127
 527 01ee 09       		.byte	9
 528 01ef 19       		.byte	25
 529 01f0 29       		.byte	41
 530 01f1 46       		.byte	70
 531 01f2 00       		.byte	0
 532 01f3 46       		.byte	70
 533 01f4 49       		.byte	73
 534 01f5 49       		.byte	73
 535 01f6 49       		.byte	73
 536 01f7 31       		.byte	49
 537 01f8 00       		.byte	0
 538 01f9 01       		.byte	1
 539 01fa 01       		.byte	1
 540 01fb 7F       		.byte	127
 541 01fc 01       		.byte	1
 542 01fd 01       		.byte	1
 543 01fe 00       		.byte	0
 544 01ff 3F       		.byte	63
 545 0200 40       		.byte	64
 546 0201 40       		.byte	64
 547 0202 40       		.byte	64
 548 0203 3F       		.byte	63
 549 0204 00       		.byte	0
 550 0205 1F       		.byte	31
 551 0206 20       		.byte	32
 552 0207 40       		.byte	64
 553 0208 20       		.byte	32
 554 0209 1F       		.byte	31
 555 020a 00       		.byte	0
 556 020b 3F       		.byte	63
 557 020c 40       		.byte	64
 558 020d 30       		.byte	48
 559 020e 40       		.byte	64
 560 020f 3F       		.byte	63
 561 0210 00       		.byte	0
 562 0211 63       		.byte	99
 563 0212 14       		.byte	20
 564 0213 08       		.byte	8
 565 0214 14       		.byte	20
 566 0215 63       		.byte	99
 567 0216 00       		.byte	0
 568 0217 07       		.byte	7
 569 0218 08       		.byte	8
 570 0219 70       		.byte	112
ARM GAS  C:\Users\Brian\AppData\Local\Temp\ccPAhBxt.s 			page 11


 571 021a 08       		.byte	8
 572 021b 07       		.byte	7
 573 021c 00       		.byte	0
 574 021d 61       		.byte	97
 575 021e 51       		.byte	81
 576 021f 49       		.byte	73
 577 0220 45       		.byte	69
 578 0221 43       		.byte	67
 579 0222 00       		.byte	0
 580 0223 00       		.byte	0
 581 0224 7F       		.byte	127
 582 0225 41       		.byte	65
 583 0226 41       		.byte	65
 584 0227 00       		.byte	0
 585 0228 00       		.byte	0
 586 0229 02       		.byte	2
 587 022a 04       		.byte	4
 588 022b 08       		.byte	8
 589 022c 10       		.byte	16
 590 022d 20       		.byte	32
 591 022e 00       		.byte	0
 592 022f 00       		.byte	0
 593 0230 41       		.byte	65
 594 0231 41       		.byte	65
 595 0232 7F       		.byte	127
 596 0233 00       		.byte	0
 597 0234 00       		.byte	0
 598 0235 04       		.byte	4
 599 0236 02       		.byte	2
 600 0237 01       		.byte	1
 601 0238 02       		.byte	2
 602 0239 04       		.byte	4
 603 023a 00       		.byte	0
 604 023b 40       		.byte	64
 605 023c 40       		.byte	64
 606 023d 40       		.byte	64
 607 023e 40       		.byte	64
 608 023f 40       		.byte	64
 609 0240 00       		.byte	0
 610 0241 00       		.byte	0
 611 0242 01       		.byte	1
 612 0243 02       		.byte	2
 613 0244 04       		.byte	4
 614 0245 00       		.byte	0
 615 0246 00       		.byte	0
 616 0247 20       		.byte	32
 617 0248 54       		.byte	84
 618 0249 54       		.byte	84
 619 024a 54       		.byte	84
 620 024b 78       		.byte	120
 621 024c 00       		.byte	0
 622 024d 7F       		.byte	127
 623 024e 50       		.byte	80
 624 024f 48       		.byte	72
 625 0250 48       		.byte	72
 626 0251 30       		.byte	48
 627 0252 00       		.byte	0
ARM GAS  C:\Users\Brian\AppData\Local\Temp\ccPAhBxt.s 			page 12


 628 0253 38       		.byte	56
 629 0254 44       		.byte	68
 630 0255 44       		.byte	68
 631 0256 44       		.byte	68
 632 0257 20       		.byte	32
 633 0258 00       		.byte	0
 634 0259 38       		.byte	56
 635 025a 44       		.byte	68
 636 025b 44       		.byte	68
 637 025c 48       		.byte	72
 638 025d 7F       		.byte	127
 639 025e 00       		.byte	0
 640 025f 38       		.byte	56
 641 0260 54       		.byte	84
 642 0261 54       		.byte	84
 643 0262 54       		.byte	84
 644 0263 18       		.byte	24
 645 0264 00       		.byte	0
 646 0265 08       		.byte	8
 647 0266 7E       		.byte	126
 648 0267 09       		.byte	9
 649 0268 01       		.byte	1
 650 0269 02       		.byte	2
 651 026a 00       		.byte	0
 652 026b 0C       		.byte	12
 653 026c 52       		.byte	82
 654 026d 52       		.byte	82
 655 026e 52       		.byte	82
 656 026f 3E       		.byte	62
 657 0270 00       		.byte	0
 658 0271 7F       		.byte	127
 659 0272 08       		.byte	8
 660 0273 04       		.byte	4
 661 0274 04       		.byte	4
 662 0275 78       		.byte	120
 663 0276 00       		.byte	0
 664 0277 00       		.byte	0
 665 0278 44       		.byte	68
 666 0279 7D       		.byte	125
 667 027a 40       		.byte	64
 668 027b 00       		.byte	0
 669 027c 00       		.byte	0
 670 027d 20       		.byte	32
 671 027e 40       		.byte	64
 672 027f 44       		.byte	68
 673 0280 3D       		.byte	61
 674 0281 00       		.byte	0
 675 0282 00       		.byte	0
 676 0283 7F       		.byte	127
 677 0284 10       		.byte	16
 678 0285 28       		.byte	40
 679 0286 44       		.byte	68
 680 0287 00       		.byte	0
 681 0288 00       		.byte	0
 682 0289 00       		.byte	0
 683 028a 41       		.byte	65
 684 028b 7F       		.byte	127
ARM GAS  C:\Users\Brian\AppData\Local\Temp\ccPAhBxt.s 			page 13


 685 028c 40       		.byte	64
 686 028d 00       		.byte	0
 687 028e 00       		.byte	0
 688 028f 78       		.byte	120
 689 0290 04       		.byte	4
 690 0291 58       		.byte	88
 691 0292 44       		.byte	68
 692 0293 78       		.byte	120
 693 0294 00       		.byte	0
 694 0295 7C       		.byte	124
 695 0296 08       		.byte	8
 696 0297 04       		.byte	4
 697 0298 04       		.byte	4
 698 0299 78       		.byte	120
 699 029a 00       		.byte	0
 700 029b 38       		.byte	56
 701 029c 44       		.byte	68
 702 029d 44       		.byte	68
 703 029e 44       		.byte	68
 704 029f 38       		.byte	56
 705 02a0 00       		.byte	0
 706 02a1 7C       		.byte	124
 707 02a2 14       		.byte	20
 708 02a3 14       		.byte	20
 709 02a4 14       		.byte	20
 710 02a5 08       		.byte	8
 711 02a6 00       		.byte	0
 712 02a7 08       		.byte	8
 713 02a8 14       		.byte	20
 714 02a9 14       		.byte	20
 715 02aa 18       		.byte	24
 716 02ab 7C       		.byte	124
 717 02ac 00       		.byte	0
 718 02ad 7C       		.byte	124
 719 02ae 08       		.byte	8
 720 02af 04       		.byte	4
 721 02b0 04       		.byte	4
 722 02b1 08       		.byte	8
 723 02b2 00       		.byte	0
 724 02b3 48       		.byte	72
 725 02b4 54       		.byte	84
 726 02b5 54       		.byte	84
 727 02b6 54       		.byte	84
 728 02b7 20       		.byte	32
 729 02b8 00       		.byte	0
 730 02b9 04       		.byte	4
 731 02ba 3F       		.byte	63
 732 02bb 44       		.byte	68
 733 02bc 40       		.byte	64
 734 02bd 20       		.byte	32
 735 02be 00       		.byte	0
 736 02bf 3C       		.byte	60
 737 02c0 40       		.byte	64
 738 02c1 40       		.byte	64
 739 02c2 20       		.byte	32
 740 02c3 7C       		.byte	124
 741 02c4 00       		.byte	0
ARM GAS  C:\Users\Brian\AppData\Local\Temp\ccPAhBxt.s 			page 14


 742 02c5 1C       		.byte	28
 743 02c6 20       		.byte	32
 744 02c7 40       		.byte	64
 745 02c8 20       		.byte	32
 746 02c9 1C       		.byte	28
 747 02ca 00       		.byte	0
 748 02cb 3C       		.byte	60
 749 02cc 40       		.byte	64
 750 02cd 30       		.byte	48
 751 02ce 40       		.byte	64
 752 02cf 3C       		.byte	60
 753 02d0 00       		.byte	0
 754 02d1 44       		.byte	68
 755 02d2 28       		.byte	40
 756 02d3 10       		.byte	16
 757 02d4 28       		.byte	40
 758 02d5 44       		.byte	68
 759 02d6 00       		.byte	0
 760 02d7 0C       		.byte	12
 761 02d8 50       		.byte	80
 762 02d9 50       		.byte	80
 763 02da 50       		.byte	80
 764 02db 3C       		.byte	60
 765 02dc 00       		.byte	0
 766 02dd 44       		.byte	68
 767 02de 64       		.byte	100
 768 02df 54       		.byte	84
 769 02e0 4C       		.byte	76
 770 02e1 44       		.byte	68
 771 02e2 00       		.byte	0
 772 02e3 00       		.byte	0
 773 02e4 08       		.byte	8
 774 02e5 36       		.byte	54
 775 02e6 41       		.byte	65
 776 02e7 00       		.byte	0
 777 02e8 00       		.byte	0
 778 02e9 00       		.byte	0
 779 02ea 00       		.byte	0
 780 02eb 7F       		.byte	127
 781 02ec 00       		.byte	0
 782 02ed 00       		.byte	0
 783 02ee 00       		.byte	0
 784 02ef 00       		.byte	0
 785 02f0 41       		.byte	65
 786 02f1 36       		.byte	54
 787 02f2 08       		.byte	8
 788 02f3 00       		.byte	0
 789 02f4 00       		.byte	0
 790 02f5 0C       		.byte	12
 791 02f6 02       		.byte	2
 792 02f7 0C       		.byte	12
 793 02f8 10       		.byte	16
 794 02f9 0C       		.byte	12
 795 02fa 00       		.byte	0
 796 02fb 00       		.byte	0
 797 02fc 00       		.byte	0
 798 02fd 00       		.byte	0
ARM GAS  C:\Users\Brian\AppData\Local\Temp\ccPAhBxt.s 			page 15


 799 02fe 00       		.byte	0
 800 02ff 00       		.byte	0
 801              		.section	.text.TFTSHIELD_1_Start,"ax",%progbits
 802              		.align	2
 803              		.global	TFTSHIELD_1_Start
 804              		.thumb
 805              		.thumb_func
 806              		.type	TFTSHIELD_1_Start, %function
 807              	TFTSHIELD_1_Start:
 808              	.LFB0:
 809              		.file 1 ".\\Generated_Source\\PSoC5\\TFTSHIELD_1.c"
   1:.\Generated_Source\PSoC5/TFTSHIELD_1.c **** /**
   2:.\Generated_Source\PSoC5/TFTSHIELD_1.c **** * \file TFTSHIELD.c
   3:.\Generated_Source\PSoC5/TFTSHIELD_1.c **** * \brief This file provides the source code to the API for the TFTSHIELD
   4:.\Generated_Source\PSoC5/TFTSHIELD_1.c **** *   component
   5:.\Generated_Source\PSoC5/TFTSHIELD_1.c **** *
   6:.\Generated_Source\PSoC5/TFTSHIELD_1.c **** * Version 1.0
   7:.\Generated_Source\PSoC5/TFTSHIELD_1.c **** *
   8:.\Generated_Source\PSoC5/TFTSHIELD_1.c **** * \author Robert Barron
   9:.\Generated_Source\PSoC5/TFTSHIELD_1.c **** *
  10:.\Generated_Source\PSoC5/TFTSHIELD_1.c **** * \bug The text and shape drawing origins are in opposite corners, at least when the screen orienta
  11:.\Generated_Source\PSoC5/TFTSHIELD_1.c **** *
  12:.\Generated_Source\PSoC5/TFTSHIELD_1.c **** * 
  13:.\Generated_Source\PSoC5/TFTSHIELD_1.c **** *
  14:.\Generated_Source\PSoC5/TFTSHIELD_1.c **** * Copyright RPI Design Lab, 2014
  15:.\Generated_Source\PSoC5/TFTSHIELD_1.c **** * All Rights Reserved
  16:.\Generated_Source\PSoC5/TFTSHIELD_1.c **** * UNPUBLISHED, LICENSED SOFTWARE.
  17:.\Generated_Source\PSoC5/TFTSHIELD_1.c **** *
  18:.\Generated_Source\PSoC5/TFTSHIELD_1.c **** * CONFIDENTIAL AND PROPRIETARY INFORMATION
  19:.\Generated_Source\PSoC5/TFTSHIELD_1.c **** * WHICH IS THE PROPERTY OF the RPI Design Lab.
  20:.\Generated_Source\PSoC5/TFTSHIELD_1.c **** *
  21:.\Generated_Source\PSoC5/TFTSHIELD_1.c **** * 
  22:.\Generated_Source\PSoC5/TFTSHIELD_1.c **** */
  23:.\Generated_Source\PSoC5/TFTSHIELD_1.c **** 
  24:.\Generated_Source\PSoC5/TFTSHIELD_1.c **** #include "TFTSHIELD_1.h"
  25:.\Generated_Source\PSoC5/TFTSHIELD_1.c **** 
  26:.\Generated_Source\PSoC5/TFTSHIELD_1.c **** /*uint16 color_pass;
  27:.\Generated_Source\PSoC5/TFTSHIELD_1.c **** uint16 wave_table[ROW], count,x,i=0,j=0,k=2;
  28:.\Generated_Source\PSoC5/TFTSHIELD_1.c **** uint8 amplitude,wave,wave_color,set;
  29:.\Generated_Source\PSoC5/TFTSHIELD_1.c **** uint8 ch,tri;*/
  30:.\Generated_Source\PSoC5/TFTSHIELD_1.c **** 
  31:.\Generated_Source\PSoC5/TFTSHIELD_1.c **** /** @brief ASCII font*/
  32:.\Generated_Source\PSoC5/TFTSHIELD_1.c **** const char fontA[128][6]  =
  33:.\Generated_Source\PSoC5/TFTSHIELD_1.c **** {
  34:.\Generated_Source\PSoC5/TFTSHIELD_1.c **** 	{0x00,0x00,0x00,0x00,0x00,0x00},
  35:.\Generated_Source\PSoC5/TFTSHIELD_1.c **** 	{0x00,0x00,0x00,0x00,0x00,0x00},
  36:.\Generated_Source\PSoC5/TFTSHIELD_1.c **** 	{0x00,0x00,0x00,0x00,0x00,0x00},
  37:.\Generated_Source\PSoC5/TFTSHIELD_1.c **** 	{0x00,0x00,0x00,0x00,0x00,0x00},
  38:.\Generated_Source\PSoC5/TFTSHIELD_1.c **** 	{0x00,0x00,0x00,0x00,0x00,0x00},
  39:.\Generated_Source\PSoC5/TFTSHIELD_1.c **** 	{0x00,0x00,0x00,0x00,0x00,0x00},
  40:.\Generated_Source\PSoC5/TFTSHIELD_1.c **** 	{0x00,0x00,0x00,0x00,0x00,0x00},
  41:.\Generated_Source\PSoC5/TFTSHIELD_1.c **** 	{0x00,0x00,0x00,0x00,0x00,0x00},
  42:.\Generated_Source\PSoC5/TFTSHIELD_1.c **** 	{0x00,0x00,0x00,0x00,0x00,0x00},
  43:.\Generated_Source\PSoC5/TFTSHIELD_1.c **** 	{0x00,0x00,0x00,0x00,0x00,0x00},
  44:.\Generated_Source\PSoC5/TFTSHIELD_1.c **** 	{0x00,0x00,0x00,0x00,0x00,0x00},
  45:.\Generated_Source\PSoC5/TFTSHIELD_1.c **** 	{0x00,0x00,0x00,0x00,0x00,0x00},
  46:.\Generated_Source\PSoC5/TFTSHIELD_1.c **** 	{0x00,0x00,0x00,0x00,0x00,0x00},
ARM GAS  C:\Users\Brian\AppData\Local\Temp\ccPAhBxt.s 			page 16


  47:.\Generated_Source\PSoC5/TFTSHIELD_1.c **** 	{0x00,0x00,0x00,0x00,0x00,0x00},
  48:.\Generated_Source\PSoC5/TFTSHIELD_1.c **** 	{0x00,0x00,0x00,0x00,0x00,0x00},
  49:.\Generated_Source\PSoC5/TFTSHIELD_1.c **** 	{0x00,0x00,0x00,0x00,0x00,0x00},
  50:.\Generated_Source\PSoC5/TFTSHIELD_1.c **** 	{0x00,0x00,0x00,0x00,0x00,0x00},
  51:.\Generated_Source\PSoC5/TFTSHIELD_1.c **** 	{0x00,0x00,0x00,0x00,0x00,0x00},
  52:.\Generated_Source\PSoC5/TFTSHIELD_1.c **** 	{0x00,0x00,0x00,0x00,0x00,0x00},
  53:.\Generated_Source\PSoC5/TFTSHIELD_1.c **** 	{0x00,0x00,0x00,0x00,0x00,0x00},
  54:.\Generated_Source\PSoC5/TFTSHIELD_1.c **** 	{0x00,0x00,0x00,0x00,0x00,0x00},
  55:.\Generated_Source\PSoC5/TFTSHIELD_1.c **** 	{0x00,0x00,0x00,0x00,0x00,0x00},
  56:.\Generated_Source\PSoC5/TFTSHIELD_1.c **** 	{0x00,0x00,0x00,0x00,0x00,0x00},
  57:.\Generated_Source\PSoC5/TFTSHIELD_1.c **** 	{0x00,0x00,0x00,0x00,0x00,0x00},
  58:.\Generated_Source\PSoC5/TFTSHIELD_1.c **** 	{0x00,0x00,0x00,0x00,0x00,0x00},
  59:.\Generated_Source\PSoC5/TFTSHIELD_1.c **** 	{0x00,0x00,0x00,0x00,0x00,0x00},
  60:.\Generated_Source\PSoC5/TFTSHIELD_1.c **** 	{0x00,0x00,0x00,0x00,0x00,0x00},
  61:.\Generated_Source\PSoC5/TFTSHIELD_1.c **** 	{0x00,0x00,0x00,0x00,0x00,0x00},
  62:.\Generated_Source\PSoC5/TFTSHIELD_1.c **** 	{0x00,0x00,0x00,0x00,0x00,0x00},
  63:.\Generated_Source\PSoC5/TFTSHIELD_1.c **** 	{0x00,0x00,0x00,0x00,0x00,0x00},
  64:.\Generated_Source\PSoC5/TFTSHIELD_1.c **** 	{0x00,0x00,0x00,0x00,0x00,0x00},
  65:.\Generated_Source\PSoC5/TFTSHIELD_1.c **** 	{0x00,0x00,0x00,0x00,0x00,0x00},
  66:.\Generated_Source\PSoC5/TFTSHIELD_1.c ****  
  67:.\Generated_Source\PSoC5/TFTSHIELD_1.c **** 	{0x00,0x00,0x00,0x00,0x00,0x00},	// SPACE
  68:.\Generated_Source\PSoC5/TFTSHIELD_1.c ****  
  69:.\Generated_Source\PSoC5/TFTSHIELD_1.c **** 	{0x00,0x00,0x00,0x4F,0x00,0x00},	// !
  70:.\Generated_Source\PSoC5/TFTSHIELD_1.c **** 	{0x00,0x00,0x07,0x00,0x07,0x00},	// "
  71:.\Generated_Source\PSoC5/TFTSHIELD_1.c **** 	{0x00,0x14,0x7F,0x14,0x7F,0x14},	// #
  72:.\Generated_Source\PSoC5/TFTSHIELD_1.c **** 	{0x00,0x24,0x2A,0x7F,0x2A,0x12},	// $
  73:.\Generated_Source\PSoC5/TFTSHIELD_1.c **** 	{0x00,0x23,0x13,0x08,0x64,0x62},	// %
  74:.\Generated_Source\PSoC5/TFTSHIELD_1.c **** 	{0x00,0x36,0x49,0x55,0x22,0x50},	// &
  75:.\Generated_Source\PSoC5/TFTSHIELD_1.c **** 	{0x00,0x00,0x05,0x03,0x00,0x00},	// '
  76:.\Generated_Source\PSoC5/TFTSHIELD_1.c **** 	{0x00,0x00,0x1C,0x22,0x41,0x00},	// (
  77:.\Generated_Source\PSoC5/TFTSHIELD_1.c **** 	{0x00,0x00,0x41,0x22,0x1C,0x00},	// )
  78:.\Generated_Source\PSoC5/TFTSHIELD_1.c **** 	{0x00,0x14,0x08,0x3E,0x08,0x14},	// *
  79:.\Generated_Source\PSoC5/TFTSHIELD_1.c **** 	{0x00,0x08,0x08,0x3E,0x08,0x08},	// +
  80:.\Generated_Source\PSoC5/TFTSHIELD_1.c **** 	{0x00,0x00,0x50,0x30,0x00,0x00},	// ,
  81:.\Generated_Source\PSoC5/TFTSHIELD_1.c **** 	{0x00,0x08,0x08,0x08,0x08,0x08},	// -
  82:.\Generated_Source\PSoC5/TFTSHIELD_1.c **** 	{0x00,0x00,0x60,0x60,0x00,0x00},	// .
  83:.\Generated_Source\PSoC5/TFTSHIELD_1.c **** 	{0x00,0x20,0x10,0x08,0x04,0x02},	// /
  84:.\Generated_Source\PSoC5/TFTSHIELD_1.c ****  
  85:.\Generated_Source\PSoC5/TFTSHIELD_1.c **** 	{0x00,0x3E,0x51,0x49,0x45,0x3E},	// 0
  86:.\Generated_Source\PSoC5/TFTSHIELD_1.c **** 	{0x00,0x00,0x42,0x7F,0x40,0x00},	// 1
  87:.\Generated_Source\PSoC5/TFTSHIELD_1.c **** 	{0x00,0x42,0x61,0x51,0x49,0x46},	// 2
  88:.\Generated_Source\PSoC5/TFTSHIELD_1.c **** 	{0x00,0x21,0x41,0x45,0x4B,0x31},	// 3
  89:.\Generated_Source\PSoC5/TFTSHIELD_1.c **** 	{0x00,0x18,0x14,0x12,0x7F,0x10},	// 4
  90:.\Generated_Source\PSoC5/TFTSHIELD_1.c **** 	{0x00,0x27,0x45,0x45,0x45,0x39},	// 5
  91:.\Generated_Source\PSoC5/TFTSHIELD_1.c **** 	{0x00,0x3C,0x4A,0x49,0x49,0x30},	// 6
  92:.\Generated_Source\PSoC5/TFTSHIELD_1.c **** 	{0x00,0x01,0x71,0x09,0x05,0x03},	// 7
  93:.\Generated_Source\PSoC5/TFTSHIELD_1.c **** 	{0x00,0x36,0x49,0x49,0x49,0x36},	// 8
  94:.\Generated_Source\PSoC5/TFTSHIELD_1.c **** 	{0x00,0x06,0x49,0x49,0x29,0x1E},	// 9
  95:.\Generated_Source\PSoC5/TFTSHIELD_1.c ****  
  96:.\Generated_Source\PSoC5/TFTSHIELD_1.c **** 	{0x00,0x36,0x36,0x00,0x00,0x00},	// :
  97:.\Generated_Source\PSoC5/TFTSHIELD_1.c **** 	{0x00,0x56,0x36,0x00,0x00,0x00},	// ;
  98:.\Generated_Source\PSoC5/TFTSHIELD_1.c **** 	{0x00,0x08,0x14,0x22,0x41,0x00},	// <
  99:.\Generated_Source\PSoC5/TFTSHIELD_1.c **** 	{0x00,0x14,0x14,0x14,0x14,0x14},	// =
 100:.\Generated_Source\PSoC5/TFTSHIELD_1.c **** 	{0x00,0x00,0x41,0x22,0x14,0x08},	// >
 101:.\Generated_Source\PSoC5/TFTSHIELD_1.c **** 	{0x00,0x02,0x01,0x51,0x09,0x06},	// ?
 102:.\Generated_Source\PSoC5/TFTSHIELD_1.c **** 	{0x00,0x30,0x49,0x79,0x41,0x3E},	// @
 103:.\Generated_Source\PSoC5/TFTSHIELD_1.c ****  
ARM GAS  C:\Users\Brian\AppData\Local\Temp\ccPAhBxt.s 			page 17


 104:.\Generated_Source\PSoC5/TFTSHIELD_1.c **** 	{0x00,0x7E,0x11,0x11,0x11,0x7E},	// A
 105:.\Generated_Source\PSoC5/TFTSHIELD_1.c **** 	{0x00,0x7F,0x49,0x49,0x49,0x36},	// B
 106:.\Generated_Source\PSoC5/TFTSHIELD_1.c **** 	{0x00,0x3E,0x41,0x41,0x41,0x22},	// C
 107:.\Generated_Source\PSoC5/TFTSHIELD_1.c **** 	{0x00,0x7F,0x41,0x41,0x22,0x1C},	// D
 108:.\Generated_Source\PSoC5/TFTSHIELD_1.c **** 	{0x00,0x7F,0x49,0x49,0x49,0x41},	// E
 109:.\Generated_Source\PSoC5/TFTSHIELD_1.c **** 	{0x00,0x7F,0x09,0x09,0x09,0x01},	// F
 110:.\Generated_Source\PSoC5/TFTSHIELD_1.c **** 	{0x00,0x3E,0x41,0x49,0x49,0x7A},	// G
 111:.\Generated_Source\PSoC5/TFTSHIELD_1.c **** 	{0x00,0x7F,0x08,0x08,0x08,0x7F},	// H
 112:.\Generated_Source\PSoC5/TFTSHIELD_1.c **** 	{0x00,0x00,0x41,0x7F,0x41,0x00},	// I
 113:.\Generated_Source\PSoC5/TFTSHIELD_1.c **** 	{0x00,0x20,0x40,0x41,0x3F,0x01},	// J
 114:.\Generated_Source\PSoC5/TFTSHIELD_1.c **** 	{0x00,0x7F,0x08,0x14,0x22,0x41},	// K
 115:.\Generated_Source\PSoC5/TFTSHIELD_1.c **** 	{0x00,0x7F,0x40,0x40,0x40,0x40},	// L
 116:.\Generated_Source\PSoC5/TFTSHIELD_1.c **** 	{0x00,0x7F,0x02,0x0C,0x02,0x7F},	// M
 117:.\Generated_Source\PSoC5/TFTSHIELD_1.c **** 	{0x00,0x7F,0x04,0x08,0x10,0x7F},	// N
 118:.\Generated_Source\PSoC5/TFTSHIELD_1.c **** 	{0x00,0x3E,0x41,0x41,0x41,0x3E},	// O
 119:.\Generated_Source\PSoC5/TFTSHIELD_1.c **** 	{0x00,0x7F,0x09,0x09,0x09,0x06},	// P
 120:.\Generated_Source\PSoC5/TFTSHIELD_1.c **** 	{0x00,0x3E,0x41,0x51,0x21,0x5E},	// Q
 121:.\Generated_Source\PSoC5/TFTSHIELD_1.c **** 	{0x00,0x7F,0x09,0x19,0x29,0x46},	// R
 122:.\Generated_Source\PSoC5/TFTSHIELD_1.c **** 	{0x00,0x46,0x49,0x49,0x49,0x31},	// S
 123:.\Generated_Source\PSoC5/TFTSHIELD_1.c **** 	{0x00,0x01,0x01,0x7F,0x01,0x01},	// T
 124:.\Generated_Source\PSoC5/TFTSHIELD_1.c **** 	{0x00,0x3F,0x40,0x40,0x40,0x3F},	// U
 125:.\Generated_Source\PSoC5/TFTSHIELD_1.c **** 	{0x00,0x1F,0x20,0x40,0x20,0x1F},	// V
 126:.\Generated_Source\PSoC5/TFTSHIELD_1.c **** 	{0x00,0x3F,0x40,0x30,0x40,0x3F},	// W
 127:.\Generated_Source\PSoC5/TFTSHIELD_1.c **** 	{0x00,0x63,0x14,0x08,0x14,0x63},	// X
 128:.\Generated_Source\PSoC5/TFTSHIELD_1.c **** 	{0x00,0x07,0x08,0x70,0x08,0x07},	// Y
 129:.\Generated_Source\PSoC5/TFTSHIELD_1.c **** 	{0x00,0x61,0x51,0x49,0x45,0x43},	// Z
 130:.\Generated_Source\PSoC5/TFTSHIELD_1.c ****  
 131:.\Generated_Source\PSoC5/TFTSHIELD_1.c **** 	{0x00,0x00,0x7F,0x41,0x41,0x00},	// [
 132:.\Generated_Source\PSoC5/TFTSHIELD_1.c **** 	{0x00,0x02,0x04,0x08,0x10,0x20},	// backslash
 133:.\Generated_Source\PSoC5/TFTSHIELD_1.c **** 	{0x00,0x00,0x41,0x41,0x7F,0x00},	// ]
 134:.\Generated_Source\PSoC5/TFTSHIELD_1.c **** 	{0x00,0x04,0x02,0x01,0x02,0x04},	// ^
 135:.\Generated_Source\PSoC5/TFTSHIELD_1.c **** 	{0x00,0x40,0x40,0x40,0x40,0x40},	// _
 136:.\Generated_Source\PSoC5/TFTSHIELD_1.c **** 	{0x00,0x00,0x01,0x02,0x04,0x00},	// `
 137:.\Generated_Source\PSoC5/TFTSHIELD_1.c ****  
 138:.\Generated_Source\PSoC5/TFTSHIELD_1.c **** 	{0x00,0x20,0x54,0x54,0x54,0x78},	// a
 139:.\Generated_Source\PSoC5/TFTSHIELD_1.c **** 	{0x00,0x7F,0x50,0x48,0x48,0x30},	// b
 140:.\Generated_Source\PSoC5/TFTSHIELD_1.c **** 	{0x00,0x38,0x44,0x44,0x44,0x20},	// c
 141:.\Generated_Source\PSoC5/TFTSHIELD_1.c **** 	{0x00,0x38,0x44,0x44,0x48,0x7F},	// d
 142:.\Generated_Source\PSoC5/TFTSHIELD_1.c **** 	{0x00,0x38,0x54,0x54,0x54,0x18},	// e
 143:.\Generated_Source\PSoC5/TFTSHIELD_1.c **** 	{0x00,0x08,0x7E,0x09,0x01,0x02},	// f
 144:.\Generated_Source\PSoC5/TFTSHIELD_1.c **** 	{0x00,0x0C,0x52,0x52,0x52,0x3E},	// g
 145:.\Generated_Source\PSoC5/TFTSHIELD_1.c **** 	{0x00,0x7F,0x08,0x04,0x04,0x78},	// h
 146:.\Generated_Source\PSoC5/TFTSHIELD_1.c **** 	{0x00,0x00,0x44,0x7D,0x40,0x00},	// i
 147:.\Generated_Source\PSoC5/TFTSHIELD_1.c **** 	{0x00,0x20,0x40,0x44,0x3D,0x00},	// j
 148:.\Generated_Source\PSoC5/TFTSHIELD_1.c **** 	{0x00,0x7F,0x10,0x28,0x44,0x00},	// k
 149:.\Generated_Source\PSoC5/TFTSHIELD_1.c **** 	{0x00,0x00,0x41,0x7F,0x40,0x00},	// l
 150:.\Generated_Source\PSoC5/TFTSHIELD_1.c **** 	{0x00,0x78,0x04,0x58,0x44,0x78},	// m
 151:.\Generated_Source\PSoC5/TFTSHIELD_1.c **** 	{0x00,0x7C,0x08,0x04,0x04,0x78},	// n
 152:.\Generated_Source\PSoC5/TFTSHIELD_1.c **** 	{0x00,0x38,0x44,0x44,0x44,0x38},	// o
 153:.\Generated_Source\PSoC5/TFTSHIELD_1.c **** 	{0x00,0x7C,0x14,0x14,0x14,0x08},	// p
 154:.\Generated_Source\PSoC5/TFTSHIELD_1.c **** 	{0x00,0x08,0x14,0x14,0x18,0x7C},	// q
 155:.\Generated_Source\PSoC5/TFTSHIELD_1.c **** 	{0x00,0x7C,0x08,0x04,0x04,0x08},	// r
 156:.\Generated_Source\PSoC5/TFTSHIELD_1.c **** 	{0x00,0x48,0x54,0x54,0x54,0x20},	// s
 157:.\Generated_Source\PSoC5/TFTSHIELD_1.c **** 	{0x00,0x04,0x3F,0x44,0x40,0x20},	// t
 158:.\Generated_Source\PSoC5/TFTSHIELD_1.c **** 	{0x00,0x3C,0x40,0x40,0x20,0x7C},	// u
 159:.\Generated_Source\PSoC5/TFTSHIELD_1.c **** 	{0x00,0x1C,0x20,0x40,0x20,0x1C},	// v
 160:.\Generated_Source\PSoC5/TFTSHIELD_1.c **** 	{0x00,0x3C,0x40,0x30,0x40,0x3C},	// w
ARM GAS  C:\Users\Brian\AppData\Local\Temp\ccPAhBxt.s 			page 18


 161:.\Generated_Source\PSoC5/TFTSHIELD_1.c **** 	{0x00,0x44,0x28,0x10,0x28,0x44},	// x
 162:.\Generated_Source\PSoC5/TFTSHIELD_1.c **** 	{0x00,0x0C,0x50,0x50,0x50,0x3C},	// y
 163:.\Generated_Source\PSoC5/TFTSHIELD_1.c **** 	{0x00,0x44,0x64,0x54,0x4C,0x44},	// z
 164:.\Generated_Source\PSoC5/TFTSHIELD_1.c ****  
 165:.\Generated_Source\PSoC5/TFTSHIELD_1.c **** 	{0x00,0x00,0x08,0x36,0x41,0x00},	// {
 166:.\Generated_Source\PSoC5/TFTSHIELD_1.c **** 	{0x00,0x00,0x00,0x7F,0x00,0x00},	// |
 167:.\Generated_Source\PSoC5/TFTSHIELD_1.c **** 	{0x00,0x00,0x41,0x36,0x08,0x00},	// }
 168:.\Generated_Source\PSoC5/TFTSHIELD_1.c **** 	{0x00,0x0C,0x02,0x0C,0x10,0x0C},	// ~
 169:.\Generated_Source\PSoC5/TFTSHIELD_1.c ****  
 170:.\Generated_Source\PSoC5/TFTSHIELD_1.c **** 	{0x00,0x00,0x00,0x00,0x00,0x00}
 171:.\Generated_Source\PSoC5/TFTSHIELD_1.c **** };
 172:.\Generated_Source\PSoC5/TFTSHIELD_1.c **** 
 173:.\Generated_Source\PSoC5/TFTSHIELD_1.c **** /**************************************************************************//**
 174:.\Generated_Source\PSoC5/TFTSHIELD_1.c **** *  @brief Performs all required initialization for this component and fills the screen with black
 175:.\Generated_Source\PSoC5/TFTSHIELD_1.c **** *
 176:.\Generated_Source\PSoC5/TFTSHIELD_1.c **** *******************************************************************************/
 177:.\Generated_Source\PSoC5/TFTSHIELD_1.c **** void TFTSHIELD_1_Start(void)
 178:.\Generated_Source\PSoC5/TFTSHIELD_1.c **** {
 810              		.loc 1 178 0
 811              		.cfi_startproc
 812              		@ args = 0, pretend = 0, frame = 0
 813              		@ frame_needed = 1, uses_anonymous_args = 0
 814 0000 80B5     		push	{r7, lr}
 815              	.LCFI0:
 816              		.cfi_def_cfa_offset 8
 817              		.cfi_offset 7, -8
 818              		.cfi_offset 14, -4
 819 0002 00AF     		add	r7, sp, #0
 820              	.LCFI1:
 821              		.cfi_def_cfa_register 7
 179:.\Generated_Source\PSoC5/TFTSHIELD_1.c ****     //TFTSHIELD_1_SPIM_1_Start();
 180:.\Generated_Source\PSoC5/TFTSHIELD_1.c ****     
 181:.\Generated_Source\PSoC5/TFTSHIELD_1.c ****     TFTSHIELD_1_CS_HIGH();
 822              		.loc 1 181 0
 823 0004 FFF7FEFF 		bl	TFTSHIELD_1_CS_HIGH
 182:.\Generated_Source\PSoC5/TFTSHIELD_1.c ****     TFTSHIELD_1_DC_HIGH();
 824              		.loc 1 182 0
 825 0008 FFF7FEFF 		bl	TFTSHIELD_1_DC_HIGH
 183:.\Generated_Source\PSoC5/TFTSHIELD_1.c ****     
 184:.\Generated_Source\PSoC5/TFTSHIELD_1.c ****     cursor_y = cursor_x = 0;
 826              		.loc 1 184 0
 827 000c 40F20003 		movw	r3, #:lower16:cursor_x
 828 0010 C0F20003 		movt	r3, #:upper16:cursor_x
 829 0014 4FF00002 		mov	r2, #0
 830 0018 1A80     		strh	r2, [r3, #0]	@ movhi
 831 001a 40F20003 		movw	r3, #:lower16:cursor_x
 832 001e C0F20003 		movt	r3, #:upper16:cursor_x
 833 0022 1A88     		ldrh	r2, [r3, #0]
 834 0024 40F20003 		movw	r3, #:lower16:cursor_y
 835 0028 C0F20003 		movt	r3, #:upper16:cursor_y
 836 002c 1A80     		strh	r2, [r3, #0]	@ movhi
 185:.\Generated_Source\PSoC5/TFTSHIELD_1.c ****     textsize = 1;
 837              		.loc 1 185 0
 838 002e 40F20003 		movw	r3, #:lower16:textsize
 839 0032 C0F20003 		movt	r3, #:upper16:textsize
 840 0036 4FF00102 		mov	r2, #1
 841 003a 1A70     		strb	r2, [r3, #0]
ARM GAS  C:\Users\Brian\AppData\Local\Temp\ccPAhBxt.s 			page 19


 186:.\Generated_Source\PSoC5/TFTSHIELD_1.c ****     textcolor = textbgcolor = 0xFFFF;
 842              		.loc 1 186 0
 843 003c 40F20003 		movw	r3, #:lower16:textbgcolor
 844 0040 C0F20003 		movt	r3, #:upper16:textbgcolor
 845 0044 4FF6FF72 		movw	r2, #65535
 846 0048 1A80     		strh	r2, [r3, #0]	@ movhi
 847 004a 40F20003 		movw	r3, #:lower16:textbgcolor
 848 004e C0F20003 		movt	r3, #:upper16:textbgcolor
 849 0052 1A88     		ldrh	r2, [r3, #0]
 850 0054 40F20003 		movw	r3, #:lower16:textcolor
 851 0058 C0F20003 		movt	r3, #:upper16:textcolor
 852 005c 1A80     		strh	r2, [r3, #0]	@ movhi
 187:.\Generated_Source\PSoC5/TFTSHIELD_1.c ****     wrap = 1;
 853              		.loc 1 187 0
 854 005e 40F20003 		movw	r3, #:lower16:wrap
 855 0062 C0F20003 		movt	r3, #:upper16:wrap
 856 0066 4FF00102 		mov	r2, #1
 857 006a 1A70     		strb	r2, [r3, #0]
 188:.\Generated_Source\PSoC5/TFTSHIELD_1.c **** 	rotation = 0;
 858              		.loc 1 188 0
 859 006c 40F20003 		movw	r3, #:lower16:rotation
 860 0070 C0F20003 		movt	r3, #:upper16:rotation
 861 0074 4FF00002 		mov	r2, #0
 862 0078 1A70     		strb	r2, [r3, #0]
 189:.\Generated_Source\PSoC5/TFTSHIELD_1.c **** 	_width = TFTWIDTH;
 863              		.loc 1 189 0
 864 007a 40F20003 		movw	r3, #:lower16:_width
 865 007e C0F20003 		movt	r3, #:upper16:_width
 866 0082 4FF0F002 		mov	r2, #240
 867 0086 1A60     		str	r2, [r3, #0]
 190:.\Generated_Source\PSoC5/TFTSHIELD_1.c **** 	_height = TFTHEIGHT;
 868              		.loc 1 190 0
 869 0088 40F20003 		movw	r3, #:lower16:_height
 870 008c C0F20003 		movt	r3, #:upper16:_height
 871 0090 4FF4A072 		mov	r2, #320
 872 0094 1A60     		str	r2, [r3, #0]
 191:.\Generated_Source\PSoC5/TFTSHIELD_1.c **** 	
 192:.\Generated_Source\PSoC5/TFTSHIELD_1.c **** 	CyDelay(500);
 873              		.loc 1 192 0
 874 0096 4FF4FA70 		mov	r0, #500
 875 009a FFF7FEFF 		bl	CyDelay
 193:.\Generated_Source\PSoC5/TFTSHIELD_1.c **** 	TFTSHIELD_1_SendCmd(0x01);
 876              		.loc 1 193 0
 877 009e 4FF00100 		mov	r0, #1
 878 00a2 FFF7FEFF 		bl	TFTSHIELD_1_SendCmd
 194:.\Generated_Source\PSoC5/TFTSHIELD_1.c **** 	CyDelay(200);
 879              		.loc 1 194 0
 880 00a6 4FF0C800 		mov	r0, #200
 881 00aa FFF7FEFF 		bl	CyDelay
 195:.\Generated_Source\PSoC5/TFTSHIELD_1.c **** 	
 196:.\Generated_Source\PSoC5/TFTSHIELD_1.c **** 	TFTSHIELD_1_SendCmd(0xCF);
 882              		.loc 1 196 0
 883 00ae 4FF0CF00 		mov	r0, #207
 884 00b2 FFF7FEFF 		bl	TFTSHIELD_1_SendCmd
 197:.\Generated_Source\PSoC5/TFTSHIELD_1.c ****     TFTSHIELD_1_SendData(0x00);
 885              		.loc 1 197 0
 886 00b6 4FF00000 		mov	r0, #0
ARM GAS  C:\Users\Brian\AppData\Local\Temp\ccPAhBxt.s 			page 20


 887 00ba FFF7FEFF 		bl	TFTSHIELD_1_SendData
 198:.\Generated_Source\PSoC5/TFTSHIELD_1.c ****     TFTSHIELD_1_SendData(0x8B);
 888              		.loc 1 198 0
 889 00be 4FF08B00 		mov	r0, #139
 890 00c2 FFF7FEFF 		bl	TFTSHIELD_1_SendData
 199:.\Generated_Source\PSoC5/TFTSHIELD_1.c ****     TFTSHIELD_1_SendData(0x30);
 891              		.loc 1 199 0
 892 00c6 4FF03000 		mov	r0, #48
 893 00ca FFF7FEFF 		bl	TFTSHIELD_1_SendData
 200:.\Generated_Source\PSoC5/TFTSHIELD_1.c **** 
 201:.\Generated_Source\PSoC5/TFTSHIELD_1.c ****     TFTSHIELD_1_SendCmd(0xED);
 894              		.loc 1 201 0
 895 00ce 4FF0ED00 		mov	r0, #237
 896 00d2 FFF7FEFF 		bl	TFTSHIELD_1_SendCmd
 202:.\Generated_Source\PSoC5/TFTSHIELD_1.c ****     TFTSHIELD_1_SendData(0x67);
 897              		.loc 1 202 0
 898 00d6 4FF06700 		mov	r0, #103
 899 00da FFF7FEFF 		bl	TFTSHIELD_1_SendData
 203:.\Generated_Source\PSoC5/TFTSHIELD_1.c ****     TFTSHIELD_1_SendData(0x03);
 900              		.loc 1 203 0
 901 00de 4FF00300 		mov	r0, #3
 902 00e2 FFF7FEFF 		bl	TFTSHIELD_1_SendData
 204:.\Generated_Source\PSoC5/TFTSHIELD_1.c ****     TFTSHIELD_1_SendData(0x12);
 903              		.loc 1 204 0
 904 00e6 4FF01200 		mov	r0, #18
 905 00ea FFF7FEFF 		bl	TFTSHIELD_1_SendData
 205:.\Generated_Source\PSoC5/TFTSHIELD_1.c ****     TFTSHIELD_1_SendData(0x81);
 906              		.loc 1 205 0
 907 00ee 4FF08100 		mov	r0, #129
 908 00f2 FFF7FEFF 		bl	TFTSHIELD_1_SendData
 206:.\Generated_Source\PSoC5/TFTSHIELD_1.c **** 
 207:.\Generated_Source\PSoC5/TFTSHIELD_1.c ****     TFTSHIELD_1_SendCmd(0xE8);
 909              		.loc 1 207 0
 910 00f6 4FF0E800 		mov	r0, #232
 911 00fa FFF7FEFF 		bl	TFTSHIELD_1_SendCmd
 208:.\Generated_Source\PSoC5/TFTSHIELD_1.c ****     TFTSHIELD_1_SendData(0x85);
 912              		.loc 1 208 0
 913 00fe 4FF08500 		mov	r0, #133
 914 0102 FFF7FEFF 		bl	TFTSHIELD_1_SendData
 209:.\Generated_Source\PSoC5/TFTSHIELD_1.c ****     TFTSHIELD_1_SendData(0x10);
 915              		.loc 1 209 0
 916 0106 4FF01000 		mov	r0, #16
 917 010a FFF7FEFF 		bl	TFTSHIELD_1_SendData
 210:.\Generated_Source\PSoC5/TFTSHIELD_1.c ****     TFTSHIELD_1_SendData(0x7A);
 918              		.loc 1 210 0
 919 010e 4FF07A00 		mov	r0, #122
 920 0112 FFF7FEFF 		bl	TFTSHIELD_1_SendData
 211:.\Generated_Source\PSoC5/TFTSHIELD_1.c **** 
 212:.\Generated_Source\PSoC5/TFTSHIELD_1.c ****     TFTSHIELD_1_SendCmd(0xCB);
 921              		.loc 1 212 0
 922 0116 4FF0CB00 		mov	r0, #203
 923 011a FFF7FEFF 		bl	TFTSHIELD_1_SendCmd
 213:.\Generated_Source\PSoC5/TFTSHIELD_1.c ****     TFTSHIELD_1_SendData(0x39);
 924              		.loc 1 213 0
 925 011e 4FF03900 		mov	r0, #57
 926 0122 FFF7FEFF 		bl	TFTSHIELD_1_SendData
 214:.\Generated_Source\PSoC5/TFTSHIELD_1.c ****     TFTSHIELD_1_SendData(0x2C);
ARM GAS  C:\Users\Brian\AppData\Local\Temp\ccPAhBxt.s 			page 21


 927              		.loc 1 214 0
 928 0126 4FF02C00 		mov	r0, #44
 929 012a FFF7FEFF 		bl	TFTSHIELD_1_SendData
 215:.\Generated_Source\PSoC5/TFTSHIELD_1.c ****     TFTSHIELD_1_SendData(0x00);
 930              		.loc 1 215 0
 931 012e 4FF00000 		mov	r0, #0
 932 0132 FFF7FEFF 		bl	TFTSHIELD_1_SendData
 216:.\Generated_Source\PSoC5/TFTSHIELD_1.c ****     TFTSHIELD_1_SendData(0x34);
 933              		.loc 1 216 0
 934 0136 4FF03400 		mov	r0, #52
 935 013a FFF7FEFF 		bl	TFTSHIELD_1_SendData
 217:.\Generated_Source\PSoC5/TFTSHIELD_1.c ****     TFTSHIELD_1_SendData(0x02);
 936              		.loc 1 217 0
 937 013e 4FF00200 		mov	r0, #2
 938 0142 FFF7FEFF 		bl	TFTSHIELD_1_SendData
 218:.\Generated_Source\PSoC5/TFTSHIELD_1.c **** 
 219:.\Generated_Source\PSoC5/TFTSHIELD_1.c ****     TFTSHIELD_1_SendCmd(0xF7);
 939              		.loc 1 219 0
 940 0146 4FF0F700 		mov	r0, #247
 941 014a FFF7FEFF 		bl	TFTSHIELD_1_SendCmd
 220:.\Generated_Source\PSoC5/TFTSHIELD_1.c ****     TFTSHIELD_1_SendData(0x20);
 942              		.loc 1 220 0
 943 014e 4FF02000 		mov	r0, #32
 944 0152 FFF7FEFF 		bl	TFTSHIELD_1_SendData
 221:.\Generated_Source\PSoC5/TFTSHIELD_1.c **** 
 222:.\Generated_Source\PSoC5/TFTSHIELD_1.c ****     TFTSHIELD_1_SendCmd(0xEA);
 945              		.loc 1 222 0
 946 0156 4FF0EA00 		mov	r0, #234
 947 015a FFF7FEFF 		bl	TFTSHIELD_1_SendCmd
 223:.\Generated_Source\PSoC5/TFTSHIELD_1.c ****     TFTSHIELD_1_SendData(0x00);
 948              		.loc 1 223 0
 949 015e 4FF00000 		mov	r0, #0
 950 0162 FFF7FEFF 		bl	TFTSHIELD_1_SendData
 224:.\Generated_Source\PSoC5/TFTSHIELD_1.c ****     TFTSHIELD_1_SendData(0x00);
 951              		.loc 1 224 0
 952 0166 4FF00000 		mov	r0, #0
 953 016a FFF7FEFF 		bl	TFTSHIELD_1_SendData
 225:.\Generated_Source\PSoC5/TFTSHIELD_1.c **** 
 226:.\Generated_Source\PSoC5/TFTSHIELD_1.c ****     TFTSHIELD_1_SendCmd(0xC0);                                                      /* Power contro
 954              		.loc 1 226 0
 955 016e 4FF0C000 		mov	r0, #192
 956 0172 FFF7FEFF 		bl	TFTSHIELD_1_SendCmd
 227:.\Generated_Source\PSoC5/TFTSHIELD_1.c ****     TFTSHIELD_1_SendData(0x1B);                                                   /* VRH[5:0]*/
 957              		.loc 1 227 0
 958 0176 4FF01B00 		mov	r0, #27
 959 017a FFF7FEFF 		bl	TFTSHIELD_1_SendData
 228:.\Generated_Source\PSoC5/TFTSHIELD_1.c **** 
 229:.\Generated_Source\PSoC5/TFTSHIELD_1.c ****     TFTSHIELD_1_SendCmd(0xC1);                                                      /* Power contro
 960              		.loc 1 229 0
 961 017e 4FF0C100 		mov	r0, #193
 962 0182 FFF7FEFF 		bl	TFTSHIELD_1_SendCmd
 230:.\Generated_Source\PSoC5/TFTSHIELD_1.c ****     TFTSHIELD_1_SendData(0x10);                                                   /* SAP[2:0];BT[3:
 963              		.loc 1 230 0
 964 0186 4FF01000 		mov	r0, #16
 965 018a FFF7FEFF 		bl	TFTSHIELD_1_SendData
 231:.\Generated_Source\PSoC5/TFTSHIELD_1.c **** 
 232:.\Generated_Source\PSoC5/TFTSHIELD_1.c ****     TFTSHIELD_1_SendCmd(0xC5);                                                      /* VCM control*
ARM GAS  C:\Users\Brian\AppData\Local\Temp\ccPAhBxt.s 			page 22


 966              		.loc 1 232 0
 967 018e 4FF0C500 		mov	r0, #197
 968 0192 FFF7FEFF 		bl	TFTSHIELD_1_SendCmd
 233:.\Generated_Source\PSoC5/TFTSHIELD_1.c ****     TFTSHIELD_1_SendData(0x3F);
 969              		.loc 1 233 0
 970 0196 4FF03F00 		mov	r0, #63
 971 019a FFF7FEFF 		bl	TFTSHIELD_1_SendData
 234:.\Generated_Source\PSoC5/TFTSHIELD_1.c ****     TFTSHIELD_1_SendData(0x3C);
 972              		.loc 1 234 0
 973 019e 4FF03C00 		mov	r0, #60
 974 01a2 FFF7FEFF 		bl	TFTSHIELD_1_SendData
 235:.\Generated_Source\PSoC5/TFTSHIELD_1.c **** 
 236:.\Generated_Source\PSoC5/TFTSHIELD_1.c ****     TFTSHIELD_1_SendCmd(0xC7);                                                      /* VCM control2
 975              		.loc 1 236 0
 976 01a6 4FF0C700 		mov	r0, #199
 977 01aa FFF7FEFF 		bl	TFTSHIELD_1_SendCmd
 237:.\Generated_Source\PSoC5/TFTSHIELD_1.c ****     TFTSHIELD_1_SendData(0xB7);
 978              		.loc 1 237 0
 979 01ae 4FF0B700 		mov	r0, #183
 980 01b2 FFF7FEFF 		bl	TFTSHIELD_1_SendData
 238:.\Generated_Source\PSoC5/TFTSHIELD_1.c **** 
 239:.\Generated_Source\PSoC5/TFTSHIELD_1.c ****     TFTSHIELD_1_SendCmd(0x36);                                                      /* Memory Acces
 981              		.loc 1 239 0
 982 01b6 4FF03600 		mov	r0, #54
 983 01ba FFF7FEFF 		bl	TFTSHIELD_1_SendCmd
 240:.\Generated_Source\PSoC5/TFTSHIELD_1.c ****     TFTSHIELD_1_SendData(0x08);
 984              		.loc 1 240 0
 985 01be 4FF00800 		mov	r0, #8
 986 01c2 FFF7FEFF 		bl	TFTSHIELD_1_SendData
 241:.\Generated_Source\PSoC5/TFTSHIELD_1.c **** 
 242:.\Generated_Source\PSoC5/TFTSHIELD_1.c ****     TFTSHIELD_1_SendCmd(0x3A);
 987              		.loc 1 242 0
 988 01c6 4FF03A00 		mov	r0, #58
 989 01ca FFF7FEFF 		bl	TFTSHIELD_1_SendCmd
 243:.\Generated_Source\PSoC5/TFTSHIELD_1.c ****     TFTSHIELD_1_SendData(0x55);
 990              		.loc 1 243 0
 991 01ce 4FF05500 		mov	r0, #85
 992 01d2 FFF7FEFF 		bl	TFTSHIELD_1_SendData
 244:.\Generated_Source\PSoC5/TFTSHIELD_1.c **** 
 245:.\Generated_Source\PSoC5/TFTSHIELD_1.c ****     TFTSHIELD_1_SendCmd(0xB1);
 993              		.loc 1 245 0
 994 01d6 4FF0B100 		mov	r0, #177
 995 01da FFF7FEFF 		bl	TFTSHIELD_1_SendCmd
 246:.\Generated_Source\PSoC5/TFTSHIELD_1.c ****     TFTSHIELD_1_SendData(0x00);
 996              		.loc 1 246 0
 997 01de 4FF00000 		mov	r0, #0
 998 01e2 FFF7FEFF 		bl	TFTSHIELD_1_SendData
 247:.\Generated_Source\PSoC5/TFTSHIELD_1.c ****     TFTSHIELD_1_SendData(0x1B);
 999              		.loc 1 247 0
 1000 01e6 4FF01B00 		mov	r0, #27
 1001 01ea FFF7FEFF 		bl	TFTSHIELD_1_SendData
 248:.\Generated_Source\PSoC5/TFTSHIELD_1.c **** 
 249:.\Generated_Source\PSoC5/TFTSHIELD_1.c ****     TFTSHIELD_1_SendCmd(0xB6);                                                      /* Display Func
 1002              		.loc 1 249 0
 1003 01ee 4FF0B600 		mov	r0, #182
 1004 01f2 FFF7FEFF 		bl	TFTSHIELD_1_SendCmd
 250:.\Generated_Source\PSoC5/TFTSHIELD_1.c ****     TFTSHIELD_1_SendData(0x0A);
ARM GAS  C:\Users\Brian\AppData\Local\Temp\ccPAhBxt.s 			page 23


 1005              		.loc 1 250 0
 1006 01f6 4FF00A00 		mov	r0, #10
 1007 01fa FFF7FEFF 		bl	TFTSHIELD_1_SendData
 251:.\Generated_Source\PSoC5/TFTSHIELD_1.c ****     TFTSHIELD_1_SendData(0xA2);
 1008              		.loc 1 251 0
 1009 01fe 4FF0A200 		mov	r0, #162
 1010 0202 FFF7FEFF 		bl	TFTSHIELD_1_SendData
 252:.\Generated_Source\PSoC5/TFTSHIELD_1.c **** 
 253:.\Generated_Source\PSoC5/TFTSHIELD_1.c **** 
 254:.\Generated_Source\PSoC5/TFTSHIELD_1.c ****     TFTSHIELD_1_SendCmd(0xF2);                                                      /* 3Gamma Funct
 1011              		.loc 1 254 0
 1012 0206 4FF0F200 		mov	r0, #242
 1013 020a FFF7FEFF 		bl	TFTSHIELD_1_SendCmd
 255:.\Generated_Source\PSoC5/TFTSHIELD_1.c ****     TFTSHIELD_1_SendData(0x00);
 1014              		.loc 1 255 0
 1015 020e 4FF00000 		mov	r0, #0
 1016 0212 FFF7FEFF 		bl	TFTSHIELD_1_SendData
 256:.\Generated_Source\PSoC5/TFTSHIELD_1.c **** 
 257:.\Generated_Source\PSoC5/TFTSHIELD_1.c ****     TFTSHIELD_1_SendCmd(0x26);                                                      /* Gamma curve 
 1017              		.loc 1 257 0
 1018 0216 4FF02600 		mov	r0, #38
 1019 021a FFF7FEFF 		bl	TFTSHIELD_1_SendCmd
 258:.\Generated_Source\PSoC5/TFTSHIELD_1.c ****     TFTSHIELD_1_SendData(0x01);
 1020              		.loc 1 258 0
 1021 021e 4FF00100 		mov	r0, #1
 1022 0222 FFF7FEFF 		bl	TFTSHIELD_1_SendData
 259:.\Generated_Source\PSoC5/TFTSHIELD_1.c **** 
 260:.\Generated_Source\PSoC5/TFTSHIELD_1.c ****     TFTSHIELD_1_SendCmd(0xE0);                                                      /* Set Gamma*/
 1023              		.loc 1 260 0
 1024 0226 4FF0E000 		mov	r0, #224
 1025 022a FFF7FEFF 		bl	TFTSHIELD_1_SendCmd
 261:.\Generated_Source\PSoC5/TFTSHIELD_1.c ****     TFTSHIELD_1_SendData(0x0F);
 1026              		.loc 1 261 0
 1027 022e 4FF00F00 		mov	r0, #15
 1028 0232 FFF7FEFF 		bl	TFTSHIELD_1_SendData
 262:.\Generated_Source\PSoC5/TFTSHIELD_1.c ****     TFTSHIELD_1_SendData(0x2A);
 1029              		.loc 1 262 0
 1030 0236 4FF02A00 		mov	r0, #42
 1031 023a FFF7FEFF 		bl	TFTSHIELD_1_SendData
 263:.\Generated_Source\PSoC5/TFTSHIELD_1.c ****     TFTSHIELD_1_SendData(0x28);
 1032              		.loc 1 263 0
 1033 023e 4FF02800 		mov	r0, #40
 1034 0242 FFF7FEFF 		bl	TFTSHIELD_1_SendData
 264:.\Generated_Source\PSoC5/TFTSHIELD_1.c ****     TFTSHIELD_1_SendData(0x08);
 1035              		.loc 1 264 0
 1036 0246 4FF00800 		mov	r0, #8
 1037 024a FFF7FEFF 		bl	TFTSHIELD_1_SendData
 265:.\Generated_Source\PSoC5/TFTSHIELD_1.c ****     TFTSHIELD_1_SendData(0x0E);
 1038              		.loc 1 265 0
 1039 024e 4FF00E00 		mov	r0, #14
 1040 0252 FFF7FEFF 		bl	TFTSHIELD_1_SendData
 266:.\Generated_Source\PSoC5/TFTSHIELD_1.c ****     TFTSHIELD_1_SendData(0x08);
 1041              		.loc 1 266 0
 1042 0256 4FF00800 		mov	r0, #8
 1043 025a FFF7FEFF 		bl	TFTSHIELD_1_SendData
 267:.\Generated_Source\PSoC5/TFTSHIELD_1.c ****     TFTSHIELD_1_SendData(0x54);
 1044              		.loc 1 267 0
ARM GAS  C:\Users\Brian\AppData\Local\Temp\ccPAhBxt.s 			page 24


 1045 025e 4FF05400 		mov	r0, #84
 1046 0262 FFF7FEFF 		bl	TFTSHIELD_1_SendData
 268:.\Generated_Source\PSoC5/TFTSHIELD_1.c ****     TFTSHIELD_1_SendData(0xA9);
 1047              		.loc 1 268 0
 1048 0266 4FF0A900 		mov	r0, #169
 1049 026a FFF7FEFF 		bl	TFTSHIELD_1_SendData
 269:.\Generated_Source\PSoC5/TFTSHIELD_1.c ****     TFTSHIELD_1_SendData(0x43);
 1050              		.loc 1 269 0
 1051 026e 4FF04300 		mov	r0, #67
 1052 0272 FFF7FEFF 		bl	TFTSHIELD_1_SendData
 270:.\Generated_Source\PSoC5/TFTSHIELD_1.c ****     TFTSHIELD_1_SendData(0x0A);
 1053              		.loc 1 270 0
 1054 0276 4FF00A00 		mov	r0, #10
 1055 027a FFF7FEFF 		bl	TFTSHIELD_1_SendData
 271:.\Generated_Source\PSoC5/TFTSHIELD_1.c ****     TFTSHIELD_1_SendData(0x0F);
 1056              		.loc 1 271 0
 1057 027e 4FF00F00 		mov	r0, #15
 1058 0282 FFF7FEFF 		bl	TFTSHIELD_1_SendData
 272:.\Generated_Source\PSoC5/TFTSHIELD_1.c ****     TFTSHIELD_1_SendData(0x00);
 1059              		.loc 1 272 0
 1060 0286 4FF00000 		mov	r0, #0
 1061 028a FFF7FEFF 		bl	TFTSHIELD_1_SendData
 273:.\Generated_Source\PSoC5/TFTSHIELD_1.c ****     TFTSHIELD_1_SendData(0x00);
 1062              		.loc 1 273 0
 1063 028e 4FF00000 		mov	r0, #0
 1064 0292 FFF7FEFF 		bl	TFTSHIELD_1_SendData
 274:.\Generated_Source\PSoC5/TFTSHIELD_1.c ****     TFTSHIELD_1_SendData(0x00);
 1065              		.loc 1 274 0
 1066 0296 4FF00000 		mov	r0, #0
 1067 029a FFF7FEFF 		bl	TFTSHIELD_1_SendData
 275:.\Generated_Source\PSoC5/TFTSHIELD_1.c ****     TFTSHIELD_1_SendData(0x00);
 1068              		.loc 1 275 0
 1069 029e 4FF00000 		mov	r0, #0
 1070 02a2 FFF7FEFF 		bl	TFTSHIELD_1_SendData
 276:.\Generated_Source\PSoC5/TFTSHIELD_1.c **** 	TFTSHIELD_1_SendCmd(0xE1);                                                      /* Set Gamma*/
 1071              		.loc 1 276 0
 1072 02a6 4FF0E100 		mov	r0, #225
 1073 02aa FFF7FEFF 		bl	TFTSHIELD_1_SendCmd
 277:.\Generated_Source\PSoC5/TFTSHIELD_1.c ****     TFTSHIELD_1_SendData(0x00);
 1074              		.loc 1 277 0
 1075 02ae 4FF00000 		mov	r0, #0
 1076 02b2 FFF7FEFF 		bl	TFTSHIELD_1_SendData
 278:.\Generated_Source\PSoC5/TFTSHIELD_1.c ****     TFTSHIELD_1_SendData(0x15);
 1077              		.loc 1 278 0
 1078 02b6 4FF01500 		mov	r0, #21
 1079 02ba FFF7FEFF 		bl	TFTSHIELD_1_SendData
 279:.\Generated_Source\PSoC5/TFTSHIELD_1.c ****     TFTSHIELD_1_SendData(0x17);
 1080              		.loc 1 279 0
 1081 02be 4FF01700 		mov	r0, #23
 1082 02c2 FFF7FEFF 		bl	TFTSHIELD_1_SendData
 280:.\Generated_Source\PSoC5/TFTSHIELD_1.c ****     TFTSHIELD_1_SendData(0x07);
 1083              		.loc 1 280 0
 1084 02c6 4FF00700 		mov	r0, #7
 1085 02ca FFF7FEFF 		bl	TFTSHIELD_1_SendData
 281:.\Generated_Source\PSoC5/TFTSHIELD_1.c ****     TFTSHIELD_1_SendData(0x11);
 1086              		.loc 1 281 0
 1087 02ce 4FF01100 		mov	r0, #17
ARM GAS  C:\Users\Brian\AppData\Local\Temp\ccPAhBxt.s 			page 25


 1088 02d2 FFF7FEFF 		bl	TFTSHIELD_1_SendData
 282:.\Generated_Source\PSoC5/TFTSHIELD_1.c ****     TFTSHIELD_1_SendData(0x06);
 1089              		.loc 1 282 0
 1090 02d6 4FF00600 		mov	r0, #6
 1091 02da FFF7FEFF 		bl	TFTSHIELD_1_SendData
 283:.\Generated_Source\PSoC5/TFTSHIELD_1.c ****     TFTSHIELD_1_SendData(0x2B);
 1092              		.loc 1 283 0
 1093 02de 4FF02B00 		mov	r0, #43
 1094 02e2 FFF7FEFF 		bl	TFTSHIELD_1_SendData
 284:.\Generated_Source\PSoC5/TFTSHIELD_1.c ****     TFTSHIELD_1_SendData(0x56);
 1095              		.loc 1 284 0
 1096 02e6 4FF05600 		mov	r0, #86
 1097 02ea FFF7FEFF 		bl	TFTSHIELD_1_SendData
 285:.\Generated_Source\PSoC5/TFTSHIELD_1.c ****     TFTSHIELD_1_SendData(0x3C);
 1098              		.loc 1 285 0
 1099 02ee 4FF03C00 		mov	r0, #60
 1100 02f2 FFF7FEFF 		bl	TFTSHIELD_1_SendData
 286:.\Generated_Source\PSoC5/TFTSHIELD_1.c ****     TFTSHIELD_1_SendData(0x05);
 1101              		.loc 1 286 0
 1102 02f6 4FF00500 		mov	r0, #5
 1103 02fa FFF7FEFF 		bl	TFTSHIELD_1_SendData
 287:.\Generated_Source\PSoC5/TFTSHIELD_1.c ****     TFTSHIELD_1_SendData(0x10);
 1104              		.loc 1 287 0
 1105 02fe 4FF01000 		mov	r0, #16
 1106 0302 FFF7FEFF 		bl	TFTSHIELD_1_SendData
 288:.\Generated_Source\PSoC5/TFTSHIELD_1.c ****     TFTSHIELD_1_SendData(0x0F);
 1107              		.loc 1 288 0
 1108 0306 4FF00F00 		mov	r0, #15
 1109 030a FFF7FEFF 		bl	TFTSHIELD_1_SendData
 289:.\Generated_Source\PSoC5/TFTSHIELD_1.c ****     TFTSHIELD_1_SendData(0x3F);
 1110              		.loc 1 289 0
 1111 030e 4FF03F00 		mov	r0, #63
 1112 0312 FFF7FEFF 		bl	TFTSHIELD_1_SendData
 290:.\Generated_Source\PSoC5/TFTSHIELD_1.c ****     TFTSHIELD_1_SendData(0x3F);
 1113              		.loc 1 290 0
 1114 0316 4FF03F00 		mov	r0, #63
 1115 031a FFF7FEFF 		bl	TFTSHIELD_1_SendData
 291:.\Generated_Source\PSoC5/TFTSHIELD_1.c ****     TFTSHIELD_1_SendData(0x0F);
 1116              		.loc 1 291 0
 1117 031e 4FF00F00 		mov	r0, #15
 1118 0322 FFF7FEFF 		bl	TFTSHIELD_1_SendData
 292:.\Generated_Source\PSoC5/TFTSHIELD_1.c **** 	TFTSHIELD_1_SendCmd(0x11);                                                      /* Exit Sleep*/
 1119              		.loc 1 292 0
 1120 0326 4FF01100 		mov	r0, #17
 1121 032a FFF7FEFF 		bl	TFTSHIELD_1_SendCmd
 293:.\Generated_Source\PSoC5/TFTSHIELD_1.c ****     CyDelay(120);
 1122              		.loc 1 293 0
 1123 032e 4FF07800 		mov	r0, #120
 1124 0332 FFF7FEFF 		bl	CyDelay
 294:.\Generated_Source\PSoC5/TFTSHIELD_1.c ****     TFTSHIELD_1_SendCmd(0x29);
 1125              		.loc 1 294 0
 1126 0336 4FF02900 		mov	r0, #41
 1127 033a FFF7FEFF 		bl	TFTSHIELD_1_SendCmd
 295:.\Generated_Source\PSoC5/TFTSHIELD_1.c **** 	//TFTSHIELD_1_SetRotation(0);
 296:.\Generated_Source\PSoC5/TFTSHIELD_1.c **** 	/* Display on*/
 297:.\Generated_Source\PSoC5/TFTSHIELD_1.c ****     TFTSHIELD_1_FillScreen(BLACK);
 1128              		.loc 1 297 0
ARM GAS  C:\Users\Brian\AppData\Local\Temp\ccPAhBxt.s 			page 26


 1129 033e 4FF00000 		mov	r0, #0
 1130 0342 FFF7FEFF 		bl	TFTSHIELD_1_FillScreen
 298:.\Generated_Source\PSoC5/TFTSHIELD_1.c **** }
 1131              		.loc 1 298 0
 1132 0346 80BD     		pop	{r7, pc}
 1133              		.cfi_endproc
 1134              	.LFE0:
 1135              		.size	TFTSHIELD_1_Start, .-TFTSHIELD_1_Start
 1136              		.section	.text.TFTSHIELD_1_SetPixel,"ax",%progbits
 1137              		.align	2
 1138              		.global	TFTSHIELD_1_SetPixel
 1139              		.thumb
 1140              		.thumb_func
 1141              		.type	TFTSHIELD_1_SetPixel, %function
 1142              	TFTSHIELD_1_SetPixel:
 1143              	.LFB1:
 299:.\Generated_Source\PSoC5/TFTSHIELD_1.c **** 
 300:.\Generated_Source\PSoC5/TFTSHIELD_1.c **** /**************************************************************************//**
 301:.\Generated_Source\PSoC5/TFTSHIELD_1.c **** * @brief Colors a single pixel
 302:.\Generated_Source\PSoC5/TFTSHIELD_1.c **** *
 303:.\Generated_Source\PSoC5/TFTSHIELD_1.c **** * @param Pos_X The x coordinate of the pixel (0 - 240)
 304:.\Generated_Source\PSoC5/TFTSHIELD_1.c **** * @param Pos_Y The y coordinate of the pixel (0 - 320)
 305:.\Generated_Source\PSoC5/TFTSHIELD_1.c **** * @param Color: The 16-bit color of the pixel (0-0xFFFF)
 306:.\Generated_Source\PSoC5/TFTSHIELD_1.c **** *
 307:.\Generated_Source\PSoC5/TFTSHIELD_1.c **** *******************************************************************************/
 308:.\Generated_Source\PSoC5/TFTSHIELD_1.c **** void TFTSHIELD_1_SetPixel(uint16 Pos_X, uint16 Pos_Y, uint16 Color)
 309:.\Generated_Source\PSoC5/TFTSHIELD_1.c **** {
 1144              		.loc 1 309 0
 1145              		.cfi_startproc
 1146              		@ args = 0, pretend = 0, frame = 8
 1147              		@ frame_needed = 1, uses_anonymous_args = 0
 1148 0000 80B5     		push	{r7, lr}
 1149              	.LCFI2:
 1150              		.cfi_def_cfa_offset 8
 1151              		.cfi_offset 7, -8
 1152              		.cfi_offset 14, -4
 1153 0002 82B0     		sub	sp, sp, #8
 1154              	.LCFI3:
 1155              		.cfi_def_cfa_offset 16
 1156 0004 00AF     		add	r7, sp, #0
 1157              	.LCFI4:
 1158              		.cfi_def_cfa_register 7
 1159 0006 1346     		mov	r3, r2
 1160 0008 0246     		mov	r2, r0	@ movhi
 1161 000a FA80     		strh	r2, [r7, #6]	@ movhi
 1162 000c 0A46     		mov	r2, r1	@ movhi
 1163 000e BA80     		strh	r2, [r7, #4]	@ movhi
 1164 0010 7B80     		strh	r3, [r7, #2]	@ movhi
 310:.\Generated_Source\PSoC5/TFTSHIELD_1.c **** 	TFTSHIELD_1_GotoXY(Pos_X, Pos_Y);
 1165              		.loc 1 310 0
 1166 0012 FA88     		ldrh	r2, [r7, #6]
 1167 0014 BB88     		ldrh	r3, [r7, #4]
 1168 0016 1046     		mov	r0, r2
 1169 0018 1946     		mov	r1, r3
 1170 001a FFF7FEFF 		bl	TFTSHIELD_1_GotoXY
 311:.\Generated_Source\PSoC5/TFTSHIELD_1.c **** 	TFTSHIELD_1_SendData16(Color);
 1171              		.loc 1 311 0
ARM GAS  C:\Users\Brian\AppData\Local\Temp\ccPAhBxt.s 			page 27


 1172 001e 7B88     		ldrh	r3, [r7, #2]
 1173 0020 1846     		mov	r0, r3
 1174 0022 FFF7FEFF 		bl	TFTSHIELD_1_SendData16
 312:.\Generated_Source\PSoC5/TFTSHIELD_1.c **** }
 1175              		.loc 1 312 0
 1176 0026 07F10807 		add	r7, r7, #8
 1177 002a BD46     		mov	sp, r7
 1178 002c 80BD     		pop	{r7, pc}
 1179              		.cfi_endproc
 1180              	.LFE1:
 1181              		.size	TFTSHIELD_1_SetPixel, .-TFTSHIELD_1_SetPixel
 1182 002e 00BF     		.section	.text.TFTSHIELD_1_GotoXY,"ax",%progbits
 1183              		.align	2
 1184              		.global	TFTSHIELD_1_GotoXY
 1185              		.thumb
 1186              		.thumb_func
 1187              		.type	TFTSHIELD_1_GotoXY, %function
 1188              	TFTSHIELD_1_GotoXY:
 1189              	.LFB2:
 313:.\Generated_Source\PSoC5/TFTSHIELD_1.c **** 
 314:.\Generated_Source\PSoC5/TFTSHIELD_1.c **** /**************************************************************************//**
 315:.\Generated_Source\PSoC5/TFTSHIELD_1.c **** *  @brief Moves to a pixel without changing it
 316:.\Generated_Source\PSoC5/TFTSHIELD_1.c **** *
 317:.\Generated_Source\PSoC5/TFTSHIELD_1.c **** *  @param Pos_X: The x coordinate of the pixel (0 - 240)
 318:.\Generated_Source\PSoC5/TFTSHIELD_1.c **** *  @param Pos_Y: The y coordinate of the pixel (0 - 320)
 319:.\Generated_Source\PSoC5/TFTSHIELD_1.c **** *
 320:.\Generated_Source\PSoC5/TFTSHIELD_1.c **** *******************************************************************************/
 321:.\Generated_Source\PSoC5/TFTSHIELD_1.c **** void TFTSHIELD_1_GotoXY(uint16 Pos_X, uint16 Pos_Y)
 322:.\Generated_Source\PSoC5/TFTSHIELD_1.c **** {
 1190              		.loc 1 322 0
 1191              		.cfi_startproc
 1192              		@ args = 0, pretend = 0, frame = 8
 1193              		@ frame_needed = 1, uses_anonymous_args = 0
 1194 0000 80B5     		push	{r7, lr}
 1195              	.LCFI5:
 1196              		.cfi_def_cfa_offset 8
 1197              		.cfi_offset 7, -8
 1198              		.cfi_offset 14, -4
 1199 0002 82B0     		sub	sp, sp, #8
 1200              	.LCFI6:
 1201              		.cfi_def_cfa_offset 16
 1202 0004 00AF     		add	r7, sp, #0
 1203              	.LCFI7:
 1204              		.cfi_def_cfa_register 7
 1205 0006 0246     		mov	r2, r0
 1206 0008 0B46     		mov	r3, r1
 1207 000a FA80     		strh	r2, [r7, #6]	@ movhi
 1208 000c BB80     		strh	r3, [r7, #4]	@ movhi
 323:.\Generated_Source\PSoC5/TFTSHIELD_1.c **** 	TFTSHIELD_1_SetCol(Pos_X, Pos_X);
 1209              		.loc 1 323 0
 1210 000e FA88     		ldrh	r2, [r7, #6]
 1211 0010 FB88     		ldrh	r3, [r7, #6]
 1212 0012 1046     		mov	r0, r2
 1213 0014 1946     		mov	r1, r3
 1214 0016 FFF7FEFF 		bl	TFTSHIELD_1_SetCol
 324:.\Generated_Source\PSoC5/TFTSHIELD_1.c **** 	TFTSHIELD_1_SetPage(Pos_Y, Pos_Y);
 1215              		.loc 1 324 0
ARM GAS  C:\Users\Brian\AppData\Local\Temp\ccPAhBxt.s 			page 28


 1216 001a BA88     		ldrh	r2, [r7, #4]
 1217 001c BB88     		ldrh	r3, [r7, #4]
 1218 001e 1046     		mov	r0, r2
 1219 0020 1946     		mov	r1, r3
 1220 0022 FFF7FEFF 		bl	TFTSHIELD_1_SetPage
 325:.\Generated_Source\PSoC5/TFTSHIELD_1.c **** 	TFTSHIELD_1_SendCmd(0x2C);
 1221              		.loc 1 325 0
 1222 0026 4FF02C00 		mov	r0, #44
 1223 002a FFF7FEFF 		bl	TFTSHIELD_1_SendCmd
 326:.\Generated_Source\PSoC5/TFTSHIELD_1.c **** }
 1224              		.loc 1 326 0
 1225 002e 07F10807 		add	r7, r7, #8
 1226 0032 BD46     		mov	sp, r7
 1227 0034 80BD     		pop	{r7, pc}
 1228              		.cfi_endproc
 1229              	.LFE2:
 1230              		.size	TFTSHIELD_1_GotoXY, .-TFTSHIELD_1_GotoXY
 1231 0036 00BF     		.section	.text.TFTSHIELD_1_SetPage,"ax",%progbits
 1232              		.align	2
 1233              		.global	TFTSHIELD_1_SetPage
 1234              		.thumb
 1235              		.thumb_func
 1236              		.type	TFTSHIELD_1_SetPage, %function
 1237              	TFTSHIELD_1_SetPage:
 1238              	.LFB3:
 327:.\Generated_Source\PSoC5/TFTSHIELD_1.c **** 
 328:.\Generated_Source\PSoC5/TFTSHIELD_1.c **** /***************************************************************************//**
 329:.\Generated_Source\PSoC5/TFTSHIELD_1.c **** *  @brief Specify a page on the TFT
 330:.\Generated_Source\PSoC5/TFTSHIELD_1.c **** *
 331:.\Generated_Source\PSoC5/TFTSHIELD_1.c **** *  @param Start_Page: The start page
 332:.\Generated_Source\PSoC5/TFTSHIELD_1.c **** *  @param End_Page: The end page
 333:.\Generated_Source\PSoC5/TFTSHIELD_1.c **** *
 334:.\Generated_Source\PSoC5/TFTSHIELD_1.c **** *******************************************************************************/
 335:.\Generated_Source\PSoC5/TFTSHIELD_1.c **** void TFTSHIELD_1_SetPage(uint16 Start_Page, uint16 End_Page)
 336:.\Generated_Source\PSoC5/TFTSHIELD_1.c **** {
 1239              		.loc 1 336 0
 1240              		.cfi_startproc
 1241              		@ args = 0, pretend = 0, frame = 8
 1242              		@ frame_needed = 1, uses_anonymous_args = 0
 1243 0000 80B5     		push	{r7, lr}
 1244              	.LCFI8:
 1245              		.cfi_def_cfa_offset 8
 1246              		.cfi_offset 7, -8
 1247              		.cfi_offset 14, -4
 1248 0002 82B0     		sub	sp, sp, #8
 1249              	.LCFI9:
 1250              		.cfi_def_cfa_offset 16
 1251 0004 00AF     		add	r7, sp, #0
 1252              	.LCFI10:
 1253              		.cfi_def_cfa_register 7
 1254 0006 0246     		mov	r2, r0
 1255 0008 0B46     		mov	r3, r1
 1256 000a FA80     		strh	r2, [r7, #6]	@ movhi
 1257 000c BB80     		strh	r3, [r7, #4]	@ movhi
 337:.\Generated_Source\PSoC5/TFTSHIELD_1.c **** 	TFTSHIELD_1_SendCmd(0x2B);
 1258              		.loc 1 337 0
 1259 000e 4FF02B00 		mov	r0, #43
ARM GAS  C:\Users\Brian\AppData\Local\Temp\ccPAhBxt.s 			page 29


 1260 0012 FFF7FEFF 		bl	TFTSHIELD_1_SendCmd
 338:.\Generated_Source\PSoC5/TFTSHIELD_1.c **** 	TFTSHIELD_1_SendData16(Start_Page);
 1261              		.loc 1 338 0
 1262 0016 FB88     		ldrh	r3, [r7, #6]
 1263 0018 1846     		mov	r0, r3
 1264 001a FFF7FEFF 		bl	TFTSHIELD_1_SendData16
 339:.\Generated_Source\PSoC5/TFTSHIELD_1.c **** 	TFTSHIELD_1_SendData16(End_Page);
 1265              		.loc 1 339 0
 1266 001e BB88     		ldrh	r3, [r7, #4]
 1267 0020 1846     		mov	r0, r3
 1268 0022 FFF7FEFF 		bl	TFTSHIELD_1_SendData16
 340:.\Generated_Source\PSoC5/TFTSHIELD_1.c **** }
 1269              		.loc 1 340 0
 1270 0026 07F10807 		add	r7, r7, #8
 1271 002a BD46     		mov	sp, r7
 1272 002c 80BD     		pop	{r7, pc}
 1273              		.cfi_endproc
 1274              	.LFE3:
 1275              		.size	TFTSHIELD_1_SetPage, .-TFTSHIELD_1_SetPage
 1276 002e 00BF     		.section	.text.TFTSHIELD_1_SetAddrWindow,"ax",%progbits
 1277              		.align	2
 1278              		.global	TFTSHIELD_1_SetAddrWindow
 1279              		.thumb
 1280              		.thumb_func
 1281              		.type	TFTSHIELD_1_SetAddrWindow, %function
 1282              	TFTSHIELD_1_SetAddrWindow:
 1283              	.LFB4:
 341:.\Generated_Source\PSoC5/TFTSHIELD_1.c **** 
 342:.\Generated_Source\PSoC5/TFTSHIELD_1.c **** /**************************************************************************//**
 343:.\Generated_Source\PSoC5/TFTSHIELD_1.c **** *  @brief Sets the address window (rectangle of pixels) to fill in 
 344:.\Generated_Source\PSoC5/TFTSHIELD_1.c **** *
 345:.\Generated_Source\PSoC5/TFTSHIELD_1.c **** *  @param x0: The starting x coordinate
 346:.\Generated_Source\PSoC5/TFTSHIELD_1.c **** *  @param y0: The starting y coordinate
 347:.\Generated_Source\PSoC5/TFTSHIELD_1.c **** *  @param x1: The ending x coordinate
 348:.\Generated_Source\PSoC5/TFTSHIELD_1.c **** *  @param y1: The ending y coordinate
 349:.\Generated_Source\PSoC5/TFTSHIELD_1.c **** *
 350:.\Generated_Source\PSoC5/TFTSHIELD_1.c **** *******************************************************************************/
 351:.\Generated_Source\PSoC5/TFTSHIELD_1.c **** void TFTSHIELD_1_SetAddrWindow(uint16_t x0, uint16_t y0, uint16_t x1,
 352:.\Generated_Source\PSoC5/TFTSHIELD_1.c ****  uint16_t y1)
 353:.\Generated_Source\PSoC5/TFTSHIELD_1.c **** {
 1284              		.loc 1 353 0
 1285              		.cfi_startproc
 1286              		@ args = 0, pretend = 0, frame = 8
 1287              		@ frame_needed = 1, uses_anonymous_args = 0
 1288 0000 80B5     		push	{r7, lr}
 1289              	.LCFI11:
 1290              		.cfi_def_cfa_offset 8
 1291              		.cfi_offset 7, -8
 1292              		.cfi_offset 14, -4
 1293 0002 82B0     		sub	sp, sp, #8
 1294              	.LCFI12:
 1295              		.cfi_def_cfa_offset 16
 1296 0004 00AF     		add	r7, sp, #0
 1297              	.LCFI13:
 1298              		.cfi_def_cfa_register 7
 1299 0006 F880     		strh	r0, [r7, #6]	@ movhi
 1300 0008 B980     		strh	r1, [r7, #4]	@ movhi
ARM GAS  C:\Users\Brian\AppData\Local\Temp\ccPAhBxt.s 			page 30


 1301 000a 7A80     		strh	r2, [r7, #2]	@ movhi
 1302 000c 3B80     		strh	r3, [r7, #0]	@ movhi
 354:.\Generated_Source\PSoC5/TFTSHIELD_1.c ****     TFTSHIELD_1_SendCmd(0x2A); //column addr set
 1303              		.loc 1 354 0
 1304 000e 4FF02A00 		mov	r0, #42
 1305 0012 FFF7FEFF 		bl	TFTSHIELD_1_SendCmd
 355:.\Generated_Source\PSoC5/TFTSHIELD_1.c ****     TFTSHIELD_1_SendData16(x0); //x start
 1306              		.loc 1 355 0
 1307 0016 FB88     		ldrh	r3, [r7, #6]
 1308 0018 1846     		mov	r0, r3
 1309 001a FFF7FEFF 		bl	TFTSHIELD_1_SendData16
 356:.\Generated_Source\PSoC5/TFTSHIELD_1.c ****     TFTSHIELD_1_SendData16(x1); //x end
 1310              		.loc 1 356 0
 1311 001e 7B88     		ldrh	r3, [r7, #2]
 1312 0020 1846     		mov	r0, r3
 1313 0022 FFF7FEFF 		bl	TFTSHIELD_1_SendData16
 357:.\Generated_Source\PSoC5/TFTSHIELD_1.c ****     
 358:.\Generated_Source\PSoC5/TFTSHIELD_1.c ****     TFTSHIELD_1_SendCmd(0x2B); //row addr set
 1314              		.loc 1 358 0
 1315 0026 4FF02B00 		mov	r0, #43
 1316 002a FFF7FEFF 		bl	TFTSHIELD_1_SendCmd
 359:.\Generated_Source\PSoC5/TFTSHIELD_1.c ****     TFTSHIELD_1_SendData16(y0);//y start
 1317              		.loc 1 359 0
 1318 002e BB88     		ldrh	r3, [r7, #4]
 1319 0030 1846     		mov	r0, r3
 1320 0032 FFF7FEFF 		bl	TFTSHIELD_1_SendData16
 360:.\Generated_Source\PSoC5/TFTSHIELD_1.c ****     TFTSHIELD_1_SendData16(y1);//y end
 1321              		.loc 1 360 0
 1322 0036 3B88     		ldrh	r3, [r7, #0]
 1323 0038 1846     		mov	r0, r3
 1324 003a FFF7FEFF 		bl	TFTSHIELD_1_SendData16
 361:.\Generated_Source\PSoC5/TFTSHIELD_1.c ****     
 362:.\Generated_Source\PSoC5/TFTSHIELD_1.c ****     TFTSHIELD_1_SendCmd(0x2C); //write to RAM
 1325              		.loc 1 362 0
 1326 003e 4FF02C00 		mov	r0, #44
 1327 0042 FFF7FEFF 		bl	TFTSHIELD_1_SendCmd
 363:.\Generated_Source\PSoC5/TFTSHIELD_1.c **** }
 1328              		.loc 1 363 0
 1329 0046 07F10807 		add	r7, r7, #8
 1330 004a BD46     		mov	sp, r7
 1331 004c 80BD     		pop	{r7, pc}
 1332              		.cfi_endproc
 1333              	.LFE4:
 1334              		.size	TFTSHIELD_1_SetAddrWindow, .-TFTSHIELD_1_SetAddrWindow
 1335 004e 00BF     		.section	.text.TFTSHIELD_1_FillRect,"ax",%progbits
 1336              		.align	2
 1337              		.global	TFTSHIELD_1_FillRect
 1338              		.thumb
 1339              		.thumb_func
 1340              		.type	TFTSHIELD_1_FillRect, %function
 1341              	TFTSHIELD_1_FillRect:
 1342              	.LFB5:
 364:.\Generated_Source\PSoC5/TFTSHIELD_1.c **** 
 365:.\Generated_Source\PSoC5/TFTSHIELD_1.c **** /**************************************************************************//**
 366:.\Generated_Source\PSoC5/TFTSHIELD_1.c **** *  @brief Fills a rectangle of pixels with a specified color
 367:.\Generated_Source\PSoC5/TFTSHIELD_1.c **** *
 368:.\Generated_Source\PSoC5/TFTSHIELD_1.c **** *  @param x: The starting x coordinate
ARM GAS  C:\Users\Brian\AppData\Local\Temp\ccPAhBxt.s 			page 31


 369:.\Generated_Source\PSoC5/TFTSHIELD_1.c **** *  @param y: The starting y coordinate
 370:.\Generated_Source\PSoC5/TFTSHIELD_1.c **** *  @param w: The width of the rectangle
 371:.\Generated_Source\PSoC5/TFTSHIELD_1.c **** *  @param h: The height of the rectangle
 372:.\Generated_Source\PSoC5/TFTSHIELD_1.c **** *  @param color: The color of the rectangle
 373:.\Generated_Source\PSoC5/TFTSHIELD_1.c **** *
 374:.\Generated_Source\PSoC5/TFTSHIELD_1.c **** *******************************************************************************/
 375:.\Generated_Source\PSoC5/TFTSHIELD_1.c **** void TFTSHIELD_1_FillRect(int16_t x, int16_t y, int16_t w, int16_t h,
 376:.\Generated_Source\PSoC5/TFTSHIELD_1.c ****   uint16_t color) 
 377:.\Generated_Source\PSoC5/TFTSHIELD_1.c **** {
 1343              		.loc 1 377 0
 1344              		.cfi_startproc
 1345              		@ args = 4, pretend = 0, frame = 16
 1346              		@ frame_needed = 1, uses_anonymous_args = 0
 1347 0000 90B5     		push	{r4, r7, lr}
 1348              	.LCFI14:
 1349              		.cfi_def_cfa_offset 12
 1350              		.cfi_offset 4, -12
 1351              		.cfi_offset 7, -8
 1352              		.cfi_offset 14, -4
 1353 0002 85B0     		sub	sp, sp, #20
 1354              	.LCFI15:
 1355              		.cfi_def_cfa_offset 32
 1356 0004 00AF     		add	r7, sp, #0
 1357              	.LCFI16:
 1358              		.cfi_def_cfa_register 7
 1359 0006 F880     		strh	r0, [r7, #6]	@ movhi
 1360 0008 B980     		strh	r1, [r7, #4]	@ movhi
 1361 000a 7A80     		strh	r2, [r7, #2]	@ movhi
 1362 000c 3B80     		strh	r3, [r7, #0]	@ movhi
 378:.\Generated_Source\PSoC5/TFTSHIELD_1.c ****    // rudimentary clipping (drawChar w/big text requires this)
 379:.\Generated_Source\PSoC5/TFTSHIELD_1.c ****   if((x >= _width) || (y >= _height)) return;
 1363              		.loc 1 379 0
 1364 000e B7F90620 		ldrsh	r2, [r7, #6]
 1365 0012 40F20003 		movw	r3, #:lower16:_width
 1366 0016 C0F20003 		movt	r3, #:upper16:_width
 1367 001a 1B68     		ldr	r3, [r3, #0]
 1368 001c 9A42     		cmp	r2, r3
 1369 001e 76DA     		bge	.L16
 1370              		.loc 1 379 0 is_stmt 0 discriminator 2
 1371 0020 B7F90420 		ldrsh	r2, [r7, #4]
 1372 0024 40F20003 		movw	r3, #:lower16:_height
 1373 0028 C0F20003 		movt	r3, #:upper16:_height
 1374 002c 1B68     		ldr	r3, [r3, #0]
 1375 002e 9A42     		cmp	r2, r3
 1376 0030 6DDA     		bge	.L16
 1377              	.L8:
 380:.\Generated_Source\PSoC5/TFTSHIELD_1.c ****   if((x + w - 1) >= _width)  w = _width  - x;
 1378              		.loc 1 380 0 is_stmt 1
 1379 0032 B7F90620 		ldrsh	r2, [r7, #6]
 1380 0036 B7F90230 		ldrsh	r3, [r7, #2]
 1381 003a D318     		adds	r3, r2, r3
 1382 003c 03F1FF32 		add	r2, r3, #-1
 1383 0040 40F20003 		movw	r3, #:lower16:_width
 1384 0044 C0F20003 		movt	r3, #:upper16:_width
 1385 0048 1B68     		ldr	r3, [r3, #0]
 1386 004a 9A42     		cmp	r2, r3
 1387 004c 09DB     		blt	.L10
ARM GAS  C:\Users\Brian\AppData\Local\Temp\ccPAhBxt.s 			page 32


 1388              		.loc 1 380 0 is_stmt 0 discriminator 1
 1389 004e 40F20003 		movw	r3, #:lower16:_width
 1390 0052 C0F20003 		movt	r3, #:upper16:_width
 1391 0056 1B68     		ldr	r3, [r3, #0]
 1392 0058 9AB2     		uxth	r2, r3
 1393 005a FB88     		ldrh	r3, [r7, #6]
 1394 005c D31A     		subs	r3, r2, r3
 1395 005e 9BB2     		uxth	r3, r3
 1396 0060 7B80     		strh	r3, [r7, #2]	@ movhi
 1397              	.L10:
 381:.\Generated_Source\PSoC5/TFTSHIELD_1.c ****   if((y + h - 1) >= _height) h = _height - y;
 1398              		.loc 1 381 0 is_stmt 1
 1399 0062 B7F90420 		ldrsh	r2, [r7, #4]
 1400 0066 B7F90030 		ldrsh	r3, [r7, #0]
 1401 006a D318     		adds	r3, r2, r3
 1402 006c 03F1FF32 		add	r2, r3, #-1
 1403 0070 40F20003 		movw	r3, #:lower16:_height
 1404 0074 C0F20003 		movt	r3, #:upper16:_height
 1405 0078 1B68     		ldr	r3, [r3, #0]
 1406 007a 9A42     		cmp	r2, r3
 1407 007c 09DB     		blt	.L11
 1408              		.loc 1 381 0 is_stmt 0 discriminator 1
 1409 007e 40F20003 		movw	r3, #:lower16:_height
 1410 0082 C0F20003 		movt	r3, #:upper16:_height
 1411 0086 1B68     		ldr	r3, [r3, #0]
 1412 0088 9AB2     		uxth	r2, r3
 1413 008a BB88     		ldrh	r3, [r7, #4]
 1414 008c D31A     		subs	r3, r2, r3
 1415 008e 9BB2     		uxth	r3, r3
 1416 0090 3B80     		strh	r3, [r7, #0]	@ movhi
 1417              	.L11:
 382:.\Generated_Source\PSoC5/TFTSHIELD_1.c **** 
 383:.\Generated_Source\PSoC5/TFTSHIELD_1.c ****   TFTSHIELD_1_SetAddrWindow(x, y, x+w-1, y+h-1);
 1418              		.loc 1 383 0 is_stmt 1
 1419 0092 F888     		ldrh	r0, [r7, #6]
 1420 0094 B988     		ldrh	r1, [r7, #4]
 1421 0096 FA88     		ldrh	r2, [r7, #6]
 1422 0098 7B88     		ldrh	r3, [r7, #2]
 1423 009a D318     		adds	r3, r2, r3
 1424 009c 9BB2     		uxth	r3, r3
 1425 009e 03F1FF33 		add	r3, r3, #-1
 1426 00a2 9AB2     		uxth	r2, r3
 1427 00a4 BC88     		ldrh	r4, [r7, #4]
 1428 00a6 3B88     		ldrh	r3, [r7, #0]
 1429 00a8 E318     		adds	r3, r4, r3
 1430 00aa 9BB2     		uxth	r3, r3
 1431 00ac 03F1FF33 		add	r3, r3, #-1
 1432 00b0 9BB2     		uxth	r3, r3
 1433 00b2 FFF7FEFF 		bl	TFTSHIELD_1_SetAddrWindow
 384:.\Generated_Source\PSoC5/TFTSHIELD_1.c ****     
 385:.\Generated_Source\PSoC5/TFTSHIELD_1.c ****   uint8_t hi = color >> 8, lo = color;
 1434              		.loc 1 385 0
 1435 00b6 3B8C     		ldrh	r3, [r7, #32]
 1436 00b8 4FEA1323 		lsr	r3, r3, #8
 1437 00bc 9BB2     		uxth	r3, r3
 1438 00be FB73     		strb	r3, [r7, #15]
 1439 00c0 3B8C     		ldrh	r3, [r7, #32]	@ movhi
ARM GAS  C:\Users\Brian\AppData\Local\Temp\ccPAhBxt.s 			page 33


 1440 00c2 BB73     		strb	r3, [r7, #14]
 386:.\Generated_Source\PSoC5/TFTSHIELD_1.c **** 
 387:.\Generated_Source\PSoC5/TFTSHIELD_1.c ****   //*dcport |=  dcpinmask;
 388:.\Generated_Source\PSoC5/TFTSHIELD_1.c ****   TFTSHIELD_1_DC_HIGH();
 1441              		.loc 1 388 0
 1442 00c4 FFF7FEFF 		bl	TFTSHIELD_1_DC_HIGH
 389:.\Generated_Source\PSoC5/TFTSHIELD_1.c ****   //digitalWrite(_dc, HIGH);
 390:.\Generated_Source\PSoC5/TFTSHIELD_1.c ****   //*csport &= ~cspinmask;
 391:.\Generated_Source\PSoC5/TFTSHIELD_1.c ****   //digitalWrite(_cs, LOW);
 392:.\Generated_Source\PSoC5/TFTSHIELD_1.c ****   TFTSHIELD_1_CS_LOW();
 1443              		.loc 1 392 0
 1444 00c8 FFF7FEFF 		bl	TFTSHIELD_1_CS_LOW
 393:.\Generated_Source\PSoC5/TFTSHIELD_1.c **** 
 394:.\Generated_Source\PSoC5/TFTSHIELD_1.c ****   for(y=h; y>0; y--) {
 1445              		.loc 1 394 0
 1446 00cc 3B88     		ldrh	r3, [r7, #0]	@ movhi
 1447 00ce BB80     		strh	r3, [r7, #4]	@ movhi
 1448 00d0 16E0     		b	.L12
 1449              	.L15:
 395:.\Generated_Source\PSoC5/TFTSHIELD_1.c ****     for(x=w; x>0; x--) {
 1450              		.loc 1 395 0
 1451 00d2 7B88     		ldrh	r3, [r7, #2]	@ movhi
 1452 00d4 FB80     		strh	r3, [r7, #6]	@ movhi
 1453 00d6 0BE0     		b	.L13
 1454              	.L14:
 396:.\Generated_Source\PSoC5/TFTSHIELD_1.c ****       TFTSHIELD_1_SPITransfer(hi);
 1455              		.loc 1 396 0 discriminator 2
 1456 00d8 FB7B     		ldrb	r3, [r7, #15]	@ zero_extendqisi2
 1457 00da 1846     		mov	r0, r3
 1458 00dc FFF7FEFF 		bl	TFTSHIELD_1_SPITransfer
 397:.\Generated_Source\PSoC5/TFTSHIELD_1.c ****       TFTSHIELD_1_SPITransfer(lo);
 1459              		.loc 1 397 0 discriminator 2
 1460 00e0 BB7B     		ldrb	r3, [r7, #14]	@ zero_extendqisi2
 1461 00e2 1846     		mov	r0, r3
 1462 00e4 FFF7FEFF 		bl	TFTSHIELD_1_SPITransfer
 395:.\Generated_Source\PSoC5/TFTSHIELD_1.c ****     for(x=w; x>0; x--) {
 1463              		.loc 1 395 0 discriminator 2
 1464 00e8 FB88     		ldrh	r3, [r7, #6]	@ movhi
 1465 00ea 03F1FF33 		add	r3, r3, #-1
 1466 00ee FB80     		strh	r3, [r7, #6]	@ movhi
 1467              	.L13:
 395:.\Generated_Source\PSoC5/TFTSHIELD_1.c ****     for(x=w; x>0; x--) {
 1468              		.loc 1 395 0 is_stmt 0 discriminator 1
 1469 00f0 B7F90630 		ldrsh	r3, [r7, #6]
 1470 00f4 002B     		cmp	r3, #0
 1471 00f6 EFDC     		bgt	.L14
 394:.\Generated_Source\PSoC5/TFTSHIELD_1.c ****   for(y=h; y>0; y--) {
 1472              		.loc 1 394 0 is_stmt 1
 1473 00f8 BB88     		ldrh	r3, [r7, #4]	@ movhi
 1474 00fa 03F1FF33 		add	r3, r3, #-1
 1475 00fe BB80     		strh	r3, [r7, #4]	@ movhi
 1476              	.L12:
 394:.\Generated_Source\PSoC5/TFTSHIELD_1.c ****   for(y=h; y>0; y--) {
 1477              		.loc 1 394 0 is_stmt 0 discriminator 1
 1478 0100 B7F90430 		ldrsh	r3, [r7, #4]
 1479 0104 002B     		cmp	r3, #0
 1480 0106 E4DC     		bgt	.L15
ARM GAS  C:\Users\Brian\AppData\Local\Temp\ccPAhBxt.s 			page 34


 398:.\Generated_Source\PSoC5/TFTSHIELD_1.c ****     }
 399:.\Generated_Source\PSoC5/TFTSHIELD_1.c ****   }
 400:.\Generated_Source\PSoC5/TFTSHIELD_1.c ****   //digitalWrite(_cs, HIGH);
 401:.\Generated_Source\PSoC5/TFTSHIELD_1.c ****   //*csport |= cspinmask;
 402:.\Generated_Source\PSoC5/TFTSHIELD_1.c ****   TFTSHIELD_1_CS_HIGH();
 1481              		.loc 1 402 0 is_stmt 1
 1482 0108 FFF7FEFF 		bl	TFTSHIELD_1_CS_HIGH
 1483 010c 00E0     		b	.L6
 1484              	.L16:
 379:.\Generated_Source\PSoC5/TFTSHIELD_1.c ****   if((x >= _width) || (y >= _height)) return;
 1485              		.loc 1 379 0
 1486 010e 00BF     		nop
 1487              	.L6:
 403:.\Generated_Source\PSoC5/TFTSHIELD_1.c ****  
 404:.\Generated_Source\PSoC5/TFTSHIELD_1.c **** }
 1488              		.loc 1 404 0
 1489 0110 07F11407 		add	r7, r7, #20
 1490 0114 BD46     		mov	sp, r7
 1491 0116 90BD     		pop	{r4, r7, pc}
 1492              		.cfi_endproc
 1493              	.LFE5:
 1494              		.size	TFTSHIELD_1_FillRect, .-TFTSHIELD_1_FillRect
 1495              		.section	.text.TFTSHIELD_1_FillScreen,"ax",%progbits
 1496              		.align	2
 1497              		.global	TFTSHIELD_1_FillScreen
 1498              		.thumb
 1499              		.thumb_func
 1500              		.type	TFTSHIELD_1_FillScreen, %function
 1501              	TFTSHIELD_1_FillScreen:
 1502              	.LFB6:
 405:.\Generated_Source\PSoC5/TFTSHIELD_1.c **** 
 406:.\Generated_Source\PSoC5/TFTSHIELD_1.c **** /**************************************************************************//**
 407:.\Generated_Source\PSoC5/TFTSHIELD_1.c **** *  @brief Fills the TFT with a specified color
 408:.\Generated_Source\PSoC5/TFTSHIELD_1.c **** *
 409:.\Generated_Source\PSoC5/TFTSHIELD_1.c **** *  @param color: The color to fill the screen with
 410:.\Generated_Source\PSoC5/TFTSHIELD_1.c **** *
 411:.\Generated_Source\PSoC5/TFTSHIELD_1.c **** *******************************************************************************/
 412:.\Generated_Source\PSoC5/TFTSHIELD_1.c **** void TFTSHIELD_1_FillScreen(uint16_t color)
 413:.\Generated_Source\PSoC5/TFTSHIELD_1.c **** {
 1503              		.loc 1 413 0
 1504              		.cfi_startproc
 1505              		@ args = 0, pretend = 0, frame = 8
 1506              		@ frame_needed = 1, uses_anonymous_args = 0
 1507 0000 80B5     		push	{r7, lr}
 1508              	.LCFI17:
 1509              		.cfi_def_cfa_offset 8
 1510              		.cfi_offset 7, -8
 1511              		.cfi_offset 14, -4
 1512 0002 84B0     		sub	sp, sp, #16
 1513              	.LCFI18:
 1514              		.cfi_def_cfa_offset 24
 1515 0004 02AF     		add	r7, sp, #8
 1516              	.LCFI19:
 1517              		.cfi_def_cfa 7, 16
 1518 0006 0346     		mov	r3, r0
 1519 0008 FB80     		strh	r3, [r7, #6]	@ movhi
 414:.\Generated_Source\PSoC5/TFTSHIELD_1.c ****     //Just fills a fullscreen rect
ARM GAS  C:\Users\Brian\AppData\Local\Temp\ccPAhBxt.s 			page 35


 415:.\Generated_Source\PSoC5/TFTSHIELD_1.c ****     TFTSHIELD_1_FillRect(0,0,_width,_height,color);
 1520              		.loc 1 415 0
 1521 000a 40F20003 		movw	r3, #:lower16:_width
 1522 000e C0F20003 		movt	r3, #:upper16:_width
 1523 0012 1B68     		ldr	r3, [r3, #0]
 1524 0014 9AB2     		uxth	r2, r3
 1525 0016 40F20003 		movw	r3, #:lower16:_height
 1526 001a C0F20003 		movt	r3, #:upper16:_height
 1527 001e 1B68     		ldr	r3, [r3, #0]
 1528 0020 9BB2     		uxth	r3, r3
 1529 0022 12B2     		sxth	r2, r2
 1530 0024 1BB2     		sxth	r3, r3
 1531 0026 F988     		ldrh	r1, [r7, #6]
 1532 0028 0091     		str	r1, [sp, #0]
 1533 002a 4FF00000 		mov	r0, #0
 1534 002e 4FF00001 		mov	r1, #0
 1535 0032 FFF7FEFF 		bl	TFTSHIELD_1_FillRect
 416:.\Generated_Source\PSoC5/TFTSHIELD_1.c **** }
 1536              		.loc 1 416 0
 1537 0036 07F10807 		add	r7, r7, #8
 1538 003a BD46     		mov	sp, r7
 1539 003c 80BD     		pop	{r7, pc}
 1540              		.cfi_endproc
 1541              	.LFE6:
 1542              		.size	TFTSHIELD_1_FillScreen, .-TFTSHIELD_1_FillScreen
 1543 003e 00BF     		.section	.text.TFTSHIELD_1_SetCol,"ax",%progbits
 1544              		.align	2
 1545              		.global	TFTSHIELD_1_SetCol
 1546              		.thumb
 1547              		.thumb_func
 1548              		.type	TFTSHIELD_1_SetCol, %function
 1549              	TFTSHIELD_1_SetCol:
 1550              	.LFB7:
 417:.\Generated_Source\PSoC5/TFTSHIELD_1.c **** 
 418:.\Generated_Source\PSoC5/TFTSHIELD_1.c **** /**************************************************************************//**
 419:.\Generated_Source\PSoC5/TFTSHIELD_1.c **** *  @brief Sets the column on the TFT
 420:.\Generated_Source\PSoC5/TFTSHIELD_1.c **** *
 421:.\Generated_Source\PSoC5/TFTSHIELD_1.c **** *  @param Start_Col: The start column
 422:.\Generated_Source\PSoC5/TFTSHIELD_1.c **** *  @param End_Col: The end column
 423:.\Generated_Source\PSoC5/TFTSHIELD_1.c **** *
 424:.\Generated_Source\PSoC5/TFTSHIELD_1.c **** *******************************************************************************/
 425:.\Generated_Source\PSoC5/TFTSHIELD_1.c **** void TFTSHIELD_1_SetCol(uint16 Start_Col, uint16 End_Col)
 426:.\Generated_Source\PSoC5/TFTSHIELD_1.c **** {	
 1551              		.loc 1 426 0
 1552              		.cfi_startproc
 1553              		@ args = 0, pretend = 0, frame = 8
 1554              		@ frame_needed = 1, uses_anonymous_args = 0
 1555 0000 80B5     		push	{r7, lr}
 1556              	.LCFI20:
 1557              		.cfi_def_cfa_offset 8
 1558              		.cfi_offset 7, -8
 1559              		.cfi_offset 14, -4
 1560 0002 82B0     		sub	sp, sp, #8
 1561              	.LCFI21:
 1562              		.cfi_def_cfa_offset 16
 1563 0004 00AF     		add	r7, sp, #0
 1564              	.LCFI22:
ARM GAS  C:\Users\Brian\AppData\Local\Temp\ccPAhBxt.s 			page 36


 1565              		.cfi_def_cfa_register 7
 1566 0006 0246     		mov	r2, r0
 1567 0008 0B46     		mov	r3, r1
 1568 000a FA80     		strh	r2, [r7, #6]	@ movhi
 1569 000c BB80     		strh	r3, [r7, #4]	@ movhi
 427:.\Generated_Source\PSoC5/TFTSHIELD_1.c **** 	TFTSHIELD_1_SendCmd(0x2A);
 1570              		.loc 1 427 0
 1571 000e 4FF02A00 		mov	r0, #42
 1572 0012 FFF7FEFF 		bl	TFTSHIELD_1_SendCmd
 428:.\Generated_Source\PSoC5/TFTSHIELD_1.c **** 	TFTSHIELD_1_SendData16(Start_Col);
 1573              		.loc 1 428 0
 1574 0016 FB88     		ldrh	r3, [r7, #6]
 1575 0018 1846     		mov	r0, r3
 1576 001a FFF7FEFF 		bl	TFTSHIELD_1_SendData16
 429:.\Generated_Source\PSoC5/TFTSHIELD_1.c **** 	TFTSHIELD_1_SendData16(End_Col);
 1577              		.loc 1 429 0
 1578 001e BB88     		ldrh	r3, [r7, #4]
 1579 0020 1846     		mov	r0, r3
 1580 0022 FFF7FEFF 		bl	TFTSHIELD_1_SendData16
 430:.\Generated_Source\PSoC5/TFTSHIELD_1.c **** }
 1581              		.loc 1 430 0
 1582 0026 07F10807 		add	r7, r7, #8
 1583 002a BD46     		mov	sp, r7
 1584 002c 80BD     		pop	{r7, pc}
 1585              		.cfi_endproc
 1586              	.LFE7:
 1587              		.size	TFTSHIELD_1_SetCol, .-TFTSHIELD_1_SetCol
 1588 002e 00BF     		.section	.text.TFTSHIELD_1_SendData16,"ax",%progbits
 1589              		.align	2
 1590              		.global	TFTSHIELD_1_SendData16
 1591              		.thumb
 1592              		.thumb_func
 1593              		.type	TFTSHIELD_1_SendData16, %function
 1594              	TFTSHIELD_1_SendData16:
 1595              	.LFB8:
 431:.\Generated_Source\PSoC5/TFTSHIELD_1.c **** 
 432:.\Generated_Source\PSoC5/TFTSHIELD_1.c **** /**************************************************************************//**
 433:.\Generated_Source\PSoC5/TFTSHIELD_1.c **** *  @brief Sends 16 bits data to the TFT
 434:.\Generated_Source\PSoC5/TFTSHIELD_1.c **** *
 435:.\Generated_Source\PSoC5/TFTSHIELD_1.c **** *  @param Data16: The data to send
 436:.\Generated_Source\PSoC5/TFTSHIELD_1.c **** *
 437:.\Generated_Source\PSoC5/TFTSHIELD_1.c **** *******************************************************************************/
 438:.\Generated_Source\PSoC5/TFTSHIELD_1.c **** void TFTSHIELD_1_SendData16(uint16 Data16)
 439:.\Generated_Source\PSoC5/TFTSHIELD_1.c **** {
 1596              		.loc 1 439 0
 1597              		.cfi_startproc
 1598              		@ args = 0, pretend = 0, frame = 16
 1599              		@ frame_needed = 1, uses_anonymous_args = 0
 1600 0000 80B5     		push	{r7, lr}
 1601              	.LCFI23:
 1602              		.cfi_def_cfa_offset 8
 1603              		.cfi_offset 7, -8
 1604              		.cfi_offset 14, -4
 1605 0002 84B0     		sub	sp, sp, #16
 1606              	.LCFI24:
 1607              		.cfi_def_cfa_offset 24
 1608 0004 00AF     		add	r7, sp, #0
ARM GAS  C:\Users\Brian\AppData\Local\Temp\ccPAhBxt.s 			page 37


 1609              	.LCFI25:
 1610              		.cfi_def_cfa_register 7
 1611 0006 0346     		mov	r3, r0
 1612 0008 FB80     		strh	r3, [r7, #6]	@ movhi
 440:.\Generated_Source\PSoC5/TFTSHIELD_1.c **** 	uint8 MSB, LSB;
 441:.\Generated_Source\PSoC5/TFTSHIELD_1.c **** 	
 442:.\Generated_Source\PSoC5/TFTSHIELD_1.c **** 	MSB = Data16 >> 8;
 1613              		.loc 1 442 0
 1614 000a FB88     		ldrh	r3, [r7, #6]
 1615 000c 4FEA1323 		lsr	r3, r3, #8
 1616 0010 9BB2     		uxth	r3, r3
 1617 0012 FB73     		strb	r3, [r7, #15]
 443:.\Generated_Source\PSoC5/TFTSHIELD_1.c **** 	LSB = Data16 & 0xFF;
 1618              		.loc 1 443 0
 1619 0014 FB88     		ldrh	r3, [r7, #6]	@ movhi
 1620 0016 BB73     		strb	r3, [r7, #14]
 444:.\Generated_Source\PSoC5/TFTSHIELD_1.c **** 	
 445:.\Generated_Source\PSoC5/TFTSHIELD_1.c **** 	TFTSHIELD_1_DC_HIGH();
 1621              		.loc 1 445 0
 1622 0018 FFF7FEFF 		bl	TFTSHIELD_1_DC_HIGH
 446:.\Generated_Source\PSoC5/TFTSHIELD_1.c **** 	TFTSHIELD_1_CS_LOW();
 1623              		.loc 1 446 0
 1624 001c FFF7FEFF 		bl	TFTSHIELD_1_CS_LOW
 447:.\Generated_Source\PSoC5/TFTSHIELD_1.c **** 	
 448:.\Generated_Source\PSoC5/TFTSHIELD_1.c **** 	TFTSHIELD_1_SPITransfer(MSB);
 1625              		.loc 1 448 0
 1626 0020 FB7B     		ldrb	r3, [r7, #15]	@ zero_extendqisi2
 1627 0022 1846     		mov	r0, r3
 1628 0024 FFF7FEFF 		bl	TFTSHIELD_1_SPITransfer
 449:.\Generated_Source\PSoC5/TFTSHIELD_1.c **** 	TFTSHIELD_1_SPITransfer(LSB);
 1629              		.loc 1 449 0
 1630 0028 BB7B     		ldrb	r3, [r7, #14]	@ zero_extendqisi2
 1631 002a 1846     		mov	r0, r3
 1632 002c FFF7FEFF 		bl	TFTSHIELD_1_SPITransfer
 450:.\Generated_Source\PSoC5/TFTSHIELD_1.c **** 	
 451:.\Generated_Source\PSoC5/TFTSHIELD_1.c **** 	TFTSHIELD_1_CS_HIGH();
 1633              		.loc 1 451 0
 1634 0030 FFF7FEFF 		bl	TFTSHIELD_1_CS_HIGH
 452:.\Generated_Source\PSoC5/TFTSHIELD_1.c **** }
 1635              		.loc 1 452 0
 1636 0034 07F11007 		add	r7, r7, #16
 1637 0038 BD46     		mov	sp, r7
 1638 003a 80BD     		pop	{r7, pc}
 1639              		.cfi_endproc
 1640              	.LFE8:
 1641              		.size	TFTSHIELD_1_SendData16, .-TFTSHIELD_1_SendData16
 1642              		.section	.text.TFTSHIELD_1_SendData,"ax",%progbits
 1643              		.align	2
 1644              		.global	TFTSHIELD_1_SendData
 1645              		.thumb
 1646              		.thumb_func
 1647              		.type	TFTSHIELD_1_SendData, %function
 1648              	TFTSHIELD_1_SendData:
 1649              	.LFB9:
 453:.\Generated_Source\PSoC5/TFTSHIELD_1.c **** 
 454:.\Generated_Source\PSoC5/TFTSHIELD_1.c **** /**************************************************************************//**
 455:.\Generated_Source\PSoC5/TFTSHIELD_1.c **** *  @brief Sends 8 bits data to the TFT
ARM GAS  C:\Users\Brian\AppData\Local\Temp\ccPAhBxt.s 			page 38


 456:.\Generated_Source\PSoC5/TFTSHIELD_1.c **** *
 457:.\Generated_Source\PSoC5/TFTSHIELD_1.c **** *  @param dat: The data to send
 458:.\Generated_Source\PSoC5/TFTSHIELD_1.c **** *
 459:.\Generated_Source\PSoC5/TFTSHIELD_1.c **** *******************************************************************************/
 460:.\Generated_Source\PSoC5/TFTSHIELD_1.c **** void TFTSHIELD_1_SendData(uint8 dat)
 461:.\Generated_Source\PSoC5/TFTSHIELD_1.c **** {
 1650              		.loc 1 461 0
 1651              		.cfi_startproc
 1652              		@ args = 0, pretend = 0, frame = 8
 1653              		@ frame_needed = 1, uses_anonymous_args = 0
 1654 0000 80B5     		push	{r7, lr}
 1655              	.LCFI26:
 1656              		.cfi_def_cfa_offset 8
 1657              		.cfi_offset 7, -8
 1658              		.cfi_offset 14, -4
 1659 0002 82B0     		sub	sp, sp, #8
 1660              	.LCFI27:
 1661              		.cfi_def_cfa_offset 16
 1662 0004 00AF     		add	r7, sp, #0
 1663              	.LCFI28:
 1664              		.cfi_def_cfa_register 7
 1665 0006 0346     		mov	r3, r0
 1666 0008 FB71     		strb	r3, [r7, #7]
 462:.\Generated_Source\PSoC5/TFTSHIELD_1.c **** 	TFTSHIELD_1_DC_HIGH();
 1667              		.loc 1 462 0
 1668 000a FFF7FEFF 		bl	TFTSHIELD_1_DC_HIGH
 463:.\Generated_Source\PSoC5/TFTSHIELD_1.c **** 	TFTSHIELD_1_CS_LOW();
 1669              		.loc 1 463 0
 1670 000e FFF7FEFF 		bl	TFTSHIELD_1_CS_LOW
 464:.\Generated_Source\PSoC5/TFTSHIELD_1.c **** 	
 465:.\Generated_Source\PSoC5/TFTSHIELD_1.c **** 	TFTSHIELD_1_SPITransfer(dat);
 1671              		.loc 1 465 0
 1672 0012 FB79     		ldrb	r3, [r7, #7]	@ zero_extendqisi2
 1673 0014 1846     		mov	r0, r3
 1674 0016 FFF7FEFF 		bl	TFTSHIELD_1_SPITransfer
 466:.\Generated_Source\PSoC5/TFTSHIELD_1.c **** 	
 467:.\Generated_Source\PSoC5/TFTSHIELD_1.c **** 	TFTSHIELD_1_CS_HIGH();
 1675              		.loc 1 467 0
 1676 001a FFF7FEFF 		bl	TFTSHIELD_1_CS_HIGH
 468:.\Generated_Source\PSoC5/TFTSHIELD_1.c **** }
 1677              		.loc 1 468 0
 1678 001e 07F10807 		add	r7, r7, #8
 1679 0022 BD46     		mov	sp, r7
 1680 0024 80BD     		pop	{r7, pc}
 1681              		.cfi_endproc
 1682              	.LFE9:
 1683              		.size	TFTSHIELD_1_SendData, .-TFTSHIELD_1_SendData
 1684 0026 00BF     		.section	.text.TFTSHIELD_1_SendCmd,"ax",%progbits
 1685              		.align	2
 1686              		.global	TFTSHIELD_1_SendCmd
 1687              		.thumb
 1688              		.thumb_func
 1689              		.type	TFTSHIELD_1_SendCmd, %function
 1690              	TFTSHIELD_1_SendCmd:
 1691              	.LFB10:
 469:.\Generated_Source\PSoC5/TFTSHIELD_1.c **** 
 470:.\Generated_Source\PSoC5/TFTSHIELD_1.c **** /**************************************************************************//**
ARM GAS  C:\Users\Brian\AppData\Local\Temp\ccPAhBxt.s 			page 39


 471:.\Generated_Source\PSoC5/TFTSHIELD_1.c **** *  @brief Sends a command to the TFT
 472:.\Generated_Source\PSoC5/TFTSHIELD_1.c **** *
 473:.\Generated_Source\PSoC5/TFTSHIELD_1.c **** *  @param cmd: The command data to send
 474:.\Generated_Source\PSoC5/TFTSHIELD_1.c **** *
 475:.\Generated_Source\PSoC5/TFTSHIELD_1.c **** *******************************************************************************/
 476:.\Generated_Source\PSoC5/TFTSHIELD_1.c **** void TFTSHIELD_1_SendCmd(uint8 cmd)
 477:.\Generated_Source\PSoC5/TFTSHIELD_1.c **** {
 1692              		.loc 1 477 0
 1693              		.cfi_startproc
 1694              		@ args = 0, pretend = 0, frame = 8
 1695              		@ frame_needed = 1, uses_anonymous_args = 0
 1696 0000 80B5     		push	{r7, lr}
 1697              	.LCFI29:
 1698              		.cfi_def_cfa_offset 8
 1699              		.cfi_offset 7, -8
 1700              		.cfi_offset 14, -4
 1701 0002 82B0     		sub	sp, sp, #8
 1702              	.LCFI30:
 1703              		.cfi_def_cfa_offset 16
 1704 0004 00AF     		add	r7, sp, #0
 1705              	.LCFI31:
 1706              		.cfi_def_cfa_register 7
 1707 0006 0346     		mov	r3, r0
 1708 0008 FB71     		strb	r3, [r7, #7]
 478:.\Generated_Source\PSoC5/TFTSHIELD_1.c **** 	TFTSHIELD_1_DC_LOW();
 1709              		.loc 1 478 0
 1710 000a FFF7FEFF 		bl	TFTSHIELD_1_DC_LOW
 479:.\Generated_Source\PSoC5/TFTSHIELD_1.c **** 	TFTSHIELD_1_CS_LOW();
 1711              		.loc 1 479 0
 1712 000e FFF7FEFF 		bl	TFTSHIELD_1_CS_LOW
 480:.\Generated_Source\PSoC5/TFTSHIELD_1.c **** 	
 481:.\Generated_Source\PSoC5/TFTSHIELD_1.c **** 	TFTSHIELD_1_SPITransfer(cmd);
 1713              		.loc 1 481 0
 1714 0012 FB79     		ldrb	r3, [r7, #7]	@ zero_extendqisi2
 1715 0014 1846     		mov	r0, r3
 1716 0016 FFF7FEFF 		bl	TFTSHIELD_1_SPITransfer
 482:.\Generated_Source\PSoC5/TFTSHIELD_1.c **** 	
 483:.\Generated_Source\PSoC5/TFTSHIELD_1.c **** 	TFTSHIELD_1_CS_HIGH();
 1717              		.loc 1 483 0
 1718 001a FFF7FEFF 		bl	TFTSHIELD_1_CS_HIGH
 484:.\Generated_Source\PSoC5/TFTSHIELD_1.c **** }
 1719              		.loc 1 484 0
 1720 001e 07F10807 		add	r7, r7, #8
 1721 0022 BD46     		mov	sp, r7
 1722 0024 80BD     		pop	{r7, pc}
 1723              		.cfi_endproc
 1724              	.LFE10:
 1725              		.size	TFTSHIELD_1_SendCmd, .-TFTSHIELD_1_SendCmd
 1726 0026 00BF     		.section	.text.TFTSHIELD_1_SPITransfer,"ax",%progbits
 1727              		.align	2
 1728              		.global	TFTSHIELD_1_SPITransfer
 1729              		.thumb
 1730              		.thumb_func
 1731              		.type	TFTSHIELD_1_SPITransfer, %function
 1732              	TFTSHIELD_1_SPITransfer:
 1733              	.LFB11:
 485:.\Generated_Source\PSoC5/TFTSHIELD_1.c **** 
ARM GAS  C:\Users\Brian\AppData\Local\Temp\ccPAhBxt.s 			page 40


 486:.\Generated_Source\PSoC5/TFTSHIELD_1.c **** /**************************************************************************//**
 487:.\Generated_Source\PSoC5/TFTSHIELD_1.c **** *  @brief Sends 8 bits of data to the TFT over SPI
 488:.\Generated_Source\PSoC5/TFTSHIELD_1.c **** *
 489:.\Generated_Source\PSoC5/TFTSHIELD_1.c **** *  @param data8: The data to send
 490:.\Generated_Source\PSoC5/TFTSHIELD_1.c **** *
 491:.\Generated_Source\PSoC5/TFTSHIELD_1.c **** *******************************************************************************/
 492:.\Generated_Source\PSoC5/TFTSHIELD_1.c **** void TFTSHIELD_1_SPITransfer(uint8 data8)
 493:.\Generated_Source\PSoC5/TFTSHIELD_1.c **** {	
 1734              		.loc 1 493 0
 1735              		.cfi_startproc
 1736              		@ args = 0, pretend = 0, frame = 8
 1737              		@ frame_needed = 1, uses_anonymous_args = 0
 1738 0000 80B5     		push	{r7, lr}
 1739              	.LCFI32:
 1740              		.cfi_def_cfa_offset 8
 1741              		.cfi_offset 7, -8
 1742              		.cfi_offset 14, -4
 1743 0002 82B0     		sub	sp, sp, #8
 1744              	.LCFI33:
 1745              		.cfi_def_cfa_offset 16
 1746 0004 00AF     		add	r7, sp, #0
 1747              	.LCFI34:
 1748              		.cfi_def_cfa_register 7
 1749 0006 0346     		mov	r3, r0
 1750 0008 FB71     		strb	r3, [r7, #7]
 494:.\Generated_Source\PSoC5/TFTSHIELD_1.c **** 	//SPIM_1_SpiUART_1WriteTxData((uint32)data8);
 495:.\Generated_Source\PSoC5/TFTSHIELD_1.c ****     TFTSHIELD_1_SPIM_1_WriteTxData(data8);
 1751              		.loc 1 495 0
 1752 000a FB79     		ldrb	r3, [r7, #7]	@ zero_extendqisi2
 1753 000c 1846     		mov	r0, r3
 1754 000e FFF7FEFF 		bl	TFTSHIELD_1_SPIM_1_WriteTxData
 496:.\Generated_Source\PSoC5/TFTSHIELD_1.c **** 
 497:.\Generated_Source\PSoC5/TFTSHIELD_1.c **** 	//CyDelayUs(1);
 498:.\Generated_Source\PSoC5/TFTSHIELD_1.c **** }
 1755              		.loc 1 498 0
 1756 0012 07F10807 		add	r7, r7, #8
 1757 0016 BD46     		mov	sp, r7
 1758 0018 80BD     		pop	{r7, pc}
 1759              		.cfi_endproc
 1760              	.LFE11:
 1761              		.size	TFTSHIELD_1_SPITransfer, .-TFTSHIELD_1_SPITransfer
 1762 001a 00BF     		.section	.text.TFTSHIELD_1_DrawVLine,"ax",%progbits
 1763              		.align	2
 1764              		.global	TFTSHIELD_1_DrawVLine
 1765              		.thumb
 1766              		.thumb_func
 1767              		.type	TFTSHIELD_1_DrawVLine, %function
 1768              	TFTSHIELD_1_DrawVLine:
 1769              	.LFB12:
 499:.\Generated_Source\PSoC5/TFTSHIELD_1.c **** 
 500:.\Generated_Source\PSoC5/TFTSHIELD_1.c **** /**************************************************************************//**
 501:.\Generated_Source\PSoC5/TFTSHIELD_1.c **** *  @brief Draws a vertical line
 502:.\Generated_Source\PSoC5/TFTSHIELD_1.c **** *
 503:.\Generated_Source\PSoC5/TFTSHIELD_1.c **** *  @param Pos_X: The starting x coordinate
 504:.\Generated_Source\PSoC5/TFTSHIELD_1.c **** *  @param Pos_Y: The starting y coordinate
 505:.\Generated_Source\PSoC5/TFTSHIELD_1.c **** *  @param Length: The length of the line
 506:.\Generated_Source\PSoC5/TFTSHIELD_1.c **** *  @param Color: The color of the line
ARM GAS  C:\Users\Brian\AppData\Local\Temp\ccPAhBxt.s 			page 41


 507:.\Generated_Source\PSoC5/TFTSHIELD_1.c **** *
 508:.\Generated_Source\PSoC5/TFTSHIELD_1.c **** *******************************************************************************/
 509:.\Generated_Source\PSoC5/TFTSHIELD_1.c **** void TFTSHIELD_1_DrawVLine(uint16 Pos_X, uint16 Pos_Y, uint16 Length, uint16 Color)
 510:.\Generated_Source\PSoC5/TFTSHIELD_1.c **** {
 1770              		.loc 1 510 0
 1771              		.cfi_startproc
 1772              		@ args = 0, pretend = 0, frame = 16
 1773              		@ frame_needed = 1, uses_anonymous_args = 0
 1774 0000 80B5     		push	{r7, lr}
 1775              	.LCFI35:
 1776              		.cfi_def_cfa_offset 8
 1777              		.cfi_offset 7, -8
 1778              		.cfi_offset 14, -4
 1779 0002 84B0     		sub	sp, sp, #16
 1780              	.LCFI36:
 1781              		.cfi_def_cfa_offset 24
 1782 0004 00AF     		add	r7, sp, #0
 1783              	.LCFI37:
 1784              		.cfi_def_cfa_register 7
 1785 0006 F880     		strh	r0, [r7, #6]	@ movhi
 1786 0008 B980     		strh	r1, [r7, #4]	@ movhi
 1787 000a 7A80     		strh	r2, [r7, #2]	@ movhi
 1788 000c 3B80     		strh	r3, [r7, #0]	@ movhi
 511:.\Generated_Source\PSoC5/TFTSHIELD_1.c **** 	uint16 index;
 512:.\Generated_Source\PSoC5/TFTSHIELD_1.c **** 	TFTSHIELD_1_SetCol(Pos_X, Pos_X);
 1789              		.loc 1 512 0
 1790 000e FA88     		ldrh	r2, [r7, #6]
 1791 0010 FB88     		ldrh	r3, [r7, #6]
 1792 0012 1046     		mov	r0, r2
 1793 0014 1946     		mov	r1, r3
 1794 0016 FFF7FEFF 		bl	TFTSHIELD_1_SetCol
 513:.\Generated_Source\PSoC5/TFTSHIELD_1.c **** 	TFTSHIELD_1_SetPage(Pos_Y, Pos_Y + Length);
 1795              		.loc 1 513 0
 1796 001a BA88     		ldrh	r2, [r7, #4]	@ movhi
 1797 001c 7B88     		ldrh	r3, [r7, #2]	@ movhi
 1798 001e D318     		adds	r3, r2, r3
 1799 0020 9BB2     		uxth	r3, r3
 1800 0022 BA88     		ldrh	r2, [r7, #4]
 1801 0024 1046     		mov	r0, r2
 1802 0026 1946     		mov	r1, r3
 1803 0028 FFF7FEFF 		bl	TFTSHIELD_1_SetPage
 514:.\Generated_Source\PSoC5/TFTSHIELD_1.c **** 	TFTSHIELD_1_SendCmd(0x2C);
 1804              		.loc 1 514 0
 1805 002c 4FF02C00 		mov	r0, #44
 1806 0030 FFF7FEFF 		bl	TFTSHIELD_1_SendCmd
 515:.\Generated_Source\PSoC5/TFTSHIELD_1.c **** 	
 516:.\Generated_Source\PSoC5/TFTSHIELD_1.c **** 	TFTSHIELD_1_DC_HIGH();
 1807              		.loc 1 516 0
 1808 0034 FFF7FEFF 		bl	TFTSHIELD_1_DC_HIGH
 517:.\Generated_Source\PSoC5/TFTSHIELD_1.c **** 	TFTSHIELD_1_CS_LOW();
 1809              		.loc 1 517 0
 1810 0038 FFF7FEFF 		bl	TFTSHIELD_1_CS_LOW
 518:.\Generated_Source\PSoC5/TFTSHIELD_1.c **** 	
 519:.\Generated_Source\PSoC5/TFTSHIELD_1.c **** 	for(index = 0; index < Length; index++)
 1811              		.loc 1 519 0
 1812 003c 4FF00003 		mov	r3, #0
 1813 0040 FB81     		strh	r3, [r7, #14]	@ movhi
ARM GAS  C:\Users\Brian\AppData\Local\Temp\ccPAhBxt.s 			page 42


 1814 0042 10E0     		b	.L24
 1815              	.L25:
 520:.\Generated_Source\PSoC5/TFTSHIELD_1.c **** 	{	
 521:.\Generated_Source\PSoC5/TFTSHIELD_1.c **** 		TFTSHIELD_1_SPITransfer(Color >> 8);
 1816              		.loc 1 521 0 discriminator 2
 1817 0044 3B88     		ldrh	r3, [r7, #0]
 1818 0046 4FEA1323 		lsr	r3, r3, #8
 1819 004a 9BB2     		uxth	r3, r3
 1820 004c DBB2     		uxtb	r3, r3
 1821 004e 1846     		mov	r0, r3
 1822 0050 FFF7FEFF 		bl	TFTSHIELD_1_SPITransfer
 522:.\Generated_Source\PSoC5/TFTSHIELD_1.c **** 		TFTSHIELD_1_SPITransfer(Color & 0xFF);	
 1823              		.loc 1 522 0 discriminator 2
 1824 0054 3B88     		ldrh	r3, [r7, #0]	@ movhi
 1825 0056 DBB2     		uxtb	r3, r3
 1826 0058 1846     		mov	r0, r3
 1827 005a FFF7FEFF 		bl	TFTSHIELD_1_SPITransfer
 519:.\Generated_Source\PSoC5/TFTSHIELD_1.c **** 	for(index = 0; index < Length; index++)
 1828              		.loc 1 519 0 discriminator 2
 1829 005e FB89     		ldrh	r3, [r7, #14]	@ movhi
 1830 0060 03F10103 		add	r3, r3, #1
 1831 0064 FB81     		strh	r3, [r7, #14]	@ movhi
 1832              	.L24:
 519:.\Generated_Source\PSoC5/TFTSHIELD_1.c **** 	for(index = 0; index < Length; index++)
 1833              		.loc 1 519 0 is_stmt 0 discriminator 1
 1834 0066 FA89     		ldrh	r2, [r7, #14]
 1835 0068 7B88     		ldrh	r3, [r7, #2]
 1836 006a 9A42     		cmp	r2, r3
 1837 006c EAD3     		bcc	.L25
 523:.\Generated_Source\PSoC5/TFTSHIELD_1.c **** 	}
 524:.\Generated_Source\PSoC5/TFTSHIELD_1.c **** 	
 525:.\Generated_Source\PSoC5/TFTSHIELD_1.c **** 	TFTSHIELD_1_CS_HIGH();
 1838              		.loc 1 525 0 is_stmt 1
 1839 006e FFF7FEFF 		bl	TFTSHIELD_1_CS_HIGH
 526:.\Generated_Source\PSoC5/TFTSHIELD_1.c **** }
 1840              		.loc 1 526 0
 1841 0072 07F11007 		add	r7, r7, #16
 1842 0076 BD46     		mov	sp, r7
 1843 0078 80BD     		pop	{r7, pc}
 1844              		.cfi_endproc
 1845              	.LFE12:
 1846              		.size	TFTSHIELD_1_DrawVLine, .-TFTSHIELD_1_DrawVLine
 1847 007a 00BF     		.section	.text.TFTSHIELD_1_DrawHLine,"ax",%progbits
 1848              		.align	2
 1849              		.global	TFTSHIELD_1_DrawHLine
 1850              		.thumb
 1851              		.thumb_func
 1852              		.type	TFTSHIELD_1_DrawHLine, %function
 1853              	TFTSHIELD_1_DrawHLine:
 1854              	.LFB13:
 527:.\Generated_Source\PSoC5/TFTSHIELD_1.c **** 
 528:.\Generated_Source\PSoC5/TFTSHIELD_1.c **** void TFTSHIELD_1_DrawHLine(int16_t x, int16_t y,
 529:.\Generated_Source\PSoC5/TFTSHIELD_1.c **** 				 int16_t w, uint16_t color) {
 1855              		.loc 1 529 0
 1856              		.cfi_startproc
 1857              		@ args = 0, pretend = 0, frame = 8
 1858              		@ frame_needed = 1, uses_anonymous_args = 0
ARM GAS  C:\Users\Brian\AppData\Local\Temp\ccPAhBxt.s 			page 43


 1859 0000 90B5     		push	{r4, r7, lr}
 1860              	.LCFI38:
 1861              		.cfi_def_cfa_offset 12
 1862              		.cfi_offset 4, -12
 1863              		.cfi_offset 7, -8
 1864              		.cfi_offset 14, -4
 1865 0002 85B0     		sub	sp, sp, #20
 1866              	.LCFI39:
 1867              		.cfi_def_cfa_offset 32
 1868 0004 02AF     		add	r7, sp, #8
 1869              	.LCFI40:
 1870              		.cfi_def_cfa 7, 24
 1871 0006 F880     		strh	r0, [r7, #6]	@ movhi
 1872 0008 B980     		strh	r1, [r7, #4]	@ movhi
 1873 000a 7A80     		strh	r2, [r7, #2]	@ movhi
 1874 000c 3B80     		strh	r3, [r7, #0]	@ movhi
 530:.\Generated_Source\PSoC5/TFTSHIELD_1.c ****   
 531:.\Generated_Source\PSoC5/TFTSHIELD_1.c ****   TFTSHIELD_1_DrawLine(x, y, x+w-1, y, color);
 1875              		.loc 1 531 0
 1876 000e F888     		ldrh	r0, [r7, #6]
 1877 0010 B988     		ldrh	r1, [r7, #4]
 1878 0012 FA88     		ldrh	r2, [r7, #6]
 1879 0014 7B88     		ldrh	r3, [r7, #2]
 1880 0016 D318     		adds	r3, r2, r3
 1881 0018 9BB2     		uxth	r3, r3
 1882 001a 03F1FF33 		add	r3, r3, #-1
 1883 001e 9AB2     		uxth	r2, r3
 1884 0020 BB88     		ldrh	r3, [r7, #4]
 1885 0022 3C88     		ldrh	r4, [r7, #0]
 1886 0024 0094     		str	r4, [sp, #0]
 1887 0026 FFF7FEFF 		bl	TFTSHIELD_1_DrawLine
 532:.\Generated_Source\PSoC5/TFTSHIELD_1.c **** }
 1888              		.loc 1 532 0
 1889 002a 07F10C07 		add	r7, r7, #12
 1890 002e BD46     		mov	sp, r7
 1891 0030 90BD     		pop	{r4, r7, pc}
 1892              		.cfi_endproc
 1893              	.LFE13:
 1894              		.size	TFTSHIELD_1_DrawHLine, .-TFTSHIELD_1_DrawHLine
 1895              		.global	__aeabi_i2f
 1896              		.global	__aeabi_fdiv
 1897              		.global	__aeabi_fmul
 1898              		.global	__aeabi_fadd
 1899              		.global	__aeabi_f2iz
 1900 0032 00BF     		.section	.text.TFTSHIELD_1_DrawLine,"ax",%progbits
 1901              		.align	2
 1902              		.global	TFTSHIELD_1_DrawLine
 1903              		.thumb
 1904              		.thumb_func
 1905              		.type	TFTSHIELD_1_DrawLine, %function
 1906              	TFTSHIELD_1_DrawLine:
 1907              	.LFB14:
 533:.\Generated_Source\PSoC5/TFTSHIELD_1.c **** 
 534:.\Generated_Source\PSoC5/TFTSHIELD_1.c **** /**************************************************************************//**
 535:.\Generated_Source\PSoC5/TFTSHIELD_1.c **** *  @brief Draws a line
 536:.\Generated_Source\PSoC5/TFTSHIELD_1.c **** *
 537:.\Generated_Source\PSoC5/TFTSHIELD_1.c **** *  @param x1: The starting x coordinate
ARM GAS  C:\Users\Brian\AppData\Local\Temp\ccPAhBxt.s 			page 44


 538:.\Generated_Source\PSoC5/TFTSHIELD_1.c **** *  @param y1: The starting y coordinate
 539:.\Generated_Source\PSoC5/TFTSHIELD_1.c **** *  @param x2: The ending x coordinate
 540:.\Generated_Source\PSoC5/TFTSHIELD_1.c **** *  @param y2: The ending y coordinate
 541:.\Generated_Source\PSoC5/TFTSHIELD_1.c **** *  @param Color: The color of the line
 542:.\Generated_Source\PSoC5/TFTSHIELD_1.c **** *
 543:.\Generated_Source\PSoC5/TFTSHIELD_1.c **** *******************************************************************************/
 544:.\Generated_Source\PSoC5/TFTSHIELD_1.c **** void TFTSHIELD_1_DrawLine( uint16 x1, uint16 y1, uint16 x2, uint16 y2, uint16 Color )
 545:.\Generated_Source\PSoC5/TFTSHIELD_1.c **** {
 1908              		.loc 1 545 0
 1909              		.cfi_startproc
 1910              		@ args = 4, pretend = 0, frame = 32
 1911              		@ frame_needed = 1, uses_anonymous_args = 0
 1912 0000 90B5     		push	{r4, r7, lr}
 1913              	.LCFI41:
 1914              		.cfi_def_cfa_offset 12
 1915              		.cfi_offset 4, -12
 1916              		.cfi_offset 7, -8
 1917              		.cfi_offset 14, -4
 1918 0002 89B0     		sub	sp, sp, #36
 1919              	.LCFI42:
 1920              		.cfi_def_cfa_offset 48
 1921 0004 00AF     		add	r7, sp, #0
 1922              	.LCFI43:
 1923              		.cfi_def_cfa_register 7
 1924 0006 F880     		strh	r0, [r7, #6]	@ movhi
 1925 0008 B980     		strh	r1, [r7, #4]	@ movhi
 1926 000a 7A80     		strh	r2, [r7, #2]	@ movhi
 1927 000c 3B80     		strh	r3, [r7, #0]	@ movhi
 546:.\Generated_Source\PSoC5/TFTSHIELD_1.c **** 	short dx, dy, sdx, sdy, px, py, dxabs, dyabs, i;
 547:.\Generated_Source\PSoC5/TFTSHIELD_1.c **** 	float slope;
 548:.\Generated_Source\PSoC5/TFTSHIELD_1.c **** 
 549:.\Generated_Source\PSoC5/TFTSHIELD_1.c **** 	dx = x2 - x1;
 1928              		.loc 1 549 0
 1929 000e 7A88     		ldrh	r2, [r7, #2]	@ movhi
 1930 0010 FB88     		ldrh	r3, [r7, #6]	@ movhi
 1931 0012 D31A     		subs	r3, r2, r3
 1932 0014 9BB2     		uxth	r3, r3
 1933 0016 BB82     		strh	r3, [r7, #20]	@ movhi
 550:.\Generated_Source\PSoC5/TFTSHIELD_1.c **** 	dy = y2 - y1;
 1934              		.loc 1 550 0
 1935 0018 3A88     		ldrh	r2, [r7, #0]	@ movhi
 1936 001a BB88     		ldrh	r3, [r7, #4]	@ movhi
 1937 001c D31A     		subs	r3, r2, r3
 1938 001e 9BB2     		uxth	r3, r3
 1939 0020 7B82     		strh	r3, [r7, #18]	@ movhi
 551:.\Generated_Source\PSoC5/TFTSHIELD_1.c **** 	dxabs = sdx = 0;
 1940              		.loc 1 551 0
 1941 0022 4FF00003 		mov	r3, #0
 1942 0026 FB83     		strh	r3, [r7, #30]	@ movhi
 1943 0028 FB8B     		ldrh	r3, [r7, #30]	@ movhi
 1944 002a 7B83     		strh	r3, [r7, #26]	@ movhi
 552:.\Generated_Source\PSoC5/TFTSHIELD_1.c **** 	if( dx > 0 )
 1945              		.loc 1 552 0
 1946 002c B7F91430 		ldrsh	r3, [r7, #20]
 1947 0030 002B     		cmp	r3, #0
 1948 0032 05DD     		ble	.L28
 553:.\Generated_Source\PSoC5/TFTSHIELD_1.c **** 	{
ARM GAS  C:\Users\Brian\AppData\Local\Temp\ccPAhBxt.s 			page 45


 554:.\Generated_Source\PSoC5/TFTSHIELD_1.c **** 		dxabs = dx;
 1949              		.loc 1 554 0
 1950 0034 BB8A     		ldrh	r3, [r7, #20]	@ movhi
 1951 0036 7B83     		strh	r3, [r7, #26]	@ movhi
 555:.\Generated_Source\PSoC5/TFTSHIELD_1.c **** 		sdx = 1;
 1952              		.loc 1 555 0
 1953 0038 4FF00103 		mov	r3, #1
 1954 003c FB83     		strh	r3, [r7, #30]	@ movhi
 1955 003e 0BE0     		b	.L29
 1956              	.L28:
 556:.\Generated_Source\PSoC5/TFTSHIELD_1.c **** 	}
 557:.\Generated_Source\PSoC5/TFTSHIELD_1.c **** 	else if ( dx < 0 )
 1957              		.loc 1 557 0
 1958 0040 B7F91430 		ldrsh	r3, [r7, #20]
 1959 0044 002B     		cmp	r3, #0
 1960 0046 07DA     		bge	.L29
 558:.\Generated_Source\PSoC5/TFTSHIELD_1.c **** 	{
 559:.\Generated_Source\PSoC5/TFTSHIELD_1.c **** 		dxabs = -dx;
 1961              		.loc 1 559 0
 1962 0048 BB8A     		ldrh	r3, [r7, #20]
 1963 004a C3F10003 		rsb	r3, r3, #0
 1964 004e 9BB2     		uxth	r3, r3
 1965 0050 7B83     		strh	r3, [r7, #26]	@ movhi
 560:.\Generated_Source\PSoC5/TFTSHIELD_1.c **** 		sdx = -1;
 1966              		.loc 1 560 0
 1967 0052 4FF6FF73 		movw	r3, #65535
 1968 0056 FB83     		strh	r3, [r7, #30]	@ movhi
 1969              	.L29:
 561:.\Generated_Source\PSoC5/TFTSHIELD_1.c **** 	}
 562:.\Generated_Source\PSoC5/TFTSHIELD_1.c **** 	dyabs = sdy = 0;
 1970              		.loc 1 562 0
 1971 0058 4FF00003 		mov	r3, #0
 1972 005c BB83     		strh	r3, [r7, #28]	@ movhi
 1973 005e BB8B     		ldrh	r3, [r7, #28]	@ movhi
 1974 0060 3B83     		strh	r3, [r7, #24]	@ movhi
 563:.\Generated_Source\PSoC5/TFTSHIELD_1.c **** 	if( dy > 0 )
 1975              		.loc 1 563 0
 1976 0062 B7F91230 		ldrsh	r3, [r7, #18]
 1977 0066 002B     		cmp	r3, #0
 1978 0068 05DD     		ble	.L30
 564:.\Generated_Source\PSoC5/TFTSHIELD_1.c **** 	{
 565:.\Generated_Source\PSoC5/TFTSHIELD_1.c **** 		dyabs = dy;
 1979              		.loc 1 565 0
 1980 006a 7B8A     		ldrh	r3, [r7, #18]	@ movhi
 1981 006c 3B83     		strh	r3, [r7, #24]	@ movhi
 566:.\Generated_Source\PSoC5/TFTSHIELD_1.c **** 		sdy = 1;
 1982              		.loc 1 566 0
 1983 006e 4FF00103 		mov	r3, #1
 1984 0072 BB83     		strh	r3, [r7, #28]	@ movhi
 1985 0074 0BE0     		b	.L31
 1986              	.L30:
 567:.\Generated_Source\PSoC5/TFTSHIELD_1.c **** 	}
 568:.\Generated_Source\PSoC5/TFTSHIELD_1.c **** 	else if ( dy < 0 )
 1987              		.loc 1 568 0
 1988 0076 B7F91230 		ldrsh	r3, [r7, #18]
 1989 007a 002B     		cmp	r3, #0
 1990 007c 07DA     		bge	.L31
ARM GAS  C:\Users\Brian\AppData\Local\Temp\ccPAhBxt.s 			page 46


 569:.\Generated_Source\PSoC5/TFTSHIELD_1.c **** 	{
 570:.\Generated_Source\PSoC5/TFTSHIELD_1.c **** 		dyabs = -dy;
 1991              		.loc 1 570 0
 1992 007e 7B8A     		ldrh	r3, [r7, #18]
 1993 0080 C3F10003 		rsb	r3, r3, #0
 1994 0084 9BB2     		uxth	r3, r3
 1995 0086 3B83     		strh	r3, [r7, #24]	@ movhi
 571:.\Generated_Source\PSoC5/TFTSHIELD_1.c **** 		sdy = -1;
 1996              		.loc 1 571 0
 1997 0088 4FF6FF73 		movw	r3, #65535
 1998 008c BB83     		strh	r3, [r7, #28]	@ movhi
 1999              	.L31:
 572:.\Generated_Source\PSoC5/TFTSHIELD_1.c **** 	}
 573:.\Generated_Source\PSoC5/TFTSHIELD_1.c **** 	if ( dxabs >= dyabs )		/* the line is more horizontal than vertical */
 2000              		.loc 1 573 0
 2001 008e B7F91A20 		ldrsh	r2, [r7, #26]
 2002 0092 B7F91830 		ldrsh	r3, [r7, #24]
 2003 0096 9A42     		cmp	r2, r3
 2004 0098 49DB     		blt	.L32
 574:.\Generated_Source\PSoC5/TFTSHIELD_1.c **** 	{
 575:.\Generated_Source\PSoC5/TFTSHIELD_1.c **** 		slope = ( float ) dy / ( float ) dx;
 2005              		.loc 1 575 0
 2006 009a B7F91230 		ldrsh	r3, [r7, #18]
 2007 009e 1846     		mov	r0, r3
 2008 00a0 FFF7FEFF 		bl	__aeabi_i2f
 2009 00a4 0446     		mov	r4, r0
 2010 00a6 B7F91430 		ldrsh	r3, [r7, #20]
 2011 00aa 1846     		mov	r0, r3
 2012 00ac FFF7FEFF 		bl	__aeabi_i2f
 2013 00b0 0346     		mov	r3, r0
 2014 00b2 2046     		mov	r0, r4
 2015 00b4 1946     		mov	r1, r3
 2016 00b6 FFF7FEFF 		bl	__aeabi_fdiv
 2017 00ba 0346     		mov	r3, r0
 2018 00bc FB60     		str	r3, [r7, #12]	@ float
 576:.\Generated_Source\PSoC5/TFTSHIELD_1.c **** 		for ( i = 0; i != dx; i += sdx )
 2019              		.loc 1 576 0
 2020 00be 4FF00003 		mov	r3, #0
 2021 00c2 FB82     		strh	r3, [r7, #22]	@ movhi
 2022 00c4 2CE0     		b	.L33
 2023              	.L34:
 577:.\Generated_Source\PSoC5/TFTSHIELD_1.c **** 		{
 578:.\Generated_Source\PSoC5/TFTSHIELD_1.c **** 			px = i + x1;
 2024              		.loc 1 578 0 discriminator 2
 2025 00c6 FA8A     		ldrh	r2, [r7, #22]
 2026 00c8 FB88     		ldrh	r3, [r7, #6]	@ movhi
 2027 00ca D318     		adds	r3, r2, r3
 2028 00cc 9BB2     		uxth	r3, r3
 2029 00ce 7B81     		strh	r3, [r7, #10]	@ movhi
 579:.\Generated_Source\PSoC5/TFTSHIELD_1.c **** 			py = slope * i + y1;
 2030              		.loc 1 579 0 discriminator 2
 2031 00d0 B7F91630 		ldrsh	r3, [r7, #22]
 2032 00d4 1846     		mov	r0, r3
 2033 00d6 FFF7FEFF 		bl	__aeabi_i2f
 2034 00da 0346     		mov	r3, r0
 2035 00dc 1846     		mov	r0, r3
 2036 00de F968     		ldr	r1, [r7, #12]	@ float
ARM GAS  C:\Users\Brian\AppData\Local\Temp\ccPAhBxt.s 			page 47


 2037 00e0 FFF7FEFF 		bl	__aeabi_fmul
 2038 00e4 0346     		mov	r3, r0
 2039 00e6 1C46     		mov	r4, r3
 2040 00e8 BB88     		ldrh	r3, [r7, #4]
 2041 00ea 1846     		mov	r0, r3
 2042 00ec FFF7FEFF 		bl	__aeabi_i2f
 2043 00f0 0346     		mov	r3, r0
 2044 00f2 2046     		mov	r0, r4
 2045 00f4 1946     		mov	r1, r3
 2046 00f6 FFF7FEFF 		bl	__aeabi_fadd
 2047 00fa 0346     		mov	r3, r0
 2048 00fc 1846     		mov	r0, r3
 2049 00fe FFF7FEFF 		bl	__aeabi_f2iz
 2050 0102 0346     		mov	r3, r0
 2051 0104 3B81     		strh	r3, [r7, #8]	@ movhi
 580:.\Generated_Source\PSoC5/TFTSHIELD_1.c **** 			TFTSHIELD_1_SetPixel( px, py, Color );
 2052              		.loc 1 580 0 discriminator 2
 2053 0106 7989     		ldrh	r1, [r7, #10]
 2054 0108 3A89     		ldrh	r2, [r7, #8]
 2055 010a 3B8E     		ldrh	r3, [r7, #48]
 2056 010c 0846     		mov	r0, r1
 2057 010e 1146     		mov	r1, r2
 2058 0110 1A46     		mov	r2, r3
 2059 0112 FFF7FEFF 		bl	TFTSHIELD_1_SetPixel
 576:.\Generated_Source\PSoC5/TFTSHIELD_1.c **** 		for ( i = 0; i != dx; i += sdx )
 2060              		.loc 1 576 0 discriminator 2
 2061 0116 FA8A     		ldrh	r2, [r7, #22]
 2062 0118 FB8B     		ldrh	r3, [r7, #30]
 2063 011a D318     		adds	r3, r2, r3
 2064 011c 9BB2     		uxth	r3, r3
 2065 011e FB82     		strh	r3, [r7, #22]	@ movhi
 2066              	.L33:
 576:.\Generated_Source\PSoC5/TFTSHIELD_1.c **** 		for ( i = 0; i != dx; i += sdx )
 2067              		.loc 1 576 0 is_stmt 0 discriminator 1
 2068 0120 B7F91620 		ldrsh	r2, [r7, #22]
 2069 0124 B7F91430 		ldrsh	r3, [r7, #20]
 2070 0128 9A42     		cmp	r2, r3
 2071 012a CCD1     		bne	.L34
 576:.\Generated_Source\PSoC5/TFTSHIELD_1.c **** 		for ( i = 0; i != dx; i += sdx )
 2072              		.loc 1 576 0
 2073 012c 48E0     		b	.L27
 2074              	.L32:
 581:.\Generated_Source\PSoC5/TFTSHIELD_1.c **** 		}
 582:.\Generated_Source\PSoC5/TFTSHIELD_1.c **** 	}
 583:.\Generated_Source\PSoC5/TFTSHIELD_1.c **** 	else				/* the line is more vertical than horizontal */
 584:.\Generated_Source\PSoC5/TFTSHIELD_1.c **** 	{
 585:.\Generated_Source\PSoC5/TFTSHIELD_1.c **** 		slope = ( float ) dx / ( float ) dy;
 2075              		.loc 1 585 0 is_stmt 1
 2076 012e B7F91430 		ldrsh	r3, [r7, #20]
 2077 0132 1846     		mov	r0, r3
 2078 0134 FFF7FEFF 		bl	__aeabi_i2f
 2079 0138 0446     		mov	r4, r0
 2080 013a B7F91230 		ldrsh	r3, [r7, #18]
 2081 013e 1846     		mov	r0, r3
 2082 0140 FFF7FEFF 		bl	__aeabi_i2f
 2083 0144 0346     		mov	r3, r0
 2084 0146 2046     		mov	r0, r4
ARM GAS  C:\Users\Brian\AppData\Local\Temp\ccPAhBxt.s 			page 48


 2085 0148 1946     		mov	r1, r3
 2086 014a FFF7FEFF 		bl	__aeabi_fdiv
 2087 014e 0346     		mov	r3, r0
 2088 0150 FB60     		str	r3, [r7, #12]	@ float
 586:.\Generated_Source\PSoC5/TFTSHIELD_1.c **** 		for ( i = 0; i != dy; i += sdy )
 2089              		.loc 1 586 0
 2090 0152 4FF00003 		mov	r3, #0
 2091 0156 FB82     		strh	r3, [r7, #22]	@ movhi
 2092 0158 2CE0     		b	.L36
 2093              	.L37:
 587:.\Generated_Source\PSoC5/TFTSHIELD_1.c **** 		{
 588:.\Generated_Source\PSoC5/TFTSHIELD_1.c **** 			px = slope * i + x1;
 2094              		.loc 1 588 0 discriminator 2
 2095 015a B7F91630 		ldrsh	r3, [r7, #22]
 2096 015e 1846     		mov	r0, r3
 2097 0160 FFF7FEFF 		bl	__aeabi_i2f
 2098 0164 0346     		mov	r3, r0
 2099 0166 1846     		mov	r0, r3
 2100 0168 F968     		ldr	r1, [r7, #12]	@ float
 2101 016a FFF7FEFF 		bl	__aeabi_fmul
 2102 016e 0346     		mov	r3, r0
 2103 0170 1C46     		mov	r4, r3
 2104 0172 FB88     		ldrh	r3, [r7, #6]
 2105 0174 1846     		mov	r0, r3
 2106 0176 FFF7FEFF 		bl	__aeabi_i2f
 2107 017a 0346     		mov	r3, r0
 2108 017c 2046     		mov	r0, r4
 2109 017e 1946     		mov	r1, r3
 2110 0180 FFF7FEFF 		bl	__aeabi_fadd
 2111 0184 0346     		mov	r3, r0
 2112 0186 1846     		mov	r0, r3
 2113 0188 FFF7FEFF 		bl	__aeabi_f2iz
 2114 018c 0346     		mov	r3, r0
 2115 018e 7B81     		strh	r3, [r7, #10]	@ movhi
 589:.\Generated_Source\PSoC5/TFTSHIELD_1.c **** 			py = i + y1;
 2116              		.loc 1 589 0 discriminator 2
 2117 0190 FA8A     		ldrh	r2, [r7, #22]
 2118 0192 BB88     		ldrh	r3, [r7, #4]	@ movhi
 2119 0194 D318     		adds	r3, r2, r3
 2120 0196 9BB2     		uxth	r3, r3
 2121 0198 3B81     		strh	r3, [r7, #8]	@ movhi
 590:.\Generated_Source\PSoC5/TFTSHIELD_1.c **** 			TFTSHIELD_1_SetPixel( px, py, Color );
 2122              		.loc 1 590 0 discriminator 2
 2123 019a 7989     		ldrh	r1, [r7, #10]
 2124 019c 3A89     		ldrh	r2, [r7, #8]
 2125 019e 3B8E     		ldrh	r3, [r7, #48]
 2126 01a0 0846     		mov	r0, r1
 2127 01a2 1146     		mov	r1, r2
 2128 01a4 1A46     		mov	r2, r3
 2129 01a6 FFF7FEFF 		bl	TFTSHIELD_1_SetPixel
 586:.\Generated_Source\PSoC5/TFTSHIELD_1.c **** 		for ( i = 0; i != dy; i += sdy )
 2130              		.loc 1 586 0 discriminator 2
 2131 01aa FA8A     		ldrh	r2, [r7, #22]
 2132 01ac BB8B     		ldrh	r3, [r7, #28]
 2133 01ae D318     		adds	r3, r2, r3
 2134 01b0 9BB2     		uxth	r3, r3
 2135 01b2 FB82     		strh	r3, [r7, #22]	@ movhi
ARM GAS  C:\Users\Brian\AppData\Local\Temp\ccPAhBxt.s 			page 49


 2136              	.L36:
 586:.\Generated_Source\PSoC5/TFTSHIELD_1.c **** 		for ( i = 0; i != dy; i += sdy )
 2137              		.loc 1 586 0 is_stmt 0 discriminator 1
 2138 01b4 B7F91620 		ldrsh	r2, [r7, #22]
 2139 01b8 B7F91230 		ldrsh	r3, [r7, #18]
 2140 01bc 9A42     		cmp	r2, r3
 2141 01be CCD1     		bne	.L37
 2142              	.L27:
 591:.\Generated_Source\PSoC5/TFTSHIELD_1.c **** 		}
 592:.\Generated_Source\PSoC5/TFTSHIELD_1.c **** 	}
 593:.\Generated_Source\PSoC5/TFTSHIELD_1.c **** }
 2143              		.loc 1 593 0 is_stmt 1
 2144 01c0 07F12407 		add	r7, r7, #36
 2145 01c4 BD46     		mov	sp, r7
 2146 01c6 90BD     		pop	{r4, r7, pc}
 2147              		.cfi_endproc
 2148              	.LFE14:
 2149              		.size	TFTSHIELD_1_DrawLine, .-TFTSHIELD_1_DrawLine
 2150              		.section	.text.TFTSHIELD_1_DrawRect,"ax",%progbits
 2151              		.align	2
 2152              		.global	TFTSHIELD_1_DrawRect
 2153              		.thumb
 2154              		.thumb_func
 2155              		.type	TFTSHIELD_1_DrawRect, %function
 2156              	TFTSHIELD_1_DrawRect:
 2157              	.LFB15:
 594:.\Generated_Source\PSoC5/TFTSHIELD_1.c **** 
 595:.\Generated_Source\PSoC5/TFTSHIELD_1.c **** /**************************************************************************//**
 596:.\Generated_Source\PSoC5/TFTSHIELD_1.c **** *  @brief Draws a rectangle outline
 597:.\Generated_Source\PSoC5/TFTSHIELD_1.c **** *
 598:.\Generated_Source\PSoC5/TFTSHIELD_1.c **** *  @param x: The x coordinate
 599:.\Generated_Source\PSoC5/TFTSHIELD_1.c **** *  @param y: The y coordinate
 600:.\Generated_Source\PSoC5/TFTSHIELD_1.c **** *  @param w: The width
 601:.\Generated_Source\PSoC5/TFTSHIELD_1.c **** *  @param h: The height
 602:.\Generated_Source\PSoC5/TFTSHIELD_1.c **** *  @param color: The color of the rectangle
 603:.\Generated_Source\PSoC5/TFTSHIELD_1.c **** *
 604:.\Generated_Source\PSoC5/TFTSHIELD_1.c **** *******************************************************************************/
 605:.\Generated_Source\PSoC5/TFTSHIELD_1.c **** void TFTSHIELD_1_DrawRect(int16_t x, int16_t y, int16_t w, int16_t h, uint16_t color)
 606:.\Generated_Source\PSoC5/TFTSHIELD_1.c **** {
 2158              		.loc 1 606 0
 2159              		.cfi_startproc
 2160              		@ args = 4, pretend = 0, frame = 8
 2161              		@ frame_needed = 1, uses_anonymous_args = 0
 2162 0000 80B5     		push	{r7, lr}
 2163              	.LCFI44:
 2164              		.cfi_def_cfa_offset 8
 2165              		.cfi_offset 7, -8
 2166              		.cfi_offset 14, -4
 2167 0002 82B0     		sub	sp, sp, #8
 2168              	.LCFI45:
 2169              		.cfi_def_cfa_offset 16
 2170 0004 00AF     		add	r7, sp, #0
 2171              	.LCFI46:
 2172              		.cfi_def_cfa_register 7
 2173 0006 F880     		strh	r0, [r7, #6]	@ movhi
 2174 0008 B980     		strh	r1, [r7, #4]	@ movhi
 2175 000a 7A80     		strh	r2, [r7, #2]	@ movhi
ARM GAS  C:\Users\Brian\AppData\Local\Temp\ccPAhBxt.s 			page 50


 2176 000c 3B80     		strh	r3, [r7, #0]	@ movhi
 607:.\Generated_Source\PSoC5/TFTSHIELD_1.c ****    TFTSHIELD_1_DrawHLine(x, y, w, color);
 2177              		.loc 1 607 0
 2178 000e B7F90600 		ldrsh	r0, [r7, #6]
 2179 0012 B7F90410 		ldrsh	r1, [r7, #4]
 2180 0016 B7F90220 		ldrsh	r2, [r7, #2]
 2181 001a 3B8A     		ldrh	r3, [r7, #16]
 2182 001c FFF7FEFF 		bl	TFTSHIELD_1_DrawHLine
 608:.\Generated_Source\PSoC5/TFTSHIELD_1.c ****   TFTSHIELD_1_DrawHLine(x, y+h-1, w, color);
 2183              		.loc 1 608 0
 2184 0020 BA88     		ldrh	r2, [r7, #4]
 2185 0022 3B88     		ldrh	r3, [r7, #0]
 2186 0024 D318     		adds	r3, r2, r3
 2187 0026 9BB2     		uxth	r3, r3
 2188 0028 03F1FF33 		add	r3, r3, #-1
 2189 002c 9BB2     		uxth	r3, r3
 2190 002e 9BB2     		uxth	r3, r3
 2191 0030 B7F90600 		ldrsh	r0, [r7, #6]
 2192 0034 19B2     		sxth	r1, r3
 2193 0036 B7F90220 		ldrsh	r2, [r7, #2]
 2194 003a 3B8A     		ldrh	r3, [r7, #16]
 2195 003c FFF7FEFF 		bl	TFTSHIELD_1_DrawHLine
 609:.\Generated_Source\PSoC5/TFTSHIELD_1.c ****   TFTSHIELD_1_DrawVLine(x, y, h, color);
 2196              		.loc 1 609 0
 2197 0040 F888     		ldrh	r0, [r7, #6]
 2198 0042 B988     		ldrh	r1, [r7, #4]
 2199 0044 3A88     		ldrh	r2, [r7, #0]
 2200 0046 3B8A     		ldrh	r3, [r7, #16]
 2201 0048 FFF7FEFF 		bl	TFTSHIELD_1_DrawVLine
 610:.\Generated_Source\PSoC5/TFTSHIELD_1.c ****   TFTSHIELD_1_DrawVLine(x+w-1, y, h, color);
 2202              		.loc 1 610 0
 2203 004c FA88     		ldrh	r2, [r7, #6]
 2204 004e 7B88     		ldrh	r3, [r7, #2]
 2205 0050 D318     		adds	r3, r2, r3
 2206 0052 9BB2     		uxth	r3, r3
 2207 0054 03F1FF33 		add	r3, r3, #-1
 2208 0058 98B2     		uxth	r0, r3
 2209 005a B988     		ldrh	r1, [r7, #4]
 2210 005c 3A88     		ldrh	r2, [r7, #0]
 2211 005e 3B8A     		ldrh	r3, [r7, #16]
 2212 0060 FFF7FEFF 		bl	TFTSHIELD_1_DrawVLine
 611:.\Generated_Source\PSoC5/TFTSHIELD_1.c **** }
 2213              		.loc 1 611 0
 2214 0064 07F10807 		add	r7, r7, #8
 2215 0068 BD46     		mov	sp, r7
 2216 006a 80BD     		pop	{r7, pc}
 2217              		.cfi_endproc
 2218              	.LFE15:
 2219              		.size	TFTSHIELD_1_DrawRect, .-TFTSHIELD_1_DrawRect
 2220              		.section	.text.TFTSHIELD_1_DrawCircle,"ax",%progbits
 2221              		.align	2
 2222              		.global	TFTSHIELD_1_DrawCircle
 2223              		.thumb
 2224              		.thumb_func
 2225              		.type	TFTSHIELD_1_DrawCircle, %function
 2226              	TFTSHIELD_1_DrawCircle:
 2227              	.LFB16:
ARM GAS  C:\Users\Brian\AppData\Local\Temp\ccPAhBxt.s 			page 51


 612:.\Generated_Source\PSoC5/TFTSHIELD_1.c **** 
 613:.\Generated_Source\PSoC5/TFTSHIELD_1.c **** /**************************************************************************//**
 614:.\Generated_Source\PSoC5/TFTSHIELD_1.c **** *  @brief Draws a circle outline
 615:.\Generated_Source\PSoC5/TFTSHIELD_1.c **** *
 616:.\Generated_Source\PSoC5/TFTSHIELD_1.c **** *  @param x0: The x coordinate
 617:.\Generated_Source\PSoC5/TFTSHIELD_1.c **** *  @param y0: The y coordinate
 618:.\Generated_Source\PSoC5/TFTSHIELD_1.c **** *  @param r: The radius of the circle
 619:.\Generated_Source\PSoC5/TFTSHIELD_1.c **** *  @param color: The color of the circle
 620:.\Generated_Source\PSoC5/TFTSHIELD_1.c **** *
 621:.\Generated_Source\PSoC5/TFTSHIELD_1.c **** *******************************************************************************/
 622:.\Generated_Source\PSoC5/TFTSHIELD_1.c **** 
 623:.\Generated_Source\PSoC5/TFTSHIELD_1.c **** void TFTSHIELD_1_DrawCircle(int16_t x0, int16_t y0, int16_t r, uint16_t color)
 624:.\Generated_Source\PSoC5/TFTSHIELD_1.c **** {
 2228              		.loc 1 624 0
 2229              		.cfi_startproc
 2230              		@ args = 0, pretend = 0, frame = 24
 2231              		@ frame_needed = 1, uses_anonymous_args = 0
 2232 0000 80B5     		push	{r7, lr}
 2233              	.LCFI47:
 2234              		.cfi_def_cfa_offset 8
 2235              		.cfi_offset 7, -8
 2236              		.cfi_offset 14, -4
 2237 0002 86B0     		sub	sp, sp, #24
 2238              	.LCFI48:
 2239              		.cfi_def_cfa_offset 32
 2240 0004 00AF     		add	r7, sp, #0
 2241              	.LCFI49:
 2242              		.cfi_def_cfa_register 7
 2243 0006 F880     		strh	r0, [r7, #6]	@ movhi
 2244 0008 B980     		strh	r1, [r7, #4]	@ movhi
 2245 000a 7A80     		strh	r2, [r7, #2]	@ movhi
 2246 000c 3B80     		strh	r3, [r7, #0]	@ movhi
 625:.\Generated_Source\PSoC5/TFTSHIELD_1.c ****   int16_t f = 1 - r;
 2247              		.loc 1 625 0
 2248 000e 7B88     		ldrh	r3, [r7, #2]
 2249 0010 C3F10103 		rsb	r3, r3, #1
 2250 0014 9BB2     		uxth	r3, r3
 2251 0016 FB82     		strh	r3, [r7, #22]	@ movhi
 626:.\Generated_Source\PSoC5/TFTSHIELD_1.c ****   int16_t ddF_x = 1;
 2252              		.loc 1 626 0
 2253 0018 4FF00103 		mov	r3, #1
 2254 001c BB82     		strh	r3, [r7, #20]	@ movhi
 627:.\Generated_Source\PSoC5/TFTSHIELD_1.c ****   int16_t ddF_y = -2 * r;
 2255              		.loc 1 627 0
 2256 001e 7B88     		ldrh	r3, [r7, #2]
 2257 0020 1A46     		mov	r2, r3	@ movhi
 2258 0022 4FEAC232 		lsl	r2, r2, #15
 2259 0026 D31A     		subs	r3, r2, r3
 2260 0028 4FEA4303 		lsl	r3, r3, #1
 2261 002c 9BB2     		uxth	r3, r3
 2262 002e 7B82     		strh	r3, [r7, #18]	@ movhi
 628:.\Generated_Source\PSoC5/TFTSHIELD_1.c ****   int16_t x = 0;
 2263              		.loc 1 628 0
 2264 0030 4FF00003 		mov	r3, #0
 2265 0034 3B82     		strh	r3, [r7, #16]	@ movhi
 629:.\Generated_Source\PSoC5/TFTSHIELD_1.c ****   int16_t y = r;
 2266              		.loc 1 629 0
ARM GAS  C:\Users\Brian\AppData\Local\Temp\ccPAhBxt.s 			page 52


 2267 0036 7B88     		ldrh	r3, [r7, #2]	@ movhi
 2268 0038 FB81     		strh	r3, [r7, #14]	@ movhi
 630:.\Generated_Source\PSoC5/TFTSHIELD_1.c **** 
 631:.\Generated_Source\PSoC5/TFTSHIELD_1.c ****   TFTSHIELD_1_SetPixel(x0  , y0+r, color);
 2269              		.loc 1 631 0
 2270 003a F988     		ldrh	r1, [r7, #6]
 2271 003c BA88     		ldrh	r2, [r7, #4]
 2272 003e 7B88     		ldrh	r3, [r7, #2]
 2273 0040 D318     		adds	r3, r2, r3
 2274 0042 9AB2     		uxth	r2, r3
 2275 0044 3B88     		ldrh	r3, [r7, #0]
 2276 0046 0846     		mov	r0, r1
 2277 0048 1146     		mov	r1, r2
 2278 004a 1A46     		mov	r2, r3
 2279 004c FFF7FEFF 		bl	TFTSHIELD_1_SetPixel
 632:.\Generated_Source\PSoC5/TFTSHIELD_1.c ****   TFTSHIELD_1_SetPixel(x0  , y0-r, color);
 2280              		.loc 1 632 0
 2281 0050 F988     		ldrh	r1, [r7, #6]
 2282 0052 BA88     		ldrh	r2, [r7, #4]
 2283 0054 7B88     		ldrh	r3, [r7, #2]
 2284 0056 D31A     		subs	r3, r2, r3
 2285 0058 9AB2     		uxth	r2, r3
 2286 005a 3B88     		ldrh	r3, [r7, #0]
 2287 005c 0846     		mov	r0, r1
 2288 005e 1146     		mov	r1, r2
 2289 0060 1A46     		mov	r2, r3
 2290 0062 FFF7FEFF 		bl	TFTSHIELD_1_SetPixel
 633:.\Generated_Source\PSoC5/TFTSHIELD_1.c ****   TFTSHIELD_1_SetPixel(x0+r, y0  , color);
 2291              		.loc 1 633 0
 2292 0066 FA88     		ldrh	r2, [r7, #6]
 2293 0068 7B88     		ldrh	r3, [r7, #2]
 2294 006a D318     		adds	r3, r2, r3
 2295 006c 99B2     		uxth	r1, r3
 2296 006e BA88     		ldrh	r2, [r7, #4]
 2297 0070 3B88     		ldrh	r3, [r7, #0]
 2298 0072 0846     		mov	r0, r1
 2299 0074 1146     		mov	r1, r2
 2300 0076 1A46     		mov	r2, r3
 2301 0078 FFF7FEFF 		bl	TFTSHIELD_1_SetPixel
 634:.\Generated_Source\PSoC5/TFTSHIELD_1.c ****   TFTSHIELD_1_SetPixel(x0-r, y0  , color);
 2302              		.loc 1 634 0
 2303 007c FA88     		ldrh	r2, [r7, #6]
 2304 007e 7B88     		ldrh	r3, [r7, #2]
 2305 0080 D31A     		subs	r3, r2, r3
 2306 0082 99B2     		uxth	r1, r3
 2307 0084 BA88     		ldrh	r2, [r7, #4]
 2308 0086 3B88     		ldrh	r3, [r7, #0]
 2309 0088 0846     		mov	r0, r1
 2310 008a 1146     		mov	r1, r2
 2311 008c 1A46     		mov	r2, r3
 2312 008e FFF7FEFF 		bl	TFTSHIELD_1_SetPixel
 635:.\Generated_Source\PSoC5/TFTSHIELD_1.c **** 
 636:.\Generated_Source\PSoC5/TFTSHIELD_1.c ****   while (x<y) {
 2313              		.loc 1 636 0
 2314 0092 8FE0     		b	.L40
 2315              	.L42:
 637:.\Generated_Source\PSoC5/TFTSHIELD_1.c ****         if (f >= 0) {
ARM GAS  C:\Users\Brian\AppData\Local\Temp\ccPAhBxt.s 			page 53


 2316              		.loc 1 637 0
 2317 0094 B7F91630 		ldrsh	r3, [r7, #22]
 2318 0098 002B     		cmp	r3, #0
 2319 009a 0DDB     		blt	.L41
 638:.\Generated_Source\PSoC5/TFTSHIELD_1.c ****           y--;
 2320              		.loc 1 638 0
 2321 009c FB89     		ldrh	r3, [r7, #14]	@ movhi
 2322 009e 03F1FF33 		add	r3, r3, #-1
 2323 00a2 FB81     		strh	r3, [r7, #14]	@ movhi
 639:.\Generated_Source\PSoC5/TFTSHIELD_1.c ****           ddF_y += 2;
 2324              		.loc 1 639 0
 2325 00a4 7B8A     		ldrh	r3, [r7, #18]
 2326 00a6 03F10203 		add	r3, r3, #2
 2327 00aa 9BB2     		uxth	r3, r3
 2328 00ac 7B82     		strh	r3, [r7, #18]	@ movhi
 640:.\Generated_Source\PSoC5/TFTSHIELD_1.c ****           f += ddF_y;
 2329              		.loc 1 640 0
 2330 00ae FA8A     		ldrh	r2, [r7, #22]
 2331 00b0 7B8A     		ldrh	r3, [r7, #18]
 2332 00b2 D318     		adds	r3, r2, r3
 2333 00b4 9BB2     		uxth	r3, r3
 2334 00b6 FB82     		strh	r3, [r7, #22]	@ movhi
 2335              	.L41:
 641:.\Generated_Source\PSoC5/TFTSHIELD_1.c ****         }
 642:.\Generated_Source\PSoC5/TFTSHIELD_1.c ****         x++;
 2336              		.loc 1 642 0
 2337 00b8 3B8A     		ldrh	r3, [r7, #16]	@ movhi
 2338 00ba 03F10103 		add	r3, r3, #1
 2339 00be 3B82     		strh	r3, [r7, #16]	@ movhi
 643:.\Generated_Source\PSoC5/TFTSHIELD_1.c ****         ddF_x += 2;
 2340              		.loc 1 643 0
 2341 00c0 BB8A     		ldrh	r3, [r7, #20]
 2342 00c2 03F10203 		add	r3, r3, #2
 2343 00c6 9BB2     		uxth	r3, r3
 2344 00c8 BB82     		strh	r3, [r7, #20]	@ movhi
 644:.\Generated_Source\PSoC5/TFTSHIELD_1.c ****         f += ddF_x;
 2345              		.loc 1 644 0
 2346 00ca FA8A     		ldrh	r2, [r7, #22]
 2347 00cc BB8A     		ldrh	r3, [r7, #20]
 2348 00ce D318     		adds	r3, r2, r3
 2349 00d0 9BB2     		uxth	r3, r3
 2350 00d2 FB82     		strh	r3, [r7, #22]	@ movhi
 645:.\Generated_Source\PSoC5/TFTSHIELD_1.c ****       
 646:.\Generated_Source\PSoC5/TFTSHIELD_1.c ****         TFTSHIELD_1_SetPixel(x0 + x, y0 + y, color);
 2351              		.loc 1 646 0
 2352 00d4 FA88     		ldrh	r2, [r7, #6]
 2353 00d6 3B8A     		ldrh	r3, [r7, #16]
 2354 00d8 D318     		adds	r3, r2, r3
 2355 00da 99B2     		uxth	r1, r3
 2356 00dc BA88     		ldrh	r2, [r7, #4]
 2357 00de FB89     		ldrh	r3, [r7, #14]
 2358 00e0 D318     		adds	r3, r2, r3
 2359 00e2 9AB2     		uxth	r2, r3
 2360 00e4 3B88     		ldrh	r3, [r7, #0]
 2361 00e6 0846     		mov	r0, r1
 2362 00e8 1146     		mov	r1, r2
 2363 00ea 1A46     		mov	r2, r3
ARM GAS  C:\Users\Brian\AppData\Local\Temp\ccPAhBxt.s 			page 54


 2364 00ec FFF7FEFF 		bl	TFTSHIELD_1_SetPixel
 647:.\Generated_Source\PSoC5/TFTSHIELD_1.c ****         TFTSHIELD_1_SetPixel(x0 - x, y0 + y, color);
 2365              		.loc 1 647 0
 2366 00f0 FA88     		ldrh	r2, [r7, #6]
 2367 00f2 3B8A     		ldrh	r3, [r7, #16]
 2368 00f4 D31A     		subs	r3, r2, r3
 2369 00f6 99B2     		uxth	r1, r3
 2370 00f8 BA88     		ldrh	r2, [r7, #4]
 2371 00fa FB89     		ldrh	r3, [r7, #14]
 2372 00fc D318     		adds	r3, r2, r3
 2373 00fe 9AB2     		uxth	r2, r3
 2374 0100 3B88     		ldrh	r3, [r7, #0]
 2375 0102 0846     		mov	r0, r1
 2376 0104 1146     		mov	r1, r2
 2377 0106 1A46     		mov	r2, r3
 2378 0108 FFF7FEFF 		bl	TFTSHIELD_1_SetPixel
 648:.\Generated_Source\PSoC5/TFTSHIELD_1.c ****         TFTSHIELD_1_SetPixel(x0 + x, y0 - y, color);
 2379              		.loc 1 648 0
 2380 010c FA88     		ldrh	r2, [r7, #6]
 2381 010e 3B8A     		ldrh	r3, [r7, #16]
 2382 0110 D318     		adds	r3, r2, r3
 2383 0112 99B2     		uxth	r1, r3
 2384 0114 BA88     		ldrh	r2, [r7, #4]
 2385 0116 FB89     		ldrh	r3, [r7, #14]
 2386 0118 D31A     		subs	r3, r2, r3
 2387 011a 9AB2     		uxth	r2, r3
 2388 011c 3B88     		ldrh	r3, [r7, #0]
 2389 011e 0846     		mov	r0, r1
 2390 0120 1146     		mov	r1, r2
 2391 0122 1A46     		mov	r2, r3
 2392 0124 FFF7FEFF 		bl	TFTSHIELD_1_SetPixel
 649:.\Generated_Source\PSoC5/TFTSHIELD_1.c ****         TFTSHIELD_1_SetPixel(x0 - x, y0 - y, color);
 2393              		.loc 1 649 0
 2394 0128 FA88     		ldrh	r2, [r7, #6]
 2395 012a 3B8A     		ldrh	r3, [r7, #16]
 2396 012c D31A     		subs	r3, r2, r3
 2397 012e 99B2     		uxth	r1, r3
 2398 0130 BA88     		ldrh	r2, [r7, #4]
 2399 0132 FB89     		ldrh	r3, [r7, #14]
 2400 0134 D31A     		subs	r3, r2, r3
 2401 0136 9AB2     		uxth	r2, r3
 2402 0138 3B88     		ldrh	r3, [r7, #0]
 2403 013a 0846     		mov	r0, r1
 2404 013c 1146     		mov	r1, r2
 2405 013e 1A46     		mov	r2, r3
 2406 0140 FFF7FEFF 		bl	TFTSHIELD_1_SetPixel
 650:.\Generated_Source\PSoC5/TFTSHIELD_1.c ****         TFTSHIELD_1_SetPixel(x0 + y, y0 + x, color);
 2407              		.loc 1 650 0
 2408 0144 FA88     		ldrh	r2, [r7, #6]
 2409 0146 FB89     		ldrh	r3, [r7, #14]
 2410 0148 D318     		adds	r3, r2, r3
 2411 014a 99B2     		uxth	r1, r3
 2412 014c BA88     		ldrh	r2, [r7, #4]
 2413 014e 3B8A     		ldrh	r3, [r7, #16]
 2414 0150 D318     		adds	r3, r2, r3
 2415 0152 9AB2     		uxth	r2, r3
 2416 0154 3B88     		ldrh	r3, [r7, #0]
ARM GAS  C:\Users\Brian\AppData\Local\Temp\ccPAhBxt.s 			page 55


 2417 0156 0846     		mov	r0, r1
 2418 0158 1146     		mov	r1, r2
 2419 015a 1A46     		mov	r2, r3
 2420 015c FFF7FEFF 		bl	TFTSHIELD_1_SetPixel
 651:.\Generated_Source\PSoC5/TFTSHIELD_1.c ****         TFTSHIELD_1_SetPixel(x0 - y, y0 + x, color);
 2421              		.loc 1 651 0
 2422 0160 FA88     		ldrh	r2, [r7, #6]
 2423 0162 FB89     		ldrh	r3, [r7, #14]
 2424 0164 D31A     		subs	r3, r2, r3
 2425 0166 99B2     		uxth	r1, r3
 2426 0168 BA88     		ldrh	r2, [r7, #4]
 2427 016a 3B8A     		ldrh	r3, [r7, #16]
 2428 016c D318     		adds	r3, r2, r3
 2429 016e 9AB2     		uxth	r2, r3
 2430 0170 3B88     		ldrh	r3, [r7, #0]
 2431 0172 0846     		mov	r0, r1
 2432 0174 1146     		mov	r1, r2
 2433 0176 1A46     		mov	r2, r3
 2434 0178 FFF7FEFF 		bl	TFTSHIELD_1_SetPixel
 652:.\Generated_Source\PSoC5/TFTSHIELD_1.c ****         TFTSHIELD_1_SetPixel(x0 + y, y0 - x, color);
 2435              		.loc 1 652 0
 2436 017c FA88     		ldrh	r2, [r7, #6]
 2437 017e FB89     		ldrh	r3, [r7, #14]
 2438 0180 D318     		adds	r3, r2, r3
 2439 0182 99B2     		uxth	r1, r3
 2440 0184 BA88     		ldrh	r2, [r7, #4]
 2441 0186 3B8A     		ldrh	r3, [r7, #16]
 2442 0188 D31A     		subs	r3, r2, r3
 2443 018a 9AB2     		uxth	r2, r3
 2444 018c 3B88     		ldrh	r3, [r7, #0]
 2445 018e 0846     		mov	r0, r1
 2446 0190 1146     		mov	r1, r2
 2447 0192 1A46     		mov	r2, r3
 2448 0194 FFF7FEFF 		bl	TFTSHIELD_1_SetPixel
 653:.\Generated_Source\PSoC5/TFTSHIELD_1.c ****         TFTSHIELD_1_SetPixel(x0 - y, y0 - x, color); 
 2449              		.loc 1 653 0
 2450 0198 FA88     		ldrh	r2, [r7, #6]
 2451 019a FB89     		ldrh	r3, [r7, #14]
 2452 019c D31A     		subs	r3, r2, r3
 2453 019e 99B2     		uxth	r1, r3
 2454 01a0 BA88     		ldrh	r2, [r7, #4]
 2455 01a2 3B8A     		ldrh	r3, [r7, #16]
 2456 01a4 D31A     		subs	r3, r2, r3
 2457 01a6 9AB2     		uxth	r2, r3
 2458 01a8 3B88     		ldrh	r3, [r7, #0]
 2459 01aa 0846     		mov	r0, r1
 2460 01ac 1146     		mov	r1, r2
 2461 01ae 1A46     		mov	r2, r3
 2462 01b0 FFF7FEFF 		bl	TFTSHIELD_1_SetPixel
 2463              	.L40:
 636:.\Generated_Source\PSoC5/TFTSHIELD_1.c ****   while (x<y) {
 2464              		.loc 1 636 0 discriminator 1
 2465 01b4 B7F91020 		ldrsh	r2, [r7, #16]
 2466 01b8 B7F90E30 		ldrsh	r3, [r7, #14]
 2467 01bc 9A42     		cmp	r2, r3
 2468 01be FFF669AF 		blt	.L42
 654:.\Generated_Source\PSoC5/TFTSHIELD_1.c ****     }
ARM GAS  C:\Users\Brian\AppData\Local\Temp\ccPAhBxt.s 			page 56


 655:.\Generated_Source\PSoC5/TFTSHIELD_1.c **** }
 2469              		.loc 1 655 0
 2470 01c2 07F11807 		add	r7, r7, #24
 2471 01c6 BD46     		mov	sp, r7
 2472 01c8 80BD     		pop	{r7, pc}
 2473              		.cfi_endproc
 2474              	.LFE16:
 2475              		.size	TFTSHIELD_1_DrawCircle, .-TFTSHIELD_1_DrawCircle
 2476 01ca 00BF     		.section	.text.TFTSHIELD_1_DrawCircleHelper,"ax",%progbits
 2477              		.align	2
 2478              		.global	TFTSHIELD_1_DrawCircleHelper
 2479              		.thumb
 2480              		.thumb_func
 2481              		.type	TFTSHIELD_1_DrawCircleHelper, %function
 2482              	TFTSHIELD_1_DrawCircleHelper:
 2483              	.LFB17:
 656:.\Generated_Source\PSoC5/TFTSHIELD_1.c **** 
 657:.\Generated_Source\PSoC5/TFTSHIELD_1.c **** /**************************************************************************//**
 658:.\Generated_Source\PSoC5/TFTSHIELD_1.c **** *  @brief Helper function for drawing circles and corners
 659:.\Generated_Source\PSoC5/TFTSHIELD_1.c **** *
 660:.\Generated_Source\PSoC5/TFTSHIELD_1.c **** *  @param x0: The x coordinate
 661:.\Generated_Source\PSoC5/TFTSHIELD_1.c **** *  @param y0: The y coordinate
 662:.\Generated_Source\PSoC5/TFTSHIELD_1.c **** *  @param r: The radius of the circle
 663:.\Generated_Source\PSoC5/TFTSHIELD_1.c **** *  @param cornername: Corner orientation
 664:.\Generated_Source\PSoC5/TFTSHIELD_1.c **** *  @param delta: Delta value
 665:.\Generated_Source\PSoC5/TFTSHIELD_1.c **** *  @param color: The color of the circle
 666:.\Generated_Source\PSoC5/TFTSHIELD_1.c **** *
 667:.\Generated_Source\PSoC5/TFTSHIELD_1.c **** *******************************************************************************/
 668:.\Generated_Source\PSoC5/TFTSHIELD_1.c **** void TFTSHIELD_1_DrawCircleHelper(int16_t x0, int16_t y0, int16_t r, uint8_t cornername,
 669:.\Generated_Source\PSoC5/TFTSHIELD_1.c ****       uint16_t color)
 670:.\Generated_Source\PSoC5/TFTSHIELD_1.c **** {
 2484              		.loc 1 670 0
 2485              		.cfi_startproc
 2486              		@ args = 4, pretend = 0, frame = 24
 2487              		@ frame_needed = 1, uses_anonymous_args = 0
 2488 0000 80B5     		push	{r7, lr}
 2489              	.LCFI50:
 2490              		.cfi_def_cfa_offset 8
 2491              		.cfi_offset 7, -8
 2492              		.cfi_offset 14, -4
 2493 0002 86B0     		sub	sp, sp, #24
 2494              	.LCFI51:
 2495              		.cfi_def_cfa_offset 32
 2496 0004 00AF     		add	r7, sp, #0
 2497              	.LCFI52:
 2498              		.cfi_def_cfa_register 7
 2499 0006 F880     		strh	r0, [r7, #6]	@ movhi
 2500 0008 B980     		strh	r1, [r7, #4]	@ movhi
 2501 000a 7A80     		strh	r2, [r7, #2]	@ movhi
 2502 000c 7B70     		strb	r3, [r7, #1]
 671:.\Generated_Source\PSoC5/TFTSHIELD_1.c ****   int16_t f     = 1 - r;
 2503              		.loc 1 671 0
 2504 000e 7B88     		ldrh	r3, [r7, #2]
 2505 0010 C3F10103 		rsb	r3, r3, #1
 2506 0014 9BB2     		uxth	r3, r3
 2507 0016 FB82     		strh	r3, [r7, #22]	@ movhi
 672:.\Generated_Source\PSoC5/TFTSHIELD_1.c ****   int16_t ddF_x = 1;
ARM GAS  C:\Users\Brian\AppData\Local\Temp\ccPAhBxt.s 			page 57


 2508              		.loc 1 672 0
 2509 0018 4FF00103 		mov	r3, #1
 2510 001c BB82     		strh	r3, [r7, #20]	@ movhi
 673:.\Generated_Source\PSoC5/TFTSHIELD_1.c ****   int16_t ddF_y = -2 * r;
 2511              		.loc 1 673 0
 2512 001e 7B88     		ldrh	r3, [r7, #2]
 2513 0020 1A46     		mov	r2, r3	@ movhi
 2514 0022 4FEAC232 		lsl	r2, r2, #15
 2515 0026 D31A     		subs	r3, r2, r3
 2516 0028 4FEA4303 		lsl	r3, r3, #1
 2517 002c 9BB2     		uxth	r3, r3
 2518 002e 7B82     		strh	r3, [r7, #18]	@ movhi
 674:.\Generated_Source\PSoC5/TFTSHIELD_1.c ****   int16_t x     = 0;
 2519              		.loc 1 674 0
 2520 0030 4FF00003 		mov	r3, #0
 2521 0034 3B82     		strh	r3, [r7, #16]	@ movhi
 675:.\Generated_Source\PSoC5/TFTSHIELD_1.c ****   int16_t y     = r;
 2522              		.loc 1 675 0
 2523 0036 7B88     		ldrh	r3, [r7, #2]	@ movhi
 2524 0038 FB81     		strh	r3, [r7, #14]	@ movhi
 676:.\Generated_Source\PSoC5/TFTSHIELD_1.c **** 
 677:.\Generated_Source\PSoC5/TFTSHIELD_1.c ****   while (x<y) {
 2525              		.loc 1 677 0
 2526 003a A5E0     		b	.L44
 2527              	.L49:
 678:.\Generated_Source\PSoC5/TFTSHIELD_1.c ****     if (f >= 0) {
 2528              		.loc 1 678 0
 2529 003c B7F91630 		ldrsh	r3, [r7, #22]
 2530 0040 002B     		cmp	r3, #0
 2531 0042 0DDB     		blt	.L45
 679:.\Generated_Source\PSoC5/TFTSHIELD_1.c ****       y--;
 2532              		.loc 1 679 0
 2533 0044 FB89     		ldrh	r3, [r7, #14]	@ movhi
 2534 0046 03F1FF33 		add	r3, r3, #-1
 2535 004a FB81     		strh	r3, [r7, #14]	@ movhi
 680:.\Generated_Source\PSoC5/TFTSHIELD_1.c ****       ddF_y += 2;
 2536              		.loc 1 680 0
 2537 004c 7B8A     		ldrh	r3, [r7, #18]
 2538 004e 03F10203 		add	r3, r3, #2
 2539 0052 9BB2     		uxth	r3, r3
 2540 0054 7B82     		strh	r3, [r7, #18]	@ movhi
 681:.\Generated_Source\PSoC5/TFTSHIELD_1.c ****       f     += ddF_y;
 2541              		.loc 1 681 0
 2542 0056 FA8A     		ldrh	r2, [r7, #22]
 2543 0058 7B8A     		ldrh	r3, [r7, #18]
 2544 005a D318     		adds	r3, r2, r3
 2545 005c 9BB2     		uxth	r3, r3
 2546 005e FB82     		strh	r3, [r7, #22]	@ movhi
 2547              	.L45:
 682:.\Generated_Source\PSoC5/TFTSHIELD_1.c ****     }
 683:.\Generated_Source\PSoC5/TFTSHIELD_1.c ****     x++;
 2548              		.loc 1 683 0
 2549 0060 3B8A     		ldrh	r3, [r7, #16]	@ movhi
 2550 0062 03F10103 		add	r3, r3, #1
 2551 0066 3B82     		strh	r3, [r7, #16]	@ movhi
 684:.\Generated_Source\PSoC5/TFTSHIELD_1.c ****     ddF_x += 2;
 2552              		.loc 1 684 0
ARM GAS  C:\Users\Brian\AppData\Local\Temp\ccPAhBxt.s 			page 58


 2553 0068 BB8A     		ldrh	r3, [r7, #20]
 2554 006a 03F10203 		add	r3, r3, #2
 2555 006e 9BB2     		uxth	r3, r3
 2556 0070 BB82     		strh	r3, [r7, #20]	@ movhi
 685:.\Generated_Source\PSoC5/TFTSHIELD_1.c ****     f     += ddF_x;
 2557              		.loc 1 685 0
 2558 0072 FA8A     		ldrh	r2, [r7, #22]
 2559 0074 BB8A     		ldrh	r3, [r7, #20]
 2560 0076 D318     		adds	r3, r2, r3
 2561 0078 9BB2     		uxth	r3, r3
 2562 007a FB82     		strh	r3, [r7, #22]	@ movhi
 686:.\Generated_Source\PSoC5/TFTSHIELD_1.c ****     if (cornername & 0x4) {
 2563              		.loc 1 686 0
 2564 007c 7B78     		ldrb	r3, [r7, #1]	@ zero_extendqisi2
 2565 007e 03F00403 		and	r3, r3, #4
 2566 0082 002B     		cmp	r3, #0
 2567 0084 1DD0     		beq	.L46
 2568              	.LBB2:
 687:.\Generated_Source\PSoC5/TFTSHIELD_1.c ****       TFTSHIELD_1_SetPixel(x0 + x, y0 + y, color);
 2569              		.loc 1 687 0
 2570 0086 FA88     		ldrh	r2, [r7, #6]
 2571 0088 3B8A     		ldrh	r3, [r7, #16]
 2572 008a D318     		adds	r3, r2, r3
 2573 008c 99B2     		uxth	r1, r3
 2574 008e BA88     		ldrh	r2, [r7, #4]
 2575 0090 FB89     		ldrh	r3, [r7, #14]
 2576 0092 D318     		adds	r3, r2, r3
 2577 0094 9AB2     		uxth	r2, r3
 2578 0096 3B8C     		ldrh	r3, [r7, #32]
 2579 0098 0846     		mov	r0, r1
 2580 009a 1146     		mov	r1, r2
 2581 009c 1A46     		mov	r2, r3
 2582 009e FFF7FEFF 		bl	TFTSHIELD_1_SetPixel
 688:.\Generated_Source\PSoC5/TFTSHIELD_1.c ****       TFTSHIELD_1_Set(x0 + y, y0 + x, color);
 2583              		.loc 1 688 0
 2584 00a2 B7F90620 		ldrsh	r2, [r7, #6]
 2585 00a6 B7F90E30 		ldrsh	r3, [r7, #14]
 2586 00aa D118     		adds	r1, r2, r3
 2587 00ac B7F90420 		ldrsh	r2, [r7, #4]
 2588 00b0 B7F91030 		ldrsh	r3, [r7, #16]
 2589 00b4 D218     		adds	r2, r2, r3
 2590 00b6 3B8C     		ldrh	r3, [r7, #32]
 2591 00b8 0846     		mov	r0, r1
 2592 00ba 1146     		mov	r1, r2
 2593 00bc 1A46     		mov	r2, r3
 2594 00be FFF7FEFF 		bl	TFTSHIELD_1_Set
 2595              	.L46:
 2596              	.LBE2:
 689:.\Generated_Source\PSoC5/TFTSHIELD_1.c ****     } 
 690:.\Generated_Source\PSoC5/TFTSHIELD_1.c ****     if (cornername & 0x2) {
 2597              		.loc 1 690 0
 2598 00c2 7B78     		ldrb	r3, [r7, #1]	@ zero_extendqisi2
 2599 00c4 03F00203 		and	r3, r3, #2
 2600 00c8 002B     		cmp	r3, #0
 2601 00ca 1BD0     		beq	.L47
 691:.\Generated_Source\PSoC5/TFTSHIELD_1.c ****       TFTSHIELD_1_SetPixel(x0 + x, y0 - y, color);
 2602              		.loc 1 691 0
ARM GAS  C:\Users\Brian\AppData\Local\Temp\ccPAhBxt.s 			page 59


 2603 00cc FA88     		ldrh	r2, [r7, #6]
 2604 00ce 3B8A     		ldrh	r3, [r7, #16]
 2605 00d0 D318     		adds	r3, r2, r3
 2606 00d2 99B2     		uxth	r1, r3
 2607 00d4 BA88     		ldrh	r2, [r7, #4]
 2608 00d6 FB89     		ldrh	r3, [r7, #14]
 2609 00d8 D31A     		subs	r3, r2, r3
 2610 00da 9AB2     		uxth	r2, r3
 2611 00dc 3B8C     		ldrh	r3, [r7, #32]
 2612 00de 0846     		mov	r0, r1
 2613 00e0 1146     		mov	r1, r2
 2614 00e2 1A46     		mov	r2, r3
 2615 00e4 FFF7FEFF 		bl	TFTSHIELD_1_SetPixel
 692:.\Generated_Source\PSoC5/TFTSHIELD_1.c ****       TFTSHIELD_1_SetPixel(x0 + y, y0 - x, color);
 2616              		.loc 1 692 0
 2617 00e8 FA88     		ldrh	r2, [r7, #6]
 2618 00ea FB89     		ldrh	r3, [r7, #14]
 2619 00ec D318     		adds	r3, r2, r3
 2620 00ee 99B2     		uxth	r1, r3
 2621 00f0 BA88     		ldrh	r2, [r7, #4]
 2622 00f2 3B8A     		ldrh	r3, [r7, #16]
 2623 00f4 D31A     		subs	r3, r2, r3
 2624 00f6 9AB2     		uxth	r2, r3
 2625 00f8 3B8C     		ldrh	r3, [r7, #32]
 2626 00fa 0846     		mov	r0, r1
 2627 00fc 1146     		mov	r1, r2
 2628 00fe 1A46     		mov	r2, r3
 2629 0100 FFF7FEFF 		bl	TFTSHIELD_1_SetPixel
 2630              	.L47:
 693:.\Generated_Source\PSoC5/TFTSHIELD_1.c ****     }
 694:.\Generated_Source\PSoC5/TFTSHIELD_1.c ****     if (cornername & 0x8) {
 2631              		.loc 1 694 0
 2632 0104 7B78     		ldrb	r3, [r7, #1]	@ zero_extendqisi2
 2633 0106 03F00803 		and	r3, r3, #8
 2634 010a 002B     		cmp	r3, #0
 2635 010c 1BD0     		beq	.L48
 695:.\Generated_Source\PSoC5/TFTSHIELD_1.c ****       TFTSHIELD_1_SetPixel(x0 - y, y0 + x, color);
 2636              		.loc 1 695 0
 2637 010e FA88     		ldrh	r2, [r7, #6]
 2638 0110 FB89     		ldrh	r3, [r7, #14]
 2639 0112 D31A     		subs	r3, r2, r3
 2640 0114 99B2     		uxth	r1, r3
 2641 0116 BA88     		ldrh	r2, [r7, #4]
 2642 0118 3B8A     		ldrh	r3, [r7, #16]
 2643 011a D318     		adds	r3, r2, r3
 2644 011c 9AB2     		uxth	r2, r3
 2645 011e 3B8C     		ldrh	r3, [r7, #32]
 2646 0120 0846     		mov	r0, r1
 2647 0122 1146     		mov	r1, r2
 2648 0124 1A46     		mov	r2, r3
 2649 0126 FFF7FEFF 		bl	TFTSHIELD_1_SetPixel
 696:.\Generated_Source\PSoC5/TFTSHIELD_1.c ****       TFTSHIELD_1_SetPixel(x0 - x, y0 + y, color);
 2650              		.loc 1 696 0
 2651 012a FA88     		ldrh	r2, [r7, #6]
 2652 012c 3B8A     		ldrh	r3, [r7, #16]
 2653 012e D31A     		subs	r3, r2, r3
 2654 0130 99B2     		uxth	r1, r3
ARM GAS  C:\Users\Brian\AppData\Local\Temp\ccPAhBxt.s 			page 60


 2655 0132 BA88     		ldrh	r2, [r7, #4]
 2656 0134 FB89     		ldrh	r3, [r7, #14]
 2657 0136 D318     		adds	r3, r2, r3
 2658 0138 9AB2     		uxth	r2, r3
 2659 013a 3B8C     		ldrh	r3, [r7, #32]
 2660 013c 0846     		mov	r0, r1
 2661 013e 1146     		mov	r1, r2
 2662 0140 1A46     		mov	r2, r3
 2663 0142 FFF7FEFF 		bl	TFTSHIELD_1_SetPixel
 2664              	.L48:
 697:.\Generated_Source\PSoC5/TFTSHIELD_1.c ****     }
 698:.\Generated_Source\PSoC5/TFTSHIELD_1.c ****     if (cornername & 0x1) {
 2665              		.loc 1 698 0
 2666 0146 7B78     		ldrb	r3, [r7, #1]	@ zero_extendqisi2
 2667 0148 03F00103 		and	r3, r3, #1
 2668 014c 002B     		cmp	r3, #0
 2669 014e 1BD0     		beq	.L44
 699:.\Generated_Source\PSoC5/TFTSHIELD_1.c ****       TFTSHIELD_1_SetPixel(x0 - y, y0 - x, color);
 2670              		.loc 1 699 0
 2671 0150 FA88     		ldrh	r2, [r7, #6]
 2672 0152 FB89     		ldrh	r3, [r7, #14]
 2673 0154 D31A     		subs	r3, r2, r3
 2674 0156 99B2     		uxth	r1, r3
 2675 0158 BA88     		ldrh	r2, [r7, #4]
 2676 015a 3B8A     		ldrh	r3, [r7, #16]
 2677 015c D31A     		subs	r3, r2, r3
 2678 015e 9AB2     		uxth	r2, r3
 2679 0160 3B8C     		ldrh	r3, [r7, #32]
 2680 0162 0846     		mov	r0, r1
 2681 0164 1146     		mov	r1, r2
 2682 0166 1A46     		mov	r2, r3
 2683 0168 FFF7FEFF 		bl	TFTSHIELD_1_SetPixel
 700:.\Generated_Source\PSoC5/TFTSHIELD_1.c ****       TFTSHIELD_1_SetPixel(x0 - x, y0 - y, color);
 2684              		.loc 1 700 0
 2685 016c FA88     		ldrh	r2, [r7, #6]
 2686 016e 3B8A     		ldrh	r3, [r7, #16]
 2687 0170 D31A     		subs	r3, r2, r3
 2688 0172 99B2     		uxth	r1, r3
 2689 0174 BA88     		ldrh	r2, [r7, #4]
 2690 0176 FB89     		ldrh	r3, [r7, #14]
 2691 0178 D31A     		subs	r3, r2, r3
 2692 017a 9AB2     		uxth	r2, r3
 2693 017c 3B8C     		ldrh	r3, [r7, #32]
 2694 017e 0846     		mov	r0, r1
 2695 0180 1146     		mov	r1, r2
 2696 0182 1A46     		mov	r2, r3
 2697 0184 FFF7FEFF 		bl	TFTSHIELD_1_SetPixel
 2698              	.L44:
 677:.\Generated_Source\PSoC5/TFTSHIELD_1.c ****   while (x<y) {
 2699              		.loc 1 677 0 discriminator 1
 2700 0188 B7F91020 		ldrsh	r2, [r7, #16]
 2701 018c B7F90E30 		ldrsh	r3, [r7, #14]
 2702 0190 9A42     		cmp	r2, r3
 2703 0192 FFF653AF 		blt	.L49
 701:.\Generated_Source\PSoC5/TFTSHIELD_1.c ****     }
 702:.\Generated_Source\PSoC5/TFTSHIELD_1.c ****   }
 703:.\Generated_Source\PSoC5/TFTSHIELD_1.c **** }
ARM GAS  C:\Users\Brian\AppData\Local\Temp\ccPAhBxt.s 			page 61


 2704              		.loc 1 703 0
 2705 0196 07F11807 		add	r7, r7, #24
 2706 019a BD46     		mov	sp, r7
 2707 019c 80BD     		pop	{r7, pc}
 2708              		.cfi_endproc
 2709              	.LFE17:
 2710              		.size	TFTSHIELD_1_DrawCircleHelper, .-TFTSHIELD_1_DrawCircleHelper
 2711 019e 00BF     		.section	.text.TFTSHIELD_1_FillCircle,"ax",%progbits
 2712              		.align	2
 2713              		.global	TFTSHIELD_1_FillCircle
 2714              		.thumb
 2715              		.thumb_func
 2716              		.type	TFTSHIELD_1_FillCircle, %function
 2717              	TFTSHIELD_1_FillCircle:
 2718              	.LFB18:
 704:.\Generated_Source\PSoC5/TFTSHIELD_1.c **** 
 705:.\Generated_Source\PSoC5/TFTSHIELD_1.c **** /**************************************************************************//**
 706:.\Generated_Source\PSoC5/TFTSHIELD_1.c **** *  @brief Draws a circle filled in with the specified color
 707:.\Generated_Source\PSoC5/TFTSHIELD_1.c **** *
 708:.\Generated_Source\PSoC5/TFTSHIELD_1.c **** *  @param x0: The x coordinate
 709:.\Generated_Source\PSoC5/TFTSHIELD_1.c **** *  @param y0: The y coordinate
 710:.\Generated_Source\PSoC5/TFTSHIELD_1.c **** *  @param r: The radius of the circle
 711:.\Generated_Source\PSoC5/TFTSHIELD_1.c **** *  @param color: The color of the circle
 712:.\Generated_Source\PSoC5/TFTSHIELD_1.c **** *
 713:.\Generated_Source\PSoC5/TFTSHIELD_1.c **** *******************************************************************************/
 714:.\Generated_Source\PSoC5/TFTSHIELD_1.c **** void TFTSHIELD_1_FillCircle(int16_t x0, int16_t y0, int16_t r, uint16_t color)
 715:.\Generated_Source\PSoC5/TFTSHIELD_1.c **** {
 2719              		.loc 1 715 0
 2720              		.cfi_startproc
 2721              		@ args = 0, pretend = 0, frame = 8
 2722              		@ frame_needed = 1, uses_anonymous_args = 0
 2723 0000 80B5     		push	{r7, lr}
 2724              	.LCFI53:
 2725              		.cfi_def_cfa_offset 8
 2726              		.cfi_offset 7, -8
 2727              		.cfi_offset 14, -4
 2728 0002 84B0     		sub	sp, sp, #16
 2729              	.LCFI54:
 2730              		.cfi_def_cfa_offset 24
 2731 0004 02AF     		add	r7, sp, #8
 2732              	.LCFI55:
 2733              		.cfi_def_cfa 7, 16
 2734 0006 F880     		strh	r0, [r7, #6]	@ movhi
 2735 0008 B980     		strh	r1, [r7, #4]	@ movhi
 2736 000a 7A80     		strh	r2, [r7, #2]	@ movhi
 2737 000c 3B80     		strh	r3, [r7, #0]	@ movhi
 716:.\Generated_Source\PSoC5/TFTSHIELD_1.c ****     TFTSHIELD_1_DrawVLine(x0, y0-r, 2*r+1, color);
 2738              		.loc 1 716 0
 2739 000e F888     		ldrh	r0, [r7, #6]
 2740 0010 BA88     		ldrh	r2, [r7, #4]
 2741 0012 7B88     		ldrh	r3, [r7, #2]
 2742 0014 D31A     		subs	r3, r2, r3
 2743 0016 99B2     		uxth	r1, r3
 2744 0018 7B88     		ldrh	r3, [r7, #2]
 2745 001a 4FEA4303 		lsl	r3, r3, #1
 2746 001e 9BB2     		uxth	r3, r3
 2747 0020 03F10103 		add	r3, r3, #1
ARM GAS  C:\Users\Brian\AppData\Local\Temp\ccPAhBxt.s 			page 62


 2748 0024 9AB2     		uxth	r2, r3
 2749 0026 3B88     		ldrh	r3, [r7, #0]
 2750 0028 FFF7FEFF 		bl	TFTSHIELD_1_DrawVLine
 717:.\Generated_Source\PSoC5/TFTSHIELD_1.c ****     TFTSHIELD_1_FillCircleHelper(x0, y0, r, 3, 0, color);
 2751              		.loc 1 717 0
 2752 002c B7F90610 		ldrsh	r1, [r7, #6]
 2753 0030 B7F90420 		ldrsh	r2, [r7, #4]
 2754 0034 B7F90230 		ldrsh	r3, [r7, #2]
 2755 0038 4FF00000 		mov	r0, #0
 2756 003c 0090     		str	r0, [sp, #0]
 2757 003e 3888     		ldrh	r0, [r7, #0]
 2758 0040 0190     		str	r0, [sp, #4]
 2759 0042 0846     		mov	r0, r1
 2760 0044 1146     		mov	r1, r2
 2761 0046 1A46     		mov	r2, r3
 2762 0048 4FF00303 		mov	r3, #3
 2763 004c FFF7FEFF 		bl	TFTSHIELD_1_FillCircleHelper
 718:.\Generated_Source\PSoC5/TFTSHIELD_1.c **** }
 2764              		.loc 1 718 0
 2765 0050 07F10807 		add	r7, r7, #8
 2766 0054 BD46     		mov	sp, r7
 2767 0056 80BD     		pop	{r7, pc}
 2768              		.cfi_endproc
 2769              	.LFE18:
 2770              		.size	TFTSHIELD_1_FillCircle, .-TFTSHIELD_1_FillCircle
 2771              		.section	.text.TFTSHIELD_1_FillCircleHelper,"ax",%progbits
 2772              		.align	2
 2773              		.global	TFTSHIELD_1_FillCircleHelper
 2774              		.thumb
 2775              		.thumb_func
 2776              		.type	TFTSHIELD_1_FillCircleHelper, %function
 2777              	TFTSHIELD_1_FillCircleHelper:
 2778              	.LFB19:
 719:.\Generated_Source\PSoC5/TFTSHIELD_1.c **** 
 720:.\Generated_Source\PSoC5/TFTSHIELD_1.c **** /**************************************************************************//**
 721:.\Generated_Source\PSoC5/TFTSHIELD_1.c **** *  @brief Helper function for filling circles and corners
 722:.\Generated_Source\PSoC5/TFTSHIELD_1.c **** *
 723:.\Generated_Source\PSoC5/TFTSHIELD_1.c **** *  @param x0: The x coordinate
 724:.\Generated_Source\PSoC5/TFTSHIELD_1.c **** *  @param y0: The y coordinate
 725:.\Generated_Source\PSoC5/TFTSHIELD_1.c **** *  @param r: The radius of the circle
 726:.\Generated_Source\PSoC5/TFTSHIELD_1.c **** *  @param cornername: Corner orientation
 727:.\Generated_Source\PSoC5/TFTSHIELD_1.c **** *  @param delta: Delta value
 728:.\Generated_Source\PSoC5/TFTSHIELD_1.c **** *  @param color: The color of the circle
 729:.\Generated_Source\PSoC5/TFTSHIELD_1.c **** *
 730:.\Generated_Source\PSoC5/TFTSHIELD_1.c **** *******************************************************************************/
 731:.\Generated_Source\PSoC5/TFTSHIELD_1.c **** void TFTSHIELD_1_FillCircleHelper(int16_t x0, int16_t y0, int16_t r, uint8_t cornername,
 732:.\Generated_Source\PSoC5/TFTSHIELD_1.c ****       int16_t delta, uint16_t color)
 733:.\Generated_Source\PSoC5/TFTSHIELD_1.c **** {
 2779              		.loc 1 733 0
 2780              		.cfi_startproc
 2781              		@ args = 8, pretend = 0, frame = 24
 2782              		@ frame_needed = 1, uses_anonymous_args = 0
 2783 0000 80B5     		push	{r7, lr}
 2784              	.LCFI56:
 2785              		.cfi_def_cfa_offset 8
 2786              		.cfi_offset 7, -8
 2787              		.cfi_offset 14, -4
ARM GAS  C:\Users\Brian\AppData\Local\Temp\ccPAhBxt.s 			page 63


 2788 0002 86B0     		sub	sp, sp, #24
 2789              	.LCFI57:
 2790              		.cfi_def_cfa_offset 32
 2791 0004 00AF     		add	r7, sp, #0
 2792              	.LCFI58:
 2793              		.cfi_def_cfa_register 7
 2794 0006 F880     		strh	r0, [r7, #6]	@ movhi
 2795 0008 B980     		strh	r1, [r7, #4]	@ movhi
 2796 000a 7A80     		strh	r2, [r7, #2]	@ movhi
 2797 000c 7B70     		strb	r3, [r7, #1]
 734:.\Generated_Source\PSoC5/TFTSHIELD_1.c ****   int16_t f     = 1 - r;
 2798              		.loc 1 734 0
 2799 000e 7B88     		ldrh	r3, [r7, #2]
 2800 0010 C3F10103 		rsb	r3, r3, #1
 2801 0014 9BB2     		uxth	r3, r3
 2802 0016 FB82     		strh	r3, [r7, #22]	@ movhi
 735:.\Generated_Source\PSoC5/TFTSHIELD_1.c ****   int16_t ddF_x = 1;
 2803              		.loc 1 735 0
 2804 0018 4FF00103 		mov	r3, #1
 2805 001c BB82     		strh	r3, [r7, #20]	@ movhi
 736:.\Generated_Source\PSoC5/TFTSHIELD_1.c ****   int16_t ddF_y = -2 * r;
 2806              		.loc 1 736 0
 2807 001e 7B88     		ldrh	r3, [r7, #2]
 2808 0020 1A46     		mov	r2, r3	@ movhi
 2809 0022 4FEAC232 		lsl	r2, r2, #15
 2810 0026 D31A     		subs	r3, r2, r3
 2811 0028 4FEA4303 		lsl	r3, r3, #1
 2812 002c 9BB2     		uxth	r3, r3
 2813 002e 7B82     		strh	r3, [r7, #18]	@ movhi
 737:.\Generated_Source\PSoC5/TFTSHIELD_1.c ****   int16_t x     = 0;
 2814              		.loc 1 737 0
 2815 0030 4FF00003 		mov	r3, #0
 2816 0034 3B82     		strh	r3, [r7, #16]	@ movhi
 738:.\Generated_Source\PSoC5/TFTSHIELD_1.c ****   int16_t y     = r;
 2817              		.loc 1 738 0
 2818 0036 7B88     		ldrh	r3, [r7, #2]	@ movhi
 2819 0038 FB81     		strh	r3, [r7, #14]	@ movhi
 739:.\Generated_Source\PSoC5/TFTSHIELD_1.c **** 
 740:.\Generated_Source\PSoC5/TFTSHIELD_1.c ****   while (x<y) {
 2820              		.loc 1 740 0
 2821 003a 7DE0     		b	.L52
 2822              	.L55:
 741:.\Generated_Source\PSoC5/TFTSHIELD_1.c ****     if (f >= 0) {
 2823              		.loc 1 741 0
 2824 003c B7F91630 		ldrsh	r3, [r7, #22]
 2825 0040 002B     		cmp	r3, #0
 2826 0042 0DDB     		blt	.L53
 742:.\Generated_Source\PSoC5/TFTSHIELD_1.c ****       y--;
 2827              		.loc 1 742 0
 2828 0044 FB89     		ldrh	r3, [r7, #14]	@ movhi
 2829 0046 03F1FF33 		add	r3, r3, #-1
 2830 004a FB81     		strh	r3, [r7, #14]	@ movhi
 743:.\Generated_Source\PSoC5/TFTSHIELD_1.c ****       ddF_y += 2;
 2831              		.loc 1 743 0
 2832 004c 7B8A     		ldrh	r3, [r7, #18]
 2833 004e 03F10203 		add	r3, r3, #2
 2834 0052 9BB2     		uxth	r3, r3
ARM GAS  C:\Users\Brian\AppData\Local\Temp\ccPAhBxt.s 			page 64


 2835 0054 7B82     		strh	r3, [r7, #18]	@ movhi
 744:.\Generated_Source\PSoC5/TFTSHIELD_1.c ****       f     += ddF_y;
 2836              		.loc 1 744 0
 2837 0056 FA8A     		ldrh	r2, [r7, #22]
 2838 0058 7B8A     		ldrh	r3, [r7, #18]
 2839 005a D318     		adds	r3, r2, r3
 2840 005c 9BB2     		uxth	r3, r3
 2841 005e FB82     		strh	r3, [r7, #22]	@ movhi
 2842              	.L53:
 745:.\Generated_Source\PSoC5/TFTSHIELD_1.c ****     }
 746:.\Generated_Source\PSoC5/TFTSHIELD_1.c ****     x++;
 2843              		.loc 1 746 0
 2844 0060 3B8A     		ldrh	r3, [r7, #16]	@ movhi
 2845 0062 03F10103 		add	r3, r3, #1
 2846 0066 3B82     		strh	r3, [r7, #16]	@ movhi
 747:.\Generated_Source\PSoC5/TFTSHIELD_1.c ****     ddF_x += 2;
 2847              		.loc 1 747 0
 2848 0068 BB8A     		ldrh	r3, [r7, #20]
 2849 006a 03F10203 		add	r3, r3, #2
 2850 006e 9BB2     		uxth	r3, r3
 2851 0070 BB82     		strh	r3, [r7, #20]	@ movhi
 748:.\Generated_Source\PSoC5/TFTSHIELD_1.c ****     f     += ddF_x;
 2852              		.loc 1 748 0
 2853 0072 FA8A     		ldrh	r2, [r7, #22]
 2854 0074 BB8A     		ldrh	r3, [r7, #20]
 2855 0076 D318     		adds	r3, r2, r3
 2856 0078 9BB2     		uxth	r3, r3
 2857 007a FB82     		strh	r3, [r7, #22]	@ movhi
 749:.\Generated_Source\PSoC5/TFTSHIELD_1.c **** 
 750:.\Generated_Source\PSoC5/TFTSHIELD_1.c ****     if (cornername & 0x1) {
 2858              		.loc 1 750 0
 2859 007c 7B78     		ldrb	r3, [r7, #1]	@ zero_extendqisi2
 2860 007e 03F00103 		and	r3, r3, #1
 2861 0082 002B     		cmp	r3, #0
 2862 0084 29D0     		beq	.L54
 751:.\Generated_Source\PSoC5/TFTSHIELD_1.c ****       TFTSHIELD_1_DrawVLine(x0+x, y0-y, 2*y+1+delta, color);
 2863              		.loc 1 751 0
 2864 0086 FA88     		ldrh	r2, [r7, #6]
 2865 0088 3B8A     		ldrh	r3, [r7, #16]
 2866 008a D318     		adds	r3, r2, r3
 2867 008c 98B2     		uxth	r0, r3
 2868 008e BA88     		ldrh	r2, [r7, #4]
 2869 0090 FB89     		ldrh	r3, [r7, #14]
 2870 0092 D31A     		subs	r3, r2, r3
 2871 0094 99B2     		uxth	r1, r3
 2872 0096 FB89     		ldrh	r3, [r7, #14]
 2873 0098 4FEA4303 		lsl	r3, r3, #1
 2874 009c 9AB2     		uxth	r2, r3
 2875 009e 3B8C     		ldrh	r3, [r7, #32]
 2876 00a0 D318     		adds	r3, r2, r3
 2877 00a2 9BB2     		uxth	r3, r3
 2878 00a4 03F10103 		add	r3, r3, #1
 2879 00a8 9AB2     		uxth	r2, r3
 2880 00aa BB8C     		ldrh	r3, [r7, #36]
 2881 00ac FFF7FEFF 		bl	TFTSHIELD_1_DrawVLine
 752:.\Generated_Source\PSoC5/TFTSHIELD_1.c ****       TFTSHIELD_1_DrawVLine(x0+y, y0-x, 2*x+1+delta, color);
 2882              		.loc 1 752 0
ARM GAS  C:\Users\Brian\AppData\Local\Temp\ccPAhBxt.s 			page 65


 2883 00b0 FA88     		ldrh	r2, [r7, #6]
 2884 00b2 FB89     		ldrh	r3, [r7, #14]
 2885 00b4 D318     		adds	r3, r2, r3
 2886 00b6 98B2     		uxth	r0, r3
 2887 00b8 BA88     		ldrh	r2, [r7, #4]
 2888 00ba 3B8A     		ldrh	r3, [r7, #16]
 2889 00bc D31A     		subs	r3, r2, r3
 2890 00be 99B2     		uxth	r1, r3
 2891 00c0 3B8A     		ldrh	r3, [r7, #16]
 2892 00c2 4FEA4303 		lsl	r3, r3, #1
 2893 00c6 9AB2     		uxth	r2, r3
 2894 00c8 3B8C     		ldrh	r3, [r7, #32]
 2895 00ca D318     		adds	r3, r2, r3
 2896 00cc 9BB2     		uxth	r3, r3
 2897 00ce 03F10103 		add	r3, r3, #1
 2898 00d2 9AB2     		uxth	r2, r3
 2899 00d4 BB8C     		ldrh	r3, [r7, #36]
 2900 00d6 FFF7FEFF 		bl	TFTSHIELD_1_DrawVLine
 2901              	.L54:
 753:.\Generated_Source\PSoC5/TFTSHIELD_1.c ****     }
 754:.\Generated_Source\PSoC5/TFTSHIELD_1.c ****     if (cornername & 0x2) {
 2902              		.loc 1 754 0
 2903 00da 7B78     		ldrb	r3, [r7, #1]	@ zero_extendqisi2
 2904 00dc 03F00203 		and	r3, r3, #2
 2905 00e0 002B     		cmp	r3, #0
 2906 00e2 29D0     		beq	.L52
 755:.\Generated_Source\PSoC5/TFTSHIELD_1.c ****       TFTSHIELD_1_DrawVLine(x0-x, y0-y, 2*y+1+delta, color);
 2907              		.loc 1 755 0
 2908 00e4 FA88     		ldrh	r2, [r7, #6]
 2909 00e6 3B8A     		ldrh	r3, [r7, #16]
 2910 00e8 D31A     		subs	r3, r2, r3
 2911 00ea 98B2     		uxth	r0, r3
 2912 00ec BA88     		ldrh	r2, [r7, #4]
 2913 00ee FB89     		ldrh	r3, [r7, #14]
 2914 00f0 D31A     		subs	r3, r2, r3
 2915 00f2 99B2     		uxth	r1, r3
 2916 00f4 FB89     		ldrh	r3, [r7, #14]
 2917 00f6 4FEA4303 		lsl	r3, r3, #1
 2918 00fa 9AB2     		uxth	r2, r3
 2919 00fc 3B8C     		ldrh	r3, [r7, #32]
 2920 00fe D318     		adds	r3, r2, r3
 2921 0100 9BB2     		uxth	r3, r3
 2922 0102 03F10103 		add	r3, r3, #1
 2923 0106 9AB2     		uxth	r2, r3
 2924 0108 BB8C     		ldrh	r3, [r7, #36]
 2925 010a FFF7FEFF 		bl	TFTSHIELD_1_DrawVLine
 756:.\Generated_Source\PSoC5/TFTSHIELD_1.c ****      TFTSHIELD_1_DrawVLine(x0-y, y0-x, 2*x+1+delta, color);
 2926              		.loc 1 756 0
 2927 010e FA88     		ldrh	r2, [r7, #6]
 2928 0110 FB89     		ldrh	r3, [r7, #14]
 2929 0112 D31A     		subs	r3, r2, r3
 2930 0114 98B2     		uxth	r0, r3
 2931 0116 BA88     		ldrh	r2, [r7, #4]
 2932 0118 3B8A     		ldrh	r3, [r7, #16]
 2933 011a D31A     		subs	r3, r2, r3
 2934 011c 99B2     		uxth	r1, r3
 2935 011e 3B8A     		ldrh	r3, [r7, #16]
ARM GAS  C:\Users\Brian\AppData\Local\Temp\ccPAhBxt.s 			page 66


 2936 0120 4FEA4303 		lsl	r3, r3, #1
 2937 0124 9AB2     		uxth	r2, r3
 2938 0126 3B8C     		ldrh	r3, [r7, #32]
 2939 0128 D318     		adds	r3, r2, r3
 2940 012a 9BB2     		uxth	r3, r3
 2941 012c 03F10103 		add	r3, r3, #1
 2942 0130 9AB2     		uxth	r2, r3
 2943 0132 BB8C     		ldrh	r3, [r7, #36]
 2944 0134 FFF7FEFF 		bl	TFTSHIELD_1_DrawVLine
 2945              	.L52:
 740:.\Generated_Source\PSoC5/TFTSHIELD_1.c ****   while (x<y) {
 2946              		.loc 1 740 0 discriminator 1
 2947 0138 B7F91020 		ldrsh	r2, [r7, #16]
 2948 013c B7F90E30 		ldrsh	r3, [r7, #14]
 2949 0140 9A42     		cmp	r2, r3
 2950 0142 FFF67BAF 		blt	.L55
 757:.\Generated_Source\PSoC5/TFTSHIELD_1.c ****     }
 758:.\Generated_Source\PSoC5/TFTSHIELD_1.c ****   }
 759:.\Generated_Source\PSoC5/TFTSHIELD_1.c **** }
 2951              		.loc 1 759 0
 2952 0146 07F11807 		add	r7, r7, #24
 2953 014a BD46     		mov	sp, r7
 2954 014c 80BD     		pop	{r7, pc}
 2955              		.cfi_endproc
 2956              	.LFE19:
 2957              		.size	TFTSHIELD_1_FillCircleHelper, .-TFTSHIELD_1_FillCircleHelper
 2958 014e 00BF     		.section	.text.TFTSHIELD_1_DrawTriangle,"ax",%progbits
 2959              		.align	2
 2960              		.global	TFTSHIELD_1_DrawTriangle
 2961              		.thumb
 2962              		.thumb_func
 2963              		.type	TFTSHIELD_1_DrawTriangle, %function
 2964              	TFTSHIELD_1_DrawTriangle:
 2965              	.LFB20:
 760:.\Generated_Source\PSoC5/TFTSHIELD_1.c **** 
 761:.\Generated_Source\PSoC5/TFTSHIELD_1.c **** /**************************************************************************//**
 762:.\Generated_Source\PSoC5/TFTSHIELD_1.c **** *  @brief Draws a triangle outline
 763:.\Generated_Source\PSoC5/TFTSHIELD_1.c **** *
 764:.\Generated_Source\PSoC5/TFTSHIELD_1.c **** *  @param x0: The first x coordinate
 765:.\Generated_Source\PSoC5/TFTSHIELD_1.c **** *  @param y0: The first y coordinate
 766:.\Generated_Source\PSoC5/TFTSHIELD_1.c **** *  @param x1: The second x coordinate
 767:.\Generated_Source\PSoC5/TFTSHIELD_1.c **** *  @param y1: The second y coordinate
 768:.\Generated_Source\PSoC5/TFTSHIELD_1.c **** *  @param x2: The third x coordinate
 769:.\Generated_Source\PSoC5/TFTSHIELD_1.c **** *  @param y2: The third y coordinate
 770:.\Generated_Source\PSoC5/TFTSHIELD_1.c **** *  @param color: The color of the triangle
 771:.\Generated_Source\PSoC5/TFTSHIELD_1.c **** *
 772:.\Generated_Source\PSoC5/TFTSHIELD_1.c **** *******************************************************************************/
 773:.\Generated_Source\PSoC5/TFTSHIELD_1.c **** void TFTSHIELD_1_DrawTriangle(int16_t x0, int16_t y0, int16_t x1, int16_t y1,
 774:.\Generated_Source\PSoC5/TFTSHIELD_1.c ****       int16_t x2, int16_t y2, uint16_t color)
 775:.\Generated_Source\PSoC5/TFTSHIELD_1.c **** {
 2966              		.loc 1 775 0
 2967              		.cfi_startproc
 2968              		@ args = 12, pretend = 0, frame = 8
 2969              		@ frame_needed = 1, uses_anonymous_args = 0
 2970 0000 90B5     		push	{r4, r7, lr}
 2971              	.LCFI59:
 2972              		.cfi_def_cfa_offset 12
ARM GAS  C:\Users\Brian\AppData\Local\Temp\ccPAhBxt.s 			page 67


 2973              		.cfi_offset 4, -12
 2974              		.cfi_offset 7, -8
 2975              		.cfi_offset 14, -4
 2976 0002 85B0     		sub	sp, sp, #20
 2977              	.LCFI60:
 2978              		.cfi_def_cfa_offset 32
 2979 0004 02AF     		add	r7, sp, #8
 2980              	.LCFI61:
 2981              		.cfi_def_cfa 7, 24
 2982 0006 F880     		strh	r0, [r7, #6]	@ movhi
 2983 0008 B980     		strh	r1, [r7, #4]	@ movhi
 2984 000a 7A80     		strh	r2, [r7, #2]	@ movhi
 2985 000c 3B80     		strh	r3, [r7, #0]	@ movhi
 776:.\Generated_Source\PSoC5/TFTSHIELD_1.c ****     TFTSHIELD_1DrawLine(x0, y0, x1, y1, color);
 2986              		.loc 1 776 0
 2987 000e B7F90600 		ldrsh	r0, [r7, #6]
 2988 0012 B7F90410 		ldrsh	r1, [r7, #4]
 2989 0016 B7F90220 		ldrsh	r2, [r7, #2]
 2990 001a B7F90030 		ldrsh	r3, [r7, #0]
 2991 001e 3C8C     		ldrh	r4, [r7, #32]
 2992 0020 0094     		str	r4, [sp, #0]
 2993 0022 FFF7FEFF 		bl	TFTSHIELD_1DrawLine
 777:.\Generated_Source\PSoC5/TFTSHIELD_1.c ****     TFTSHIELD_1DrawLine(x1, y1, x2, y2, color);
 2994              		.loc 1 777 0
 2995 0026 B7F90200 		ldrsh	r0, [r7, #2]
 2996 002a B7F90010 		ldrsh	r1, [r7, #0]
 2997 002e B7F91820 		ldrsh	r2, [r7, #24]
 2998 0032 B7F91C30 		ldrsh	r3, [r7, #28]
 2999 0036 3C8C     		ldrh	r4, [r7, #32]
 3000 0038 0094     		str	r4, [sp, #0]
 3001 003a FFF7FEFF 		bl	TFTSHIELD_1DrawLine
 778:.\Generated_Source\PSoC5/TFTSHIELD_1.c ****     TFTSHIELD_1DrawLine(x2, y2, x0, y0, color);
 3002              		.loc 1 778 0
 3003 003e B7F91800 		ldrsh	r0, [r7, #24]
 3004 0042 B7F91C10 		ldrsh	r1, [r7, #28]
 3005 0046 B7F90620 		ldrsh	r2, [r7, #6]
 3006 004a B7F90430 		ldrsh	r3, [r7, #4]
 3007 004e 3C8C     		ldrh	r4, [r7, #32]
 3008 0050 0094     		str	r4, [sp, #0]
 3009 0052 FFF7FEFF 		bl	TFTSHIELD_1DrawLine
 779:.\Generated_Source\PSoC5/TFTSHIELD_1.c **** }
 3010              		.loc 1 779 0
 3011 0056 07F10C07 		add	r7, r7, #12
 3012 005a BD46     		mov	sp, r7
 3013 005c 90BD     		pop	{r4, r7, pc}
 3014              		.cfi_endproc
 3015              	.LFE20:
 3016              		.size	TFTSHIELD_1_DrawTriangle, .-TFTSHIELD_1_DrawTriangle
 3017 005e 00BF     		.section	.text.TFTSHIELD_1_FillTriangle,"ax",%progbits
 3018              		.align	2
 3019              		.global	TFTSHIELD_1_FillTriangle
 3020              		.thumb
 3021              		.thumb_func
 3022              		.type	TFTSHIELD_1_FillTriangle, %function
 3023              	TFTSHIELD_1_FillTriangle:
 3024              	.LFB21:
 780:.\Generated_Source\PSoC5/TFTSHIELD_1.c **** 
ARM GAS  C:\Users\Brian\AppData\Local\Temp\ccPAhBxt.s 			page 68


 781:.\Generated_Source\PSoC5/TFTSHIELD_1.c **** /**************************************************************************//**
 782:.\Generated_Source\PSoC5/TFTSHIELD_1.c **** *  @brief Draws a triangle filled with the specified color
 783:.\Generated_Source\PSoC5/TFTSHIELD_1.c **** *
 784:.\Generated_Source\PSoC5/TFTSHIELD_1.c **** *  @param x0: The first x coordinate
 785:.\Generated_Source\PSoC5/TFTSHIELD_1.c **** *  @param y0: The first y coordinate
 786:.\Generated_Source\PSoC5/TFTSHIELD_1.c **** *  @param x1: The second x coordinate
 787:.\Generated_Source\PSoC5/TFTSHIELD_1.c **** *  @param y1: The second y coordinate
 788:.\Generated_Source\PSoC5/TFTSHIELD_1.c **** *  @param x2: The third x coordinate
 789:.\Generated_Source\PSoC5/TFTSHIELD_1.c **** *  @param y2: The third y coordinate
 790:.\Generated_Source\PSoC5/TFTSHIELD_1.c **** *  @param color: The color of the triangle
 791:.\Generated_Source\PSoC5/TFTSHIELD_1.c **** *
 792:.\Generated_Source\PSoC5/TFTSHIELD_1.c **** *******************************************************************************/
 793:.\Generated_Source\PSoC5/TFTSHIELD_1.c **** void TFTSHIELD_1_FillTriangle(int16_t x0, int16_t y0, int16_t x1, int16_t y1,
 794:.\Generated_Source\PSoC5/TFTSHIELD_1.c ****       int16_t x2, int16_t y2, uint16_t color)
 795:.\Generated_Source\PSoC5/TFTSHIELD_1.c **** {
 3025              		.loc 1 795 0
 3026              		.cfi_startproc
 3027              		@ args = 12, pretend = 0, frame = 32
 3028              		@ frame_needed = 1, uses_anonymous_args = 0
 3029 0000 80B5     		push	{r7, lr}
 3030              	.LCFI62:
 3031              		.cfi_def_cfa_offset 8
 3032              		.cfi_offset 7, -8
 3033              		.cfi_offset 14, -4
 3034 0002 88B0     		sub	sp, sp, #32
 3035              	.LCFI63:
 3036              		.cfi_def_cfa_offset 40
 3037 0004 00AF     		add	r7, sp, #0
 3038              	.LCFI64:
 3039              		.cfi_def_cfa_register 7
 3040 0006 F880     		strh	r0, [r7, #6]	@ movhi
 3041 0008 B980     		strh	r1, [r7, #4]	@ movhi
 3042 000a 7A80     		strh	r2, [r7, #2]	@ movhi
 3043 000c 3B80     		strh	r3, [r7, #0]	@ movhi
 796:.\Generated_Source\PSoC5/TFTSHIELD_1.c ****      int16_t a, b, y, last;
 797:.\Generated_Source\PSoC5/TFTSHIELD_1.c **** 
 798:.\Generated_Source\PSoC5/TFTSHIELD_1.c ****   // Sort coordinates by Y order (y2 >= y1 >= y0)
 799:.\Generated_Source\PSoC5/TFTSHIELD_1.c ****   if (y0 > y1) {
 3044              		.loc 1 799 0
 3045 000e B7F90420 		ldrsh	r2, [r7, #4]
 3046 0012 B7F90030 		ldrsh	r3, [r7, #0]
 3047 0016 9A42     		cmp	r2, r3
 3048 0018 0FDD     		ble	.L58
 3049              	.LBB3:
 800:.\Generated_Source\PSoC5/TFTSHIELD_1.c ****     swap(y0, y1); swap(x0, x1);
 3050              		.loc 1 800 0
 3051 001a B7F90420 		ldrsh	r2, [r7, #4]
 3052 001e B7F90030 		ldrsh	r3, [r7, #0]
 3053 0022 1046     		mov	r0, r2
 3054 0024 1946     		mov	r1, r3
 3055 0026 FFF7FEFF 		bl	swap
 3056 002a B7F90620 		ldrsh	r2, [r7, #6]
 3057 002e B7F90230 		ldrsh	r3, [r7, #2]
 3058 0032 1046     		mov	r0, r2
 3059 0034 1946     		mov	r1, r3
 3060 0036 FFF7FEFF 		bl	swap
 3061              	.L58:
ARM GAS  C:\Users\Brian\AppData\Local\Temp\ccPAhBxt.s 			page 69


 3062              	.LBE3:
 801:.\Generated_Source\PSoC5/TFTSHIELD_1.c ****   }
 802:.\Generated_Source\PSoC5/TFTSHIELD_1.c ****   if (y1 > y2) {
 3063              		.loc 1 802 0
 3064 003a B7F90020 		ldrsh	r2, [r7, #0]
 3065 003e B7F92C30 		ldrsh	r3, [r7, #44]
 3066 0042 9A42     		cmp	r2, r3
 3067 0044 0FDD     		ble	.L59
 3068              	.LBB4:
 803:.\Generated_Source\PSoC5/TFTSHIELD_1.c ****     swap(y2, y1); swap(x2, x1);
 3069              		.loc 1 803 0
 3070 0046 B7F92C20 		ldrsh	r2, [r7, #44]
 3071 004a B7F90030 		ldrsh	r3, [r7, #0]
 3072 004e 1046     		mov	r0, r2
 3073 0050 1946     		mov	r1, r3
 3074 0052 FFF7FEFF 		bl	swap
 3075 0056 B7F92820 		ldrsh	r2, [r7, #40]
 3076 005a B7F90230 		ldrsh	r3, [r7, #2]
 3077 005e 1046     		mov	r0, r2
 3078 0060 1946     		mov	r1, r3
 3079 0062 FFF7FEFF 		bl	swap
 3080              	.L59:
 3081              	.LBE4:
 804:.\Generated_Source\PSoC5/TFTSHIELD_1.c ****   }
 805:.\Generated_Source\PSoC5/TFTSHIELD_1.c ****   if (y0 > y1) {
 3082              		.loc 1 805 0
 3083 0066 B7F90420 		ldrsh	r2, [r7, #4]
 3084 006a B7F90030 		ldrsh	r3, [r7, #0]
 3085 006e 9A42     		cmp	r2, r3
 3086 0070 0FDD     		ble	.L60
 3087              	.LBB5:
 806:.\Generated_Source\PSoC5/TFTSHIELD_1.c ****     swap(y0, y1); swap(x0, x1);
 3088              		.loc 1 806 0
 3089 0072 B7F90420 		ldrsh	r2, [r7, #4]
 3090 0076 B7F90030 		ldrsh	r3, [r7, #0]
 3091 007a 1046     		mov	r0, r2
 3092 007c 1946     		mov	r1, r3
 3093 007e FFF7FEFF 		bl	swap
 3094 0082 B7F90620 		ldrsh	r2, [r7, #6]
 3095 0086 B7F90230 		ldrsh	r3, [r7, #2]
 3096 008a 1046     		mov	r0, r2
 3097 008c 1946     		mov	r1, r3
 3098 008e FFF7FEFF 		bl	swap
 3099              	.L60:
 3100              	.LBE5:
 807:.\Generated_Source\PSoC5/TFTSHIELD_1.c ****   }
 808:.\Generated_Source\PSoC5/TFTSHIELD_1.c **** 
 809:.\Generated_Source\PSoC5/TFTSHIELD_1.c ****   if(y0 == y2) { // Handle awkward all-on-same-line case as its own thing
 3101              		.loc 1 809 0
 3102 0092 B7F90420 		ldrsh	r2, [r7, #4]
 3103 0096 B7F92C30 		ldrsh	r3, [r7, #44]
 3104 009a 9A42     		cmp	r2, r3
 3105 009c 34D1     		bne	.L61
 3106              	.LBB6:
 810:.\Generated_Source\PSoC5/TFTSHIELD_1.c ****     a = b = x0;
 3107              		.loc 1 810 0
 3108 009e FB88     		ldrh	r3, [r7, #6]	@ movhi
ARM GAS  C:\Users\Brian\AppData\Local\Temp\ccPAhBxt.s 			page 70


 3109 00a0 BB83     		strh	r3, [r7, #28]	@ movhi
 3110 00a2 BB8B     		ldrh	r3, [r7, #28]	@ movhi
 3111 00a4 FB83     		strh	r3, [r7, #30]	@ movhi
 811:.\Generated_Source\PSoC5/TFTSHIELD_1.c ****     if(x1 < a)      a = x1;
 3112              		.loc 1 811 0
 3113 00a6 B7F90220 		ldrsh	r2, [r7, #2]
 3114 00aa B7F91E30 		ldrsh	r3, [r7, #30]
 3115 00ae 9A42     		cmp	r2, r3
 3116 00b0 02DA     		bge	.L62
 3117              		.loc 1 811 0 is_stmt 0 discriminator 1
 3118 00b2 7B88     		ldrh	r3, [r7, #2]	@ movhi
 3119 00b4 FB83     		strh	r3, [r7, #30]	@ movhi
 3120 00b6 07E0     		b	.L63
 3121              	.L62:
 812:.\Generated_Source\PSoC5/TFTSHIELD_1.c ****     else if(x1 > b) b = x1;
 3122              		.loc 1 812 0 is_stmt 1
 3123 00b8 B7F90220 		ldrsh	r2, [r7, #2]
 3124 00bc B7F91C30 		ldrsh	r3, [r7, #28]
 3125 00c0 9A42     		cmp	r2, r3
 3126 00c2 01DD     		ble	.L63
 3127              		.loc 1 812 0 is_stmt 0 discriminator 1
 3128 00c4 7B88     		ldrh	r3, [r7, #2]	@ movhi
 3129 00c6 BB83     		strh	r3, [r7, #28]	@ movhi
 3130              	.L63:
 813:.\Generated_Source\PSoC5/TFTSHIELD_1.c ****     if(x2 < a)      a = x2;
 3131              		.loc 1 813 0 is_stmt 1
 3132 00c8 B7F92820 		ldrsh	r2, [r7, #40]
 3133 00cc B7F91E30 		ldrsh	r3, [r7, #30]
 3134 00d0 9A42     		cmp	r2, r3
 3135 00d2 02DA     		bge	.L64
 3136              		.loc 1 813 0 is_stmt 0 discriminator 1
 3137 00d4 3B8D     		ldrh	r3, [r7, #40]	@ movhi
 3138 00d6 FB83     		strh	r3, [r7, #30]	@ movhi
 3139 00d8 07E0     		b	.L65
 3140              	.L64:
 814:.\Generated_Source\PSoC5/TFTSHIELD_1.c ****     else if(x2 > b) b = x2;
 3141              		.loc 1 814 0 is_stmt 1
 3142 00da B7F92820 		ldrsh	r2, [r7, #40]
 3143 00de B7F91C30 		ldrsh	r3, [r7, #28]
 3144 00e2 9A42     		cmp	r2, r3
 3145 00e4 01DD     		ble	.L65
 3146              		.loc 1 814 0 is_stmt 0 discriminator 1
 3147 00e6 3B8D     		ldrh	r3, [r7, #40]	@ movhi
 3148 00e8 BB83     		strh	r3, [r7, #28]	@ movhi
 3149              	.L65:
 815:.\Generated_Source\PSoC5/TFTSHIELD_1.c ****     TFTSHIELD_1DrawLine(a, y0, b-a+1, color);
 3150              		.loc 1 815 0 is_stmt 1
 3151 00ea B7F91E00 		ldrsh	r0, [r7, #30]
 3152 00ee B7F90410 		ldrsh	r1, [r7, #4]
 3153 00f2 B7F91C20 		ldrsh	r2, [r7, #28]
 3154 00f6 B7F91E30 		ldrsh	r3, [r7, #30]
 3155 00fa D31A     		subs	r3, r2, r3
 3156 00fc 03F10102 		add	r2, r3, #1
 3157 0100 3B8E     		ldrh	r3, [r7, #48]
 3158 0102 FFF7FEFF 		bl	TFTSHIELD_1DrawLine
 816:.\Generated_Source\PSoC5/TFTSHIELD_1.c ****     return;
 3159              		.loc 1 816 0
ARM GAS  C:\Users\Brian\AppData\Local\Temp\ccPAhBxt.s 			page 71


 3160 0106 7AE0     		b	.L57
 3161              	.L61:
 3162              	.LBE6:
 817:.\Generated_Source\PSoC5/TFTSHIELD_1.c ****   }
 818:.\Generated_Source\PSoC5/TFTSHIELD_1.c **** 
 819:.\Generated_Source\PSoC5/TFTSHIELD_1.c ****   int16_t
 820:.\Generated_Source\PSoC5/TFTSHIELD_1.c ****     dx01 = x1 - x0,
 3163              		.loc 1 820 0
 3164 0108 7A88     		ldrh	r2, [r7, #2]
 3165 010a FB88     		ldrh	r3, [r7, #6]
 3166 010c D31A     		subs	r3, r2, r3
 3167 010e 9BB2     		uxth	r3, r3
 3168 0110 7B82     		strh	r3, [r7, #18]	@ movhi
 821:.\Generated_Source\PSoC5/TFTSHIELD_1.c ****     dy01 = y1 - y0,
 3169              		.loc 1 821 0
 3170 0112 3A88     		ldrh	r2, [r7, #0]
 3171 0114 BB88     		ldrh	r3, [r7, #4]
 3172 0116 D31A     		subs	r3, r2, r3
 3173 0118 9BB2     		uxth	r3, r3
 3174 011a 3B82     		strh	r3, [r7, #16]	@ movhi
 822:.\Generated_Source\PSoC5/TFTSHIELD_1.c ****     dx02 = x2 - x0,
 3175              		.loc 1 822 0
 3176 011c 3A8D     		ldrh	r2, [r7, #40]
 3177 011e FB88     		ldrh	r3, [r7, #6]
 3178 0120 D31A     		subs	r3, r2, r3
 3179 0122 9BB2     		uxth	r3, r3
 3180 0124 FB81     		strh	r3, [r7, #14]	@ movhi
 823:.\Generated_Source\PSoC5/TFTSHIELD_1.c ****     dy02 = y2 - y0,
 3181              		.loc 1 823 0
 3182 0126 BA8D     		ldrh	r2, [r7, #44]
 3183 0128 BB88     		ldrh	r3, [r7, #4]
 3184 012a D31A     		subs	r3, r2, r3
 3185 012c 9BB2     		uxth	r3, r3
 3186 012e BB81     		strh	r3, [r7, #12]	@ movhi
 824:.\Generated_Source\PSoC5/TFTSHIELD_1.c ****     dx12 = x2 - x1,
 3187              		.loc 1 824 0
 3188 0130 3A8D     		ldrh	r2, [r7, #40]
 3189 0132 7B88     		ldrh	r3, [r7, #2]
 3190 0134 D31A     		subs	r3, r2, r3
 3191 0136 9BB2     		uxth	r3, r3
 3192 0138 7B81     		strh	r3, [r7, #10]	@ movhi
 825:.\Generated_Source\PSoC5/TFTSHIELD_1.c ****     dy12 = y2 - y1,
 3193              		.loc 1 825 0
 3194 013a BA8D     		ldrh	r2, [r7, #44]
 3195 013c 3B88     		ldrh	r3, [r7, #0]
 3196 013e D31A     		subs	r3, r2, r3
 3197 0140 9BB2     		uxth	r3, r3
 3198 0142 3B81     		strh	r3, [r7, #8]	@ movhi
 826:.\Generated_Source\PSoC5/TFTSHIELD_1.c ****     sa   = 0,
 3199              		.loc 1 826 0
 3200 0144 4FF00003 		mov	r3, #0
 3201 0148 FB82     		strh	r3, [r7, #22]	@ movhi
 827:.\Generated_Source\PSoC5/TFTSHIELD_1.c ****     sb   = 0;
 3202              		.loc 1 827 0
 3203 014a 4FF00003 		mov	r3, #0
 3204 014e BB82     		strh	r3, [r7, #20]	@ movhi
 828:.\Generated_Source\PSoC5/TFTSHIELD_1.c **** 
ARM GAS  C:\Users\Brian\AppData\Local\Temp\ccPAhBxt.s 			page 72


 829:.\Generated_Source\PSoC5/TFTSHIELD_1.c ****   // For upper part of triangle, find scanline crossings for segments
 830:.\Generated_Source\PSoC5/TFTSHIELD_1.c ****   // 0-1 and 0-2.  If y1=y2 (flat-bottomed triangle), the scanline y1
 831:.\Generated_Source\PSoC5/TFTSHIELD_1.c ****   // is included here (and second loop will be skipped, avoiding a /0
 832:.\Generated_Source\PSoC5/TFTSHIELD_1.c ****   // error there), otherwise scanline y1 is skipped here and handled
 833:.\Generated_Source\PSoC5/TFTSHIELD_1.c ****   // in the second loop...which also avoids a /0 error here if y0=y1
 834:.\Generated_Source\PSoC5/TFTSHIELD_1.c ****   // (flat-topped triangle).
 835:.\Generated_Source\PSoC5/TFTSHIELD_1.c ****   if(y1 == y2) last = y1;   // Include y1 scanline
 3205              		.loc 1 835 0
 3206 0150 B7F90020 		ldrsh	r2, [r7, #0]
 3207 0154 B7F92C30 		ldrsh	r3, [r7, #44]
 3208 0158 9A42     		cmp	r2, r3
 3209 015a 02D1     		bne	.L67
 3210              		.loc 1 835 0 is_stmt 0 discriminator 1
 3211 015c 3B88     		ldrh	r3, [r7, #0]	@ movhi
 3212 015e 3B83     		strh	r3, [r7, #24]	@ movhi
 3213 0160 04E0     		b	.L68
 3214              	.L67:
 836:.\Generated_Source\PSoC5/TFTSHIELD_1.c ****   else         last = y1-1; // Skip it
 3215              		.loc 1 836 0 is_stmt 1
 3216 0162 3B88     		ldrh	r3, [r7, #0]
 3217 0164 03F1FF33 		add	r3, r3, #-1
 3218 0168 9BB2     		uxth	r3, r3
 3219 016a 3B83     		strh	r3, [r7, #24]	@ movhi
 3220              	.L68:
 837:.\Generated_Source\PSoC5/TFTSHIELD_1.c **** 
 838:.\Generated_Source\PSoC5/TFTSHIELD_1.c ****   for(y=y0; y<=last; y++) {
 3221              		.loc 1 838 0
 3222 016c BB88     		ldrh	r3, [r7, #4]	@ movhi
 3223 016e 7B83     		strh	r3, [r7, #26]	@ movhi
 3224 0170 3FE0     		b	.L69
 3225              	.L71:
 3226              	.LBB7:
 839:.\Generated_Source\PSoC5/TFTSHIELD_1.c ****         a   = x0 + sa / dy01;
 3227              		.loc 1 839 0
 3228 0172 B7F91620 		ldrsh	r2, [r7, #22]
 3229 0176 B7F91030 		ldrsh	r3, [r7, #16]
 3230 017a 92FBF3F3 		sdiv	r3, r2, r3
 3231 017e 9AB2     		uxth	r2, r3
 3232 0180 FB88     		ldrh	r3, [r7, #6]
 3233 0182 D318     		adds	r3, r2, r3
 3234 0184 9BB2     		uxth	r3, r3
 3235 0186 FB83     		strh	r3, [r7, #30]	@ movhi
 840:.\Generated_Source\PSoC5/TFTSHIELD_1.c ****         b   = x0 + sb / dy02;
 3236              		.loc 1 840 0
 3237 0188 B7F91420 		ldrsh	r2, [r7, #20]
 3238 018c B7F90C30 		ldrsh	r3, [r7, #12]
 3239 0190 92FBF3F3 		sdiv	r3, r2, r3
 3240 0194 9AB2     		uxth	r2, r3
 3241 0196 FB88     		ldrh	r3, [r7, #6]
 3242 0198 D318     		adds	r3, r2, r3
 3243 019a 9BB2     		uxth	r3, r3
 3244 019c BB83     		strh	r3, [r7, #28]	@ movhi
 841:.\Generated_Source\PSoC5/TFTSHIELD_1.c ****         sa += dx01;
 3245              		.loc 1 841 0
 3246 019e FA8A     		ldrh	r2, [r7, #22]
 3247 01a0 7B8A     		ldrh	r3, [r7, #18]
 3248 01a2 D318     		adds	r3, r2, r3
ARM GAS  C:\Users\Brian\AppData\Local\Temp\ccPAhBxt.s 			page 73


 3249 01a4 9BB2     		uxth	r3, r3
 3250 01a6 FB82     		strh	r3, [r7, #22]	@ movhi
 842:.\Generated_Source\PSoC5/TFTSHIELD_1.c ****         sb += dx02;
 3251              		.loc 1 842 0
 3252 01a8 BA8A     		ldrh	r2, [r7, #20]
 3253 01aa FB89     		ldrh	r3, [r7, #14]
 3254 01ac D318     		adds	r3, r2, r3
 3255 01ae 9BB2     		uxth	r3, r3
 3256 01b0 BB82     		strh	r3, [r7, #20]	@ movhi
 843:.\Generated_Source\PSoC5/TFTSHIELD_1.c ****         /* longhand:
 844:.\Generated_Source\PSoC5/TFTSHIELD_1.c ****         a = x0 + (x1 - x0) * (y - y0) / (y1 - y0);
 845:.\Generated_Source\PSoC5/TFTSHIELD_1.c ****         b = x0 + (x2 - x0) * (y - y0) / (y2 - y0);
 846:.\Generated_Source\PSoC5/TFTSHIELD_1.c ****         */
 847:.\Generated_Source\PSoC5/TFTSHIELD_1.c ****         if(a > b) swap(a,b);
 3257              		.loc 1 847 0
 3258 01b2 B7F91E20 		ldrsh	r2, [r7, #30]
 3259 01b6 B7F91C30 		ldrsh	r3, [r7, #28]
 3260 01ba 9A42     		cmp	r2, r3
 3261 01bc 07DD     		ble	.L70
 3262              		.loc 1 847 0 is_stmt 0 discriminator 1
 3263 01be B7F91E20 		ldrsh	r2, [r7, #30]
 3264 01c2 B7F91C30 		ldrsh	r3, [r7, #28]
 3265 01c6 1046     		mov	r0, r2
 3266 01c8 1946     		mov	r1, r3
 3267 01ca FFF7FEFF 		bl	swap
 3268              	.L70:
 848:.\Generated_Source\PSoC5/TFTSHIELD_1.c ****         TFTSHIELD_1DrawLine(a, y, b-a+1, color);
 3269              		.loc 1 848 0 is_stmt 1
 3270 01ce B7F91E00 		ldrsh	r0, [r7, #30]
 3271 01d2 B7F91A10 		ldrsh	r1, [r7, #26]
 3272 01d6 B7F91C20 		ldrsh	r2, [r7, #28]
 3273 01da B7F91E30 		ldrsh	r3, [r7, #30]
 3274 01de D31A     		subs	r3, r2, r3
 3275 01e0 03F10102 		add	r2, r3, #1
 3276 01e4 3B8E     		ldrh	r3, [r7, #48]
 3277 01e6 FFF7FEFF 		bl	TFTSHIELD_1DrawLine
 3278              	.LBE7:
 838:.\Generated_Source\PSoC5/TFTSHIELD_1.c ****   for(y=y0; y<=last; y++) {
 3279              		.loc 1 838 0
 3280 01ea 7B8B     		ldrh	r3, [r7, #26]	@ movhi
 3281 01ec 03F10103 		add	r3, r3, #1
 3282 01f0 7B83     		strh	r3, [r7, #26]	@ movhi
 3283              	.L69:
 838:.\Generated_Source\PSoC5/TFTSHIELD_1.c ****   for(y=y0; y<=last; y++) {
 3284              		.loc 1 838 0 is_stmt 0 discriminator 1
 3285 01f2 B7F91A20 		ldrsh	r2, [r7, #26]
 3286 01f6 B7F91830 		ldrsh	r3, [r7, #24]
 3287 01fa 9A42     		cmp	r2, r3
 3288 01fc B9DD     		ble	.L71
 3289              	.L57:
 849:.\Generated_Source\PSoC5/TFTSHIELD_1.c ****     }
 850:.\Generated_Source\PSoC5/TFTSHIELD_1.c **** }
 3290              		.loc 1 850 0 is_stmt 1
 3291 01fe 07F12007 		add	r7, r7, #32
 3292 0202 BD46     		mov	sp, r7
 3293 0204 80BD     		pop	{r7, pc}
 3294              		.cfi_endproc
ARM GAS  C:\Users\Brian\AppData\Local\Temp\ccPAhBxt.s 			page 74


 3295              	.LFE21:
 3296              		.size	TFTSHIELD_1_FillTriangle, .-TFTSHIELD_1_FillTriangle
 3297 0206 00BF     		.section	.text.TFTSHIELD_1_DrawRoundRect,"ax",%progbits
 3298              		.align	2
 3299              		.global	TFTSHIELD_1_DrawRoundRect
 3300              		.thumb
 3301              		.thumb_func
 3302              		.type	TFTSHIELD_1_DrawRoundRect, %function
 3303              	TFTSHIELD_1_DrawRoundRect:
 3304              	.LFB22:
 851:.\Generated_Source\PSoC5/TFTSHIELD_1.c **** 
 852:.\Generated_Source\PSoC5/TFTSHIELD_1.c **** /**************************************************************************//**
 853:.\Generated_Source\PSoC5/TFTSHIELD_1.c **** *  @brief Draws a rectangle outline with rounded corners
 854:.\Generated_Source\PSoC5/TFTSHIELD_1.c **** *
 855:.\Generated_Source\PSoC5/TFTSHIELD_1.c **** *  @param x: The x coordinate
 856:.\Generated_Source\PSoC5/TFTSHIELD_1.c **** *  @param y: The y coordinate
 857:.\Generated_Source\PSoC5/TFTSHIELD_1.c **** *  @param w: The width
 858:.\Generated_Source\PSoC5/TFTSHIELD_1.c **** *  @param h: The height
 859:.\Generated_Source\PSoC5/TFTSHIELD_1.c **** *  @param r: The radius of the rounded corners
 860:.\Generated_Source\PSoC5/TFTSHIELD_1.c **** *  @param color: The color of the rectangle
 861:.\Generated_Source\PSoC5/TFTSHIELD_1.c **** *
 862:.\Generated_Source\PSoC5/TFTSHIELD_1.c **** *******************************************************************************/
 863:.\Generated_Source\PSoC5/TFTSHIELD_1.c **** void TFTSHIELD_1_DrawRoundRect(int16_t x, int16_t y, int16_t w, int16_t h,
 864:.\Generated_Source\PSoC5/TFTSHIELD_1.c ****       int16_t r, uint16_t color)
 865:.\Generated_Source\PSoC5/TFTSHIELD_1.c **** {
 3305              		.loc 1 865 0
 3306              		.cfi_startproc
 3307              		@ args = 8, pretend = 0, frame = 8
 3308              		@ frame_needed = 1, uses_anonymous_args = 0
 3309 0000 90B5     		push	{r4, r7, lr}
 3310              	.LCFI65:
 3311              		.cfi_def_cfa_offset 12
 3312              		.cfi_offset 4, -12
 3313              		.cfi_offset 7, -8
 3314              		.cfi_offset 14, -4
 3315 0002 85B0     		sub	sp, sp, #20
 3316              	.LCFI66:
 3317              		.cfi_def_cfa_offset 32
 3318 0004 02AF     		add	r7, sp, #8
 3319              	.LCFI67:
 3320              		.cfi_def_cfa 7, 24
 3321 0006 F880     		strh	r0, [r7, #6]	@ movhi
 3322 0008 B980     		strh	r1, [r7, #4]	@ movhi
 3323 000a 7A80     		strh	r2, [r7, #2]	@ movhi
 3324 000c 3B80     		strh	r3, [r7, #0]	@ movhi
 866:.\Generated_Source\PSoC5/TFTSHIELD_1.c ****     // smarter version
 867:.\Generated_Source\PSoC5/TFTSHIELD_1.c ****   TFTSHIELD_1DrawLine(x+r  , y    , w-2*r, color); // Top
 3325              		.loc 1 867 0
 3326 000e B7F90620 		ldrsh	r2, [r7, #6]
 3327 0012 B7F91830 		ldrsh	r3, [r7, #24]
 3328 0016 D018     		adds	r0, r2, r3
 3329 0018 B7F90410 		ldrsh	r1, [r7, #4]
 3330 001c B7F90240 		ldrsh	r4, [r7, #2]
 3331 0020 B7F91820 		ldrsh	r2, [r7, #24]
 3332 0024 1346     		mov	r3, r2
 3333 0026 4FEAC373 		lsl	r3, r3, #31
 3334 002a 9B1A     		subs	r3, r3, r2
ARM GAS  C:\Users\Brian\AppData\Local\Temp\ccPAhBxt.s 			page 75


 3335 002c 4FEA4303 		lsl	r3, r3, #1
 3336 0030 E218     		adds	r2, r4, r3
 3337 0032 BB8B     		ldrh	r3, [r7, #28]
 3338 0034 FFF7FEFF 		bl	TFTSHIELD_1DrawLine
 868:.\Generated_Source\PSoC5/TFTSHIELD_1.c ****   TFTSHIELD_1DrawLine(x+r  , y+h-1, w-2*r, color); // Bottom
 3339              		.loc 1 868 0
 3340 0038 B7F90620 		ldrsh	r2, [r7, #6]
 3341 003c B7F91830 		ldrsh	r3, [r7, #24]
 3342 0040 D018     		adds	r0, r2, r3
 3343 0042 B7F90420 		ldrsh	r2, [r7, #4]
 3344 0046 B7F90030 		ldrsh	r3, [r7, #0]
 3345 004a D318     		adds	r3, r2, r3
 3346 004c 03F1FF31 		add	r1, r3, #-1
 3347 0050 B7F90240 		ldrsh	r4, [r7, #2]
 3348 0054 B7F91820 		ldrsh	r2, [r7, #24]
 3349 0058 1346     		mov	r3, r2
 3350 005a 4FEAC373 		lsl	r3, r3, #31
 3351 005e 9B1A     		subs	r3, r3, r2
 3352 0060 4FEA4303 		lsl	r3, r3, #1
 3353 0064 E218     		adds	r2, r4, r3
 3354 0066 BB8B     		ldrh	r3, [r7, #28]
 3355 0068 FFF7FEFF 		bl	TFTSHIELD_1DrawLine
 869:.\Generated_Source\PSoC5/TFTSHIELD_1.c ****   TFTSHIELD_1DrawLine(x    , y+r  , h-2*r, color); // Left
 3356              		.loc 1 869 0
 3357 006c B7F90600 		ldrsh	r0, [r7, #6]
 3358 0070 B7F90420 		ldrsh	r2, [r7, #4]
 3359 0074 B7F91830 		ldrsh	r3, [r7, #24]
 3360 0078 D118     		adds	r1, r2, r3
 3361 007a B7F90040 		ldrsh	r4, [r7, #0]
 3362 007e B7F91820 		ldrsh	r2, [r7, #24]
 3363 0082 1346     		mov	r3, r2
 3364 0084 4FEAC373 		lsl	r3, r3, #31
 3365 0088 9B1A     		subs	r3, r3, r2
 3366 008a 4FEA4303 		lsl	r3, r3, #1
 3367 008e E218     		adds	r2, r4, r3
 3368 0090 BB8B     		ldrh	r3, [r7, #28]
 3369 0092 FFF7FEFF 		bl	TFTSHIELD_1DrawLine
 870:.\Generated_Source\PSoC5/TFTSHIELD_1.c ****   TFTSHIELD_1DrawLine(x+w-1, y+r  , h-2*r, color); // Right
 3370              		.loc 1 870 0
 3371 0096 B7F90620 		ldrsh	r2, [r7, #6]
 3372 009a B7F90230 		ldrsh	r3, [r7, #2]
 3373 009e D318     		adds	r3, r2, r3
 3374 00a0 03F1FF30 		add	r0, r3, #-1
 3375 00a4 B7F90420 		ldrsh	r2, [r7, #4]
 3376 00a8 B7F91830 		ldrsh	r3, [r7, #24]
 3377 00ac D118     		adds	r1, r2, r3
 3378 00ae B7F90040 		ldrsh	r4, [r7, #0]
 3379 00b2 B7F91820 		ldrsh	r2, [r7, #24]
 3380 00b6 1346     		mov	r3, r2
 3381 00b8 4FEAC373 		lsl	r3, r3, #31
 3382 00bc 9B1A     		subs	r3, r3, r2
 3383 00be 4FEA4303 		lsl	r3, r3, #1
 3384 00c2 E218     		adds	r2, r4, r3
 3385 00c4 BB8B     		ldrh	r3, [r7, #28]
 3386 00c6 FFF7FEFF 		bl	TFTSHIELD_1DrawLine
 871:.\Generated_Source\PSoC5/TFTSHIELD_1.c ****   // draw four corners
 872:.\Generated_Source\PSoC5/TFTSHIELD_1.c ****   TFTSHIELD_1_DrawCircleHelper(x+r    , y+r    , r, 1, color);
ARM GAS  C:\Users\Brian\AppData\Local\Temp\ccPAhBxt.s 			page 76


 3387              		.loc 1 872 0
 3388 00ca FA88     		ldrh	r2, [r7, #6]
 3389 00cc 3B8B     		ldrh	r3, [r7, #24]
 3390 00ce D318     		adds	r3, r2, r3
 3391 00d0 9BB2     		uxth	r3, r3
 3392 00d2 9AB2     		uxth	r2, r3
 3393 00d4 B988     		ldrh	r1, [r7, #4]
 3394 00d6 3B8B     		ldrh	r3, [r7, #24]
 3395 00d8 CB18     		adds	r3, r1, r3
 3396 00da 9BB2     		uxth	r3, r3
 3397 00dc 9BB2     		uxth	r3, r3
 3398 00de 11B2     		sxth	r1, r2
 3399 00e0 1AB2     		sxth	r2, r3
 3400 00e2 B7F91830 		ldrsh	r3, [r7, #24]
 3401 00e6 B88B     		ldrh	r0, [r7, #28]
 3402 00e8 0090     		str	r0, [sp, #0]
 3403 00ea 0846     		mov	r0, r1
 3404 00ec 1146     		mov	r1, r2
 3405 00ee 1A46     		mov	r2, r3
 3406 00f0 4FF00103 		mov	r3, #1
 3407 00f4 FFF7FEFF 		bl	TFTSHIELD_1_DrawCircleHelper
 873:.\Generated_Source\PSoC5/TFTSHIELD_1.c ****   TFTSHIELD_1_DrawCircleHelper(x+w-r-1, y+r    , r, 2, color);
 3408              		.loc 1 873 0
 3409 00f8 FA88     		ldrh	r2, [r7, #6]
 3410 00fa 7B88     		ldrh	r3, [r7, #2]
 3411 00fc D318     		adds	r3, r2, r3
 3412 00fe 9AB2     		uxth	r2, r3
 3413 0100 3B8B     		ldrh	r3, [r7, #24]
 3414 0102 D31A     		subs	r3, r2, r3
 3415 0104 9BB2     		uxth	r3, r3
 3416 0106 03F1FF33 		add	r3, r3, #-1
 3417 010a 9BB2     		uxth	r3, r3
 3418 010c 9AB2     		uxth	r2, r3
 3419 010e B988     		ldrh	r1, [r7, #4]
 3420 0110 3B8B     		ldrh	r3, [r7, #24]
 3421 0112 CB18     		adds	r3, r1, r3
 3422 0114 9BB2     		uxth	r3, r3
 3423 0116 9BB2     		uxth	r3, r3
 3424 0118 11B2     		sxth	r1, r2
 3425 011a 1AB2     		sxth	r2, r3
 3426 011c B7F91830 		ldrsh	r3, [r7, #24]
 3427 0120 B88B     		ldrh	r0, [r7, #28]
 3428 0122 0090     		str	r0, [sp, #0]
 3429 0124 0846     		mov	r0, r1
 3430 0126 1146     		mov	r1, r2
 3431 0128 1A46     		mov	r2, r3
 3432 012a 4FF00203 		mov	r3, #2
 3433 012e FFF7FEFF 		bl	TFTSHIELD_1_DrawCircleHelper
 874:.\Generated_Source\PSoC5/TFTSHIELD_1.c ****   TFTSHIELD_1_DrawCircleHelper(x+w-r-1, y+h-r-1, r, 4, color);
 3434              		.loc 1 874 0
 3435 0132 FA88     		ldrh	r2, [r7, #6]
 3436 0134 7B88     		ldrh	r3, [r7, #2]
 3437 0136 D318     		adds	r3, r2, r3
 3438 0138 9AB2     		uxth	r2, r3
 3439 013a 3B8B     		ldrh	r3, [r7, #24]
 3440 013c D31A     		subs	r3, r2, r3
 3441 013e 9BB2     		uxth	r3, r3
ARM GAS  C:\Users\Brian\AppData\Local\Temp\ccPAhBxt.s 			page 77


 3442 0140 03F1FF33 		add	r3, r3, #-1
 3443 0144 9BB2     		uxth	r3, r3
 3444 0146 9AB2     		uxth	r2, r3
 3445 0148 B988     		ldrh	r1, [r7, #4]
 3446 014a 3B88     		ldrh	r3, [r7, #0]
 3447 014c CB18     		adds	r3, r1, r3
 3448 014e 99B2     		uxth	r1, r3
 3449 0150 3B8B     		ldrh	r3, [r7, #24]
 3450 0152 CB1A     		subs	r3, r1, r3
 3451 0154 9BB2     		uxth	r3, r3
 3452 0156 03F1FF33 		add	r3, r3, #-1
 3453 015a 9BB2     		uxth	r3, r3
 3454 015c 9BB2     		uxth	r3, r3
 3455 015e 11B2     		sxth	r1, r2
 3456 0160 1AB2     		sxth	r2, r3
 3457 0162 B7F91830 		ldrsh	r3, [r7, #24]
 3458 0166 B88B     		ldrh	r0, [r7, #28]
 3459 0168 0090     		str	r0, [sp, #0]
 3460 016a 0846     		mov	r0, r1
 3461 016c 1146     		mov	r1, r2
 3462 016e 1A46     		mov	r2, r3
 3463 0170 4FF00403 		mov	r3, #4
 3464 0174 FFF7FEFF 		bl	TFTSHIELD_1_DrawCircleHelper
 875:.\Generated_Source\PSoC5/TFTSHIELD_1.c ****   TFTSHIELD_1_DrawCircleHelper(x+r    , y+h-r-1, r, 8, color);
 3465              		.loc 1 875 0
 3466 0178 FA88     		ldrh	r2, [r7, #6]
 3467 017a 3B8B     		ldrh	r3, [r7, #24]
 3468 017c D318     		adds	r3, r2, r3
 3469 017e 9BB2     		uxth	r3, r3
 3470 0180 9AB2     		uxth	r2, r3
 3471 0182 B988     		ldrh	r1, [r7, #4]
 3472 0184 3B88     		ldrh	r3, [r7, #0]
 3473 0186 CB18     		adds	r3, r1, r3
 3474 0188 99B2     		uxth	r1, r3
 3475 018a 3B8B     		ldrh	r3, [r7, #24]
 3476 018c CB1A     		subs	r3, r1, r3
 3477 018e 9BB2     		uxth	r3, r3
 3478 0190 03F1FF33 		add	r3, r3, #-1
 3479 0194 9BB2     		uxth	r3, r3
 3480 0196 9BB2     		uxth	r3, r3
 3481 0198 11B2     		sxth	r1, r2
 3482 019a 1AB2     		sxth	r2, r3
 3483 019c B7F91830 		ldrsh	r3, [r7, #24]
 3484 01a0 B88B     		ldrh	r0, [r7, #28]
 3485 01a2 0090     		str	r0, [sp, #0]
 3486 01a4 0846     		mov	r0, r1
 3487 01a6 1146     		mov	r1, r2
 3488 01a8 1A46     		mov	r2, r3
 3489 01aa 4FF00803 		mov	r3, #8
 3490 01ae FFF7FEFF 		bl	TFTSHIELD_1_DrawCircleHelper
 876:.\Generated_Source\PSoC5/TFTSHIELD_1.c **** }
 3491              		.loc 1 876 0
 3492 01b2 07F10C07 		add	r7, r7, #12
 3493 01b6 BD46     		mov	sp, r7
 3494 01b8 90BD     		pop	{r4, r7, pc}
 3495              		.cfi_endproc
 3496              	.LFE22:
ARM GAS  C:\Users\Brian\AppData\Local\Temp\ccPAhBxt.s 			page 78


 3497              		.size	TFTSHIELD_1_DrawRoundRect, .-TFTSHIELD_1_DrawRoundRect
 3498 01ba 00BF     		.section	.text.TFTSHIELD_1_FillRoundRect,"ax",%progbits
 3499              		.align	2
 3500              		.global	TFTSHIELD_1_FillRoundRect
 3501              		.thumb
 3502              		.thumb_func
 3503              		.type	TFTSHIELD_1_FillRoundRect, %function
 3504              	TFTSHIELD_1_FillRoundRect:
 3505              	.LFB23:
 877:.\Generated_Source\PSoC5/TFTSHIELD_1.c **** 
 878:.\Generated_Source\PSoC5/TFTSHIELD_1.c **** /**************************************************************************//**
 879:.\Generated_Source\PSoC5/TFTSHIELD_1.c **** *  @brief Draws a rectangle filled with the specified color and with rounded corners
 880:.\Generated_Source\PSoC5/TFTSHIELD_1.c **** *
 881:.\Generated_Source\PSoC5/TFTSHIELD_1.c **** *  @param x: The x coordinate
 882:.\Generated_Source\PSoC5/TFTSHIELD_1.c **** *  @param y: The y coordinate
 883:.\Generated_Source\PSoC5/TFTSHIELD_1.c **** *  @param w: The width
 884:.\Generated_Source\PSoC5/TFTSHIELD_1.c **** *  @param h: The height
 885:.\Generated_Source\PSoC5/TFTSHIELD_1.c **** *  @param r: The radius of the rounded corners
 886:.\Generated_Source\PSoC5/TFTSHIELD_1.c **** *  @param color: The color of the rectangle
 887:.\Generated_Source\PSoC5/TFTSHIELD_1.c **** *
 888:.\Generated_Source\PSoC5/TFTSHIELD_1.c **** *******************************************************************************/
 889:.\Generated_Source\PSoC5/TFTSHIELD_1.c **** void TFTSHIELD_1_FillRoundRect(int16_t x, int16_t y, int16_t w, int16_t h,
 890:.\Generated_Source\PSoC5/TFTSHIELD_1.c ****       int16_t r, uint16_t color)
 891:.\Generated_Source\PSoC5/TFTSHIELD_1.c **** {
 3506              		.loc 1 891 0
 3507              		.cfi_startproc
 3508              		@ args = 8, pretend = 0, frame = 8
 3509              		@ frame_needed = 1, uses_anonymous_args = 0
 3510 0000 90B5     		push	{r4, r7, lr}
 3511              	.LCFI68:
 3512              		.cfi_def_cfa_offset 12
 3513              		.cfi_offset 4, -12
 3514              		.cfi_offset 7, -8
 3515              		.cfi_offset 14, -4
 3516 0002 85B0     		sub	sp, sp, #20
 3517              	.LCFI69:
 3518              		.cfi_def_cfa_offset 32
 3519 0004 02AF     		add	r7, sp, #8
 3520              	.LCFI70:
 3521              		.cfi_def_cfa 7, 24
 3522 0006 F880     		strh	r0, [r7, #6]	@ movhi
 3523 0008 B980     		strh	r1, [r7, #4]	@ movhi
 3524 000a 7A80     		strh	r2, [r7, #2]	@ movhi
 3525 000c 3B80     		strh	r3, [r7, #0]	@ movhi
 892:.\Generated_Source\PSoC5/TFTSHIELD_1.c ****     // smarter version
 893:.\Generated_Source\PSoC5/TFTSHIELD_1.c ****   TFTSHIELD_1_FillRect(x+r, y, w-2*r, h, color);
 3526              		.loc 1 893 0
 3527 000e FA88     		ldrh	r2, [r7, #6]
 3528 0010 3B8B     		ldrh	r3, [r7, #24]
 3529 0012 D318     		adds	r3, r2, r3
 3530 0014 9BB2     		uxth	r3, r3
 3531 0016 9AB2     		uxth	r2, r3
 3532 0018 3B8B     		ldrh	r3, [r7, #24]
 3533 001a 1946     		mov	r1, r3	@ movhi
 3534 001c 4FEAC131 		lsl	r1, r1, #15
 3535 0020 CB1A     		subs	r3, r1, r3
 3536 0022 4FEA4303 		lsl	r3, r3, #1
ARM GAS  C:\Users\Brian\AppData\Local\Temp\ccPAhBxt.s 			page 79


 3537 0026 99B2     		uxth	r1, r3
 3538 0028 7B88     		ldrh	r3, [r7, #2]
 3539 002a CB18     		adds	r3, r1, r3
 3540 002c 9BB2     		uxth	r3, r3
 3541 002e 9BB2     		uxth	r3, r3
 3542 0030 10B2     		sxth	r0, r2
 3543 0032 B7F90410 		ldrsh	r1, [r7, #4]
 3544 0036 1AB2     		sxth	r2, r3
 3545 0038 B7F90030 		ldrsh	r3, [r7, #0]
 3546 003c BC8B     		ldrh	r4, [r7, #28]
 3547 003e 0094     		str	r4, [sp, #0]
 3548 0040 FFF7FEFF 		bl	TFTSHIELD_1_FillRect
 894:.\Generated_Source\PSoC5/TFTSHIELD_1.c **** 
 895:.\Generated_Source\PSoC5/TFTSHIELD_1.c ****   // draw four corners
 896:.\Generated_Source\PSoC5/TFTSHIELD_1.c ****   TFTSHIELD_1_FillCircleHelper(x+w-r-1, y+r, r, 1, h-2*r-1, color);
 3549              		.loc 1 896 0
 3550 0044 FA88     		ldrh	r2, [r7, #6]
 3551 0046 7B88     		ldrh	r3, [r7, #2]
 3552 0048 D318     		adds	r3, r2, r3
 3553 004a 9AB2     		uxth	r2, r3
 3554 004c 3B8B     		ldrh	r3, [r7, #24]
 3555 004e D31A     		subs	r3, r2, r3
 3556 0050 9BB2     		uxth	r3, r3
 3557 0052 03F1FF33 		add	r3, r3, #-1
 3558 0056 9BB2     		uxth	r3, r3
 3559 0058 99B2     		uxth	r1, r3
 3560 005a BA88     		ldrh	r2, [r7, #4]
 3561 005c 3B8B     		ldrh	r3, [r7, #24]
 3562 005e D318     		adds	r3, r2, r3
 3563 0060 9BB2     		uxth	r3, r3
 3564 0062 9AB2     		uxth	r2, r3
 3565 0064 3B8B     		ldrh	r3, [r7, #24]
 3566 0066 1846     		mov	r0, r3	@ movhi
 3567 0068 4FEAC030 		lsl	r0, r0, #15
 3568 006c C31A     		subs	r3, r0, r3
 3569 006e 4FEA4303 		lsl	r3, r3, #1
 3570 0072 98B2     		uxth	r0, r3
 3571 0074 3B88     		ldrh	r3, [r7, #0]
 3572 0076 C318     		adds	r3, r0, r3
 3573 0078 9BB2     		uxth	r3, r3
 3574 007a 03F1FF33 		add	r3, r3, #-1
 3575 007e 9BB2     		uxth	r3, r3
 3576 0080 98B2     		uxth	r0, r3
 3577 0082 09B2     		sxth	r1, r1
 3578 0084 12B2     		sxth	r2, r2
 3579 0086 B7F91830 		ldrsh	r3, [r7, #24]
 3580 008a 00B2     		sxth	r0, r0
 3581 008c 0090     		str	r0, [sp, #0]
 3582 008e B88B     		ldrh	r0, [r7, #28]
 3583 0090 0190     		str	r0, [sp, #4]
 3584 0092 0846     		mov	r0, r1
 3585 0094 1146     		mov	r1, r2
 3586 0096 1A46     		mov	r2, r3
 3587 0098 4FF00103 		mov	r3, #1
 3588 009c FFF7FEFF 		bl	TFTSHIELD_1_FillCircleHelper
 897:.\Generated_Source\PSoC5/TFTSHIELD_1.c ****   TFTSHIELD_1_FillCircleHelper(x+r    , y+r, r, 2, h-2*r-1, color);
 3589              		.loc 1 897 0
ARM GAS  C:\Users\Brian\AppData\Local\Temp\ccPAhBxt.s 			page 80


 3590 00a0 FA88     		ldrh	r2, [r7, #6]
 3591 00a2 3B8B     		ldrh	r3, [r7, #24]
 3592 00a4 D318     		adds	r3, r2, r3
 3593 00a6 9BB2     		uxth	r3, r3
 3594 00a8 99B2     		uxth	r1, r3
 3595 00aa BA88     		ldrh	r2, [r7, #4]
 3596 00ac 3B8B     		ldrh	r3, [r7, #24]
 3597 00ae D318     		adds	r3, r2, r3
 3598 00b0 9BB2     		uxth	r3, r3
 3599 00b2 9AB2     		uxth	r2, r3
 3600 00b4 3B8B     		ldrh	r3, [r7, #24]
 3601 00b6 1846     		mov	r0, r3	@ movhi
 3602 00b8 4FEAC030 		lsl	r0, r0, #15
 3603 00bc C31A     		subs	r3, r0, r3
 3604 00be 4FEA4303 		lsl	r3, r3, #1
 3605 00c2 98B2     		uxth	r0, r3
 3606 00c4 3B88     		ldrh	r3, [r7, #0]
 3607 00c6 C318     		adds	r3, r0, r3
 3608 00c8 9BB2     		uxth	r3, r3
 3609 00ca 03F1FF33 		add	r3, r3, #-1
 3610 00ce 9BB2     		uxth	r3, r3
 3611 00d0 98B2     		uxth	r0, r3
 3612 00d2 09B2     		sxth	r1, r1
 3613 00d4 12B2     		sxth	r2, r2
 3614 00d6 B7F91830 		ldrsh	r3, [r7, #24]
 3615 00da 00B2     		sxth	r0, r0
 3616 00dc 0090     		str	r0, [sp, #0]
 3617 00de B88B     		ldrh	r0, [r7, #28]
 3618 00e0 0190     		str	r0, [sp, #4]
 3619 00e2 0846     		mov	r0, r1
 3620 00e4 1146     		mov	r1, r2
 3621 00e6 1A46     		mov	r2, r3
 3622 00e8 4FF00203 		mov	r3, #2
 3623 00ec FFF7FEFF 		bl	TFTSHIELD_1_FillCircleHelper
 898:.\Generated_Source\PSoC5/TFTSHIELD_1.c **** }
 3624              		.loc 1 898 0
 3625 00f0 07F10C07 		add	r7, r7, #12
 3626 00f4 BD46     		mov	sp, r7
 3627 00f6 90BD     		pop	{r4, r7, pc}
 3628              		.cfi_endproc
 3629              	.LFE23:
 3630              		.size	TFTSHIELD_1_FillRoundRect, .-TFTSHIELD_1_FillRoundRect
 3631              		.section	.text.TFTSHIELD_1_Print,"ax",%progbits
 3632              		.align	2
 3633              		.global	TFTSHIELD_1_Print
 3634              		.thumb
 3635              		.thumb_func
 3636              		.type	TFTSHIELD_1_Print, %function
 3637              	TFTSHIELD_1_Print:
 3638              	.LFB24:
 899:.\Generated_Source\PSoC5/TFTSHIELD_1.c **** 
 900:.\Generated_Source\PSoC5/TFTSHIELD_1.c **** 
 901:.\Generated_Source\PSoC5/TFTSHIELD_1.c **** /**************************************************************************//**
 902:.\Generated_Source\PSoC5/TFTSHIELD_1.c **** *  @brief Prints a string of ascii txt
 903:.\Generated_Source\PSoC5/TFTSHIELD_1.c **** *
 904:.\Generated_Source\PSoC5/TFTSHIELD_1.c **** *  @param string: The string to print
 905:.\Generated_Source\PSoC5/TFTSHIELD_1.c **** *
ARM GAS  C:\Users\Brian\AppData\Local\Temp\ccPAhBxt.s 			page 81


 906:.\Generated_Source\PSoC5/TFTSHIELD_1.c **** *******************************************************************************/
 907:.\Generated_Source\PSoC5/TFTSHIELD_1.c **** void TFTSHIELD_1_Print(char8 const string[]) 
 908:.\Generated_Source\PSoC5/TFTSHIELD_1.c **** {
 3639              		.loc 1 908 0
 3640              		.cfi_startproc
 3641              		@ args = 0, pretend = 0, frame = 16
 3642              		@ frame_needed = 1, uses_anonymous_args = 0
 3643 0000 80B5     		push	{r7, lr}
 3644              	.LCFI71:
 3645              		.cfi_def_cfa_offset 8
 3646              		.cfi_offset 7, -8
 3647              		.cfi_offset 14, -4
 3648 0002 84B0     		sub	sp, sp, #16
 3649              	.LCFI72:
 3650              		.cfi_def_cfa_offset 24
 3651 0004 00AF     		add	r7, sp, #0
 3652              	.LCFI73:
 3653              		.cfi_def_cfa_register 7
 3654 0006 7860     		str	r0, [r7, #4]
 909:.\Generated_Source\PSoC5/TFTSHIELD_1.c ****     uint8 indexU8 = 1u;
 3655              		.loc 1 909 0
 3656 0008 4FF00103 		mov	r3, #1
 3657 000c FB73     		strb	r3, [r7, #15]
 910:.\Generated_Source\PSoC5/TFTSHIELD_1.c ****     char8 current = *string;
 3658              		.loc 1 910 0
 3659 000e 7B68     		ldr	r3, [r7, #4]
 3660 0010 1B78     		ldrb	r3, [r3, #0]
 3661 0012 BB73     		strb	r3, [r7, #14]
 911:.\Generated_Source\PSoC5/TFTSHIELD_1.c **** 
 912:.\Generated_Source\PSoC5/TFTSHIELD_1.c ****     /* Until null is reached, print next character */
 913:.\Generated_Source\PSoC5/TFTSHIELD_1.c ****     while((char8) '\0' != current)
 3662              		.loc 1 913 0
 3663 0014 0CE0     		b	.L75
 3664              	.L76:
 914:.\Generated_Source\PSoC5/TFTSHIELD_1.c ****     {
 915:.\Generated_Source\PSoC5/TFTSHIELD_1.c ****         TFTSHIELD_1_Write((uint8)current);
 3665              		.loc 1 915 0
 3666 0016 BB7B     		ldrb	r3, [r7, #14]	@ zero_extendqisi2
 3667 0018 1846     		mov	r0, r3
 3668 001a FFF7FEFF 		bl	TFTSHIELD_1_Write
 916:.\Generated_Source\PSoC5/TFTSHIELD_1.c ****         current = string[indexU8];
 3669              		.loc 1 916 0
 3670 001e FB7B     		ldrb	r3, [r7, #15]	@ zero_extendqisi2
 3671 0020 7A68     		ldr	r2, [r7, #4]
 3672 0022 D318     		adds	r3, r2, r3
 3673 0024 1B78     		ldrb	r3, [r3, #0]
 3674 0026 BB73     		strb	r3, [r7, #14]
 917:.\Generated_Source\PSoC5/TFTSHIELD_1.c ****         indexU8++;
 3675              		.loc 1 917 0
 3676 0028 FB7B     		ldrb	r3, [r7, #15]
 3677 002a 03F10103 		add	r3, r3, #1
 3678 002e FB73     		strb	r3, [r7, #15]
 3679              	.L75:
 913:.\Generated_Source\PSoC5/TFTSHIELD_1.c ****     while((char8) '\0' != current)
 3680              		.loc 1 913 0 discriminator 1
 3681 0030 BB7B     		ldrb	r3, [r7, #14]	@ zero_extendqisi2
 3682 0032 002B     		cmp	r3, #0
ARM GAS  C:\Users\Brian\AppData\Local\Temp\ccPAhBxt.s 			page 82


 3683 0034 EFD1     		bne	.L76
 918:.\Generated_Source\PSoC5/TFTSHIELD_1.c ****     }
 919:.\Generated_Source\PSoC5/TFTSHIELD_1.c **** }
 3684              		.loc 1 919 0
 3685 0036 07F11007 		add	r7, r7, #16
 3686 003a BD46     		mov	sp, r7
 3687 003c 80BD     		pop	{r7, pc}
 3688              		.cfi_endproc
 3689              	.LFE24:
 3690              		.size	TFTSHIELD_1_Print, .-TFTSHIELD_1_Print
 3691 003e 00BF     		.section	.rodata
 3692              		.align	2
 3693              	.LC0:
 3694 0300 200900   		.ascii	" \011\000"
 3695 0303 00       		.align	2
 3696              	.LC1:
 3697 0304 2000     		.ascii	" \000"
 3698 0306 0000     		.section	.text.TFTSHIELD_1_PrintString,"ax",%progbits
 3699              		.align	2
 3700              		.global	TFTSHIELD_1_PrintString
 3701              		.thumb
 3702              		.thumb_func
 3703              		.type	TFTSHIELD_1_PrintString, %function
 3704              	TFTSHIELD_1_PrintString:
 3705              	.LFB25:
 920:.\Generated_Source\PSoC5/TFTSHIELD_1.c **** 
 921:.\Generated_Source\PSoC5/TFTSHIELD_1.c **** /**************************************************************************//**
 922:.\Generated_Source\PSoC5/TFTSHIELD_1.c **** *  @brief Prints a string of ascii txt with word wrap
 923:.\Generated_Source\PSoC5/TFTSHIELD_1.c **** *
 924:.\Generated_Source\PSoC5/TFTSHIELD_1.c **** *  @param string: The string to print
 925:.\Generated_Source\PSoC5/TFTSHIELD_1.c **** *
 926:.\Generated_Source\PSoC5/TFTSHIELD_1.c **** *******************************************************************************/
 927:.\Generated_Source\PSoC5/TFTSHIELD_1.c **** void TFTSHIELD_1_PrintString(char8 string[])
 928:.\Generated_Source\PSoC5/TFTSHIELD_1.c **** {
 3706              		.loc 1 928 0
 3707              		.cfi_startproc
 3708              		@ args = 0, pretend = 0, frame = 1056
 3709              		@ frame_needed = 1, uses_anonymous_args = 0
 3710 0000 90B5     		push	{r4, r7, lr}
 3711              	.LCFI74:
 3712              		.cfi_def_cfa_offset 12
 3713              		.cfi_offset 4, -12
 3714              		.cfi_offset 7, -8
 3715              		.cfi_offset 14, -4
 3716 0002 ADF2244D 		subw	sp, sp, #1060
 3717              	.LCFI75:
 3718              		.cfi_def_cfa_offset 1072
 3719 0006 00AF     		add	r7, sp, #0
 3720              	.LCFI76:
 3721              		.cfi_def_cfa_register 7
 3722 0008 07F10403 		add	r3, r7, #4
 3723 000c 1860     		str	r0, [r3, #0]
 929:.\Generated_Source\PSoC5/TFTSHIELD_1.c **** 	char * st = string;
 3724              		.loc 1 929 0
 3725 000e 07F10403 		add	r3, r7, #4
 3726 0012 1B68     		ldr	r3, [r3, #0]
 3727 0014 C7F81434 		str	r3, [r7, #1044]
ARM GAS  C:\Users\Brian\AppData\Local\Temp\ccPAhBxt.s 			page 83


 930:.\Generated_Source\PSoC5/TFTSHIELD_1.c **** 	char temp[1024];
 931:.\Generated_Source\PSoC5/TFTSHIELD_1.c **** 	strcpy(temp,st);
 3728              		.loc 1 931 0
 3729 0018 07F10C03 		add	r3, r7, #12
 3730 001c 1846     		mov	r0, r3
 3731 001e D7F81414 		ldr	r1, [r7, #1044]
 3732 0022 FFF7FEFF 		bl	strcpy
 932:.\Generated_Source\PSoC5/TFTSHIELD_1.c **** 	
 933:.\Generated_Source\PSoC5/TFTSHIELD_1.c **** 	char * word;
 934:.\Generated_Source\PSoC5/TFTSHIELD_1.c **** 	char * unused;
 935:.\Generated_Source\PSoC5/TFTSHIELD_1.c **** 	//separate words in string
 936:.\Generated_Source\PSoC5/TFTSHIELD_1.c **** 	word = strtok(temp, " \t");
 3733              		.loc 1 936 0
 3734 0026 07F10C03 		add	r3, r7, #12
 3735 002a 1846     		mov	r0, r3
 3736 002c 40F20001 		movw	r1, #:lower16:.LC0
 3737 0030 C0F20001 		movt	r1, #:upper16:.LC0
 3738 0034 FFF7FEFF 		bl	strtok
 3739 0038 C7F81C04 		str	r0, [r7, #1052]
 937:.\Generated_Source\PSoC5/TFTSHIELD_1.c **** 	int line_width = _width - textsize*6;
 3740              		.loc 1 937 0
 3741 003c 40F20003 		movw	r3, #:lower16:textsize
 3742 0040 C0F20003 		movt	r3, #:upper16:textsize
 3743 0044 1B78     		ldrb	r3, [r3, #0]	@ zero_extendqisi2
 3744 0046 1A46     		mov	r2, r3
 3745 0048 1346     		mov	r3, r2
 3746 004a 4FEA8202 		lsl	r2, r2, #2
 3747 004e 9B1A     		subs	r3, r3, r2
 3748 0050 4FEA4303 		lsl	r3, r3, #1
 3749 0054 1A46     		mov	r2, r3
 3750 0056 40F20003 		movw	r3, #:lower16:_width
 3751 005a C0F20003 		movt	r3, #:upper16:_width
 3752 005e 1B68     		ldr	r3, [r3, #0]
 3753 0060 D318     		adds	r3, r2, r3
 3754 0062 C7F81034 		str	r3, [r7, #1040]
 938:.\Generated_Source\PSoC5/TFTSHIELD_1.c **** 	int space_left = line_width - cursor_x;
 3755              		.loc 1 938 0
 3756 0066 40F20003 		movw	r3, #:lower16:cursor_x
 3757 006a C0F20003 		movt	r3, #:upper16:cursor_x
 3758 006e 1B88     		ldrh	r3, [r3, #0]
 3759 0070 1BB2     		sxth	r3, r3
 3760 0072 D7F81024 		ldr	r2, [r7, #1040]
 3761 0076 D31A     		subs	r3, r2, r3
 3762 0078 C7F81834 		str	r3, [r7, #1048]
 939:.\Generated_Source\PSoC5/TFTSHIELD_1.c **** 	int length_word = 0;
 3763              		.loc 1 939 0
 3764 007c 4FF00003 		mov	r3, #0
 3765 0080 C7F80C34 		str	r3, [r7, #1036]
 940:.\Generated_Source\PSoC5/TFTSHIELD_1.c **** 	//each char is textsize*6
 941:.\Generated_Source\PSoC5/TFTSHIELD_1.c **** 	//need to strtok string to get individual words for word wrap
 942:.\Generated_Source\PSoC5/TFTSHIELD_1.c **** 	while ( word != NULL )
 3766              		.loc 1 942 0
 3767 0084 67E0     		b	.L78
 3768              	.L81:
 943:.\Generated_Source\PSoC5/TFTSHIELD_1.c **** 	{
 944:.\Generated_Source\PSoC5/TFTSHIELD_1.c **** 		
 945:.\Generated_Source\PSoC5/TFTSHIELD_1.c **** 		//print word if it fits on screen
ARM GAS  C:\Users\Brian\AppData\Local\Temp\ccPAhBxt.s 			page 84


 946:.\Generated_Source\PSoC5/TFTSHIELD_1.c **** 		length_word = textsize*6*strlen(word);
 3769              		.loc 1 946 0
 3770 0086 40F20003 		movw	r3, #:lower16:textsize
 3771 008a C0F20003 		movt	r3, #:upper16:textsize
 3772 008e 1B78     		ldrb	r3, [r3, #0]	@ zero_extendqisi2
 3773 0090 1C46     		mov	r4, r3
 3774 0092 D7F81C04 		ldr	r0, [r7, #1052]
 3775 0096 FFF7FEFF 		bl	strlen
 3776 009a 0346     		mov	r3, r0
 3777 009c 03FB04F2 		mul	r2, r3, r4
 3778 00a0 1346     		mov	r3, r2
 3779 00a2 4FEA4303 		lsl	r3, r3, #1
 3780 00a6 9B18     		adds	r3, r3, r2
 3781 00a8 4FEA4303 		lsl	r3, r3, #1
 3782 00ac C7F80C34 		str	r3, [r7, #1036]
 947:.\Generated_Source\PSoC5/TFTSHIELD_1.c **** 		//space = textsize*6
 948:.\Generated_Source\PSoC5/TFTSHIELD_1.c **** 		if(length_word > space_left)
 3783              		.loc 1 948 0
 3784 00b0 D7F80C24 		ldr	r2, [r7, #1036]
 3785 00b4 D7F81834 		ldr	r3, [r7, #1048]
 3786 00b8 9A42     		cmp	r2, r3
 3787 00ba 24DD     		ble	.L79
 949:.\Generated_Source\PSoC5/TFTSHIELD_1.c **** 		{
 950:.\Generated_Source\PSoC5/TFTSHIELD_1.c **** 			cursor_y += textsize*8;
 3788              		.loc 1 950 0
 3789 00bc 40F20003 		movw	r3, #:lower16:textsize
 3790 00c0 C0F20003 		movt	r3, #:upper16:textsize
 3791 00c4 1B78     		ldrb	r3, [r3, #0]	@ zero_extendqisi2
 3792 00c6 4FEAC303 		lsl	r3, r3, #3
 3793 00ca 9AB2     		uxth	r2, r3
 3794 00cc 40F20003 		movw	r3, #:lower16:cursor_y
 3795 00d0 C0F20003 		movt	r3, #:upper16:cursor_y
 3796 00d4 1B88     		ldrh	r3, [r3, #0]
 3797 00d6 9BB2     		uxth	r3, r3
 3798 00d8 D318     		adds	r3, r2, r3
 3799 00da 9BB2     		uxth	r3, r3
 3800 00dc 9AB2     		uxth	r2, r3
 3801 00de 40F20003 		movw	r3, #:lower16:cursor_y
 3802 00e2 C0F20003 		movt	r3, #:upper16:cursor_y
 3803 00e6 1A80     		strh	r2, [r3, #0]	@ movhi
 951:.\Generated_Source\PSoC5/TFTSHIELD_1.c **** 			cursor_x = 0;
 3804              		.loc 1 951 0
 3805 00e8 40F20003 		movw	r3, #:lower16:cursor_x
 3806 00ec C0F20003 		movt	r3, #:upper16:cursor_x
 3807 00f0 4FF00002 		mov	r2, #0
 3808 00f4 1A80     		strh	r2, [r3, #0]	@ movhi
 952:.\Generated_Source\PSoC5/TFTSHIELD_1.c **** 			space_left = line_width - length_word;
 3809              		.loc 1 952 0
 3810 00f6 D7F81024 		ldr	r2, [r7, #1040]
 3811 00fa D7F80C34 		ldr	r3, [r7, #1036]
 3812 00fe D31A     		subs	r3, r2, r3
 3813 0100 C7F81834 		str	r3, [r7, #1048]
 3814 0104 13E0     		b	.L80
 3815              	.L79:
 953:.\Generated_Source\PSoC5/TFTSHIELD_1.c **** 			
 954:.\Generated_Source\PSoC5/TFTSHIELD_1.c **** 		}
 955:.\Generated_Source\PSoC5/TFTSHIELD_1.c **** 		else
ARM GAS  C:\Users\Brian\AppData\Local\Temp\ccPAhBxt.s 			page 85


 956:.\Generated_Source\PSoC5/TFTSHIELD_1.c **** 		{
 957:.\Generated_Source\PSoC5/TFTSHIELD_1.c **** 			space_left = space_left - length_word - (textsize*6);
 3816              		.loc 1 957 0
 3817 0106 D7F81824 		ldr	r2, [r7, #1048]
 3818 010a D7F80C34 		ldr	r3, [r7, #1036]
 3819 010e D11A     		subs	r1, r2, r3
 3820 0110 40F20003 		movw	r3, #:lower16:textsize
 3821 0114 C0F20003 		movt	r3, #:upper16:textsize
 3822 0118 1B78     		ldrb	r3, [r3, #0]	@ zero_extendqisi2
 3823 011a 1A46     		mov	r2, r3
 3824 011c 1346     		mov	r3, r2
 3825 011e 4FEA8202 		lsl	r2, r2, #2
 3826 0122 9B1A     		subs	r3, r3, r2
 3827 0124 4FEA4303 		lsl	r3, r3, #1
 3828 0128 CB18     		adds	r3, r1, r3
 3829 012a C7F81834 		str	r3, [r7, #1048]
 3830              	.L80:
 958:.\Generated_Source\PSoC5/TFTSHIELD_1.c **** 		}
 959:.\Generated_Source\PSoC5/TFTSHIELD_1.c **** 		//print word
 960:.\Generated_Source\PSoC5/TFTSHIELD_1.c **** 		TFTSHIELD_1_Print(word);
 3831              		.loc 1 960 0
 3832 012e D7F81C04 		ldr	r0, [r7, #1052]
 3833 0132 FFF7FEFF 		bl	TFTSHIELD_1_Print
 961:.\Generated_Source\PSoC5/TFTSHIELD_1.c **** 		//print space
 962:.\Generated_Source\PSoC5/TFTSHIELD_1.c **** 		TFTSHIELD_1_Print(" ");
 3834              		.loc 1 962 0
 3835 0136 40F20000 		movw	r0, #:lower16:.LC1
 3836 013a C0F20000 		movt	r0, #:upper16:.LC1
 3837 013e FFF7FEFF 		bl	TFTSHIELD_1_Print
 963:.\Generated_Source\PSoC5/TFTSHIELD_1.c **** 		
 964:.\Generated_Source\PSoC5/TFTSHIELD_1.c ****         //strtok next word in string
 965:.\Generated_Source\PSoC5/TFTSHIELD_1.c **** 		word = strtok( NULL, " \t");
 3838              		.loc 1 965 0
 3839 0142 4FF00000 		mov	r0, #0
 3840 0146 40F20001 		movw	r1, #:lower16:.LC0
 3841 014a C0F20001 		movt	r1, #:upper16:.LC0
 3842 014e FFF7FEFF 		bl	strtok
 3843 0152 C7F81C04 		str	r0, [r7, #1052]
 3844              	.L78:
 942:.\Generated_Source\PSoC5/TFTSHIELD_1.c **** 	while ( word != NULL )
 3845              		.loc 1 942 0 discriminator 1
 3846 0156 D7F81C34 		ldr	r3, [r7, #1052]
 3847 015a 002B     		cmp	r3, #0
 3848 015c 93D1     		bne	.L81
 966:.\Generated_Source\PSoC5/TFTSHIELD_1.c **** 		
 967:.\Generated_Source\PSoC5/TFTSHIELD_1.c **** 	}
 968:.\Generated_Source\PSoC5/TFTSHIELD_1.c **** 	
 969:.\Generated_Source\PSoC5/TFTSHIELD_1.c **** 	
 970:.\Generated_Source\PSoC5/TFTSHIELD_1.c **** }
 3849              		.loc 1 970 0
 3850 015e 07F12407 		add	r7, r7, #36
 3851 0162 07F58067 		add	r7, r7, #1024
 3852 0166 BD46     		mov	sp, r7
 3853 0168 90BD     		pop	{r4, r7, pc}
 3854              		.cfi_endproc
 3855              	.LFE25:
 3856              		.size	TFTSHIELD_1_PrintString, .-TFTSHIELD_1_PrintString
ARM GAS  C:\Users\Brian\AppData\Local\Temp\ccPAhBxt.s 			page 86


 3857 016a 00BF     		.section	.text.TFTSHIELD_1_Write,"ax",%progbits
 3858              		.align	2
 3859              		.global	TFTSHIELD_1_Write
 3860              		.thumb
 3861              		.thumb_func
 3862              		.type	TFTSHIELD_1_Write, %function
 3863              	TFTSHIELD_1_Write:
 3864              	.LFB26:
 971:.\Generated_Source\PSoC5/TFTSHIELD_1.c **** 
 972:.\Generated_Source\PSoC5/TFTSHIELD_1.c **** /**************************************************************************//**
 973:.\Generated_Source\PSoC5/TFTSHIELD_1.c **** *  @brief Writes a single character
 974:.\Generated_Source\PSoC5/TFTSHIELD_1.c **** *
 975:.\Generated_Source\PSoC5/TFTSHIELD_1.c **** *  @param c: The character to write
 976:.\Generated_Source\PSoC5/TFTSHIELD_1.c **** *
 977:.\Generated_Source\PSoC5/TFTSHIELD_1.c **** *******************************************************************************/
 978:.\Generated_Source\PSoC5/TFTSHIELD_1.c **** void TFTSHIELD_1_Write(uint8_t c)
 979:.\Generated_Source\PSoC5/TFTSHIELD_1.c **** {
 3865              		.loc 1 979 0
 3866              		.cfi_startproc
 3867              		@ args = 0, pretend = 0, frame = 8
 3868              		@ frame_needed = 1, uses_anonymous_args = 0
 3869 0000 B0B5     		push	{r4, r5, r7, lr}
 3870              	.LCFI77:
 3871              		.cfi_def_cfa_offset 16
 3872              		.cfi_offset 4, -16
 3873              		.cfi_offset 5, -12
 3874              		.cfi_offset 7, -8
 3875              		.cfi_offset 14, -4
 3876 0002 84B0     		sub	sp, sp, #16
 3877              	.LCFI78:
 3878              		.cfi_def_cfa_offset 32
 3879 0004 02AF     		add	r7, sp, #8
 3880              	.LCFI79:
 3881              		.cfi_def_cfa 7, 24
 3882 0006 0346     		mov	r3, r0
 3883 0008 FB71     		strb	r3, [r7, #7]
 980:.\Generated_Source\PSoC5/TFTSHIELD_1.c ****     if (c == '\n') 
 3884              		.loc 1 980 0
 3885 000a FB79     		ldrb	r3, [r7, #7]	@ zero_extendqisi2
 3886 000c 0A2B     		cmp	r3, #10
 3887 000e 1DD1     		bne	.L83
 981:.\Generated_Source\PSoC5/TFTSHIELD_1.c ****     {
 982:.\Generated_Source\PSoC5/TFTSHIELD_1.c ****         cursor_y += textsize*8;
 3888              		.loc 1 982 0
 3889 0010 40F20003 		movw	r3, #:lower16:textsize
 3890 0014 C0F20003 		movt	r3, #:upper16:textsize
 3891 0018 1B78     		ldrb	r3, [r3, #0]	@ zero_extendqisi2
 3892 001a 4FEAC303 		lsl	r3, r3, #3
 3893 001e 9AB2     		uxth	r2, r3
 3894 0020 40F20003 		movw	r3, #:lower16:cursor_y
 3895 0024 C0F20003 		movt	r3, #:upper16:cursor_y
 3896 0028 1B88     		ldrh	r3, [r3, #0]
 3897 002a 9BB2     		uxth	r3, r3
 3898 002c D318     		adds	r3, r2, r3
 3899 002e 9BB2     		uxth	r3, r3
 3900 0030 9AB2     		uxth	r2, r3
 3901 0032 40F20003 		movw	r3, #:lower16:cursor_y
ARM GAS  C:\Users\Brian\AppData\Local\Temp\ccPAhBxt.s 			page 87


 3902 0036 C0F20003 		movt	r3, #:upper16:cursor_y
 3903 003a 1A80     		strh	r2, [r3, #0]	@ movhi
 983:.\Generated_Source\PSoC5/TFTSHIELD_1.c ****         cursor_x  = 0;
 3904              		.loc 1 983 0
 3905 003c 40F20003 		movw	r3, #:lower16:cursor_x
 3906 0040 C0F20003 		movt	r3, #:upper16:cursor_x
 3907 0044 4FF00002 		mov	r2, #0
 3908 0048 1A80     		strh	r2, [r3, #0]	@ movhi
 3909 004a 53E0     		b	.L82
 3910              	.L83:
 984:.\Generated_Source\PSoC5/TFTSHIELD_1.c ****     }
 985:.\Generated_Source\PSoC5/TFTSHIELD_1.c ****     else if (c == '\r') 
 3911              		.loc 1 985 0
 3912 004c FB79     		ldrb	r3, [r7, #7]	@ zero_extendqisi2
 3913 004e 0D2B     		cmp	r3, #13
 3914 0050 12D1     		bne	.L85
 986:.\Generated_Source\PSoC5/TFTSHIELD_1.c ****     {
 987:.\Generated_Source\PSoC5/TFTSHIELD_1.c ****         // clear screen and reset cursor
 988:.\Generated_Source\PSoC5/TFTSHIELD_1.c ****         TFTSHIELD_1_FillScreen(BLACK);
 3915              		.loc 1 988 0
 3916 0052 4FF00000 		mov	r0, #0
 3917 0056 FFF7FEFF 		bl	TFTSHIELD_1_FillScreen
 989:.\Generated_Source\PSoC5/TFTSHIELD_1.c ****         cursor_y = 0;
 3918              		.loc 1 989 0
 3919 005a 40F20003 		movw	r3, #:lower16:cursor_y
 3920 005e C0F20003 		movt	r3, #:upper16:cursor_y
 3921 0062 4FF00002 		mov	r2, #0
 3922 0066 1A80     		strh	r2, [r3, #0]	@ movhi
 990:.\Generated_Source\PSoC5/TFTSHIELD_1.c ****         cursor_x = 0;
 3923              		.loc 1 990 0
 3924 0068 40F20003 		movw	r3, #:lower16:cursor_x
 3925 006c C0F20003 		movt	r3, #:upper16:cursor_x
 3926 0070 4FF00002 		mov	r2, #0
 3927 0074 1A80     		strh	r2, [r3, #0]	@ movhi
 3928 0076 3DE0     		b	.L82
 3929              	.L85:
 991:.\Generated_Source\PSoC5/TFTSHIELD_1.c ****     } 
 992:.\Generated_Source\PSoC5/TFTSHIELD_1.c ****     else 
 993:.\Generated_Source\PSoC5/TFTSHIELD_1.c ****     {
 994:.\Generated_Source\PSoC5/TFTSHIELD_1.c ****         TFTSHIELD_1_DrawChar(cursor_x, cursor_y, c, textcolor, textbgcolor, textsize);
 3930              		.loc 1 994 0
 3931 0078 40F20003 		movw	r3, #:lower16:cursor_x
 3932 007c C0F20003 		movt	r3, #:upper16:cursor_x
 3933 0080 1988     		ldrh	r1, [r3, #0]
 3934 0082 40F20003 		movw	r3, #:lower16:cursor_y
 3935 0086 C0F20003 		movt	r3, #:upper16:cursor_y
 3936 008a 1A88     		ldrh	r2, [r3, #0]
 3937 008c 40F20003 		movw	r3, #:lower16:textcolor
 3938 0090 C0F20003 		movt	r3, #:upper16:textcolor
 3939 0094 1C88     		ldrh	r4, [r3, #0]
 3940 0096 40F20003 		movw	r3, #:lower16:textbgcolor
 3941 009a C0F20003 		movt	r3, #:upper16:textbgcolor
 3942 009e 1D88     		ldrh	r5, [r3, #0]
 3943 00a0 40F20003 		movw	r3, #:lower16:textsize
 3944 00a4 C0F20003 		movt	r3, #:upper16:textsize
 3945 00a8 1878     		ldrb	r0, [r3, #0]	@ zero_extendqisi2
 3946 00aa 09B2     		sxth	r1, r1
ARM GAS  C:\Users\Brian\AppData\Local\Temp\ccPAhBxt.s 			page 88


 3947 00ac 12B2     		sxth	r2, r2
 3948 00ae FB79     		ldrb	r3, [r7, #7]	@ zero_extendqisi2
 3949 00b0 0095     		str	r5, [sp, #0]
 3950 00b2 0190     		str	r0, [sp, #4]
 3951 00b4 0846     		mov	r0, r1
 3952 00b6 1146     		mov	r1, r2
 3953 00b8 1A46     		mov	r2, r3
 3954 00ba 2346     		mov	r3, r4
 3955 00bc FFF7FEFF 		bl	TFTSHIELD_1_DrawChar
 995:.\Generated_Source\PSoC5/TFTSHIELD_1.c ****         cursor_x += textsize*6;
 3956              		.loc 1 995 0
 3957 00c0 40F20003 		movw	r3, #:lower16:textsize
 3958 00c4 C0F20003 		movt	r3, #:upper16:textsize
 3959 00c8 1B78     		ldrb	r3, [r3, #0]	@ zero_extendqisi2
 3960 00ca 1A46     		mov	r2, r3	@ movhi
 3961 00cc 4FEA4202 		lsl	r2, r2, #1
 3962 00d0 D318     		adds	r3, r2, r3
 3963 00d2 4FEA4303 		lsl	r3, r3, #1
 3964 00d6 9AB2     		uxth	r2, r3
 3965 00d8 40F20003 		movw	r3, #:lower16:cursor_x
 3966 00dc C0F20003 		movt	r3, #:upper16:cursor_x
 3967 00e0 1B88     		ldrh	r3, [r3, #0]
 3968 00e2 9BB2     		uxth	r3, r3
 3969 00e4 D318     		adds	r3, r2, r3
 3970 00e6 9BB2     		uxth	r3, r3
 3971 00e8 9AB2     		uxth	r2, r3
 3972 00ea 40F20003 		movw	r3, #:lower16:cursor_x
 3973 00ee C0F20003 		movt	r3, #:upper16:cursor_x
 3974 00f2 1A80     		strh	r2, [r3, #0]	@ movhi
 3975              	.L82:
 996:.\Generated_Source\PSoC5/TFTSHIELD_1.c ****         /*if (wrap && (cursor_x > (TFTWIDTH - textsize*6))) 
 997:.\Generated_Source\PSoC5/TFTSHIELD_1.c ****         {
 998:.\Generated_Source\PSoC5/TFTSHIELD_1.c ****           cursor_y += textsize*8;
 999:.\Generated_Source\PSoC5/TFTSHIELD_1.c ****           cursor_x = 0;
1000:.\Generated_Source\PSoC5/TFTSHIELD_1.c ****         }*/
1001:.\Generated_Source\PSoC5/TFTSHIELD_1.c ****     }
1002:.\Generated_Source\PSoC5/TFTSHIELD_1.c **** }
 3976              		.loc 1 1002 0
 3977 00f4 07F10807 		add	r7, r7, #8
 3978 00f8 BD46     		mov	sp, r7
 3979 00fa B0BD     		pop	{r4, r5, r7, pc}
 3980              		.cfi_endproc
 3981              	.LFE26:
 3982              		.size	TFTSHIELD_1_Write, .-TFTSHIELD_1_Write
 3983              		.section	.text.TFTSHIELD_1_DrawChar,"ax",%progbits
 3984              		.align	2
 3985              		.global	TFTSHIELD_1_DrawChar
 3986              		.thumb
 3987              		.thumb_func
 3988              		.type	TFTSHIELD_1_DrawChar, %function
 3989              	TFTSHIELD_1_DrawChar:
 3990              	.LFB27:
1003:.\Generated_Source\PSoC5/TFTSHIELD_1.c **** 
1004:.\Generated_Source\PSoC5/TFTSHIELD_1.c **** /**************************************************************************//**
1005:.\Generated_Source\PSoC5/TFTSHIELD_1.c **** *  @brief Draws character
1006:.\Generated_Source\PSoC5/TFTSHIELD_1.c **** *
1007:.\Generated_Source\PSoC5/TFTSHIELD_1.c **** *  @param x: The starting x coordinate
ARM GAS  C:\Users\Brian\AppData\Local\Temp\ccPAhBxt.s 			page 89


1008:.\Generated_Source\PSoC5/TFTSHIELD_1.c **** *  @param y: The starting y coordinate
1009:.\Generated_Source\PSoC5/TFTSHIELD_1.c **** *  @param c: The character to draw
1010:.\Generated_Source\PSoC5/TFTSHIELD_1.c **** *  @param color: The color of the character
1011:.\Generated_Source\PSoC5/TFTSHIELD_1.c **** *  @param bg: The depth of the character
1012:.\Generated_Source\PSoC5/TFTSHIELD_1.c **** *  @param size: The font size of the character
1013:.\Generated_Source\PSoC5/TFTSHIELD_1.c **** *
1014:.\Generated_Source\PSoC5/TFTSHIELD_1.c **** *******************************************************************************/
1015:.\Generated_Source\PSoC5/TFTSHIELD_1.c **** void TFTSHIELD_1_DrawChar(int16_t x, int16_t y, unsigned char c,
1016:.\Generated_Source\PSoC5/TFTSHIELD_1.c **** 			    uint16_t color, uint16_t bg, uint8_t size)
1017:.\Generated_Source\PSoC5/TFTSHIELD_1.c **** {
 3991              		.loc 1 1017 0
 3992              		.cfi_startproc
 3993              		@ args = 8, pretend = 0, frame = 16
 3994              		@ frame_needed = 1, uses_anonymous_args = 0
 3995 0000 90B5     		push	{r4, r7, lr}
 3996              	.LCFI80:
 3997              		.cfi_def_cfa_offset 12
 3998              		.cfi_offset 4, -12
 3999              		.cfi_offset 7, -8
 4000              		.cfi_offset 14, -4
 4001 0002 87B0     		sub	sp, sp, #28
 4002              	.LCFI81:
 4003              		.cfi_def_cfa_offset 40
 4004 0004 02AF     		add	r7, sp, #8
 4005              	.LCFI82:
 4006              		.cfi_def_cfa 7, 32
 4007 0006 F880     		strh	r0, [r7, #6]	@ movhi
 4008 0008 B980     		strh	r1, [r7, #4]	@ movhi
 4009 000a FA70     		strb	r2, [r7, #3]
 4010 000c 3B80     		strh	r3, [r7, #0]	@ movhi
1018:.\Generated_Source\PSoC5/TFTSHIELD_1.c ****     if((x >= _width)            || // Clip right
 4011              		.loc 1 1018 0
 4012 000e B7F90620 		ldrsh	r2, [r7, #6]
 4013 0012 40F20003 		movw	r3, #:lower16:_width
 4014 0016 C0F20003 		movt	r3, #:upper16:_width
 4015 001a 1B68     		ldr	r3, [r3, #0]
 4016 001c 9A42     		cmp	r2, r3
 4017 001e 80F20681 		bge	.L100
1019:.\Generated_Source\PSoC5/TFTSHIELD_1.c ****      (y >= _height)           || // Clip bottom
 4018              		.loc 1 1019 0 discriminator 1
 4019 0022 B7F90420 		ldrsh	r2, [r7, #4]
 4020 0026 40F20003 		movw	r3, #:lower16:_height
 4021 002a C0F20003 		movt	r3, #:upper16:_height
 4022 002e 1B68     		ldr	r3, [r3, #0]
1018:.\Generated_Source\PSoC5/TFTSHIELD_1.c ****     if((x >= _width)            || // Clip right
 4023              		.loc 1 1018 0 discriminator 1
 4024 0030 9A42     		cmp	r2, r3
 4025 0032 80F2FC80 		bge	.L100
1020:.\Generated_Source\PSoC5/TFTSHIELD_1.c ****      ((x + 6 * size - 1) < 0) || // Clip left
 4026              		.loc 1 1020 0
 4027 0036 B7F90610 		ldrsh	r1, [r7, #6]
 4028 003a 97F82420 		ldrb	r2, [r7, #36]	@ zero_extendqisi2
 4029 003e 1346     		mov	r3, r2
 4030 0040 4FEA4303 		lsl	r3, r3, #1
 4031 0044 9B18     		adds	r3, r3, r2
 4032 0046 4FEA4303 		lsl	r3, r3, #1
 4033 004a CB18     		adds	r3, r1, r3
ARM GAS  C:\Users\Brian\AppData\Local\Temp\ccPAhBxt.s 			page 90


 4034 004c 03F1FF33 		add	r3, r3, #-1
1019:.\Generated_Source\PSoC5/TFTSHIELD_1.c ****      (y >= _height)           || // Clip bottom
 4035              		.loc 1 1019 0
 4036 0050 002B     		cmp	r3, #0
 4037 0052 C0F2EC80 		blt	.L100
1021:.\Generated_Source\PSoC5/TFTSHIELD_1.c ****      ((y + 8 * size - 1) < 0))   // Clip top
 4038              		.loc 1 1021 0
 4039 0056 B7F90420 		ldrsh	r2, [r7, #4]
 4040 005a 97F82430 		ldrb	r3, [r7, #36]	@ zero_extendqisi2
 4041 005e 4FEAC303 		lsl	r3, r3, #3
 4042 0062 D318     		adds	r3, r2, r3
 4043 0064 03F1FF33 		add	r3, r3, #-1
1020:.\Generated_Source\PSoC5/TFTSHIELD_1.c ****      ((x + 6 * size - 1) < 0) || // Clip left
 4044              		.loc 1 1020 0
 4045 0068 002B     		cmp	r3, #0
 4046 006a C0F2E080 		blt	.L100
 4047              	.L88:
1022:.\Generated_Source\PSoC5/TFTSHIELD_1.c ****     return;
1023:.\Generated_Source\PSoC5/TFTSHIELD_1.c ****   int8_t i,j;  
1024:.\Generated_Source\PSoC5/TFTSHIELD_1.c ****   for (i=0; i<6; i++ ) {
 4048              		.loc 1 1024 0
 4049 006e 4FF00003 		mov	r3, #0
 4050 0072 FB73     		strb	r3, [r7, #15]
 4051 0074 D5E0     		b	.L90
 4052              	.L99:
 4053              	.LBB8:
1025:.\Generated_Source\PSoC5/TFTSHIELD_1.c ****     uint8_t line;
1026:.\Generated_Source\PSoC5/TFTSHIELD_1.c ****     if (i == 6) 
 4054              		.loc 1 1026 0
 4055 0076 97F90F30 		ldrsb	r3, [r7, #15]
 4056 007a 062B     		cmp	r3, #6
 4057 007c 03D1     		bne	.L91
1027:.\Generated_Source\PSoC5/TFTSHIELD_1.c ****        line = 0x0;
 4058              		.loc 1 1027 0
 4059 007e 4FF00003 		mov	r3, #0
 4060 0082 7B73     		strb	r3, [r7, #13]
 4061 0084 10E0     		b	.L92
 4062              	.L91:
1028:.\Generated_Source\PSoC5/TFTSHIELD_1.c ****     else 
1029:.\Generated_Source\PSoC5/TFTSHIELD_1.c ****       line = fontA[c][i];
 4063              		.loc 1 1029 0
 4064 0086 F978     		ldrb	r1, [r7, #3]	@ zero_extendqisi2
 4065 0088 97F90F00 		ldrsb	r0, [r7, #15]
 4066 008c 40F20002 		movw	r2, #:lower16:fontA
 4067 0090 C0F20002 		movt	r2, #:upper16:fontA
 4068 0094 0B46     		mov	r3, r1
 4069 0096 4FEA4303 		lsl	r3, r3, #1
 4070 009a 5B18     		adds	r3, r3, r1
 4071 009c 4FEA4303 		lsl	r3, r3, #1
 4072 00a0 1B18     		adds	r3, r3, r0
 4073 00a2 D318     		adds	r3, r2, r3
 4074 00a4 1B78     		ldrb	r3, [r3, #0]
 4075 00a6 7B73     		strb	r3, [r7, #13]
 4076              	.L92:
1030:.\Generated_Source\PSoC5/TFTSHIELD_1.c ****     for (j = 0; j<8; j++) {
 4077              		.loc 1 1030 0
 4078 00a8 4FF00003 		mov	r3, #0
ARM GAS  C:\Users\Brian\AppData\Local\Temp\ccPAhBxt.s 			page 91


 4079 00ac BB73     		strb	r3, [r7, #14]
 4080 00ae AFE0     		b	.L93
 4081              	.L98:
1031:.\Generated_Source\PSoC5/TFTSHIELD_1.c ****       if (line & 0x1) {
 4082              		.loc 1 1031 0
 4083 00b0 7B7B     		ldrb	r3, [r7, #13]	@ zero_extendqisi2
 4084 00b2 03F00103 		and	r3, r3, #1
 4085 00b6 002B     		cmp	r3, #0
 4086 00b8 4FD0     		beq	.L94
1032:.\Generated_Source\PSoC5/TFTSHIELD_1.c ****         if (size == 1) // default size
 4087              		.loc 1 1032 0
 4088 00ba 97F82430 		ldrb	r3, [r7, #36]	@ zero_extendqisi2
 4089 00be 012B     		cmp	r3, #1
 4090 00c0 1AD1     		bne	.L95
1033:.\Generated_Source\PSoC5/TFTSHIELD_1.c ****           TFTSHIELD_1_SetPixel(_width - (x+i), y+j, color);
 4091              		.loc 1 1033 0
 4092 00c2 40F20003 		movw	r3, #:lower16:_width
 4093 00c6 C0F20003 		movt	r3, #:upper16:_width
 4094 00ca 1B68     		ldr	r3, [r3, #0]
 4095 00cc 9AB2     		uxth	r2, r3
 4096 00ce 97F90F30 		ldrsb	r3, [r7, #15]
 4097 00d2 99B2     		uxth	r1, r3
 4098 00d4 FB88     		ldrh	r3, [r7, #6]
 4099 00d6 CB18     		adds	r3, r1, r3
 4100 00d8 9BB2     		uxth	r3, r3
 4101 00da D31A     		subs	r3, r2, r3
 4102 00dc 99B2     		uxth	r1, r3
 4103 00de 97F90E30 		ldrsb	r3, [r7, #14]
 4104 00e2 9AB2     		uxth	r2, r3
 4105 00e4 BB88     		ldrh	r3, [r7, #4]
 4106 00e6 D318     		adds	r3, r2, r3
 4107 00e8 9AB2     		uxth	r2, r3
 4108 00ea 3B88     		ldrh	r3, [r7, #0]
 4109 00ec 0846     		mov	r0, r1
 4110 00ee 1146     		mov	r1, r2
 4111 00f0 1A46     		mov	r2, r3
 4112 00f2 FFF7FEFF 		bl	TFTSHIELD_1_SetPixel
 4113 00f6 83E0     		b	.L96
 4114              	.L95:
1034:.\Generated_Source\PSoC5/TFTSHIELD_1.c ****         else {  // big size
1035:.\Generated_Source\PSoC5/TFTSHIELD_1.c ****           TFTSHIELD_1_FillRect(_width - (x+(i*size)), y+(j*size), size, size, color);
 4115              		.loc 1 1035 0
 4116 00f8 40F20003 		movw	r3, #:lower16:_width
 4117 00fc C0F20003 		movt	r3, #:upper16:_width
 4118 0100 1B68     		ldr	r3, [r3, #0]
 4119 0102 9AB2     		uxth	r2, r3
 4120 0104 97F90F30 		ldrsb	r3, [r7, #15]
 4121 0108 9BB2     		uxth	r3, r3
 4122 010a 97F82410 		ldrb	r1, [r7, #36]	@ zero_extendqisi2
 4123 010e 89B2     		uxth	r1, r1
 4124 0110 01FB03F3 		mul	r3, r1, r3
 4125 0114 99B2     		uxth	r1, r3
 4126 0116 FB88     		ldrh	r3, [r7, #6]
 4127 0118 CB18     		adds	r3, r1, r3
 4128 011a 9BB2     		uxth	r3, r3
 4129 011c D31A     		subs	r3, r2, r3
 4130 011e 9BB2     		uxth	r3, r3
ARM GAS  C:\Users\Brian\AppData\Local\Temp\ccPAhBxt.s 			page 92


 4131 0120 98B2     		uxth	r0, r3
 4132 0122 97F90E30 		ldrsb	r3, [r7, #14]
 4133 0126 9BB2     		uxth	r3, r3
 4134 0128 97F82420 		ldrb	r2, [r7, #36]	@ zero_extendqisi2
 4135 012c 92B2     		uxth	r2, r2
 4136 012e 02FB03F3 		mul	r3, r2, r3
 4137 0132 9AB2     		uxth	r2, r3
 4138 0134 BB88     		ldrh	r3, [r7, #4]
 4139 0136 D318     		adds	r3, r2, r3
 4140 0138 9BB2     		uxth	r3, r3
 4141 013a 99B2     		uxth	r1, r3
 4142 013c 97F82430 		ldrb	r3, [r7, #36]	@ zero_extendqisi2
 4143 0140 9AB2     		uxth	r2, r3
 4144 0142 97F82430 		ldrb	r3, [r7, #36]	@ zero_extendqisi2
 4145 0146 9BB2     		uxth	r3, r3
 4146 0148 00B2     		sxth	r0, r0
 4147 014a 09B2     		sxth	r1, r1
 4148 014c 12B2     		sxth	r2, r2
 4149 014e 1BB2     		sxth	r3, r3
 4150 0150 3C88     		ldrh	r4, [r7, #0]
 4151 0152 0094     		str	r4, [sp, #0]
 4152 0154 FFF7FEFF 		bl	TFTSHIELD_1_FillRect
 4153 0158 52E0     		b	.L96
 4154              	.L94:
1036:.\Generated_Source\PSoC5/TFTSHIELD_1.c ****         } 
1037:.\Generated_Source\PSoC5/TFTSHIELD_1.c ****       } else if (bg != color) {
 4155              		.loc 1 1037 0
 4156 015a 3A8C     		ldrh	r2, [r7, #32]
 4157 015c 3B88     		ldrh	r3, [r7, #0]
 4158 015e 9A42     		cmp	r2, r3
 4159 0160 4ED0     		beq	.L96
1038:.\Generated_Source\PSoC5/TFTSHIELD_1.c ****         if (size == 1) // default size
 4160              		.loc 1 1038 0
 4161 0162 97F82430 		ldrb	r3, [r7, #36]	@ zero_extendqisi2
 4162 0166 012B     		cmp	r3, #1
 4163 0168 1AD1     		bne	.L97
1039:.\Generated_Source\PSoC5/TFTSHIELD_1.c ****           TFTSHIELD_1_SetPixel(_width - (x+i), y+j, bg);
 4164              		.loc 1 1039 0
 4165 016a 40F20003 		movw	r3, #:lower16:_width
 4166 016e C0F20003 		movt	r3, #:upper16:_width
 4167 0172 1B68     		ldr	r3, [r3, #0]
 4168 0174 9AB2     		uxth	r2, r3
 4169 0176 97F90F30 		ldrsb	r3, [r7, #15]
 4170 017a 99B2     		uxth	r1, r3
 4171 017c FB88     		ldrh	r3, [r7, #6]
 4172 017e CB18     		adds	r3, r1, r3
 4173 0180 9BB2     		uxth	r3, r3
 4174 0182 D31A     		subs	r3, r2, r3
 4175 0184 99B2     		uxth	r1, r3
 4176 0186 97F90E30 		ldrsb	r3, [r7, #14]
 4177 018a 9AB2     		uxth	r2, r3
 4178 018c BB88     		ldrh	r3, [r7, #4]
 4179 018e D318     		adds	r3, r2, r3
 4180 0190 9AB2     		uxth	r2, r3
 4181 0192 3B8C     		ldrh	r3, [r7, #32]
 4182 0194 0846     		mov	r0, r1
 4183 0196 1146     		mov	r1, r2
ARM GAS  C:\Users\Brian\AppData\Local\Temp\ccPAhBxt.s 			page 93


 4184 0198 1A46     		mov	r2, r3
 4185 019a FFF7FEFF 		bl	TFTSHIELD_1_SetPixel
 4186 019e 2FE0     		b	.L96
 4187              	.L97:
1040:.\Generated_Source\PSoC5/TFTSHIELD_1.c ****         else {  // big size
1041:.\Generated_Source\PSoC5/TFTSHIELD_1.c ****           TFTSHIELD_1_FillRect(_width - (x+i*size), y+j*size, size, size, bg);
 4188              		.loc 1 1041 0
 4189 01a0 40F20003 		movw	r3, #:lower16:_width
 4190 01a4 C0F20003 		movt	r3, #:upper16:_width
 4191 01a8 1B68     		ldr	r3, [r3, #0]
 4192 01aa 9AB2     		uxth	r2, r3
 4193 01ac 97F90F30 		ldrsb	r3, [r7, #15]
 4194 01b0 9BB2     		uxth	r3, r3
 4195 01b2 97F82410 		ldrb	r1, [r7, #36]	@ zero_extendqisi2
 4196 01b6 89B2     		uxth	r1, r1
 4197 01b8 01FB03F3 		mul	r3, r1, r3
 4198 01bc 99B2     		uxth	r1, r3
 4199 01be FB88     		ldrh	r3, [r7, #6]
 4200 01c0 CB18     		adds	r3, r1, r3
 4201 01c2 9BB2     		uxth	r3, r3
 4202 01c4 D31A     		subs	r3, r2, r3
 4203 01c6 9BB2     		uxth	r3, r3
 4204 01c8 98B2     		uxth	r0, r3
 4205 01ca 97F90E30 		ldrsb	r3, [r7, #14]
 4206 01ce 9BB2     		uxth	r3, r3
 4207 01d0 97F82420 		ldrb	r2, [r7, #36]	@ zero_extendqisi2
 4208 01d4 92B2     		uxth	r2, r2
 4209 01d6 02FB03F3 		mul	r3, r2, r3
 4210 01da 9AB2     		uxth	r2, r3
 4211 01dc BB88     		ldrh	r3, [r7, #4]
 4212 01de D318     		adds	r3, r2, r3
 4213 01e0 9BB2     		uxth	r3, r3
 4214 01e2 99B2     		uxth	r1, r3
 4215 01e4 97F82430 		ldrb	r3, [r7, #36]	@ zero_extendqisi2
 4216 01e8 9AB2     		uxth	r2, r3
 4217 01ea 97F82430 		ldrb	r3, [r7, #36]	@ zero_extendqisi2
 4218 01ee 9BB2     		uxth	r3, r3
 4219 01f0 00B2     		sxth	r0, r0
 4220 01f2 09B2     		sxth	r1, r1
 4221 01f4 12B2     		sxth	r2, r2
 4222 01f6 1BB2     		sxth	r3, r3
 4223 01f8 3C8C     		ldrh	r4, [r7, #32]
 4224 01fa 0094     		str	r4, [sp, #0]
 4225 01fc FFF7FEFF 		bl	TFTSHIELD_1_FillRect
 4226              	.L96:
1042:.\Generated_Source\PSoC5/TFTSHIELD_1.c ****         }
1043:.\Generated_Source\PSoC5/TFTSHIELD_1.c ****       }
1044:.\Generated_Source\PSoC5/TFTSHIELD_1.c ****       line >>= 1;
 4227              		.loc 1 1044 0
 4228 0200 7B7B     		ldrb	r3, [r7, #13]	@ zero_extendqisi2
 4229 0202 4FEA5303 		lsr	r3, r3, #1
 4230 0206 7B73     		strb	r3, [r7, #13]
1030:.\Generated_Source\PSoC5/TFTSHIELD_1.c ****     for (j = 0; j<8; j++) {
 4231              		.loc 1 1030 0
 4232 0208 BB7B     		ldrb	r3, [r7, #14]
 4233 020a 03F10103 		add	r3, r3, #1
 4234 020e BB73     		strb	r3, [r7, #14]
ARM GAS  C:\Users\Brian\AppData\Local\Temp\ccPAhBxt.s 			page 94


 4235              	.L93:
1030:.\Generated_Source\PSoC5/TFTSHIELD_1.c ****     for (j = 0; j<8; j++) {
 4236              		.loc 1 1030 0 is_stmt 0 discriminator 1
 4237 0210 97F90E30 		ldrsb	r3, [r7, #14]
 4238 0214 072B     		cmp	r3, #7
 4239 0216 7FF74BAF 		ble	.L98
 4240              	.LBE8:
1024:.\Generated_Source\PSoC5/TFTSHIELD_1.c ****   for (i=0; i<6; i++ ) {
 4241              		.loc 1 1024 0 is_stmt 1
 4242 021a FB7B     		ldrb	r3, [r7, #15]
 4243 021c 03F10103 		add	r3, r3, #1
 4244 0220 FB73     		strb	r3, [r7, #15]
 4245              	.L90:
