ARM GAS  C:\Users\Brian\AppData\Local\Temp\ccPAhBxt.s 			page 1


   1              		.syntax unified
   2              		.cpu cortex-m3
   3              		.fpu softvfp
   4              		.eabi_attribute 20, 1
   5              		.eabi_attribute 21, 1
   6              		.eabi_attribute 23, 3
   7              		.eabi_attribute 24, 1
   8              		.eabi_attribute 25, 1
   9              		.eabi_attribute 26, 1
  10              		.eabi_attribute 30, 6
  11              		.eabi_attribute 34, 1
  12              		.eabi_attribute 18, 4
  13              		.thumb
  14              		.file	"TFTSHIELD_1.c"
  15              		.text
  16              	.Ltext0:
  17              		.cfi_sections	.debug_frame
  18              		.comm	cursor_x,2,2
  19              		.comm	cursor_y,2,2
  20              		.comm	textcolor,2,2
  21              		.comm	textbgcolor,2,2
  22              		.comm	textsize,1,1
  23              		.comm	rotation,1,1
  24              		.comm	wrap,1,1
  25              		.comm	_width,4,4
  26              		.comm	_height,4,4
  27              		.global	fontA
  28              		.section	.rodata
  29              		.align	2
  30              		.type	fontA, %object
  31              		.size	fontA, 768
  32              	fontA:
  33 0000 00       		.byte	0
  34 0001 00       		.byte	0
  35 0002 00       		.byte	0
  36 0003 00       		.byte	0
  37 0004 00       		.byte	0
  38 0005 00       		.byte	0
  39 0006 00       		.byte	0
  40 0007 00       		.byte	0
  41 0008 00       		.byte	0
  42 0009 00       		.byte	0
  43 000a 00       		.byte	0
  44 000b 00       		.byte	0
  45 000c 00       		.byte	0
  46 000d 00       		.byte	0
  47 000e 00       		.byte	0
  48 000f 00       		.byte	0
  49 0010 00       		.byte	0
  50 0011 00       		.byte	0
  51 0012 00       		.byte	0
  52 0013 00       		.byte	0
  53 0014 00       		.byte	0
  54 0015 00       		.byte	0
  55 0016 00       		.byte	0
  56 0017 00       		.byte	0
  57 0018 00       		.byte	0
ARM GAS  C:\Users\Brian\AppData\Local\Temp\ccPAhBxt.s 			page 2


  58 0019 00       		.byte	0
  59 001a 00       		.byte	0
  60 001b 00       		.byte	0
  61 001c 00       		.byte	0
  62 001d 00       		.byte	0
  63 001e 00       		.byte	0
  64 001f 00       		.byte	0
  65 0020 00       		.byte	0
  66 0021 00       		.byte	0
  67 0022 00       		.byte	0
  68 0023 00       		.byte	0
  69 0024 00       		.byte	0
  70 0025 00       		.byte	0
  71 0026 00       		.byte	0
  72 0027 00       		.byte	0
  73 0028 00       		.byte	0
  74 0029 00       		.byte	0
  75 002a 00       		.byte	0
  76 002b 00       		.byte	0
  77 002c 00       		.byte	0
  78 002d 00       		.byte	0
  79 002e 00       		.byte	0
  80 002f 00       		.byte	0
  81 0030 00       		.byte	0
  82 0031 00       		.byte	0
  83 0032 00       		.byte	0
  84 0033 00       		.byte	0
  85 0034 00       		.byte	0
  86 0035 00       		.byte	0
  87 0036 00       		.byte	0
  88 0037 00       		.byte	0
  89 0038 00       		.byte	0
  90 0039 00       		.byte	0
  91 003a 00       		.byte	0
  92 003b 00       		.byte	0
  93 003c 00       		.byte	0
  94 003d 00       		.byte	0
  95 003e 00       		.byte	0
  96 003f 00       		.byte	0
  97 0040 00       		.byte	0
  98 0041 00       		.byte	0
  99 0042 00       		.byte	0
 100 0043 00       		.byte	0
 101 0044 00       		.byte	0
 102 0045 00       		.byte	0
 103 0046 00       		.byte	0
 104 0047 00       		.byte	0
 105 0048 00       		.byte	0
 106 0049 00       		.byte	0
 107 004a 00       		.byte	0
 108 004b 00       		.byte	0
 109 004c 00       		.byte	0
 110 004d 00       		.byte	0
 111 004e 00       		.byte	0
 112 004f 00       		.byte	0
 113 0050 00       		.byte	0
 114 0051 00       		.byte	0
ARM GAS  C:\Users\Brian\AppData\Local\Temp\ccPAhBxt.s 			page 3


 115 0052 00       		.byte	0
 116 0053 00       		.byte	0
 117 0054 00       		.byte	0
 118 0055 00       		.byte	0
 119 0056 00       		.byte	0
 120 0057 00       		.byte	0
 121 0058 00       		.byte	0
 122 0059 00       		.byte	0
 123 005a 00       		.byte	0
 124 005b 00       		.byte	0
 125 005c 00       		.byte	0
 126 005d 00       		.byte	0
 127 005e 00       		.byte	0
 128 005f 00       		.byte	0
 129 0060 00       		.byte	0
 130 0061 00       		.byte	0
 131 0062 00       		.byte	0
 132 0063 00       		.byte	0
 133 0064 00       		.byte	0
 134 0065 00       		.byte	0
 135 0066 00       		.byte	0
 136 0067 00       		.byte	0
 137 0068 00       		.byte	0
 138 0069 00       		.byte	0
 139 006a 00       		.byte	0
 140 006b 00       		.byte	0
 141 006c 00       		.byte	0
 142 006d 00       		.byte	0
 143 006e 00       		.byte	0
 144 006f 00       		.byte	0
 145 0070 00       		.byte	0
 146 0071 00       		.byte	0
 147 0072 00       		.byte	0
 148 0073 00       		.byte	0
 149 0074 00       		.byte	0
 150 0075 00       		.byte	0
 151 0076 00       		.byte	0
 152 0077 00       		.byte	0
 153 0078 00       		.byte	0
 154 0079 00       		.byte	0
 155 007a 00       		.byte	0
 156 007b 00       		.byte	0
 157 007c 00       		.byte	0
 158 007d 00       		.byte	0
 159 007e 00       		.byte	0
 160 007f 00       		.byte	0
 161 0080 00       		.byte	0
 162 0081 00       		.byte	0
 163 0082 00       		.byte	0
 164 0083 00       		.byte	0
 165 0084 00       		.byte	0
 166 0085 00       		.byte	0
 167 0086 00       		.byte	0
 168 0087 00       		.byte	0
 169 0088 00       		.byte	0
 170 0089 00       		.byte	0
 171 008a 00       		.byte	0
ARM GAS  C:\Users\Brian\AppData\Local\Temp\ccPAhBxt.s 			page 4


 172 008b 00       		.byte	0
 173 008c 00       		.byte	0
 174 008d 00       		.byte	0
 175 008e 00       		.byte	0
 176 008f 00       		.byte	0
 177 0090 00       		.byte	0
 178 0091 00       		.byte	0
 179 0092 00       		.byte	0
 180 0093 00       		.byte	0
 181 0094 00       		.byte	0
 182 0095 00       		.byte	0
 183 0096 00       		.byte	0
 184 0097 00       		.byte	0
 185 0098 00       		.byte	0
 186 0099 00       		.byte	0
 187 009a 00       		.byte	0
 188 009b 00       		.byte	0
 189 009c 00       		.byte	0
 190 009d 00       		.byte	0
 191 009e 00       		.byte	0
 192 009f 00       		.byte	0
 193 00a0 00       		.byte	0
 194 00a1 00       		.byte	0
 195 00a2 00       		.byte	0
 196 00a3 00       		.byte	0
 197 00a4 00       		.byte	0
 198 00a5 00       		.byte	0
 199 00a6 00       		.byte	0
 200 00a7 00       		.byte	0
 201 00a8 00       		.byte	0
 202 00a9 00       		.byte	0
 203 00aa 00       		.byte	0
 204 00ab 00       		.byte	0
 205 00ac 00       		.byte	0
 206 00ad 00       		.byte	0
 207 00ae 00       		.byte	0
 208 00af 00       		.byte	0
 209 00b0 00       		.byte	0
 210 00b1 00       		.byte	0
 211 00b2 00       		.byte	0
 212 00b3 00       		.byte	0
 213 00b4 00       		.byte	0
 214 00b5 00       		.byte	0
 215 00b6 00       		.byte	0
 216 00b7 00       		.byte	0
 217 00b8 00       		.byte	0
 218 00b9 00       		.byte	0
 219 00ba 00       		.byte	0
 220 00bb 00       		.byte	0
 221 00bc 00       		.byte	0
 222 00bd 00       		.byte	0
 223 00be 00       		.byte	0
 224 00bf 00       		.byte	0
 225 00c0 00       		.byte	0
 226 00c1 00       		.byte	0
 227 00c2 00       		.byte	0
 228 00c3 00       		.byte	0
ARM GAS  C:\Users\Brian\AppData\Local\Temp\ccPAhBxt.s 			page 5


 229 00c4 00       		.byte	0
 230 00c5 00       		.byte	0
 231 00c6 00       		.byte	0
 232 00c7 00       		.byte	0
 233 00c8 00       		.byte	0
 234 00c9 4F       		.byte	79
 235 00ca 00       		.byte	0
 236 00cb 00       		.byte	0
 237 00cc 00       		.byte	0
 238 00cd 00       		.byte	0
 239 00ce 07       		.byte	7
 240 00cf 00       		.byte	0
 241 00d0 07       		.byte	7
 242 00d1 00       		.byte	0
 243 00d2 00       		.byte	0
 244 00d3 14       		.byte	20
 245 00d4 7F       		.byte	127
 246 00d5 14       		.byte	20
 247 00d6 7F       		.byte	127
 248 00d7 14       		.byte	20
 249 00d8 00       		.byte	0
 250 00d9 24       		.byte	36
 251 00da 2A       		.byte	42
 252 00db 7F       		.byte	127
 253 00dc 2A       		.byte	42
 254 00dd 12       		.byte	18
 255 00de 00       		.byte	0
 256 00df 23       		.byte	35
 257 00e0 13       		.byte	19
 258 00e1 08       		.byte	8
 259 00e2 64       		.byte	100
 260 00e3 62       		.byte	98
 261 00e4 00       		.byte	0
 262 00e5 36       		.byte	54
 263 00e6 49       		.byte	73
 264 00e7 55       		.byte	85
 265 00e8 22       		.byte	34
 266 00e9 50       		.byte	80
 267 00ea 00       		.byte	0
 268 00eb 00       		.byte	0
 269 00ec 05       		.byte	5
 270 00ed 03       		.byte	3
 271 00ee 00       		.byte	0
 272 00ef 00       		.byte	0
 273 00f0 00       		.byte	0
 274 00f1 00       		.byte	0
 275 00f2 1C       		.byte	28
 276 00f3 22       		.byte	34
 277 00f4 41       		.byte	65
 278 00f5 00       		.byte	0
 279 00f6 00       		.byte	0
 280 00f7 00       		.byte	0
 281 00f8 41       		.byte	65
 282 00f9 22       		.byte	34
 283 00fa 1C       		.byte	28
 284 00fb 00       		.byte	0
 285 00fc 00       		.byte	0
ARM GAS  C:\Users\Brian\AppData\Local\Temp\ccPAhBxt.s 			page 6


 286 00fd 14       		.byte	20
 287 00fe 08       		.byte	8
 288 00ff 3E       		.byte	62
 289 0100 08       		.byte	8
 290 0101 14       		.byte	20
 291 0102 00       		.byte	0
 292 0103 08       		.byte	8
 293 0104 08       		.byte	8
 294 0105 3E       		.byte	62
 295 0106 08       		.byte	8
 296 0107 08       		.byte	8
 297 0108 00       		.byte	0
 298 0109 00       		.byte	0
 299 010a 50       		.byte	80
 300 010b 30       		.byte	48
 301 010c 00       		.byte	0
 302 010d 00       		.byte	0
 303 010e 00       		.byte	0
 304 010f 08       		.byte	8
 305 0110 08       		.byte	8
 306 0111 08       		.byte	8
 307 0112 08       		.byte	8
 308 0113 08       		.byte	8
 309 0114 00       		.byte	0
 310 0115 00       		.byte	0
 311 0116 60       		.byte	96
 312 0117 60       		.byte	96
 313 0118 00       		.byte	0
 314 0119 00       		.byte	0
 315 011a 00       		.byte	0
 316 011b 20       		.byte	32
 317 011c 10       		.byte	16
 318 011d 08       		.byte	8
 319 011e 04       		.byte	4
 320 011f 02       		.byte	2
 321 0120 00       		.byte	0
 322 0121 3E       		.byte	62
 323 0122 51       		.byte	81
 324 0123 49       		.byte	73
 325 0124 45       		.byte	69
 326 0125 3E       		.byte	62
 327 0126 00       		.byte	0
 328 0127 00       		.byte	0
 329 0128 42       		.byte	66
 330 0129 7F       		.byte	127
 331 012a 40       		.byte	64
 332 012b 00       		.byte	0
 333 012c 00       		.byte	0
 334 012d 42       		.byte	66
 335 012e 61       		.byte	97
 336 012f 51       		.byte	81
 337 0130 49       		.byte	73
 338 0131 46       		.byte	70
 339 0132 00       		.byte	0
 340 0133 21       		.byte	33
 341 0134 41       		.byte	65
 342 0135 45       		.byte	69
ARM GAS  C:\Users\Brian\AppData\Local\Temp\ccPAhBxt.s 			page 7


 343 0136 4B       		.byte	75
 344 0137 31       		.byte	49
 345 0138 00       		.byte	0
 346 0139 18       		.byte	24
 347 013a 14       		.byte	20
 348 013b 12       		.byte	18
 349 013c 7F       		.byte	127
 350 013d 10       		.byte	16
 351 013e 00       		.byte	0
 352 013f 27       		.byte	39
 353 0140 45       		.byte	69
 354 0141 45       		.byte	69
 355 0142 45       		.byte	69
 356 0143 39       		.byte	57
 357 0144 00       		.byte	0
 358 0145 3C       		.byte	60
 359 0146 4A       		.byte	74
 360 0147 49       		.byte	73
 361 0148 49       		.byte	73
 362 0149 30       		.byte	48
 363 014a 00       		.byte	0
 364 014b 01       		.byte	1
 365 014c 71       		.byte	113
 366 014d 09       		.byte	9
 367 014e 05       		.byte	5
 368 014f 03       		.byte	3
 369 0150 00       		.byte	0
 370 0151 36       		.byte	54
 371 0152 49       		.byte	73
 372 0153 49       		.byte	73
 373 0154 49       		.byte	73
 374 0155 36       		.byte	54
 375 0156 00       		.byte	0
 376 0157 06       		.byte	6
 377 0158 49       		.byte	73
 378 0159 49       		.byte	73
 379 015a 29       		.byte	41
 380 015b 1E       		.byte	30
 381 015c 00       		.byte	0
 382 015d 36       		.byte	54
 383 015e 36       		.byte	54
 384 015f 00       		.byte	0
 385 0160 00       		.byte	0
 386 0161 00       		.byte	0
 387 0162 00       		.byte	0
 388 0163 56       		.byte	86
 389 0164 36       		.byte	54
 390 0165 00       		.byte	0
 391 0166 00       		.byte	0
 392 0167 00       		.byte	0
 393 0168 00       		.byte	0
 394 0169 08       		.byte	8
 395 016a 14       		.byte	20
 396 016b 22       		.byte	34
 397 016c 41       		.byte	65
 398 016d 00       		.byte	0
 399 016e 00       		.byte	0
ARM GAS  C:\Users\Brian\AppData\Local\Temp\ccPAhBxt.s 			page 8


 400 016f 14       		.byte	20
 401 0170 14       		.byte	20
 402 0171 14       		.byte	20
 403 0172 14       		.byte	20
 404 0173 14       		.byte	20
 405 0174 00       		.byte	0
 406 0175 00       		.byte	0
 407 0176 41       		.byte	65
 408 0177 22       		.byte	34
 409 0178 14       		.byte	20
 410 0179 08       		.byte	8
 411 017a 00       		.byte	0
 412 017b 02       		.byte	2
 413 017c 01       		.byte	1
 414 017d 51       		.byte	81
 415 017e 09       		.byte	9
 416 017f 06       		.byte	6
 417 0180 00       		.byte	0
 418 0181 30       		.byte	48
 419 0182 49       		.byte	73
 420 0183 79       		.byte	121
 421 0184 41       		.byte	65
 422 0185 3E       		.byte	62
 423 0186 00       		.byte	0
 424 0187 7E       		.byte	126
 425 0188 11       		.byte	17
 426 0189 11       		.byte	17
 427 018a 11       		.byte	17
 428 018b 7E       		.byte	126
 429 018c 00       		.byte	0
 430 018d 7F       		.byte	127
 431 018e 49       		.byte	73
 432 018f 49       		.byte	73
 433 0190 49       		.byte	73
 434 0191 36       		.byte	54
 435 0192 00       		.byte	0
 436 0193 3E       		.byte	62
 437 0194 41       		.byte	65
 438 0195 41       		.byte	65
 439 0196 41       		.byte	65
 440 0197 22       		.byte	34
 441 0198 00       		.byte	0
 442 0199 7F       		.byte	127
 443 019a 41       		.byte	65
 444 019b 41       		.byte	65
 445 019c 22       		.byte	34
 446 019d 1C       		.byte	28
 447 019e 00       		.byte	0
 448 019f 7F       		.byte	127
 449 01a0 49       		.byte	73
 450 01a1 49       		.byte	73
 451 01a2 49       		.byte	73
 452 01a3 41       		.byte	65
 453 01a4 00       		.byte	0
 454 01a5 7F       		.byte	127
 455 01a6 09       		.byte	9
 456 01a7 09       		.byte	9
ARM GAS  C:\Users\Brian\AppData\Local\Temp\ccPAhBxt.s 			page 9


 457 01a8 09       		.byte	9
 458 01a9 01       		.byte	1
 459 01aa 00       		.byte	0
 460 01ab 3E       		.byte	62
 461 01ac 41       		.byte	65
 462 01ad 49       		.byte	73
 463 01ae 49       		.byte	73
 464 01af 7A       		.byte	122
 465 01b0 00       		.byte	0
 466 01b1 7F       		.byte	127
 467 01b2 08       		.byte	8
 468 01b3 08       		.byte	8
 469 01b4 08       		.byte	8
 470 01b5 7F       		.byte	127
 471 01b6 00       		.byte	0
 472 01b7 00       		.byte	0
 473 01b8 41       		.byte	65
 474 01b9 7F       		.byte	127
 475 01ba 41       		.byte	65
 476 01bb 00       		.byte	0
 477 01bc 00       		.byte	0
 478 01bd 20       		.byte	32
 479 01be 40       		.byte	64
 480 01bf 41       		.byte	65
 481 01c0 3F       		.byte	63
 482 01c1 01       		.byte	1
 483 01c2 00       		.byte	0
 484 01c3 7F       		.byte	127
 485 01c4 08       		.byte	8
 486 01c5 14       		.byte	20
 487 01c6 22       		.byte	34
 488 01c7 41       		.byte	65
 489 01c8 00       		.byte	0
 490 01c9 7F       		.byte	127
 491 01ca 40       		.byte	64
 492 01cb 40       		.byte	64
 493 01cc 40       		.byte	64
 494 01cd 40       		.byte	64
 495 01ce 00       		.byte	0
 496 01cf 7F       		.byte	127
 497 01d0 02       		.byte	2
 498 01d1 0C       		.byte	12
 499 01d2 02       		.byte	2
 500 01d3 7F       		.byte	127
 501 01d4 00       		.byte	0
 502 01d5 7F       		.byte	127
 503 01d6 04       		.byte	4
 504 01d7 08       		.byte	8
 505 01d8 10       		.byte	16
 506 01d9 7F       		.byte	127
 507 01da 00       		.byte	0
 508 01db 3E       		.byte	62
 509 01dc 41       		.byte	65
 510 01dd 41       		.byte	65
 511 01de 41       		.byte	65
 512 01df 3E       		.byte	62
 513 01e0 00       		.byte	0
ARM GAS  C:\Users\Brian\AppData\Local\Temp\ccPAhBxt.s 			page 10


 514 01e1 7F       		.byte	127
 515 01e2 09       		.byte	9
 516 01e3 09       		.byte	9
 517 01e4 09       		.byte	9
 518 01e5 06       		.byte	6
 519 01e6 00       		.byte	0
 520 01e7 3E       		.byte	62
 521 01e8 41       		.byte	65
 522 01e9 51       		.byte	81
 523 01ea 21       		.byte	33
 524 01eb 5E       		.byte	94
 525 01ec 00       		.byte	0
 526 01ed 7F       		.byte	127
 527 01ee 09       		.byte	9
 528 01ef 19       		.byte	25
 529 01f0 29       		.byte	41
 530 01f1 46       		.byte	70
 531 01f2 00       		.byte	0
 532 01f3 46       		.byte	70
 533 01f4 49       		.byte	73
 534 01f5 49       		.byte	73
 535 01f6 49       		.byte	73
 536 01f7 31       		.byte	49
 537 01f8 00       		.byte	0
 538 01f9 01       		.byte	1
 539 01fa 01       		.byte	1
 540 01fb 7F       		.byte	127
 541 01fc 01       		.byte	1
 542 01fd 01       		.byte	1
 543 01fe 00       		.byte	0
 544 01ff 3F       		.byte	63
 545 0200 40       		.byte	64
 546 0201 40       		.byte	64
 547 0202 40       		.byte	64
 548 0203 3F       		.byte	63
 549 0204 00       		.byte	0
 550 0205 1F       		.byte	31
 551 0206 20       		.byte	32
 552 0207 40       		.byte	64
 553 0208 20       		.byte	32
 554 0209 1F       		.byte	31
 555 020a 00       		.byte	0
 556 020b 3F       		.byte	63
 557 020c 40       		.byte	64
 558 020d 30       		.byte	48
 559 020e 40       		.byte	64
 560 020f 3F       		.byte	63
 561 0210 00       		.byte	0
 562 0211 63       		.byte	99
 563 0212 14       		.byte	20
 564 0213 08       		.byte	8
 565 0214 14       		.byte	20
 566 0215 63       		.byte	99
 567 0216 00       		.byte	0
 568 0217 07       		.byte	7
 569 0218 08       		.byte	8
 570 0219 70       		.byte	112
ARM GAS  C:\Users\Brian\AppData\Local\Temp\ccPAhBxt.s 			page 11


 571 021a 08       		.byte	8
 572 021b 07       		.byte	7
 573 021c 00       		.byte	0
 574 021d 61       		.byte	97
 575 021e 51       		.byte	81
 576 021f 49       		.byte	73
 577 0220 45       		.byte	69
 578 0221 43       		.byte	67
 579 0222 00       		.byte	0
 580 0223 00       		.byte	0
 581 0224 7F       		.byte	127
 582 0225 41       		.byte	65
 583 0226 41       		.byte	65
 584 0227 00       		.byte	0
 585 0228 00       		.byte	0
 586 0229 02       		.byte	2
 587 022a 04       		.byte	4
 588 022b 08       		.byte	8
 589 022c 10       		.byte	16
 590 022d 20       		.byte	32
 591 022e 00       		.byte	0
 592 022f 00       		.byte	0
 593 0230 41       		.byte	65
 594 0231 41       		.byte	65
 595 0232 7F       		.byte	127
 596 0233 00       		.byte	0
 597 0234 00       		.byte	0
 598 0235 04       		.byte	4
 599 0236 02       		.byte	2
 600 0237 01       		.byte	1
 601 0238 02       		.byte	2
 602 0239 04       		.byte	4
 603 023a 00       		.byte	0
 604 023b 40       		.byte	64
 605 023c 40       		.byte	64
 606 023d 40       		.byte	64
 607 023e 40       		.byte	64
 608 023f 40       		.byte	64
 609 0240 00       		.byte	0
 610 0241 00       		.byte	0
 611 0242 01       		.byte	1
 612 0243 02       		.byte	2
 613 0244 04       		.byte	4
 614 0245 00       		.byte	0
 615 0246 00       		.byte	0
 616 0247 20       		.byte	32
 617 0248 54       		.byte	84
 618 0249 54       		.byte	84
 619 024a 54       		.byte	84
 620 024b 78       		.byte	120
 621 024c 00       		.byte	0
 622 024d 7F       		.byte	127
 623 024e 50       		.byte	80
 624 024f 48       		.byte	72
 625 0250 48       		.byte	72
 626 0251 30       		.byte	48
 627 0252 00       		.byte	0
ARM GAS  C:\Users\Brian\AppData\Local\Temp\ccPAhBxt.s 			page 12


 628 0253 38       		.byte	56
 629 0254 44       		.byte	68
 630 0255 44       		.byte	68
 631 0256 44       		.byte	68
 632 0257 20       		.byte	32
 633 0258 00       		.byte	0
 634 0259 38       		.byte	56
 635 025a 44       		.byte	68
 636 025b 44       		.byte	68
 637 025c 48       		.byte	72
 638 025d 7F       		.byte	127
 639 025e 00       		.byte	0
 640 025f 38       		.byte	56
 641 0260 54       		.byte	84
 642 0261 54       		.byte	84
 643 0262 54       		.byte	84
 644 0263 18       		.byte	24
 645 0264 00       		.byte	0
 646 0265 08       		.byte	8
 647 0266 7E       		.byte	126
 648 0267 09       		.byte	9
 649 0268 01       		.byte	1
 650 0269 02       		.byte	2
 651 026a 00       		.byte	0
 652 026b 0C       		.byte	12
 653 026c 52       		.byte	82
 654 026d 52       		.byte	82
 655 026e 52       		.byte	82
 656 026f 3E       		.byte	62
 657 0270 00       		.byte	0
 658 0271 7F       		.byte	127
 659 0272 08       		.byte	8
 660 0273 04       		.byte	4
 661 0274 04       		.byte	4
 662 0275 78       		.byte	120
 663 0276 00       		.byte	0
 664 0277 00       		.byte	0
 665 0278 44       		.byte	68
 666 0279 7D       		.byte	125
 667 027a 40       		.byte	64
 668 027b 00       		.byte	0
 669 027c 00       		.byte	0
 670 027d 20       		.byte	32
 671 027e 40       		.byte	64
 672 027f 44       		.byte	68
 673 0280 3D       		.byte	61
 674 0281 00       		.byte	0
 675 0282 00       		.byte	0
 676 0283 7F       		.byte	127
 677 0284 10       		.byte	16
 678 0285 28       		.byte	40
 679 0286 44       		.byte	68
 680 0287 00       		.byte	0
 681 0288 00       		.byte	0
 682 0289 00       		.byte	0
 683 028a 41       		.byte	65
 684 028b 7F       		.byte	127
ARM GAS  C:\Users\Brian\AppData\Local\Temp\ccPAhBxt.s 			page 13


 685 028c 40       		.byte	64
 686 028d 00       		.byte	0
 687 028e 00       		.byte	0
 688 028f 78       		.byte	120
 689 0290 04       		.byte	4
 690 0291 58       		.byte	88
 691 0292 44       		.byte	68
 692 0293 78       		.byte	120
 693 0294 00       		.byte	0
 694 0295 7C       		.byte	124
 695 0296 08       		.byte	8
 696 0297 04       		.byte	4
 697 0298 04       		.byte	4
 698 0299 78       		.byte	120
 699 029a 00       		.byte	0
 700 029b 38       		.byte	56
 701 029c 44       		.byte	68
 702 029d 44       		.byte	68
 703 029e 44       		.byte	68
 704 029f 38       		.byte	56
 705 02a0 00       		.byte	0
 706 02a1 7C       		.byte	124
 707 02a2 14       		.byte	20
 708 02a3 14       		.byte	20
 709 02a4 14       		.byte	20
 710 02a5 08       		.byte	8
 711 02a6 00       		.byte	0
 712 02a7 08       		.byte	8
 713 02a8 14       		.byte	20
 714 02a9 14       		.byte	20
 715 02aa 18       		.byte	24
 716 02ab 7C       		.byte	124
 717 02ac 00       		.byte	0
 718 02ad 7C       		.byte	124
 719 02ae 08       		.byte	8
 720 02af 04       		.byte	4
 721 02b0 04       		.byte	4
 722 02b1 08       		.byte	8
 723 02b2 00       		.byte	0
 724 02b3 48       		.byte	72
 725 02b4 54       		.byte	84
 726 02b5 54       		.byte	84
 727 02b6 54       		.byte	84
 728 02b7 20       		.byte	32
 729 02b8 00       		.byte	0
 730 02b9 04       		.byte	4
 731 02ba 3F       		.byte	63
 732 02bb 44       		.byte	68
 733 02bc 40       		.byte	64
 734 02bd 20       		.byte	32
 735 02be 00       		.byte	0
 736 02bf 3C       		.byte	60
 737 02c0 40       		.byte	64
 738 02c1 40       		.byte	64
 739 02c2 20       		.byte	32
 740 02c3 7C       		.byte	124
 741 02c4 00       		.byte	0
ARM GAS  C:\Users\Brian\AppData\Local\Temp\ccPAhBxt.s 			page 14


 742 02c5 1C       		.byte	28
 743 02c6 20       		.byte	32
 744 02c7 40       		.byte	64
 745 02c8 20       		.byte	32
 746 02c9 1C       		.byte	28
 747 02ca 00       		.byte	0
 748 02cb 3C       		.byte	60
 749 02cc 40       		.byte	64
 750 02cd 30       		.byte	48
 751 02ce 40       		.byte	64
 752 02cf 3C       		.byte	60
 753 02d0 00       		.byte	0
 754 02d1 44       		.byte	68
 755 02d2 28       		.byte	40
 756 02d3 10       		.byte	16
 757 02d4 28       		.byte	40
 758 02d5 44       		.byte	68
 759 02d6 00       		.byte	0
 760 02d7 0C       		.byte	12
 761 02d8 50       		.byte	80
 762 02d9 50       		.byte	80
 763 02da 50       		.byte	80
 764 02db 3C       		.byte	60
 765 02dc 00       		.byte	0
 766 02dd 44       		.byte	68
 767 02de 64       		.byte	100
 768 02df 54       		.byte	84
 769 02e0 4C       		.byte	76
 770 02e1 44       		.byte	68
 771 02e2 00       		.byte	0
 772 02e3 00       		.byte	0
 773 02e4 08       		.byte	8
 774 02e5 36       		.byte	54
 775 02e6 41       		.byte	65
 776 02e7 00       		.byte	0
 777 02e8 00       		.byte	0
 778 02e9 00       		.byte	0
 779 02ea 00       		.byte	0
 780 02eb 7F       		.byte	127
 781 02ec 00       		.byte	0
 782 02ed 00       		.byte	0
 783 02ee 00       		.byte	0
 784 02ef 00       		.byte	0
 785 02f0 41       		.byte	65
 786 02f1 36       		.byte	54
 787 02f2 08       		.byte	8
 788 02f3 00       		.byte	0
 789 02f4 00       		.byte	0
 790 02f5 0C       		.byte	12
 791 02f6 02       		.byte	2
 792 02f7 0C       		.byte	12
 793 02f8 10       		.byte	16
 794 02f9 0C       		.byte	12
 795 02fa 00       		.byte	0
 796 02fb 00       		.byte	0
 797 02fc 00       		.byte	0
 798 02fd 00       		.byte	0
ARM GAS  C:\Users\Brian\AppData\Local\Temp\ccPAhBxt.s 			page 15


 799 02fe 00       		.byte	0
 800 02ff 00       		.byte	0
 801              		.section	.text.TFTSHIELD_1_Start,"ax",%progbits
 802              		.align	2
 803              		.global	TFTSHIELD_1_Start
 804              		.thumb
 805              		.thumb_func
 806              		.type	TFTSHIELD_1_Start, %function
 807              	TFTSHIELD_1_Start:
 808              	.LFB0:
 809              		.file 1 ".\\Generated_Source\\PSoC5\\TFTSHIELD_1.c"
   1:.\Generated_Source\PSoC5/TFTSHIELD_1.c **** /**
   2:.\Generated_Source\PSoC5/TFTSHIELD_1.c **** * \file TFTSHIELD.c
   3:.\Generated_Source\PSoC5/TFTSHIELD_1.c **** * \brief This file provides the source code to the API for the TFTSHIELD
   4:.\Generated_Source\PSoC5/TFTSHIELD_1.c **** *   component
   5:.\Generated_Source\PSoC5/TFTSHIELD_1.c **** *
   6:.\Generated_Source\PSoC5/TFTSHIELD_1.c **** * Version 1.0
   7:.\Generated_Source\PSoC5/TFTSHIELD_1.c **** *
   8:.\Generated_Source\PSoC5/TFTSHIELD_1.c **** * \author Robert Barron
   9:.\Generated_Source\PSoC5/TFTSHIELD_1.c **** *
  10:.\Generated_Source\PSoC5/TFTSHIELD_1.c **** * \bug The text and shape drawing origins are in opposite corners, at least when the screen orienta
  11:.\Generated_Source\PSoC5/TFTSHIELD_1.c **** *
  12:.\Generated_Source\PSoC5/TFTSHIELD_1.c **** * 
  13:.\Generated_Source\PSoC5/TFTSHIELD_1.c **** *
  14:.\Generated_Source\PSoC5/TFTSHIELD_1.c **** * Copyright RPI Design Lab, 2014
  15:.\Generated_Source\PSoC5/TFTSHIELD_1.c **** * All Rights Reserved
  16:.\Generated_Source\PSoC5/TFTSHIELD_1.c **** * UNPUBLISHED, LICENSED SOFTWARE.
  17:.\Generated_Source\PSoC5/TFTSHIELD_1.c **** *
  18:.\Generated_Source\PSoC5/TFTSHIELD_1.c **** * CONFIDENTIAL AND PROPRIETARY INFORMATION
  19:.\Generated_Source\PSoC5/TFTSHIELD_1.c **** * WHICH IS THE PROPERTY OF the RPI Design Lab.
  20:.\Generated_Source\PSoC5/TFTSHIELD_1.c **** *
  21:.\Generated_Source\PSoC5/TFTSHIELD_1.c **** * 
  22:.\Generated_Source\PSoC5/TFTSHIELD_1.c **** */
  23:.\Generated_Source\PSoC5/TFTSHIELD_1.c **** 
  24:.\Generated_Source\PSoC5/TFTSHIELD_1.c **** #include "TFTSHIELD_1.h"
  25:.\Generated_Source\PSoC5/TFTSHIELD_1.c **** 
  26:.\Generated_Source\PSoC5/TFTSHIELD_1.c **** /*uint16 color_pass;
  27:.\Generated_Source\PSoC5/TFTSHIELD_1.c **** uint16 wave_table[ROW], count,x,i=0,j=0,k=2;
  28:.\Generated_Source\PSoC5/TFTSHIELD_1.c **** uint8 amplitude,wave,wave_color,set;
  29:.\Generated_Source\PSoC5/TFTSHIELD_1.c **** uint8 ch,tri;*/
  30:.\Generated_Source\PSoC5/TFTSHIELD_1.c **** 
  31:.\Generated_Source\PSoC5/TFTSHIELD_1.c **** /** @brief ASCII font*/
  32:.\Generated_Source\PSoC5/TFTSHIELD_1.c **** const char fontA[128][6]  =
  33:.\Generated_Source\PSoC5/TFTSHIELD_1.c **** {
  34:.\Generated_Source\PSoC5/TFTSHIELD_1.c **** 	{0x00,0x00,0x00,0x00,0x00,0x00},
  35:.\Generated_Source\PSoC5/TFTSHIELD_1.c **** 	{0x00,0x00,0x00,0x00,0x00,0x00},
  36:.\Generated_Source\PSoC5/TFTSHIELD_1.c **** 	{0x00,0x00,0x00,0x00,0x00,0x00},
  37:.\Generated_Source\PSoC5/TFTSHIELD_1.c **** 	{0x00,0x00,0x00,0x00,0x00,0x00},
  38:.\Generated_Source\PSoC5/TFTSHIELD_1.c **** 	{0x00,0x00,0x00,0x00,0x00,0x00},
  39:.\Generated_Source\PSoC5/TFTSHIELD_1.c **** 	{0x00,0x00,0x00,0x00,0x00,0x00},
  40:.\Generated_Source\PSoC5/TFTSHIELD_1.c **** 	{0x00,0x00,0x00,0x00,0x00,0x00},
  41:.\Generated_Source\PSoC5/TFTSHIELD_1.c **** 	{0x00,0x00,0x00,0x00,0x00,0x00},
  42:.\Generated_Source\PSoC5/TFTSHIELD_1.c **** 	{0x00,0x00,0x00,0x00,0x00,0x00},
  43:.\Generated_Source\PSoC5/TFTSHIELD_1.c **** 	{0x00,0x00,0x00,0x00,0x00,0x00},
  44:.\Generated_Source\PSoC5/TFTSHIELD_1.c **** 	{0x00,0x00,0x00,0x00,0x00,0x00},
  45:.\Generated_Source\PSoC5/TFTSHIELD_1.c **** 	{0x00,0x00,0x00,0x00,0x00,0x00},
  46:.\Generated_Source\PSoC5/TFTSHIELD_1.c **** 	{0x00,0x00,0x00,0x00,0x00,0x00},
ARM GAS  C:\Users\Brian\AppData\Local\Temp\ccPAhBxt.s 			page 16


  47:.\Generated_Source\PSoC5/TFTSHIELD_1.c **** 	{0x00,0x00,0x00,0x00,0x00,0x00},
  48:.\Generated_Source\PSoC5/TFTSHIELD_1.c **** 	{0x00,0x00,0x00,0x00,0x00,0x00},
  49:.\Generated_Source\PSoC5/TFTSHIELD_1.c **** 	{0x00,0x00,0x00,0x00,0x00,0x00},
  50:.\Generated_Source\PSoC5/TFTSHIELD_1.c **** 	{0x00,0x00,0x00,0x00,0x00,0x00},
  51:.\Generated_Source\PSoC5/TFTSHIELD_1.c **** 	{0x00,0x00,0x00,0x00,0x00,0x00},
  52:.\Generated_Source\PSoC5/TFTSHIELD_1.c **** 	{0x00,0x00,0x00,0x00,0x00,0x00},
  53:.\Generated_Source\PSoC5/TFTSHIELD_1.c **** 	{0x00,0x00,0x00,0x00,0x00,0x00},
  54:.\Generated_Source\PSoC5/TFTSHIELD_1.c **** 	{0x00,0x00,0x00,0x00,0x00,0x00},
  55:.\Generated_Source\PSoC5/TFTSHIELD_1.c **** 	{0x00,0x00,0x00,0x00,0x00,0x00},
  56:.\Generated_Source\PSoC5/TFTSHIELD_1.c **** 	{0x00,0x00,0x00,0x00,0x00,0x00},
  57:.\Generated_Source\PSoC5/TFTSHIELD_1.c **** 	{0x00,0x00,0x00,0x00,0x00,0x00},
  58:.\Generated_Source\PSoC5/TFTSHIELD_1.c **** 	{0x00,0x00,0x00,0x00,0x00,0x00},
  59:.\Generated_Source\PSoC5/TFTSHIELD_1.c **** 	{0x00,0x00,0x00,0x00,0x00,0x00},
  60:.\Generated_Source\PSoC5/TFTSHIELD_1.c **** 	{0x00,0x00,0x00,0x00,0x00,0x00},
  61:.\Generated_Source\PSoC5/TFTSHIELD_1.c **** 	{0x00,0x00,0x00,0x00,0x00,0x00},
  62:.\Generated_Source\PSoC5/TFTSHIELD_1.c **** 	{0x00,0x00,0x00,0x00,0x00,0x00},
  63:.\Generated_Source\PSoC5/TFTSHIELD_1.c **** 	{0x00,0x00,0x00,0x00,0x00,0x00},
  64:.\Generated_Source\PSoC5/TFTSHIELD_1.c **** 	{0x00,0x00,0x00,0x00,0x00,0x00},
  65:.\Generated_Source\PSoC5/TFTSHIELD_1.c **** 	{0x00,0x00,0x00,0x00,0x00,0x00},
  66:.\Generated_Source\PSoC5/TFTSHIELD_1.c ****  
  67:.\Generated_Source\PSoC5/TFTSHIELD_1.c **** 	{0x00,0x00,0x00,0x00,0x00,0x00},	// SPACE
  68:.\Generated_Source\PSoC5/TFTSHIELD_1.c ****  
  69:.\Generated_Source\PSoC5/TFTSHIELD_1.c **** 	{0x00,0x00,0x00,0x4F,0x00,0x00},	// !
  70:.\Generated_Source\PSoC5/TFTSHIELD_1.c **** 	{0x00,0x00,0x07,0x00,0x07,0x00},	// "
  71:.\Generated_Source\PSoC5/TFTSHIELD_1.c **** 	{0x00,0x14,0x7F,0x14,0x7F,0x14},	// #
  72:.\Generated_Source\PSoC5/TFTSHIELD_1.c **** 	{0x00,0x24,0x2A,0x7F,0x2A,0x12},	// $
  73:.\Generated_Source\PSoC5/TFTSHIELD_1.c **** 	{0x00,0x23,0x13,0x08,0x64,0x62},	// %
  74:.\Generated_Source\PSoC5/TFTSHIELD_1.c **** 	{0x00,0x36,0x49,0x55,0x22,0x50},	// &
  75:.\Generated_Source\PSoC5/TFTSHIELD_1.c **** 	{0x00,0x00,0x05,0x03,0x00,0x00},	// '
  76:.\Generated_Source\PSoC5/TFTSHIELD_1.c **** 	{0x00,0x00,0x1C,0x22,0x41,0x00},	// (
  77:.\Generated_Source\PSoC5/TFTSHIELD_1.c **** 	{0x00,0x00,0x41,0x22,0x1C,0x00},	// )
  78:.\Generated_Source\PSoC5/TFTSHIELD_1.c **** 	{0x00,0x14,0x08,0x3E,0x08,0x14},	// *
  79:.\Generated_Source\PSoC5/TFTSHIELD_1.c **** 	{0x00,0x08,0x08,0x3E,0x08,0x08},	// +
  80:.\Generated_Source\PSoC5/TFTSHIELD_1.c **** 	{0x00,0x00,0x50,0x30,0x00,0x00},	// ,
  81:.\Generated_Source\PSoC5/TFTSHIELD_1.c **** 	{0x00,0x08,0x08,0x08,0x08,0x08},	// -
  82:.\Generated_Source\PSoC5/TFTSHIELD_1.c **** 	{0x00,0x00,0x60,0x60,0x00,0x00},	// .
  83:.\Generated_Source\PSoC5/TFTSHIELD_1.c **** 	{0x00,0x20,0x10,0x08,0x04,0x02},	// /
  84:.\Generated_Source\PSoC5/TFTSHIELD_1.c ****  
  85:.\Generated_Source\PSoC5/TFTSHIELD_1.c **** 	{0x00,0x3E,0x51,0x49,0x45,0x3E},	// 0
  86:.\Generated_Source\PSoC5/TFTSHIELD_1.c **** 	{0x00,0x00,0x42,0x7F,0x40,0x00},	// 1
  87:.\Generated_Source\PSoC5/TFTSHIELD_1.c **** 	{0x00,0x42,0x61,0x51,0x49,0x46},	// 2
  88:.\Generated_Source\PSoC5/TFTSHIELD_1.c **** 	{0x00,0x21,0x41,0x45,0x4B,0x31},	// 3
  89:.\Generated_Source\PSoC5/TFTSHIELD_1.c **** 	{0x00,0x18,0x14,0x12,0x7F,0x10},	// 4
  90:.\Generated_Source\PSoC5/TFTSHIELD_1.c **** 	{0x00,0x27,0x45,0x45,0x45,0x39},	// 5
  91:.\Generated_Source\PSoC5/TFTSHIELD_1.c **** 	{0x00,0x3C,0x4A,0x49,0x49,0x30},	// 6
  92:.\Generated_Source\PSoC5/TFTSHIELD_1.c **** 	{0x00,0x01,0x71,0x09,0x05,0x03},	// 7
  93:.\Generated_Source\PSoC5/TFTSHIELD_1.c **** 	{0x00,0x36,0x49,0x49,0x49,0x36},	// 8
  94:.\Generated_Source\PSoC5/TFTSHIELD_1.c **** 	{0x00,0x06,0x49,0x49,0x29,0x1E},	// 9
  95:.\Generated_Source\PSoC5/TFTSHIELD_1.c ****  
  96:.\Generated_Source\PSoC5/TFTSHIELD_1.c **** 	{0x00,0x36,0x36,0x00,0x00,0x00},	// :
  97:.\Generated_Source\PSoC5/TFTSHIELD_1.c **** 	{0x00,0x56,0x36,0x00,0x00,0x00},	// ;
  98:.\Generated_Source\PSoC5/TFTSHIELD_1.c **** 	{0x00,0x08,0x14,0x22,0x41,0x00},	// <
  99:.\Generated_Source\PSoC5/TFTSHIELD_1.c **** 	{0x00,0x14,0x14,0x14,0x14,0x14},	// =
 100:.\Generated_Source\PSoC5/TFTSHIELD_1.c **** 	{0x00,0x00,0x41,0x22,0x14,0x08},	// >
 101:.\Generated_Source\PSoC5/TFTSHIELD_1.c **** 	{0x00,0x02,0x01,0x51,0x09,0x06},	// ?
 102:.\Generated_Source\PSoC5/TFTSHIELD_1.c **** 	{0x00,0x30,0x49,0x79,0x41,0x3E},	// @
 103:.\Generated_Source\PSoC5/TFTSHIELD_1.c ****  
ARM GAS  C:\Users\Brian\AppData\Local\Temp\ccPAhBxt.s 			page 17


 104:.\Generated_Source\PSoC5/TFTSHIELD_1.c **** 	{0x00,0x7E,0x11,0x11,0x11,0x7E},	// A
 105:.\Generated_Source\PSoC5/TFTSHIELD_1.c **** 	{0x00,0x7F,0x49,0x49,0x49,0x36},	// B
 106:.\Generated_Source\PSoC5/TFTSHIELD_1.c **** 	{0x00,0x3E,0x41,0x41,0x41,0x22},	// C
 107:.\Generated_Source\PSoC5/TFTSHIELD_1.c **** 	{0x00,0x7F,0x41,0x41,0x22,0x1C},	// D
 108:.\Generated_Source\PSoC5/TFTSHIELD_1.c **** 	{0x00,0x7F,0x49,0x49,0x49,0x41},	// E
 109:.\Generated_Source\PSoC5/TFTSHIELD_1.c **** 	{0x00,0x7F,0x09,0x09,0x09,0x01},	// F
 110:.\Generated_Source\PSoC5/TFTSHIELD_1.c **** 	{0x00,0x3E,0x41,0x49,0x49,0x7A},	// G
 111:.\Generated_Source\PSoC5/TFTSHIELD_1.c **** 	{0x00,0x7F,0x08,0x08,0x08,0x7F},	// H
 112:.\Generated_Source\PSoC5/TFTSHIELD_1.c **** 	{0x00,0x00,0x41,0x7F,0x41,0x00},	// I
 113:.\Generated_Source\PSoC5/TFTSHIELD_1.c **** 	{0x00,0x20,0x40,0x41,0x3F,0x01},	// J
 114:.\Generated_Source\PSoC5/TFTSHIELD_1.c **** 	{0x00,0x7F,0x08,0x14,0x22,0x41},	// K
 115:.\Generated_Source\PSoC5/TFTSHIELD_1.c **** 	{0x00,0x7F,0x40,0x40,0x40,0x40},	// L
 116:.\Generated_Source\PSoC5/TFTSHIELD_1.c **** 	{0x00,0x7F,0x02,0x0C,0x02,0x7F},	// M
 117:.\Generated_Source\PSoC5/TFTSHIELD_1.c **** 	{0x00,0x7F,0x04,0x08,0x10,0x7F},	// N
 118:.\Generated_Source\PSoC5/TFTSHIELD_1.c **** 	{0x00,0x3E,0x41,0x41,0x41,0x3E},	// O
 119:.\Generated_Source\PSoC5/TFTSHIELD_1.c **** 	{0x00,0x7F,0x09,0x09,0x09,0x06},	// P
 120:.\Generated_Source\PSoC5/TFTSHIELD_1.c **** 	{0x00,0x3E,0x41,0x51,0x21,0x5E},	// Q
 121:.\Generated_Source\PSoC5/TFTSHIELD_1.c **** 	{0x00,0x7F,0x09,0x19,0x29,0x46},	// R
 122:.\Generated_Source\PSoC5/TFTSHIELD_1.c **** 	{0x00,0x46,0x49,0x49,0x49,0x31},	// S
 123:.\Generated_Source\PSoC5/TFTSHIELD_1.c **** 	{0x00,0x01,0x01,0x7F,0x01,0x01},	// T
 124:.\Generated_Source\PSoC5/TFTSHIELD_1.c **** 	{0x00,0x3F,0x40,0x40,0x40,0x3F},	// U
 125:.\Generated_Source\PSoC5/TFTSHIELD_1.c **** 	{0x00,0x1F,0x20,0x40,0x20,0x1F},	// V
 126:.\Generated_Source\PSoC5/TFTSHIELD_1.c **** 	{0x00,0x3F,0x40,0x30,0x40,0x3F},	// W
 127:.\Generated_Source\PSoC5/TFTSHIELD_1.c **** 	{0x00,0x63,0x14,0x08,0x14,0x63},	// X
 128:.\Generated_Source\PSoC5/TFTSHIELD_1.c **** 	{0x00,0x07,0x08,0x70,0x08,0x07},	// Y
 129:.\Generated_Source\PSoC5/TFTSHIELD_1.c **** 	{0x00,0x61,0x51,0x49,0x45,0x43},	// Z
 130:.\Generated_Source\PSoC5/TFTSHIELD_1.c ****  
 131:.\Generated_Source\PSoC5/TFTSHIELD_1.c **** 	{0x00,0x00,0x7F,0x41,0x41,0x00},	// [
 132:.\Generated_Source\PSoC5/TFTSHIELD_1.c **** 	{0x00,0x02,0x04,0x08,0x10,0x20},	// backslash
 133:.\Generated_Source\PSoC5/TFTSHIELD_1.c **** 	{0x00,0x00,0x41,0x41,0x7F,0x00},	// ]
 134:.\Generated_Source\PSoC5/TFTSHIELD_1.c **** 	{0x00,0x04,0x02,0x01,0x02,0x04},	// ^
 135:.\Generated_Source\PSoC5/TFTSHIELD_1.c **** 	{0x00,0x40,0x40,0x40,0x40,0x40},	// _
 136:.\Generated_Source\PSoC5/TFTSHIELD_1.c **** 	{0x00,0x00,0x01,0x02,0x04,0x00},	// `
 137:.\Generated_Source\PSoC5/TFTSHIELD_1.c ****  
 138:.\Generated_Source\PSoC5/TFTSHIELD_1.c **** 	{0x00,0x20,0x54,0x54,0x54,0x78},	// a
 139:.\Generated_Source\PSoC5/TFTSHIELD_1.c **** 	{0x00,0x7F,0x50,0x48,0x48,0x30},	// b
 140:.\Generated_Source\PSoC5/TFTSHIELD_1.c **** 	{0x00,0x38,0x44,0x44,0x44,0x20},	// c
 141:.\Generated_Source\PSoC5/TFTSHIELD_1.c **** 	{0x00,0x38,0x44,0x44,0x48,0x7F},	// d
 142:.\Generated_Source\PSoC5/TFTSHIELD_1.c **** 	{0x00,0x38,0x54,0x54,0x54,0x18},	// e
 143:.\Generated_Source\PSoC5/TFTSHIELD_1.c **** 	{0x00,0x08,0x7E,0x09,0x01,0x02},	// f
 144:.\Generated_Source\PSoC5/TFTSHIELD_1.c **** 	{0x00,0x0C,0x52,0x52,0x52,0x3E},	// g
 145:.\Generated_Source\PSoC5/TFTSHIELD_1.c **** 	{0x00,0x7F,0x08,0x04,0x04,0x78},	// h
 146:.\Generated_Source\PSoC5/TFTSHIELD_1.c **** 	{0x00,0x00,0x44,0x7D,0x40,0x00},	// i
 147:.\Generated_Source\PSoC5/TFTSHIELD_1.c **** 	{0x00,0x20,0x40,0x44,0x3D,0x00},	// j
 148:.\Generated_Source\PSoC5/TFTSHIELD_1.c **** 	{0x00,0x7F,0x10,0x28,0x44,0x00},	// k
 149:.\Generated_Source\PSoC5/TFTSHIELD_1.c **** 	{0x00,0x00,0x41,0x7F,0x40,0x00},	// l
 150:.\Generated_Source\PSoC5/TFTSHIELD_1.c **** 	{0x00,0x78,0x04,0x58,0x44,0x78},	// m
 151:.\Generated_Source\PSoC5/TFTSHIELD_1.c **** 	{0x00,0x7C,0x08,0x04,0x04,0x78},	// n
 152:.\Generated_Source\PSoC5/TFTSHIELD_1.c **** 	{0x00,0x38,0x44,0x44,0x44,0x38},	// o
 153:.\Generated_Source\PSoC5/TFTSHIELD_1.c **** 	{0x00,0x7C,0x14,0x14,0x14,0x08},	// p
 154:.\Generated_Source\PSoC5/TFTSHIELD_1.c **** 	{0x00,0x08,0x14,0x14,0x18,0x7C},	// q
 155:.\Generated_Source\PSoC5/TFTSHIELD_1.c **** 	{0x00,0x7C,0x08,0x04,0x04,0x08},	// r
 156:.\Generated_Source\PSoC5/TFTSHIELD_1.c **** 	{0x00,0x48,0x54,0x54,0x54,0x20},	// s
 157:.\Generated_Source\PSoC5/TFTSHIELD_1.c **** 	{0x00,0x04,0x3F,0x44,0x40,0x20},	// t
 158:.\Generated_Source\PSoC5/TFTSHIELD_1.c **** 	{0x00,0x3C,0x40,0x40,0x20,0x7C},	// u
 159:.\Generated_Source\PSoC5/TFTSHIELD_1.c **** 	{0x00,0x1C,0x20,0x40,0x20,0x1C},	// v
 160:.\Generated_Source\PSoC5/TFTSHIELD_1.c **** 	{0x00,0x3C,0x40,0x30,0x40,0x3C},	// w
ARM GAS  C:\Users\Brian\AppData\Local\Temp\ccPAhBxt.s 			page 18


 161:.\Generated_Source\PSoC5/TFTSHIELD_1.c **** 	{0x00,0x44,0x28,0x10,0x28,0x44},	// x
 162:.\Generated_Source\PSoC5/TFTSHIELD_1.c **** 	{0x00,0x0C,0x50,0x50,0x50,0x3C},	// y
 163:.\Generated_Source\PSoC5/TFTSHIELD_1.c **** 	{0x00,0x44,0x64,0x54,0x4C,0x44},	// z
 164:.\Generated_Source\PSoC5/TFTSHIELD_1.c ****  
 165:.\Generated_Source\PSoC5/TFTSHIELD_1.c **** 	{0x00,0x00,0x08,0x36,0x41,0x00},	// {
 166:.\Generated_Source\PSoC5/TFTSHIELD_1.c **** 	{0x00,0x00,0x00,0x7F,0x00,0x00},	// |
 167:.\Generated_Source\PSoC5/TFTSHIELD_1.c **** 	{0x00,0x00,0x41,0x36,0x08,0x00},	// }
 168:.\Generated_Source\PSoC5/TFTSHIELD_1.c **** 	{0x00,0x0C,0x02,0x0C,0x10,0x0C},	// ~
 169:.\Generated_Source\PSoC5/TFTSHIELD_1.c ****  
 170:.\Generated_Source\PSoC5/TFTSHIELD_1.c **** 	{0x00,0x00,0x00,0x00,0x00,0x00}
 171:.\Generated_Source\PSoC5/TFTSHIELD_1.c **** };
 172:.\Generated_Source\PSoC5/TFTSHIELD_1.c **** 
 173:.\Generated_Source\PSoC5/TFTSHIELD_1.c **** /**************************************************************************//**
 174:.\Generated_Source\PSoC5/TFTSHIELD_1.c **** *  @brief Performs all required initialization for this component and fills the screen with black
 175:.\Generated_Source\PSoC5/TFTSHIELD_1.c **** *
 176:.\Generated_Source\PSoC5/TFTSHIELD_1.c **** *******************************************************************************/
 177:.\Generated_Source\PSoC5/TFTSHIELD_1.c **** void TFTSHIELD_1_Start(void)
 178:.\Generated_Source\PSoC5/TFTSHIELD_1.c **** {
 810              		.loc 1 178 0
 811              		.cfi_startproc
 812              		@ args = 0, pretend = 0, frame = 0
 813              		@ frame_needed = 1, uses_anonymous_args = 0
 814 0000 80B5     		push	{r7, lr}
 815              	.LCFI0:
 816              		.cfi_def_cfa_offset 8
 817              		.cfi_offset 7, -8
 818              		.cfi_offset 14, -4
 819 0002 00AF     		add	r7, sp, #0
 820              	.LCFI1:
 821              		.cfi_def_cfa_register 7
 179:.\Generated_Source\PSoC5/TFTSHIELD_1.c ****     //TFTSHIELD_1_SPIM_1_Start();
 180:.\Generated_Source\PSoC5/TFTSHIELD_1.c ****     
 181:.\Generated_Source\PSoC5/TFTSHIELD_1.c ****     TFTSHIELD_1_CS_HIGH();
 822              		.loc 1 181 0
 823 0004 FFF7FEFF 		bl	TFTSHIELD_1_CS_HIGH
 182:.\Generated_Source\PSoC5/TFTSHIELD_1.c ****     TFTSHIELD_1_DC_HIGH();
 824              		.loc 1 182 0
 825 0008 FFF7FEFF 		bl	TFTSHIELD_1_DC_HIGH
 183:.\Generated_Source\PSoC5/TFTSHIELD_1.c ****     
 184:.\Generated_Source\PSoC5/TFTSHIELD_1.c ****     cursor_y = cursor_x = 0;
 826              		.loc 1 184 0
 827 000c 40F20003 		movw	r3, #:lower16:cursor_x
 828 0010 C0F20003 		movt	r3, #:upper16:cursor_x
 829 0014 4FF00002 		mov	r2, #0
 830 0018 1A80     		strh	r2, [r3, #0]	@ movhi
 831 001a 40F20003 		movw	r3, #:lower16:cursor_x
 832 001e C0F20003 		movt	r3, #:upper16:cursor_x
 833 0022 1A88     		ldrh	r2, [r3, #0]
 834 0024 40F20003 		movw	r3, #:lower16:cursor_y
 835 0028 C0F20003 		movt	r3, #:upper16:cursor_y
 836 002c 1A80     		strh	r2, [r3, #0]	@ movhi
 185:.\Generated_Source\PSoC5/TFTSHIELD_1.c ****     textsize = 1;
 837              		.loc 1 185 0
 838 002e 40F20003 		movw	r3, #:lower16:textsize
 839 0032 C0F20003 		movt	r3, #:upper16:textsize
 840 0036 4FF00102 		mov	r2, #1
 841 003a 1A70     		strb	r2, [r3, #0]
ARM GAS  C:\Users\Brian\AppData\Local\Temp\ccPAhBxt.s 			page 19


 186:.\Generated_Source\PSoC5/TFTSHIELD_1.c ****     textcolor = textbgcolor = 0xFFFF;
 842              		.loc 1 186 0
 843 003c 40F20003 		movw	r3, #:lower16:textbgcolor
 844 0040 C0F20003 		movt	r3, #:upper16:textbgcolor
 845 0044 4FF6FF72 		movw	r2, #65535
 846 0048 1A80     		strh	r2, [r3, #0]	@ movhi
 847 004a 40F20003 		movw	r3, #:lower16:textbgcolor
 848 004e C0F20003 		movt	r3, #:upper16:textbgcolor
 849 0052 1A88     		ldrh	r2, [r3, #0]
 850 0054 40F20003 		movw	r3, #:lower16:textcolor
 851 0058 C0F20003 		movt	r3, #:upper16:textcolor
 852 005c 1A80     		strh	r2, [r3, #0]	@ movhi
 187:.\Generated_Source\PSoC5/TFTSHIELD_1.c ****     wrap = 1;
 853              		.loc 1 187 0
 854 005e 40F20003 		movw	r3, #:lower16:wrap
 855 0062 C0F20003 		movt	r3, #:upper16:wrap
 856 0066 4FF00102 		mov	r2, #1
 857 006a 1A70     		strb	r2, [r3, #0]
 188:.\Generated_Source\PSoC5/TFTSHIELD_1.c **** 	rotation = 0;
 858              		.loc 1 188 0
 859 006c 40F20003 		movw	r3, #:lower16:rotation
 860 0070 C0F20003 		movt	r3, #:upper16:rotation
 861 0074 4FF00002 		mov	r2, #0
 862 0078 1A70     		strb	r2, [r3, #0]
 189:.\Generated_Source\PSoC5/TFTSHIELD_1.c **** 	_width = TFTWIDTH;
 863              		.loc 1 189 0
 864 007a 40F20003 		movw	r3, #:lower16:_width
 865 007e C0F20003 		movt	r3, #:upper16:_width
 866 0082 4FF0F002 		mov	r2, #240
 867 0086 1A60     		str	r2, [r3, #0]
 190:.\Generated_Source\PSoC5/TFTSHIELD_1.c **** 	_height = TFTHEIGHT;
 868              		.loc 1 190 0
 869 0088 40F20003 		movw	r3, #:lower16:_height
 870 008c C0F20003 		movt	r3, #:upper16:_height
 871 0090 4FF4A072 		mov	r2, #320
 872 0094 1A60     		str	r2, [r3, #0]
 191:.\Generated_Source\PSoC5/TFTSHIELD_1.c **** 	
 192:.\Generated_Source\PSoC5/TFTSHIELD_1.c **** 	CyDelay(500);
 873              		.loc 1 192 0
 874 0096 4FF4FA70 		mov	r0, #500
 875 009a FFF7FEFF 		bl	CyDelay
 193:.\Generated_Source\PSoC5/TFTSHIELD_1.c **** 	TFTSHIELD_1_SendCmd(0x01);
 876              		.loc 1 193 0
 877 009e 4FF00100 		mov	r0, #1
 878 00a2 FFF7FEFF 		bl	TFTSHIELD_1_SendCmd
 194:.\Generated_Source\PSoC5/TFTSHIELD_1.c **** 	CyDelay(200);
 879              		.loc 1 194 0
 880 00a6 4FF0C800 		mov	r0, #200
 881 00aa FFF7FEFF 		bl	CyDelay
 195:.\Generated_Source\PSoC5/TFTSHIELD_1.c **** 	
 196:.\Generated_Source\PSoC5/TFTSHIELD_1.c **** 	TFTSHIELD_1_SendCmd(0xCF);
 882              		.loc 1 196 0
 883 00ae 4FF0CF00 		mov	r0, #207
 884 00b2 FFF7FEFF 		bl	TFTSHIELD_1_SendCmd
 197:.\Generated_Source\PSoC5/TFTSHIELD_1.c ****     TFTSHIELD_1_SendData(0x00);
 885              		.loc 1 197 0
 886 00b6 4FF00000 		mov	r0, #0
ARM GAS  C:\Users\Brian\AppData\Local\Temp\ccPAhBxt.s 			page 20


 887 00ba FFF7FEFF 		bl	TFTSHIELD_1_SendData
 198:.\Generated_Source\PSoC5/TFTSHIELD_1.c ****     TFTSHIELD_1_SendData(0x8B);
 888              		.loc 1 198 0
 889 00be 4FF08B00 		mov	r0, #139
 890 00c2 FFF7FEFF 		bl	TFTSHIELD_1_SendData
 199:.\Generated_Source\PSoC5/TFTSHIELD_1.c ****     TFTSHIELD_1_SendData(0x30);
 891              		.loc 1 199 0
 892 00c6 4FF03000 		mov	r0, #48
 893 00ca FFF7FEFF 		bl	TFTSHIELD_1_SendData
 200:.\Generated_Source\PSoC5/TFTSHIELD_1.c **** 
 201:.\Generated_Source\PSoC5/TFTSHIELD_1.c ****     TFTSHIELD_1_SendCmd(0xED);
 894              		.loc 1 201 0
 895 00ce 4FF0ED00 		mov	r0, #237
 896 00d2 FFF7FEFF 		bl	TFTSHIELD_1_SendCmd
 202:.\Generated_Source\PSoC5/TFTSHIELD_1.c ****     TFTSHIELD_1_SendData(0x67);
 897              		.loc 1 202 0
 898 00d6 4FF06700 		mov	r0, #103
 899 00da FFF7FEFF 		bl	TFTSHIELD_1_SendData
 203:.\Generated_Source\PSoC5/TFTSHIELD_1.c ****     TFTSHIELD_1_SendData(0x03);
 900              		.loc 1 203 0
 901 00de 4FF00300 		mov	r0, #3
 902 00e2 FFF7FEFF 		bl	TFTSHIELD_1_SendData
 204:.\Generated_Source\PSoC5/TFTSHIELD_1.c ****     TFTSHIELD_1_SendData(0x12);
 903              		.loc 1 204 0
 904 00e6 4FF01200 		mov	r0, #18
 905 00ea FFF7FEFF 		bl	TFTSHIELD_1_SendData
 205:.\Generated_Source\PSoC5/TFTSHIELD_1.c ****     TFTSHIELD_1_SendData(0x81);
 906              		.loc 1 205 0
 907 00ee 4FF08100 		mov	r0, #129
 908 00f2 FFF7FEFF 		bl	TFTSHIELD_1_SendData
 206:.\Generated_Source\PSoC5/TFTSHIELD_1.c **** 
 207:.\Generated_Source\PSoC5/TFTSHIELD_1.c ****     TFTSHIELD_1_SendCmd(0xE8);
 909              		.loc 1 207 0
 910 00f6 4FF0E800 		mov	r0, #232
 911 00fa FFF7FEFF 		bl	TFTSHIELD_1_SendCmd
 208:.\Generated_Source\PSoC5/TFTSHIELD_1.c ****     TFTSHIELD_1_SendData(0x85);
 912              		.loc 1 208 0
 913 00fe 4FF08500 		mov	r0, #133
 914 0102 FFF7FEFF 		bl	TFTSHIELD_1_SendData
 209:.\Generated_Source\PSoC5/TFTSHIELD_1.c ****     TFTSHIELD_1_SendData(0x10);
 915              		.loc 1 209 0
 916 0106 4FF01000 		mov	r0, #16
 917 010a FFF7FEFF 		bl	TFTSHIELD_1_SendData
 210:.\Generated_Source\PSoC5/TFTSHIELD_1.c ****     TFTSHIELD_1_SendData(0x7A);
 918              		.loc 1 210 0
 919 010e 4FF07A00 		mov	r0, #122
 920 0112 FFF7FEFF 		bl	TFTSHIELD_1_SendData
 211:.\Generated_Source\PSoC5/TFTSHIELD_1.c **** 
 212:.\Generated_Source\PSoC5/TFTSHIELD_1.c ****     TFTSHIELD_1_SendCmd(0xCB);
 921              		.loc 1 212 0
 922 0116 4FF0CB00 		mov	r0, #203
 923 011a FFF7FEFF 		bl	TFTSHIELD_1_SendCmd
 213:.\Generated_Source\PSoC5/TFTSHIELD_1.c ****     TFTSHIELD_1_SendData(0x39);
 924              		.loc 1 213 0
 925 011e 4FF03900 		mov	r0, #57
 926 0122 FFF7FEFF 		bl	TFTSHIELD_1_SendData
 214:.\Generated_Source\PSoC5/TFTSHIELD_1.c ****     TFTSHIELD_1_SendData(0x2C);
ARM GAS  C:\Users\Brian\AppData\Local\Temp\ccPAhBxt.s 			page 21


 927              		.loc 1 214 0
 928 0126 4FF02C00 		mov	r0, #44
 929 012a FFF7FEFF 		bl	TFTSHIELD_1_SendData
 215:.\Generated_Source\PSoC5/TFTSHIELD_1.c ****     TFTSHIELD_1_SendData(0x00);
 930              		.loc 1 215 0
 931 012e 4FF00000 		mov	r0, #0
 932 0132 FFF7FEFF 		bl	TFTSHIELD_1_SendData
 216:.\Generated_Source\PSoC5/TFTSHIELD_1.c ****     TFTSHIELD_1_SendData(0x34);
 933              		.loc 1 216 0
 934 0136 4FF03400 		mov	r0, #52
 935 013a FFF7FEFF 		bl	TFTSHIELD_1_SendData
 217:.\Generated_Source\PSoC5/TFTSHIELD_1.c ****     TFTSHIELD_1_SendData(0x02);
 936              		.loc 1 217 0
 937 013e 4FF00200 		mov	r0, #2
 938 0142 FFF7FEFF 		bl	TFTSHIELD_1_SendData
 218:.\Generated_Source\PSoC5/TFTSHIELD_1.c **** 
 219:.\Generated_Source\PSoC5/TFTSHIELD_1.c ****     TFTSHIELD_1_SendCmd(0xF7);
 939              		.loc 1 219 0
 940 0146 4FF0F700 		mov	r0, #247
 941 014a FFF7FEFF 		bl	TFTSHIELD_1_SendCmd
 220:.\Generated_Source\PSoC5/TFTSHIELD_1.c ****     TFTSHIELD_1_SendData(0x20);
 942              		.loc 1 220 0
 943 014e 4FF02000 		mov	r0, #32
 944 0152 FFF7FEFF 		bl	TFTSHIELD_1_SendData
 221:.\Generated_Source\PSoC5/TFTSHIELD_1.c **** 
 222:.\Generated_Source\PSoC5/TFTSHIELD_1.c ****     TFTSHIELD_1_SendCmd(0xEA);
 945              		.loc 1 222 0
 946 0156 4FF0EA00 		mov	r0, #234
 947 015a FFF7FEFF 		bl	TFTSHIELD_1_SendCmd
 223:.\Generated_Source\PSoC5/TFTSHIELD_1.c ****     TFTSHIELD_1_SendData(0x00);
 948              		.loc 1 223 0
 949 015e 4FF00000 		mov	r0, #0
 950 0162 FFF7FEFF 		bl	TFTSHIELD_1_SendData
 224:.\Generated_Source\PSoC5/TFTSHIELD_1.c ****     TFTSHIELD_1_SendData(0x00);
 951              		.loc 1 224 0
 952 0166 4FF00000 		mov	r0, #0
 953 016a FFF7FEFF 		bl	TFTSHIELD_1_SendData
 225:.\Generated_Source\PSoC5/TFTSHIELD_1.c **** 
 226:.\Generated_Source\PSoC5/TFTSHIELD_1.c ****     TFTSHIELD_1_SendCmd(0xC0);                                                      /* Power contro
 954              		.loc 1 226 0
 955 016e 4FF0C000 		mov	r0, #192
 956 0172 FFF7FEFF 		bl	TFTSHIELD_1_SendCmd
 227:.\Generated_Source\PSoC5/TFTSHIELD_1.c ****     TFTSHIELD_1_SendData(0x1B);                                                   /* VRH[5:0]*/
 957              		.loc 1 227 0
 958 0176 4FF01B00 		mov	r0, #27
 959 017a FFF7FEFF 		bl	TFTSHIELD_1_SendData
 228:.\Generated_Source\PSoC5/TFTSHIELD_1.c **** 
 229:.\Generated_Source\PSoC5/TFTSHIELD_1.c ****     TFTSHIELD_1_SendCmd(0xC1);                                                      /* Power contro
 960              		.loc 1 229 0
 961 017e 4FF0C100 		mov	r0, #193
 962 0182 FFF7FEFF 		bl	TFTSHIELD_1_SendCmd
 230:.\Generated_Source\PSoC5/TFTSHIELD_1.c ****     TFTSHIELD_1_SendData(0x10);                                                   /* SAP[2:0];BT[3:
 963              		.loc 1 230 0
 964 0186 4FF01000 		mov	r0, #16
 965 018a FFF7FEFF 		bl	TFTSHIELD_1_SendData
 231:.\Generated_Source\PSoC5/TFTSHIELD_1.c **** 
 232:.\Generated_Source\PSoC5/TFTSHIELD_1.c ****     TFTSHIELD_1_SendCmd(0xC5);                                                      /* VCM control*
ARM GAS  C:\Users\Brian\AppData\Local\Temp\ccPAhBxt.s 			page 22


 966              		.loc 1 232 0
 967 018e 4FF0C500 		mov	r0, #197
 968 0192 FFF7FEFF 		bl	TFTSHIELD_1_SendCmd
 233:.\Generated_Source\PSoC5/TFTSHIELD_1.c ****     TFTSHIELD_1_SendData(0x3F);
 969              		.loc 1 233 0
 970 0196 4FF03F00 		mov	r0, #63
 971 019a FFF7FEFF 		bl	TFTSHIELD_1_SendData
 234:.\Generated_Source\PSoC5/TFTSHIELD_1.c ****     TFTSHIELD_1_SendData(0x3C);
 972              		.loc 1 234 0
 973 019e 4FF03C00 		mov	r0, #60
 974 01a2 FFF7FEFF 		bl	TFTSHIELD_1_SendData
 235:.\Generated_Source\PSoC5/TFTSHIELD_1.c **** 
 236:.\Generated_Source\PSoC5/TFTSHIELD_1.c ****     TFTSHIELD_1_SendCmd(0xC7);                                                      /* VCM control2
 975              		.loc 1 236 0
 976 01a6 4FF0C700 		mov	r0, #199
 977 01aa FFF7FEFF 		bl	TFTSHIELD_1_SendCmd
 237:.\Generated_Source\PSoC5/TFTSHIELD_1.c ****     TFTSHIELD_1_SendData(0xB7);
 978              		.loc 1 237 0
 979 01ae 4FF0B700 		mov	r0, #183
 980 01b2 FFF7FEFF 		bl	TFTSHIELD_1_SendData
 238:.\Generated_Source\PSoC5/TFTSHIELD_1.c **** 
 239:.\Generated_Source\PSoC5/TFTSHIELD_1.c ****     TFTSHIELD_1_SendCmd(0x36);                                                      /* Memory Acces
 981              		.loc 1 239 0
 982 01b6 4FF03600 		mov	r0, #54
 983 01ba FFF7FEFF 		bl	TFTSHIELD_1_SendCmd
 240:.\Generated_Source\PSoC5/TFTSHIELD_1.c ****     TFTSHIELD_1_SendData(0x08);
 984              		.loc 1 240 0
 985 01be 4FF00800 		mov	r0, #8
 986 01c2 FFF7FEFF 		bl	TFTSHIELD_1_SendData
 241:.\Generated_Source\PSoC5/TFTSHIELD_1.c **** 
 242:.\Generated_Source\PSoC5/TFTSHIELD_1.c ****     TFTSHIELD_1_SendCmd(0x3A);
 987              		.loc 1 242 0
 988 01c6 4FF03A00 		mov	r0, #58
 989 01ca FFF7FEFF 		bl	TFTSHIELD_1_SendCmd
 243:.\Generated_Source\PSoC5/TFTSHIELD_1.c ****     TFTSHIELD_1_SendData(0x55);
 990              		.loc 1 243 0
 991 01ce 4FF05500 		mov	r0, #85
 992 01d2 FFF7FEFF 		bl	TFTSHIELD_1_SendData
 244:.\Generated_Source\PSoC5/TFTSHIELD_1.c **** 
 245:.\Generated_Source\PSoC5/TFTSHIELD_1.c ****     TFTSHIELD_1_SendCmd(0xB1);
 993              		.loc 1 245 0
 994 01d6 4FF0B100 		mov	r0, #177
 995 01da FFF7FEFF 		bl	TFTSHIELD_1_SendCmd
 246:.\Generated_Source\PSoC5/TFTSHIELD_1.c ****     TFTSHIELD_1_SendData(0x00);
 996              		.loc 1 246 0
 997 01de 4FF00000 		mov	r0, #0
 998 01e2 FFF7FEFF 		bl	TFTSHIELD_1_SendData
 247:.\Generated_Source\PSoC5/TFTSHIELD_1.c ****     TFTSHIELD_1_SendData(0x1B);
 999              		.loc 1 247 0
 1000 01e6 4FF01B00 		mov	r0, #27
 1001 01ea FFF7FEFF 		bl	TFTSHIELD_1_SendData
 248:.\Generated_Source\PSoC5/TFTSHIELD_1.c **** 
 249:.\Generated_Source\PSoC5/TFTSHIELD_1.c ****     TFTSHIELD_1_SendCmd(0xB6);                                                      /* Display Func
 1002              		.loc 1 249 0
 1003 01ee 4FF0B600 		mov	r0, #182
 1004 01f2 FFF7FEFF 		bl	TFTSHIELD_1_SendCmd
 250:.\Generated_Source\PSoC5/TFTSHIELD_1.c ****     TFTSHIELD_1_SendData(0x0A);
ARM GAS  C:\Users\Brian\AppData\Local\Temp\ccPAhBxt.s 			page 23


 1005              		.loc 1 250 0
 1006 01f6 4FF00A00 		mov	r0, #10
 1007 01fa FFF7FEFF 		bl	TFTSHIELD_1_SendData
 251:.\Generated_Source\PSoC5/TFTSHIELD_1.c ****     TFTSHIELD_1_SendData(0xA2);
 1008              		.loc 1 251 0
 1009 01fe 4FF0A200 		mov	r0, #162
 1010 0202 FFF7FEFF 		bl	TFTSHIELD_1_SendData
 252:.\Generated_Source\PSoC5/TFTSHIELD_1.c **** 
 253:.\Generated_Source\PSoC5/TFTSHIELD_1.c **** 
 254:.\Generated_Source\PSoC5/TFTSHIELD_1.c ****     TFTSHIELD_1_SendCmd(0xF2);                                                      /* 3Gamma Funct
 1011              		.loc 1 254 0
 1012 0206 4FF0F200 		mov	r0, #242
 1013 020a FFF7FEFF 		bl	TFTSHIELD_1_SendCmd
 255:.\Generated_Source\PSoC5/TFTSHIELD_1.c ****     TFTSHIELD_1_SendData(0x00);
 1014              		.loc 1 255 0
 1015 020e 4FF00000 		mov	r0, #0
 1016 0212 FFF7FEFF 		bl	TFTSHIELD_1_SendData
 256:.\Generated_Source\PSoC5/TFTSHIELD_1.c **** 
 257:.\Generated_Source\PSoC5/TFTSHIELD_1.c ****     TFTSHIELD_1_SendCmd(0x26);                                                      /* Gamma curve 
 1017              		.loc 1 257 0
 1018 0216 4FF02600 		mov	r0, #38
 1019 021a FFF7FEFF 		bl	TFTSHIELD_1_SendCmd
 258:.\Generated_Source\PSoC5/TFTSHIELD_1.c ****     TFTSHIELD_1_SendData(0x01);
 1020              		.loc 1 258 0
 1021 021e 4FF00100 		mov	r0, #1
 1022 0222 FFF7FEFF 		bl	TFTSHIELD_1_SendData
 259:.\Generated_Source\PSoC5/TFTSHIELD_1.c **** 
 260:.\Generated_Source\PSoC5/TFTSHIELD_1.c ****     TFTSHIELD_1_SendCmd(0xE0);                                                      /* Set Gamma*/
 1023              		.loc 1 260 0
 1024 0226 4FF0E000 		mov	r0, #224
 1025 022a FFF7FEFF 		bl	TFTSHIELD_1_SendCmd
 261:.\Generated_Source\PSoC5/TFTSHIELD_1.c ****     TFTSHIELD_1_SendData(0x0F);
 1026              		.loc 1 261 0
 1027 022e 4FF00F00 		mov	r0, #15
 1028 0232 FFF7FEFF 		bl	TFTSHIELD_1_SendData
 262:.\Generated_Source\PSoC5/TFTSHIELD_1.c ****     TFTSHIELD_1_SendData(0x2A);
 1029              		.loc 1 262 0
 1030 0236 4FF02A00 		mov	r0, #42
 1031 023a FFF7FEFF 		bl	TFTSHIELD_1_SendData
 263:.\Generated_Source\PSoC5/TFTSHIELD_1.c ****     TFTSHIELD_1_SendData(0x28);
 1032              		.loc 1 263 0
 1033 023e 4FF02800 		mov	r0, #40
 1034 0242 FFF7FEFF 		bl	TFTSHIELD_1_SendData
 264:.\Generated_Source\PSoC5/TFTSHIELD_1.c ****     TFTSHIELD_1_SendData(0x08);
 1035              		.loc 1 264 0
 1036 0246 4FF00800 		mov	r0, #8
 1037 024a FFF7FEFF 		bl	TFTSHIELD_1_SendData
 265:.\Generated_Source\PSoC5/TFTSHIELD_1.c ****     TFTSHIELD_1_SendData(0x0E);
 1038              		.loc 1 265 0
 1039 024e 4FF00E00 		mov	r0, #14
 1040 0252 FFF7FEFF 		bl	TFTSHIELD_1_SendData
 266:.\Generated_Source\PSoC5/TFTSHIELD_1.c ****     TFTSHIELD_1_SendData(0x08);
 1041              		.loc 1 266 0
 1042 0256 4FF00800 		mov	r0, #8
 1043 025a FFF7FEFF 		bl	TFTSHIELD_1_SendData
 267:.\Generated_Source\PSoC5/TFTSHIELD_1.c ****     TFTSHIELD_1_SendData(0x54);
 1044              		.loc 1 267 0
ARM GAS  C:\Users\Brian\AppData\Local\Temp\ccPAhBxt.s 			page 24


 1045 025e 4FF05400 		mov	r0, #84
 1046 0262 FFF7FEFF 		bl	TFTSHIELD_1_SendData
 268:.\Generated_Source\PSoC5/TFTSHIELD_1.c ****     TFTSHIELD_1_SendData(0xA9);
 1047              		.loc 1 268 0
 1048 0266 4FF0A900 		mov	r0, #169
 1049 026a FFF7FEFF 		bl	TFTSHIELD_1_SendData
 269:.\Generated_Source\PSoC5/TFTSHIELD_1.c ****     TFTSHIELD_1_SendData(0x43);
 1050              		.loc 1 269 0
 1051 026e 4FF04300 		mov	r0, #67
 1052 0272 FFF7FEFF 		bl	TFTSHIELD_1_SendData
 270:.\Generated_Source\PSoC5/TFTSHIELD_1.c ****     TFTSHIELD_1_SendData(0x0A);
 1053              		.loc 1 270 0
 1054 0276 4FF00A00 		mov	r0, #10
 1055 027a FFF7FEFF 		bl	TFTSHIELD_1_SendData
 271:.\Generated_Source\PSoC5/TFTSHIELD_1.c ****     TFTSHIELD_1_SendData(0x0F);
 1056              		.loc 1 271 0
 1057 027e 4FF00F00 		mov	r0, #15
 1058 0282 FFF7FEFF 		bl	TFTSHIELD_1_SendData
 272:.\Generated_Source\PSoC5/TFTSHIELD_1.c ****     TFTSHIELD_1_SendData(0x00);
 1059              		.loc 1 272 0
 1060 0286 4FF00000 		mov	r0, #0
 1061 028a FFF7FEFF 		bl	TFTSHIELD_1_SendData
 273:.\Generated_Source\PSoC5/TFTSHIELD_1.c ****     TFTSHIELD_1_SendData(0x00);
 1062              		.loc 1 273 0
 1063 028e 4FF00000 		mov	r0, #0
 1064 0292 FFF7FEFF 		bl	TFTSHIELD_1_SendData
 274:.\Generated_Source\PSoC5/TFTSHIELD_1.c ****     TFTSHIELD_1_SendData(0x00);
 1065              		.loc 1 274 0
 1066 0296 4FF00000 		mov	r0, #0
 1067 029a FFF7FEFF 		bl	TFTSHIELD_1_SendData
 275:.\Generated_Source\PSoC5/TFTSHIELD_1.c ****     TFTSHIELD_1_SendData(0x00);
 1068              		.loc 1 275 0
 1069 029e 4FF00000 		mov	r0, #0
 1070 02a2 FFF7FEFF 		bl	TFTSHIELD_1_SendData
 276:.\Generated_Source\PSoC5/TFTSHIELD_1.c **** 	TFTSHIELD_1_SendCmd(0xE1);                                                      /* Set Gamma*/
 1071              		.loc 1 276 0
 1072 02a6 4FF0E100 		mov	r0, #225
 1073 02aa FFF7FEFF 		bl	TFTSHIELD_1_SendCmd
 277:.\Generated_Source\PSoC5/TFTSHIELD_1.c ****     TFTSHIELD_1_SendData(0x00);
 1074              		.loc 1 277 0
 1075 02ae 4FF00000 		mov	r0, #0
 1076 02b2 FFF7FEFF 		bl	TFTSHIELD_1_SendData
 278:.\Generated_Source\PSoC5/TFTSHIELD_1.c ****     TFTSHIELD_1_SendData(0x15);
 1077              		.loc 1 278 0
 1078 02b6 4FF01500 		mov	r0, #21
 1079 02ba FFF7FEFF 		bl	TFTSHIELD_1_SendData
 279:.\Generated_Source\PSoC5/TFTSHIELD_1.c ****     TFTSHIELD_1_SendData(0x17);
 1080              		.loc 1 279 0
 1081 02be 4FF01700 		mov	r0, #23
 1082 02c2 FFF7FEFF 		bl	TFTSHIELD_1_SendData
 280:.\Generated_Source\PSoC5/TFTSHIELD_1.c ****     TFTSHIELD_1_SendData(0x07);
 1083              		.loc 1 280 0
 1084 02c6 4FF00700 		mov	r0, #7
 1085 02ca FFF7FEFF 		bl	TFTSHIELD_1_SendData
 281:.\Generated_Source\PSoC5/TFTSHIELD_1.c ****     TFTSHIELD_1_SendData(0x11);
 1086              		.loc 1 281 0
 1087 02ce 4FF01100 		mov	r0, #17
ARM GAS  C:\Users\Brian\AppData\Local\Temp\ccPAhBxt.s 			page 25


 1088 02d2 FFF7FEFF 		bl	TFTSHIELD_1_SendData
 282:.\Generated_Source\PSoC5/TFTSHIELD_1.c ****     TFTSHIELD_1_SendData(0x06);
 1089              		.loc 1 282 0
 1090 02d6 4FF00600 		mov	r0, #6
 1091 02da FFF7FEFF 		bl	TFTSHIELD_1_SendData
 283:.\Generated_Source\PSoC5/TFTSHIELD_1.c ****     TFTSHIELD_1_SendData(0x2B);
 1092              		.loc 1 283 0
 1093 02de 4FF02B00 		mov	r0, #43
 1094 02e2 FFF7FEFF 		bl	TFTSHIELD_1_SendData
 284:.\Generated_Source\PSoC5/TFTSHIELD_1.c ****     TFTSHIELD_1_SendData(0x56);
 1095              		.loc 1 284 0
 1096 02e6 4FF05600 		mov	r0, #86
 1097 02ea FFF7FEFF 		bl	TFTSHIELD_1_SendData
 285:.\Generated_Source\PSoC5/TFTSHIELD_1.c ****     TFTSHIELD_1_SendData(0x3C);
 1098              		.loc 1 285 0
 1099 02ee 4FF03C00 		mov	r0, #60
 1100 02f2 FFF7FEFF 		bl	TFTSHIELD_1_SendData
 286:.\Generated_Source\PSoC5/TFTSHIELD_1.c ****     TFTSHIELD_1_SendData(0x05);
 1101              		.loc 1 286 0
 1102 02f6 4FF00500 		mov	r0, #5
 1103 02fa FFF7FEFF 		bl	TFTSHIELD_1_SendData
 287:.\Generated_Source\PSoC5/TFTSHIELD_1.c ****     TFTSHIELD_1_SendData(0x10);
 1104              		.loc 1 287 0
 1105 02fe 4FF01000 		mov	r0, #16
 1106 0302 FFF7FEFF 		bl	TFTSHIELD_1_SendData
 288:.\Generated_Source\PSoC5/TFTSHIELD_1.c ****     TFTSHIELD_1_SendData(0x0F);
 1107              		.loc 1 288 0
 1108 0306 4FF00F00 		mov	r0, #15
 1109 030a FFF7FEFF 		bl	TFTSHIELD_1_SendData
 289:.\Generated_Source\PSoC5/TFTSHIELD_1.c ****     TFTSHIELD_1_SendData(0x3F);
 1110              		.loc 1 289 0
 1111 030e 4FF03F00 		mov	r0, #63
 1112 0312 FFF7FEFF 		bl	TFTSHIELD_1_SendData
 290:.\Generated_Source\PSoC5/TFTSHIELD_1.c ****     TFTSHIELD_1_SendData(0x3F);
 1113              		.loc 1 290 0
 1114 0316 4FF03F00 		mov	r0, #63
 1115 031a FFF7FEFF 		bl	TFTSHIELD_1_SendData
 291:.\Generated_Source\PSoC5/TFTSHIELD_1.c ****     TFTSHIELD_1_SendData(0x0F);
 1116              		.loc 1 291 0
 1117 031e 4FF00F00 		mov	r0, #15
 1118 0322 FFF7FEFF 		bl	TFTSHIELD_1_SendData
 292:.\Generated_Source\PSoC5/TFTSHIELD_1.c **** 	TFTSHIELD_1_SendCmd(0x11);                                                      /* Exit Sleep*/
 1119              		.loc 1 292 0
 1120 0326 4FF01100 		mov	r0, #17
 1121 032a FFF7FEFF 		bl	TFTSHIELD_1_SendCmd
 293:.\Generated_Source\PSoC5/TFTSHIELD_1.c ****     CyDelay(120);
 1122              		.loc 1 293 0
 1123 032e 4FF07800 		mov	r0, #120
 1124 0332 FFF7FEFF 		bl	CyDelay
 294:.\Generated_Source\PSoC5/TFTSHIELD_1.c ****     TFTSHIELD_1_SendCmd(0x29);
 1125              		.loc 1 294 0
 1126 0336 4FF02900 		mov	r0, #41
 1127 033a FFF7FEFF 		bl	TFTSHIELD_1_SendCmd
 295:.\Generated_Source\PSoC5/TFTSHIELD_1.c **** 	//TFTSHIELD_1_SetRotation(0);
 296:.\Generated_Source\PSoC5/TFTSHIELD_1.c **** 	/* Display on*/
 297:.\Generated_Source\PSoC5/TFTSHIELD_1.c ****     TFTSHIELD_1_FillScreen(BLACK);
 1128              		.loc 1 297 0
ARM GAS  C:\Users\Brian\AppData\Local\Temp\ccPAhBxt.s 			page 26


 1129 033e 4FF00000 		mov	r0, #0
 1130 0342 FFF7FEFF 		bl	TFTSHIELD_1_FillScreen
 298:.\Generated_Source\PSoC5/TFTSHIELD_1.c **** }
 1131              		.loc 1 298 0
 1132 0346 80BD     		pop	{r7, pc}
 1133              		.cfi_endproc
 1134              	.LFE0:
 1135              		.size	TFTSHIELD_1_Start, .-TFTSHIELD_1_Start
 1136              		.section	.text.TFTSHIELD_1_SetPixel,"ax",%progbits
 1137              		.align	2
 1138              		.global	TFTSHIELD_1_SetPixel
 1139              		.thumb
 1140              		.thumb_func
 1141              		.type	TFTSHIELD_1_SetPixel, %function
 1142              	TFTSHIELD_1_SetPixel:
 1143              	.LFB1:
 299:.\Generated_Source\PSoC5/TFTSHIELD_1.c **** 
 300:.\Generated_Source\PSoC5/TFTSHIELD_1.c **** /**************************************************************************//**
 301:.\Generated_Source\PSoC5/TFTSHIELD_1.c **** * @brief Colors a single pixel
 302:.\Generated_Source\PSoC5/TFTSHIELD_1.c **** *
 303:.\Generated_Source\PSoC5/TFTSHIELD_1.c **** * @param Pos_X The x coordinate of the pixel (0 - 240)
 304:.\Generated_Source\PSoC5/TFTSHIELD_1.c **** * @param Pos_Y The y coordinate of the pixel (0 - 320)
 305:.\Generated_Source\PSoC5/TFTSHIELD_1.c **** * @param Color: The 16-bit color of the pixel (0-0xFFFF)
 306:.\Generated_Source\PSoC5/TFTSHIELD_1.c **** *
 307:.\Generated_Source\PSoC5/TFTSHIELD_1.c **** *******************************************************************************/
 308:.\Generated_Source\PSoC5/TFTSHIELD_1.c **** void TFTSHIELD_1_SetPixel(uint16 Pos_X, uint16 Pos_Y, uint16 Color)
 309:.\Generated_Source\PSoC5/TFTSHIELD_1.c **** {
 1144              		.loc 1 309 0
 1145              		.cfi_startproc
 1146              		@ args = 0, pretend = 0, frame = 8
 1147              		@ frame_needed = 1, uses_anonymous_args = 0
 1148 0000 80B5     		push	{r7, lr}
 1149              	.LCFI2:
 1150              		.cfi_def_cfa_offset 8
 1151              		.cfi_offset 7, -8
 1152              		.cfi_offset 14, -4
 1153 0002 82B0     		sub	sp, sp, #8
 1154              	.LCFI3:
 1155              		.cfi_def_cfa_offset 16
 1156 0004 00AF     		add	r7, sp, #0
 1157              	.LCFI4:
 1158              		.cfi_def_cfa_register 7
 1159 0006 1346     		mov	r3, r2
 1160 0008 0246     		mov	r2, r0	@ movhi
 1161 000a FA80     		strh	r2, [r7, #6]	@ movhi
 1162 000c 0A46     		mov	r2, r1	@ movhi
 1163 000e BA80     		strh	r2, [r7, #4]	@ movhi
 1164 0010 7B80     		strh	r3, [r7, #2]	@ movhi
 310:.\Generated_Source\PSoC5/TFTSHIELD_1.c **** 	TFTSHIELD_1_GotoXY(Pos_X, Pos_Y);
 1165              		.loc 1 310 0
 1166 0012 FA88     		ldrh	r2, [r7, #6]
 1167 0014 BB88     		ldrh	r3, [r7, #4]
 1168 0016 1046     		mov	r0, r2
 1169 0018 1946     		mov	r1, r3
 1170 001a FFF7FEFF 		bl	TFTSHIELD_1_GotoXY
 311:.\Generated_Source\PSoC5/TFTSHIELD_1.c **** 	TFTSHIELD_1_SendData16(Color);
 1171              		.loc 1 311 0
ARM GAS  C:\Users\Brian\AppData\Local\Temp\ccPAhBxt.s 			page 27


 1172 001e 7B88     		ldrh	r3, [r7, #2]
 1173 0020 1846     		mov	r0, r3
 1174 0022 FFF7FEFF 		bl	TFTSHIELD_1_SendData16
 312:.\Generated_Source\PSoC5/TFTSHIELD_1.c **** }
 1175              		.loc 1 312 0
 1176 0026 07F10807 		add	r7, r7, #8
 1177 002a BD46     		mov	sp, r7
 1178 002c 80BD     		pop	{r7, pc}
 1179              		.cfi_endproc
 1180              	.LFE1:
 1181              		.size	TFTSHIELD_1_SetPixel, .-TFTSHIELD_1_SetPixel
 1182 002e 00BF     		.section	.text.TFTSHIELD_1_GotoXY,"ax",%progbits
 1183              		.align	2
 1184              		.global	TFTSHIELD_1_GotoXY
 1185              		.thumb
 1186              		.thumb_func
 1187              		.type	TFTSHIELD_1_GotoXY, %function
 1188              	TFTSHIELD_1_GotoXY:
 1189              	.LFB2:
 313:.\Generated_Source\PSoC5/TFTSHIELD_1.c **** 
 314:.\Generated_Source\PSoC5/TFTSHIELD_1.c **** /**************************************************************************//**
 315:.\Generated_Source\PSoC5/TFTSHIELD_1.c **** *  @brief Moves to a pixel without changing it
 316:.\Generated_Source\PSoC5/TFTSHIELD_1.c **** *
 317:.\Generated_Source\PSoC5/TFTSHIELD_1.c **** *  @param Pos_X: The x coordinate of the pixel (0 - 240)
 318:.\Generated_Source\PSoC5/TFTSHIELD_1.c **** *  @param Pos_Y: The y coordinate of the pixel (0 - 320)
 319:.\Generated_Source\PSoC5/TFTSHIELD_1.c **** *
 320:.\Generated_Source\PSoC5/TFTSHIELD_1.c **** *******************************************************************************/
 321:.\Generated_Source\PSoC5/TFTSHIELD_1.c **** void TFTSHIELD_1_GotoXY(uint16 Pos_X, uint16 Pos_Y)
 322:.\Generated_Source\PSoC5/TFTSHIELD_1.c **** {
 1190              		.loc 1 322 0
 1191              		.cfi_startproc
 1192              		@ args = 0, pretend = 0, frame = 8
 1193              		@ frame_needed = 1, uses_anonymous_args = 0
 1194 0000 80B5     		push	{r7, lr}
 1195              	.LCFI5:
 1196              		.cfi_def_cfa_offset 8
 1197              		.cfi_offset 7, -8
 1198              		.cfi_offset 14, -4
 1199 0002 82B0     		sub	sp, sp, #8
 1200              	.LCFI6:
 1201              		.cfi_def_cfa_offset 16
 1202 0004 00AF     		add	r7, sp, #0
 1203              	.LCFI7:
 1204              		.cfi_def_cfa_register 7
 1205 0006 0246     		mov	r2, r0
 1206 0008 0B46     		mov	r3, r1
 1207 000a FA80     		strh	r2, [r7, #6]	@ movhi
 1208 000c BB80     		strh	r3, [r7, #4]	@ movhi
 323:.\Generated_Source\PSoC5/TFTSHIELD_1.c **** 	TFTSHIELD_1_SetCol(Pos_X, Pos_X);
 1209              		.loc 1 323 0
 1210 000e FA88     		ldrh	r2, [r7, #6]
 1211 0010 FB88     		ldrh	r3, [r7, #6]
 1212 0012 1046     		mov	r0, r2
 1213 0014 1946     		mov	r1, r3
 1214 0016 FFF7FEFF 		bl	TFTSHIELD_1_SetCol
 324:.\Generated_Source\PSoC5/TFTSHIELD_1.c **** 	TFTSHIELD_1_SetPage(Pos_Y, Pos_Y);
 1215              		.loc 1 324 0
ARM GAS  C:\Users\Brian\AppData\Local\Temp\ccPAhBxt.s 			page 28


 1216 001a BA88     		ldrh	r2, [r7, #4]
 1217 001c BB88     		ldrh	r3, [r7, #4]
 1218 001e 1046     		mov	r0, r2
 1219 0020 1946     		mov	r1, r3
 1220 0022 FFF7FEFF 		bl	TFTSHIELD_1_SetPage
 325:.\Generated_Source\PSoC5/TFTSHIELD_1.c **** 	TFTSHIELD_1_SendCmd(0x2C);
 1221              		.loc 1 325 0
 1222 0026 4FF02C00 		mov	r0, #44
 1223 002a FFF7FEFF 		bl	TFTSHIELD_1_SendCmd
 326:.\Generated_Source\PSoC5/TFTSHIELD_1.c **** }
 1224              		.loc 1 326 0
 1225 002e 07F10807 		add	r7, r7, #8
 1226 0032 BD46     		mov	sp, r7
 1227 0034 80BD     		pop	{r7, pc}
 1228              		.cfi_endproc
 1229              	.LFE2:
 1230              		.size	TFTSHIELD_1_GotoXY, .-TFTSHIELD_1_GotoXY
 1231 0036 00BF     		.section	.text.TFTSHIELD_1_SetPage,"ax",%progbits
 1232              		.align	2
 1233              		.global	TFTSHIELD_1_SetPage
 1234              		.thumb
 1235              		.thumb_func
 1236              		.type	TFTSHIELD_1_SetPage, %function
 1237              	TFTSHIELD_1_SetPage:
 1238              	.LFB3:
 327:.\Generated_Source\PSoC5/TFTSHIELD_1.c **** 
 328:.\Generated_Source\PSoC5/TFTSHIELD_1.c **** /***************************************************************************//**
 329:.\Generated_Source\PSoC5/TFTSHIELD_1.c **** *  @brief Specify a page on the TFT
 330:.\Generated_Source\PSoC5/TFTSHIELD_1.c **** *
 331:.\Generated_Source\PSoC5/TFTSHIELD_1.c **** *  @param Start_Page: The start page
 332:.\Generated_Source\PSoC5/TFTSHIELD_1.c **** *  @param End_Page: The end page
 333:.\Generated_Source\PSoC5/TFTSHIELD_1.c **** *
 334:.\Generated_Source\PSoC5/TFTSHIELD_1.c **** *******************************************************************************/
 335:.\Generated_Source\PSoC5/TFTSHIELD_1.c **** void TFTSHIELD_1_SetPage(uint16 Start_Page, uint16 End_Page)
 336:.\Generated_Source\PSoC5/TFTSHIELD_1.c **** {
 1239              		.loc 1 336 0
 1240              		.cfi_startproc
 1241              		@ args = 0, pretend = 0, frame = 8
 1242              		@ frame_needed = 1, uses_anonymous_args = 0
 1243 0000 80B5     		push	{r7, lr}
 1244              	.LCFI8:
 1245              		.cfi_def_cfa_offset 8
 1246              		.cfi_offset 7, -8
 1247              		.cfi_offset 14, -4
 1248 0002 82B0     		sub	sp, sp, #8
 1249              	.LCFI9:
 1250              		.cfi_def_cfa_offset 16
 1251 0004 00AF     		add	r7, sp, #0
 1252              	.LCFI10:
 1253              		.cfi_def_cfa_register 7
 1254 0006 0246     		mov	r2, r0
 1255 0008 0B46     		mov	r3, r1
 1256 000a FA80     		strh	r2, [r7, #6]	@ movhi
 1257 000c BB80     		strh	r3, [r7, #4]	@ movhi
 337:.\Generated_Source\PSoC5/TFTSHIELD_1.c **** 	TFTSHIELD_1_SendCmd(0x2B);
 1258              		.loc 1 337 0
 1259 000e 4FF02B00 		mov	r0, #43
ARM GAS  C:\Users\Brian\AppData\Local\Temp\ccPAhBxt.s 			page 29


 1260 0012 FFF7FEFF 		bl	TFTSHIELD_1_SendCmd
 338:.\Generated_Source\PSoC5/TFTSHIELD_1.c **** 	TFTSHIELD_1_SendData16(Start_Page);
 1261              		.loc 1 338 0
 1262 0016 FB88     		ldrh	r3, [r7, #6]
 1263 0018 1846     		mov	r0, r3
 1264 001a FFF7FEFF 		bl	TFTSHIELD_1_SendData16
 339:.\Generated_Source\PSoC5/TFTSHIELD_1.c **** 	TFTSHIELD_1_SendData16(End_Page);
 1265              		.loc 1 339 0
 1266 001e BB88     		ldrh	r3, [r7, #4]
 1267 0020 1846     		mov	r0, r3
 1268 0022 FFF7FEFF 		bl	TFTSHIELD_1_SendData16
 340:.\Generated_Source\PSoC5/TFTSHIELD_1.c **** }
 1269              		.loc 1 340 0
 1270 0026 07F10807 		add	r7, r7, #8
 1271 002a BD46     		mov	sp, r7
 1272 002c 80BD     		pop	{r7, pc}
 1273              		.cfi_endproc
 1274              	.LFE3:
 1275              		.size	TFTSHIELD_1_SetPage, .-TFTSHIELD_1_SetPage
 1276 002e 00BF     		.section	.text.TFTSHIELD_1_SetAddrWindow,"ax",%progbits
 1277              		.align	2
 1278              		.global	TFTSHIELD_1_SetAddrWindow
 1279              		.thumb
 1280              		.thumb_func
 1281              		.type	TFTSHIELD_1_SetAddrWindow, %function
 1282              	TFTSHIELD_1_SetAddrWindow:
 1283              	.LFB4:
 341:.\Generated_Source\PSoC5/TFTSHIELD_1.c **** 
 342:.\Generated_Source\PSoC5/TFTSHIELD_1.c **** /**************************************************************************//**
 343:.\Generated_Source\PSoC5/TFTSHIELD_1.c **** *  @brief Sets the address window (rectangle of pixels) to fill in 
 344:.\Generated_Source\PSoC5/TFTSHIELD_1.c **** *
 345:.\Generated_Source\PSoC5/TFTSHIELD_1.c **** *  @param x0: The starting x coordinate
 346:.\Generated_Source\PSoC5/TFTSHIELD_1.c **** *  @param y0: The starting y coordinate
 347:.\Generated_Source\PSoC5/TFTSHIELD_1.c **** *  @param x1: The ending x coordinate
 348:.\Generated_Source\PSoC5/TFTSHIELD_1.c **** *  @param y1: The ending y coordinate
 349:.\Generated_Source\PSoC5/TFTSHIELD_1.c **** *
 350:.\Generated_Source\PSoC5/TFTSHIELD_1.c **** *******************************************************************************/
 351:.\Generated_Source\PSoC5/TFTSHIELD_1.c **** void TFTSHIELD_1_SetAddrWindow(uint16_t x0, uint16_t y0, uint16_t x1,
 352:.\Generated_Source\PSoC5/TFTSHIELD_1.c ****  uint16_t y1)
 353:.\Generated_Source\PSoC5/TFTSHIELD_1.c **** {
 1284              		.loc 1 353 0
 1285              		.cfi_startproc
 1286              		@ args = 0, pretend = 0, frame = 8
 1287              		@ frame_needed = 1, uses_anonymous_args = 0
 1288 0000 80B5     		push	{r7, lr}
 1289              	.LCFI11:
 1290              		.cfi_def_cfa_offset 8
 1291              		.cfi_offset 7, -8
 1292              		.cfi_offset 14, -4
 1293 0002 82B0     		sub	sp, sp, #8
 1294              	.LCFI12:
 1295              		.cfi_def_cfa_offset 16
 1296 0004 00AF     		add	r7, sp, #0
 1297              	.LCFI13:
 1298              		.cfi_def_cfa_register 7
 1299 0006 F880     		strh	r0, [r7, #6]	@ movhi
 1300 0008 B980     		strh	r1, [r7, #4]	@ movhi
ARM GAS  C:\Users\Brian\AppData\Local\Temp\ccPAhBxt.s 			page 30


 1301 000a 7A80     		strh	r2, [r7, #2]	@ movhi
 1302 000c 3B80     		strh	r3, [r7, #0]	@ movhi
 354:.\Generated_Source\PSoC5/TFTSHIELD_1.c ****     TFTSHIELD_1_SendCmd(0x2A); //column addr set
 1303              		.loc 1 354 0
 1304 000e 4FF02A00 		mov	r0, #42
 1305 0012 FFF7FEFF 		bl	TFTSHIELD_1_SendCmd
 355:.\Generated_Source\PSoC5/TFTSHIELD_1.c ****     TFTSHIELD_1_SendData16(x0); //x start
 1306              		.loc 1 355 0
 1307 0016 FB88     		ldrh	r3, [r7, #6]
 1308 0018 1846     		mov	r0, r3
 1309 001a FFF7FEFF 		bl	TFTSHIELD_1_SendData16
 356:.\Generated_Source\PSoC5/TFTSHIELD_1.c ****     TFTSHIELD_1_SendData16(x1); //x end
 1310              		.loc 1 356 0
 1311 001e 7B88     		ldrh	r3, [r7, #2]
 1312 0020 1846     		mov	r0, r3
 1313 0022 FFF7FEFF 		bl	TFTSHIELD_1_SendData16
 357:.\Generated_Source\PSoC5/TFTSHIELD_1.c ****     
 358:.\Generated_Source\PSoC5/TFTSHIELD_1.c ****     TFTSHIELD_1_SendCmd(0x2B); //row addr set
 1314              		.loc 1 358 0
 1315 0026 4FF02B00 		mov	r0, #43
 1316 002a FFF7FEFF 		bl	TFTSHIELD_1_SendCmd
 359:.\Generated_Source\PSoC5/TFTSHIELD_1.c ****     TFTSHIELD_1_SendData16(y0);//y start
 1317              		.loc 1 359 0
 1318 002e BB88     		ldrh	r3, [r7, #4]
 1319 0030 1846     		mov	r0, r3
 1320 0032 FFF7FEFF 		bl	TFTSHIELD_1_SendData16
 360:.\Generated_Source\PSoC5/TFTSHIELD_1.c ****     TFTSHIELD_1_SendData16(y1);//y end
 1321              		.loc 1 360 0
 1322 0036 3B88     		ldrh	r3, [r7, #0]
 1323 0038 1846     		mov	r0, r3
 1324 003a FFF7FEFF 		bl	TFTSHIELD_1_SendData16
 361:.\Generated_Source\PSoC5/TFTSHIELD_1.c ****     
 362:.\Generated_Source\PSoC5/TFTSHIELD_1.c ****     TFTSHIELD_1_SendCmd(0x2C); //write to RAM
 1325              		.loc 1 362 0
 1326 003e 4FF02C00 		mov	r0, #44
 1327 0042 FFF7FEFF 		bl	TFTSHIELD_1_SendCmd
 363:.\Generated_Source\PSoC5/TFTSHIELD_1.c **** }
 1328              		.loc 1 363 0
 1329 0046 07F10807 		add	r7, r7, #8
 1330 004a BD46     		mov	sp, r7
 1331 004c 80BD     		pop	{r7, pc}
 1332              		.cfi_endproc
 1333              	.LFE4:
 1334              		.size	TFTSHIELD_1_SetAddrWindow, .-TFTSHIELD_1_SetAddrWindow
 1335 004e 00BF     		.section	.text.TFTSHIELD_1_FillRect,"ax",%progbits
 1336              		.align	2
 1337              		.global	TFTSHIELD_1_FillRect
 1338              		.thumb
 1339              		.thumb_func
 1340              		.type	TFTSHIELD_1_FillRect, %function
 1341              	TFTSHIELD_1_FillRect:
 1342              	.LFB5:
 364:.\Generated_Source\PSoC5/TFTSHIELD_1.c **** 
 365:.\Generated_Source\PSoC5/TFTSHIELD_1.c **** /**************************************************************************//**
 366:.\Generated_Source\PSoC5/TFTSHIELD_1.c **** *  @brief Fills a rectangle of pixels with a specified color
 367:.\Generated_Source\PSoC5/TFTSHIELD_1.c **** *
 368:.\Generated_Source\PSoC5/TFTSHIELD_1.c **** *  @param x: The starting x coordinate
ARM GAS  C:\Users\Brian\AppData\Local\Temp\ccPAhBxt.s 			page 31


 369:.\Generated_Source\PSoC5/TFTSHIELD_1.c **** *  @param y: The starting y coordinate
 370:.\Generated_Source\PSoC5/TFTSHIELD_1.c **** *  @param w: The width of the rectangle
 371:.\Generated_Source\PSoC5/TFTSHIELD_1.c **** *  @param h: The height of the rectangle
 372:.\Generated_Source\PSoC5/TFTSHIELD_1.c **** *  @param color: The color of the rectangle
 373:.\Generated_Source\PSoC5/TFTSHIELD_1.c **** *
 374:.\Generated_Source\PSoC5/TFTSHIELD_1.c **** *******************************************************************************/
 375:.\Generated_Source\PSoC5/TFTSHIELD_1.c **** void TFTSHIELD_1_FillRect(int16_t x, int16_t y, int16_t w, int16_t h,
 376:.\Generated_Source\PSoC5/TFTSHIELD_1.c ****   uint16_t color) 
 377:.\Generated_Source\PSoC5/TFTSHIELD_1.c **** {
 1343              		.loc 1 377 0
 1344              		.cfi_startproc
 1345              		@ args = 4, pretend = 0, frame = 16
 1346              		@ frame_needed = 1, uses_anonymous_args = 0
 1347 0000 90B5     		push	{r4, r7, lr}
 1348              	.LCFI14:
 1349              		.cfi_def_cfa_offset 12
 1350              		.cfi_offset 4, -12
 1351              		.cfi_offset 7, -8
 1352              		.cfi_offset 14, -4
 1353 0002 85B0     		sub	sp, sp, #20
 1354              	.LCFI15:
 1355              		.cfi_def_cfa_offset 32
 1356 0004 00AF     		add	r7, sp, #0
 1357              	.LCFI16:
 1358              		.cfi_def_cfa_register 7
 1359 0006 F880     		strh	r0, [r7, #6]	@ movhi
 1360 0008 B980     		strh	r1, [r7, #4]	@ movhi
 1361 000a 7A80     		strh	r2, [r7, #2]	@ movhi
 1362 000c 3B80     		strh	r3, [r7, #0]	@ movhi
 378:.\Generated_Source\PSoC5/TFTSHIELD_1.c ****    // rudimentary clipping (drawChar w/big text requires this)
 379:.\Generated_Source\PSoC5/TFTSHIELD_1.c ****   if((x >= _width) || (y >= _height)) return;
 1363              		.loc 1 379 0
 1364 000e B7F90620 		ldrsh	r2, [r7, #6]
 1365 0012 40F20003 		movw	r3, #:lower16:_width
 1366 0016 C0F20003 		movt	r3, #:upper16:_width
 1367 001a 1B68     		ldr	r3, [r3, #0]
 1368 001c 9A42     		cmp	r2, r3
 1369 001e 76DA     		bge	.L16
 1370              		.loc 1 379 0 is_stmt 0 discriminator 2
 1371 0020 B7F90420 		ldrsh	r2, [r7, #4]
 1372 0024 40F20003 		movw	r3, #:lower16:_height
 1373 0028 C0F20003 		movt	r3, #:upper16:_height
 1374 002c 1B68     		ldr	r3, [r3, #0]
 1375 002e 9A42     		cmp	r2, r3
 1376 0030 6DDA     		bge	.L16
 1377              	.L8:
 380:.\Generated_Source\PSoC5/TFTSHIELD_1.c ****   if((x + w - 1) >= _width)  w = _width  - x;
 1378              		.loc 1 380 0 is_stmt 1
 1379 0032 B7F90620 		ldrsh	r2, [r7, #6]
 1380 0036 B7F90230 		ldrsh	r3, [r7, #2]
 1381 003a D318     		adds	r3, r2, r3
 1382 003c 03F1FF32 		add	r2, r3, #-1
 1383 0040 40F20003 		movw	r3, #:lower16:_width
 1384 0044 C0F20003 		movt	r3, #:upper16:_width
 1385 0048 1B68     		ldr	r3, [r3, #0]
 1386 004a 9A42     		cmp	r2, r3
 1387 004c 09DB     		blt	.L10
ARM GAS  C:\Users\Brian\AppData\Local\Temp\ccPAhBxt.s 			page 32


 1388              		.loc 1 380 0 is_stmt 0 discriminator 1
 1389 004e 40F20003 		movw	r3, #:lower16:_width
 1390 0052 C0F20003 		movt	r3, #:upper16:_width
 1391 0056 1B68     		ldr	r3, [r3, #0]
 1392 0058 9AB2     		uxth	r2, r3
 1393 005a FB88     		ldrh	r3, [r7, #6]
 1394 005c D31A     		subs	r3, r2, r3
 1395 005e 9BB2     		uxth	r3, r3
 1396 0060 7B80     		strh	r3, [r7, #2]	@ movhi
 1397              	.L10:
 381:.\Generated_Source\PSoC5/TFTSHIELD_1.c ****   if((y + h - 1) >= _height) h = _height - y;
 1398              		.loc 1 381 0 is_stmt 1
 1399 0062 B7F90420 		ldrsh	r2, [r7, #4]
 1400 0066 B7F90030 		ldrsh	r3, [r7, #0]
 1401 006a D318     		adds	r3, r2, r3
 1402 006c 03F1FF32 		add	r2, r3, #-1
 1403 0070 40F20003 		movw	r3, #:lower16:_height
 1404 0074 C0F20003 		movt	r3, #:upper16:_height
 1405 0078 1B68     		ldr	r3, [r3, #0]
 1406 007a 9A42     		cmp	r2, r3
 1407 007c 09DB     		blt	.L11
 1408              		.loc 1 381 0 is_stmt 0 discriminator 1
 1409 007e 40F20003 		movw	r3, #:lower16:_height
 1410 0082 C0F20003 		movt	r3, #:upper16:_height
 1411 0086 1B68     		ldr	r3, [r3, #0]
 1412 0088 9AB2     		uxth	r2, r3
 1413 008a BB88     		ldrh	r3, [r7, #4]
 1414 008c D31A     		subs	r3, r2, r3
 1415 008e 9BB2     		uxth	r3, r3
 1416 0090 3B80     		strh	r3, [r7, #0]	@ movhi
 1417              	.L11:
 382:.\Generated_Source\PSoC5/TFTSHIELD_1.c **** 
 383:.\Generated_Source\PSoC5/TFTSHIELD_1.c ****   TFTSHIELD_1_SetAddrWindow(x, y, x+w-1, y+h-1);
 1418              		.loc 1 383 0 is_stmt 1
 1419 0092 F888     		ldrh	r0, [r7, #6]
 1420 0094 B988     		ldrh	r1, [r7, #4]
 1421 0096 FA88     		ldrh	r2, [r7, #6]
 1422 0098 7B88     		ldrh	r3, [r7, #2]
 1423 009a D318     		adds	r3, r2, r3
 1424 009c 9BB2     		uxth	r3, r3
 1425 009e 03F1FF33 		add	r3, r3, #-1
 1426 00a2 9AB2     		uxth	r2, r3
 1427 00a4 BC88     		ldrh	r4, [r7, #4]
 1428 00a6 3B88     		ldrh	r3, [r7, #0]
 1429 00a8 E318     		adds	r3, r4, r3
 1430 00aa 9BB2     		uxth	r3, r3
 1431 00ac 03F1FF33 		add	r3, r3, #-1
 1432 00b0 9BB2     		uxth	r3, r3
 1433 00b2 FFF7FEFF 		bl	TFTSHIELD_1_SetAddrWindow
 384:.\Generated_Source\PSoC5/TFTSHIELD_1.c ****     
 385:.\Generated_Source\PSoC5/TFTSHIELD_1.c ****   uint8_t hi = color >> 8, lo = color;
 1434              		.loc 1 385 0
 1435 00b6 3B8C     		ldrh	r3, [r7, #32]
 1436 00b8 4FEA1323 		lsr	r3, r3, #8
 1437 00bc 9BB2     		uxth	r3, r3
 1438 00be FB73     		strb	r3, [r7, #15]
 1439 00c0 3B8C     		ldrh	r3, [r7, #32]	@ movhi
ARM GAS  C:\Users\Brian\AppData\Local\Temp\ccPAhBxt.s 			page 33


 1440 00c2 BB73     		strb	r3, [r7, #14]
 386:.\Generated_Source\PSoC5/TFTSHIELD_1.c **** 
 387:.\Generated_Source\PSoC5/TFTSHIELD_1.c ****   //*dcport |=  dcpinmask;
 388:.\Generated_Source\PSoC5/TFTSHIELD_1.c ****   TFTSHIELD_1_DC_HIGH();
 1441              		.loc 1 388 0
 1442 00c4 FFF7FEFF 		bl	TFTSHIELD_1_DC_HIGH
 389:.\Generated_Source\PSoC5/TFTSHIELD_1.c ****   //digitalWrite(_dc, HIGH);
 390:.\Generated_Source\PSoC5/TFTSHIELD_1.c ****   //*csport &= ~cspinmask;
 391:.\Generated_Source\PSoC5/TFTSHIELD_1.c ****   //digitalWrite(_cs, LOW);
 392:.\Generated_Source\PSoC5/TFTSHIELD_1.c ****   TFTSHIELD_1_CS_LOW();
 1443              		.loc 1 392 0
 1444 00c8 FFF7FEFF 		bl	TFTSHIELD_1_CS_LOW
 393:.\Generated_Source\PSoC5/TFTSHIELD_1.c **** 
 394:.\Generated_Source\PSoC5/TFTSHIELD_1.c ****   for(y=h; y>0; y--) {
 1445              		.loc 1 394 0
 1446 00cc 3B88     		ldrh	r3, [r7, #0]	@ movhi
 1447 00ce BB80     		strh	r3, [r7, #4]	@ movhi
 1448 00d0 16E0     		b	.L12
 1449              	.L15:
 395:.\Generated_Source\PSoC5/TFTSHIELD_1.c ****     for(x=w; x>0; x--) {
 1450              		.loc 1 395 0
 1451 00d2 7B88     		ldrh	r3, [r7, #2]	@ movhi
 1452 00d4 FB80     		strh	r3, [r7, #6]	@ movhi
 1453 00d6 0BE0     		b	.L13
 1454              	.L14:
 396:.\Generated_Source\PSoC5/TFTSHIELD_1.c ****       TFTSHIELD_1_SPITransfer(hi);
 1455              		.loc 1 396 0 discriminator 2
 1456 00d8 FB7B     		ldrb	r3, [r7, #15]	@ zero_extendqisi2
 1457 00da 1846     		mov	r0, r3
 1458 00dc FFF7FEFF 		bl	TFTSHIELD_1_SPITransfer
 397:.\Generated_Source\PSoC5/TFTSHIELD_1.c ****       TFTSHIELD_1_SPITransfer(lo);
 1459              		.loc 1 397 0 discriminator 2
 1460 00e0 BB7B     		ldrb	r3, [r7, #14]	@ zero_extendqisi2
 1461 00e2 1846     		mov	r0, r3
 1462 00e4 FFF7FEFF 		bl	TFTSHIELD_1_SPITransfer
 395:.\Generated_Source\PSoC5/TFTSHIELD_1.c ****     for(x=w; x>0; x--) {
 1463              		.loc 1 395 0 discriminator 2
 1464 00e8 FB88     		ldrh	r3, [r7, #6]	@ movhi
 1465 00ea 03F1FF33 		add	r3, r3, #-1
 1466 00ee FB80     		strh	r3, [r7, #6]	@ movhi
 1467              	.L13:
 395:.\Generated_Source\PSoC5/TFTSHIELD_1.c ****     for(x=w; x>0; x--) {
 1468              		.loc 1 395 0 is_stmt 0 discriminator 1
 1469 00f0 B7F90630 		ldrsh	r3, [r7, #6]
 1470 00f4 002B     		cmp	r3, #0
 1471 00f6 EFDC     		bgt	.L14
 394:.\Generated_Source\PSoC5/TFTSHIELD_1.c ****   for(y=h; y>0; y--) {
 1472              		.loc 1 394 0 is_stmt 1
 1473 00f8 BB88     		ldrh	r3, [r7, #4]	@ movhi
 1474 00fa 03F1FF33 		add	r3, r3, #-1
 1475 00fe BB80     		strh	r3, [r7, #4]	@ movhi
 1476              	.L12:
 394:.\Generated_Source\PSoC5/TFTSHIELD_1.c ****   for(y=h; y>0; y--) {
 1477              		.loc 1 394 0 is_stmt 0 discriminator 1
 1478 0100 B7F90430 		ldrsh	r3, [r7, #4]
 1479 0104 002B     		cmp	r3, #0
 1480 0106 E4DC     		bgt	.L15
ARM GAS  C:\Users\Brian\AppData\Local\Temp\ccPAhBxt.s 			page 34


 398:.\Generated_Source\PSoC5/TFTSHIELD_1.c ****     }
 399:.\Generated_Source\PSoC5/TFTSHIELD_1.c ****   }
 400:.\Generated_Source\PSoC5/TFTSHIELD_1.c ****   //digitalWrite(_cs, HIGH);
 401:.\Generated_Source\PSoC5/TFTSHIELD_1.c ****   //*csport |= cspinmask;
 402:.\Generated_Source\PSoC5/TFTSHIELD_1.c ****   TFTSHIELD_1_CS_HIGH();
 1481              		.loc 1 402 0 is_stmt 1
 1482 0108 FFF7FEFF 		bl	TFTSHIELD_1_CS_HIGH
 1483 010c 00E0     		b	.L6
 1484              	.L16:
 379:.\Generated_Source\PSoC5/TFTSHIELD_1.c ****   if((x >= _width) || (y >= _height)) return;
 1485              		.loc 1 379 0
 1486 010e 00BF     		nop
 1487              	.L6:
 403:.\Generated_Source\PSoC5/TFTSHIELD_1.c ****  
 404:.\Generated_Source\PSoC5/TFTSHIELD_1.c **** }
 1488              		.loc 1 404 0
 1489 0110 07F11407 		add	r7, r7, #20
 1490 0114 BD46     		mov	sp, r7
 1491 0116 90BD     		pop	{r4, r7, pc}
 1492              		.cfi_endproc
 1493              	.LFE5:
 1494              		.size	TFTSHIELD_1_FillRect, .-TFTSHIELD_1_FillRect
 1495              		.section	.text.TFTSHIELD_1_FillScreen,"ax",%progbits
 1496              		.align	2
 1497              		.global	TFTSHIELD_1_FillScreen
 1498              		.thumb
 1499              		.thumb_func
 1500              		.type	TFTSHIELD_1_FillScreen, %function
 1501              	TFTSHIELD_1_FillScreen:
 1502              	.LFB6:
 405:.\Generated_Source\PSoC5/TFTSHIELD_1.c **** 
 406:.\Generated_Source\PSoC5/TFTSHIELD_1.c **** /**************************************************************************//**
 407:.\Generated_Source\PSoC5/TFTSHIELD_1.c **** *  @brief Fills the TFT with a specified color
 408:.\Generated_Source\PSoC5/TFTSHIELD_1.c **** *
 409:.\Generated_Source\PSoC5/TFTSHIELD_1.c **** *  @param color: The color to fill the screen with
 410:.\Generated_Source\PSoC5/TFTSHIELD_1.c **** *
 411:.\Generated_Source\PSoC5/TFTSHIELD_1.c **** *******************************************************************************/
 412:.\Generated_Source\PSoC5/TFTSHIELD_1.c **** void TFTSHIELD_1_FillScreen(uint16_t color)
 413:.\Generated_Source\PSoC5/TFTSHIELD_1.c **** {
 1503              		.loc 1 413 0
 1504              		.cfi_startproc
 1505              		@ args = 0, pretend = 0, frame = 8
 1506              		@ frame_needed = 1, uses_anonymous_args = 0
 1507 0000 80B5     		push	{r7, lr}
 1508              	.LCFI17:
 1509              		.cfi_def_cfa_offset 8
 1510              		.cfi_offset 7, -8
 1511              		.cfi_offset 14, -4
 1512 0002 84B0     		sub	sp, sp, #16
 1513              	.LCFI18:
 1514              		.cfi_def_cfa_offset 24
 1515 0004 02AF     		add	r7, sp, #8
 1516              	.LCFI19:
 1517              		.cfi_def_cfa 7, 16
 1518 0006 0346     		mov	r3, r0
 1519 0008 FB80     		strh	r3, [r7, #6]	@ movhi
 414:.\Generated_Source\PSoC5/TFTSHIELD_1.c ****     //Just fills a fullscreen rect
ARM GAS  C:\Users\Brian\AppData\Local\Temp\ccPAhBxt.s 			page 35


 415:.\Generated_Source\PSoC5/TFTSHIELD_1.c ****     TFTSHIELD_1_FillRect(0,0,_width,_height,color);
 1520              		.loc 1 415 0
 1521 000a 40F20003 		movw	r3, #:lower16:_width
 1522 000e C0F20003 		movt	r3, #:upper16:_width
 1523 0012 1B68     		ldr	r3, [r3, #0]
 1524 0014 9AB2     		uxth	r2, r3
 1525 0016 40F20003 		movw	r3, #:lower16:_height
 1526 001a C0F20003 		movt	r3, #:upper16:_height
 1527 001e 1B68     		ldr	r3, [r3, #0]
 1528 0020 9BB2     		uxth	r3, r3
 1529 0022 12B2     		sxth	r2, r2
 1530 0024 1BB2     		sxth	r3, r3
 1531 0026 F988     		ldrh	r1, [r7, #6]
 1532 0028 0091     		str	r1, [sp, #0]
 1533 002a 4FF00000 		mov	r0, #0
 1534 002e 4FF00001 		mov	r1, #0
 1535 0032 FFF7FEFF 		bl	TFTSHIELD_1_FillRect
 416:.\Generated_Source\PSoC5/TFTSHIELD_1.c **** }
 1536              		.loc 1 416 0
 1537 0036 07F10807 		add	r7, r7, #8
 1538 003a BD46     		mov	sp, r7
 1539 003c 80BD     		pop	{r7, pc}
 1540              		.cfi_endproc
 1541              	.LFE6:
 1542              		.size	TFTSHIELD_1_FillScreen, .-TFTSHIELD_1_FillScreen
 1543 003e 00BF     		.section	.text.TFTSHIELD_1_SetCol,"ax",%progbits
 1544              		.align	2
 1545              		.global	TFTSHIELD_1_SetCol
 1546              		.thumb
 1547              		.thumb_func
 1548              		.type	TFTSHIELD_1_SetCol, %function
 1549              	TFTSHIELD_1_SetCol:
 1550              	.LFB7:
 417:.\Generated_Source\PSoC5/TFTSHIELD_1.c **** 
 418:.\Generated_Source\PSoC5/TFTSHIELD_1.c **** /**************************************************************************//**
 419:.\Generated_Source\PSoC5/TFTSHIELD_1.c **** *  @brief Sets the column on the TFT
 420:.\Generated_Source\PSoC5/TFTSHIELD_1.c **** *
 421:.\Generated_Source\PSoC5/TFTSHIELD_1.c **** *  @param Start_Col: The start column
 422:.\Generated_Source\PSoC5/TFTSHIELD_1.c **** *  @param End_Col: The end column
 423:.\Generated_Source\PSoC5/TFTSHIELD_1.c **** *
 424:.\Generated_Source\PSoC5/TFTSHIELD_1.c **** *******************************************************************************/
 425:.\Generated_Source\PSoC5/TFTSHIELD_1.c **** void TFTSHIELD_1_SetCol(uint16 Start_Col, uint16 End_Col)
 426:.\Generated_Source\PSoC5/TFTSHIELD_1.c **** {	
 1551              		.loc 1 426 0
 1552              		.cfi_startproc
 1553              		@ args = 0, pretend = 0, frame = 8
 1554              		@ frame_needed = 1, uses_anonymous_args = 0
 1555 0000 80B5     		push	{r7, lr}
 1556              	.LCFI20:
 1557              		.cfi_def_cfa_offset 8
 1558              		.cfi_offset 7, -8
 1559              		.cfi_offset 14, -4
 1560 0002 82B0     		sub	sp, sp, #8
 1561              	.LCFI21:
 1562              		.cfi_def_cfa_offset 16
 1563 0004 00AF     		add	r7, sp, #0
 1564              	.LCFI22:
ARM GAS  C:\Users\Brian\AppData\Local\Temp\ccPAhBxt.s 			page 36


 1565              		.cfi_def_cfa_register 7
 1566 0006 0246     		mov	r2, r0
 1567 0008 0B46     		mov	r3, r1
 1568 000a FA80     		strh	r2, [r7, #6]	@ movhi
 1569 000c BB80     		strh	r3, [r7, #4]	@ movhi
 427:.\Generated_Source\PSoC5/TFTSHIELD_1.c **** 	TFTSHIELD_1_SendCmd(0x2A);
 1570              		.loc 1 427 0
 1571 000e 4FF02A00 		mov	r0, #42
 1572 0012 FFF7FEFF 		bl	TFTSHIELD_1_SendCmd
 428:.\Generated_Source\PSoC5/TFTSHIELD_1.c **** 	TFTSHIELD_1_SendData16(Start_Col);
 1573              		.loc 1 428 0
 1574 0016 FB88     		ldrh	r3, [r7, #6]
 1575 0018 1846     		mov	r0, r3
 1576 001a FFF7FEFF 		bl	TFTSHIELD_1_SendData16
 429:.\Generated_Source\PSoC5/TFTSHIELD_1.c **** 	TFTSHIELD_1_SendData16(End_Col);
 1577              		.loc 1 429 0
 1578 001e BB88     		ldrh	r3, [r7, #4]
 1579 0020 1846     		mov	r0, r3
 1580 0022 FFF7FEFF 		bl	TFTSHIELD_1_SendData16
 430:.\Generated_Source\PSoC5/TFTSHIELD_1.c **** }
 1581              		.loc 1 430 0
 1582 0026 07F10807 		add	r7, r7, #8
 1583 002a BD46     		mov	sp, r7
 1584 002c 80BD     		pop	{r7, pc}
 1585              		.cfi_endproc
 1586              	.LFE7:
 1587              		.size	TFTSHIELD_1_SetCol, .-TFTSHIELD_1_SetCol
 1588 002e 00BF     		.section	.text.TFTSHIELD_1_SendData16,"ax",%progbits
 1589              		.align	2
 1590              		.global	TFTSHIELD_1_SendData16
 1591              		.thumb
 1592              		.thumb_func
 1593              		.type	TFTSHIELD_1_SendData16, %function
 1594              	TFTSHIELD_1_SendData16:
 1595              	.LFB8:
 431:.\Generated_Source\PSoC5/TFTSHIELD_1.c **** 
 432:.\Generated_Source\PSoC5/TFTSHIELD_1.c **** /**************************************************************************//**
 433:.\Generated_Source\PSoC5/TFTSHIELD_1.c **** *  @brief Sends 16 bits data to the TFT
 434:.\Generated_Source\PSoC5/TFTSHIELD_1.c **** *
 435:.\Generated_Source\PSoC5/TFTSHIELD_1.c **** *  @param Data16: The data to send
 436:.\Generated_Source\PSoC5/TFTSHIELD_1.c **** *
 437:.\Generated_Source\PSoC5/TFTSHIELD_1.c **** *******************************************************************************/
 438:.\Generated_Source\PSoC5/TFTSHIELD_1.c **** void TFTSHIELD_1_SendData16(uint16 Data16)
 439:.\Generated_Source\PSoC5/TFTSHIELD_1.c **** {
 1596              		.loc 1 439 0
 1597              		.cfi_startproc
 1598              		@ args = 0, pretend = 0, frame = 16
 1599              		@ frame_needed = 1, uses_anonymous_args = 0
 1600 0000 80B5     		push	{r7, lr}
 1601              	.LCFI23:
 1602              		.cfi_def_cfa_offset 8
 1603              		.cfi_offset 7, -8
 1604              		.cfi_offset 14, -4
 1605 0002 84B0     		sub	sp, sp, #16
 1606              	.LCFI24:
 1607              		.cfi_def_cfa_offset 24
 1608 0004 00AF     		add	r7, sp, #0
ARM GAS  C:\Users\Brian\AppData\Local\Temp\ccPAhBxt.s 			page 37


 1609              	.LCFI25:
 1610              		.cfi_def_cfa_register 7
 1611 0006 0346     		mov	r3, r0
 1612 0008 FB80     		strh	r3, [r7, #6]	@ movhi
 440:.\Generated_Source\PSoC5/TFTSHIELD_1.c **** 	uint8 MSB, LSB;
 441:.\Generated_Source\PSoC5/TFTSHIELD_1.c **** 	
 442:.\Generated_Source\PSoC5/TFTSHIELD_1.c **** 	MSB = Data16 >> 8;
 1613              		.loc 1 442 0
 1614 000a FB88     		ldrh	r3, [r7, #6]
 1615 000c 4FEA1323 		lsr	r3, r3, #8
 1616 0010 9BB2     		uxth	r3, r3
 1617 0012 FB73     		strb	r3, [r7, #15]
 443:.\Generated_Source\PSoC5/TFTSHIELD_1.c **** 	LSB = Data16 & 0xFF;
 1618              		.loc 1 443 0
 1619 0014 FB88     		ldrh	r3, [r7, #6]	@ movhi
 1620 0016 BB73     		strb	r3, [r7, #14]
 444:.\Generated_Source\PSoC5/TFTSHIELD_1.c **** 	
 445:.\Generated_Source\PSoC5/TFTSHIELD_1.c **** 	TFTSHIELD_1_DC_HIGH();
 1621              		.loc 1 445 0
 1622 0018 FFF7FEFF 		bl	TFTSHIELD_1_DC_HIGH
 446:.\Generated_Source\PSoC5/TFTSHIELD_1.c **** 	TFTSHIELD_1_CS_LOW();
 1623              		.loc 1 446 0
 1624 001c FFF7FEFF 		bl	TFTSHIELD_1_CS_LOW
 447:.\Generated_Source\PSoC5/TFTSHIELD_1.c **** 	
 448:.\Generated_Source\PSoC5/TFTSHIELD_1.c **** 	TFTSHIELD_1_SPITransfer(MSB);
 1625              		.loc 1 448 0
 1626 0020 FB7B     		ldrb	r3, [r7, #15]	@ zero_extendqisi2
 1627 0022 1846     		mov	r0, r3
 1628 0024 FFF7FEFF 		bl	TFTSHIELD_1_SPITransfer
 449:.\Generated_Source\PSoC5/TFTSHIELD_1.c **** 	TFTSHIELD_1_SPITransfer(LSB);
 1629              		.loc 1 449 0
 1630 0028 BB7B     		ldrb	r3, [r7, #14]	@ zero_extendqisi2
 1631 002a 1846     		mov	r0, r3
 1632 002c FFF7FEFF 		bl	TFTSHIELD_1_SPITransfer
 450:.\Generated_Source\PSoC5/TFTSHIELD_1.c **** 	
 451:.\Generated_Source\PSoC5/TFTSHIELD_1.c **** 	TFTSHIELD_1_CS_HIGH();
 1633              		.loc 1 451 0
 1634 0030 FFF7FEFF 		bl	TFTSHIELD_1_CS_HIGH
 452:.\Generated_Source\PSoC5/TFTSHIELD_1.c **** }
 1635              		.loc 1 452 0
 1636 0034 07F11007 		add	r7, r7, #16
 1637 0038 BD46     		mov	sp, r7
 1638 003a 80BD     		pop	{r7, pc}
 1639              		.cfi_endproc
 1640              	.LFE8:
 1641              		.size	TFTSHIELD_1_SendData16, .-TFTSHIELD_1_SendData16
 1642              		.section	.text.TFTSHIELD_1_SendData,"ax",%progbits
 1643              		.align	2
 1644              		.global	TFTSHIELD_1_SendData
 1645              		.thumb
 1646              		.thumb_func
 1647              		.type	TFTSHIELD_1_SendData, %function
 1648              	TFTSHIELD_1_SendData:
 1649              	.LFB9:
 453:.\Generated_Source\PSoC5/TFTSHIELD_1.c **** 
 454:.\Generated_Source\PSoC5/TFTSHIELD_1.c **** /**************************************************************************//**
 455:.\Generated_Source\PSoC5/TFTSHIELD_1.c **** *  @brief Sends 8 bits data to the TFT
ARM GAS  C:\Users\Brian\AppData\Local\Temp\ccPAhBxt.s 			page 38


 456:.\Generated_Source\PSoC5/TFTSHIELD_1.c **** *
 457:.\Generated_Source\PSoC5/TFTSHIELD_1.c **** *  @param dat: The data to send
 458:.\Generated_Source\PSoC5/TFTSHIELD_1.c **** *
 459:.\Generated_Source\PSoC5/TFTSHIELD_1.c **** *******************************************************************************/
 460:.\Generated_Source\PSoC5/TFTSHIELD_1.c **** void TFTSHIELD_1_SendData(uint8 dat)
 461:.\Generated_Source\PSoC5/TFTSHIELD_1.c **** {
 1650              		.loc 1 461 0
 1651              		.cfi_startproc
 1652              		@ args = 0, pretend = 0, frame = 8
 1653              		@ frame_needed = 1, uses_anonymous_args = 0
 1654 0000 80B5     		push	{r7, lr}
 1655              	.LCFI26:
 1656              		.cfi_def_cfa_offset 8
 1657              		.cfi_offset 7, -8
 1658              		.cfi_offset 14, -4
 1659 0002 82B0     		sub	sp, sp, #8
 1660              	.LCFI27:
 1661              		.cfi_def_cfa_offset 16
 1662 0004 00AF     		add	r7, sp, #0
 1663              	.LCFI28:
 1664              		.cfi_def_cfa_register 7
 1665 0006 0346     		mov	r3, r0
 1666 0008 FB71     		strb	r3, [r7, #7]
 462:.\Generated_Source\PSoC5/TFTSHIELD_1.c **** 	TFTSHIELD_1_DC_HIGH();
 1667              		.loc 1 462 0
 1668 000a FFF7FEFF 		bl	TFTSHIELD_1_DC_HIGH
 463:.\Generated_Source\PSoC5/TFTSHIELD_1.c **** 	TFTSHIELD_1_CS_LOW();
 1669              		.loc 1 463 0
 1670 000e FFF7FEFF 		bl	TFTSHIELD_1_CS_LOW
 464:.\Generated_Source\PSoC5/TFTSHIELD_1.c **** 	
 465:.\Generated_Source\PSoC5/TFTSHIELD_1.c **** 	TFTSHIELD_1_SPITransfer(dat);
 1671              		.loc 1 465 0
 1672 0012 FB79     		ldrb	r3, [r7, #7]	@ zero_extendqisi2
 1673 0014 1846     		mov	r0, r3
 1674 0016 FFF7FEFF 		bl	TFTSHIELD_1_SPITransfer
 466:.\Generated_Source\PSoC5/TFTSHIELD_1.c **** 	
 467:.\Generated_Source\PSoC5/TFTSHIELD_1.c **** 	TFTSHIELD_1_CS_HIGH();
 1675              		.loc 1 467 0
 1676 001a FFF7FEFF 		bl	TFTSHIELD_1_CS_HIGH
 468:.\Generated_Source\PSoC5/TFTSHIELD_1.c **** }
 1677              		.loc 1 468 0
 1678 001e 07F10807 		add	r7, r7, #8
 1679 0022 BD46     		mov	sp, r7
 1680 0024 80BD     		pop	{r7, pc}
 1681              		.cfi_endproc
 1682              	.LFE9:
 1683              		.size	TFTSHIELD_1_SendData, .-TFTSHIELD_1_SendData
 1684 0026 00BF     		.section	.text.TFTSHIELD_1_SendCmd,"ax",%progbits
 1685              		.align	2
 1686              		.global	TFTSHIELD_1_SendCmd
 1687              		.thumb
 1688              		.thumb_func
 1689              		.type	TFTSHIELD_1_SendCmd, %function
 1690              	TFTSHIELD_1_SendCmd:
 1691              	.LFB10:
 469:.\Generated_Source\PSoC5/TFTSHIELD_1.c **** 
 470:.\Generated_Source\PSoC5/TFTSHIELD_1.c **** /**************************************************************************//**
ARM GAS  C:\Users\Brian\AppData\Local\Temp\ccPAhBxt.s 			page 39


 471:.\Generated_Source\PSoC5/TFTSHIELD_1.c **** *  @brief Sends a command to the TFT
 472:.\Generated_Source\PSoC5/TFTSHIELD_1.c **** *
 473:.\Generated_Source\PSoC5/TFTSHIELD_1.c **** *  @param cmd: The command data to send
 474:.\Generated_Source\PSoC5/TFTSHIELD_1.c **** *
 475:.\Generated_Source\PSoC5/TFTSHIELD_1.c **** *******************************************************************************/
 476:.\Generated_Source\PSoC5/TFTSHIELD_1.c **** void TFTSHIELD_1_SendCmd(uint8 cmd)
 477:.\Generated_Source\PSoC5/TFTSHIELD_1.c **** {
 1692              		.loc 1 477 0
 1693              		.cfi_startproc
 1694              		@ args = 0, pretend = 0, frame = 8
 1695              		@ frame_needed = 1, uses_anonymous_args = 0
 1696 0000 80B5     		push	{r7, lr}
 1697              	.LCFI29:
 1698              		.cfi_def_cfa_offset 8
 1699              		.cfi_offset 7, -8
 1700              		.cfi_offset 14, -4
 1701 0002 82B0     		sub	sp, sp, #8
 1702              	.LCFI30:
 1703              		.cfi_def_cfa_offset 16
 1704 0004 00AF     		add	r7, sp, #0
 1705              	.LCFI31:
 1706              		.cfi_def_cfa_register 7
 1707 0006 0346     		mov	r3, r0
 1708 0008 FB71     		strb	r3, [r7, #7]
 478:.\Generated_Source\PSoC5/TFTSHIELD_1.c **** 	TFTSHIELD_1_DC_LOW();
 1709              		.loc 1 478 0
 1710 000a FFF7FEFF 		bl	TFTSHIELD_1_DC_LOW
 479:.\Generated_Source\PSoC5/TFTSHIELD_1.c **** 	TFTSHIELD_1_CS_LOW();
 1711              		.loc 1 479 0
 1712 000e FFF7FEFF 		bl	TFTSHIELD_1_CS_LOW
 480:.\Generated_Source\PSoC5/TFTSHIELD_1.c **** 	
 481:.\Generated_Source\PSoC5/TFTSHIELD_1.c **** 	TFTSHIELD_1_SPITransfer(cmd);
 1713              		.loc 1 481 0
 1714 0012 FB79     		ldrb	r3, [r7, #7]	@ zero_extendqisi2
 1715 0014 1846     		mov	r0, r3
 1716 0016 FFF7FEFF 		bl	TFTSHIELD_1_SPITransfer
 482:.\Generated_Source\PSoC5/TFTSHIELD_1.c **** 	
 483:.\Generated_Source\PSoC5/TFTSHIELD_1.c **** 	TFTSHIELD_1_CS_HIGH();
 1717              		.loc 1 483 0
 1718 001a FFF7FEFF 		bl	TFTSHIELD_1_CS_HIGH
 484:.\Generated_Source\PSoC5/TFTSHIELD_1.c **** }
 1719              		.loc 1 484 0
 1720 001e 07F10807 		add	r7, r7, #8
 1721 0022 BD46     		mov	sp, r7
 1722 0024 80BD     		pop	{r7, pc}
 1723              		.cfi_endproc
 1724              	.LFE10:
 1725              		.size	TFTSHIELD_1_SendCmd, .-TFTSHIELD_1_SendCmd
 1726 0026 00BF     		.section	.text.TFTSHIELD_1_SPITransfer,"ax",%progbits
 1727              		.align	2
 1728              		.global	TFTSHIELD_1_SPITransfer
 1729              		.thumb
 1730              		.thumb_func
 1731              		.type	TFTSHIELD_1_SPITransfer, %function
 1732              	TFTSHIELD_1_SPITransfer:
 1733              	.LFB11:
 485:.\Generated_Source\PSoC5/TFTSHIELD_1.c **** 
ARM GAS  C:\Users\Brian\AppData\Local\Temp\ccPAhBxt.s 			page 40


 486:.\Generated_Source\PSoC5/TFTSHIELD_1.c **** /**************************************************************************//**
 487:.\Generated_Source\PSoC5/TFTSHIELD_1.c **** *  @brief Sends 8 bits of data to the TFT over SPI
 488:.\Generated_Source\PSoC5/TFTSHIELD_1.c **** *
 489:.\Generated_Source\PSoC5/TFTSHIELD_1.c **** *  @param data8: The data to send
 490:.\Generated_Source\PSoC5/TFTSHIELD_1.c **** *
 491:.\Generated_Source\PSoC5/TFTSHIELD_1.c **** *******************************************************************************/
 492:.\Generated_Source\PSoC5/TFTSHIELD_1.c **** void TFTSHIELD_1_SPITransfer(uint8 data8)
 493:.\Generated_Source\PSoC5/TFTSHIELD_1.c **** {	
 1734              		.loc 1 493 0
 1735              		.cfi_startproc
 1736              		@ args = 0, pretend = 0, frame = 8
 1737              		@ frame_needed = 1, uses_anonymous_args = 0
 1738 0000 80B5     		push	{r7, lr}
 1739              	.LCFI32:
 1740              		.cfi_def_cfa_offset 8
 1741              		.cfi_offset 7, -8
 1742              		.cfi_offset 14, -4
 1743 0002 82B0     		sub	sp, sp, #8
 1744              	.LCFI33:
 1745              		.cfi_def_cfa_offset 16
 1746 0004 00AF     		add	r7, sp, #0
 1747              	.LCFI34:
 1748              		.cfi_def_cfa_register 7
 1749 0006 0346     		mov	r3, r0
 1750 0008 FB71     		strb	r3, [r7, #7]
 494:.\Generated_Source\PSoC5/TFTSHIELD_1.c **** 	//SPIM_1_SpiUART_1WriteTxData((uint32)data8);
 495:.\Generated_Source\PSoC5/TFTSHIELD_1.c ****     TFTSHIELD_1_SPIM_1_WriteTxData(data8);
 1751              		.loc 1 495 0
 1752 000a FB79     		ldrb	r3, [r7, #7]	@ zero_extendqisi2
 1753 000c 1846     		mov	r0, r3
 1754 000e FFF7FEFF 		bl	TFTSHIELD_1_SPIM_1_WriteTxData
 496:.\Generated_Source\PSoC5/TFTSHIELD_1.c **** 
 497:.\Generated_Source\PSoC5/TFTSHIELD_1.c **** 	//CyDelayUs(1);
 498:.\Generated_Source\PSoC5/TFTSHIELD_1.c **** }
 1755              		.loc 1 498 0
 1756 0012 07F10807 		add	r7, r7, #8
 1757 0016 BD46     		mov	sp, r7
 1758 0018 80BD     		pop	{r7, pc}
 1759              		.cfi_endproc
 1760              	.LFE11:
 1761              		.size	TFTSHIELD_1_SPITransfer, .-TFTSHIELD_1_SPITransfer
 1762 001a 00BF     		.section	.text.TFTSHIELD_1_DrawVLine,"ax",%progbits
 1763              		.align	2
 1764              		.global	TFTSHIELD_1_DrawVLine
 1765              		.thumb
 1766              		.thumb_func
 1767              		.type	TFTSHIELD_1_DrawVLine, %function
 1768              	TFTSHIELD_1_DrawVLine:
 1769              	.LFB12:
 499:.\Generated_Source\PSoC5/TFTSHIELD_1.c **** 
 500:.\Generated_Source\PSoC5/TFTSHIELD_1.c **** /**************************************************************************//**
 501:.\Generated_Source\PSoC5/TFTSHIELD_1.c **** *  @brief Draws a vertical line
 502:.\Generated_Source\PSoC5/TFTSHIELD_1.c **** *
 503:.\Generated_Source\PSoC5/TFTSHIELD_1.c **** *  @param Pos_X: The starting x coordinate
 504:.\Generated_Source\PSoC5/TFTSHIELD_1.c **** *  @param Pos_Y: The starting y coordinate
 505:.\Generated_Source\PSoC5/TFTSHIELD_1.c **** *  @param Length: The length of the line
 506:.\Generated_Source\PSoC5/TFTSHIELD_1.c **** *  @param Color: The color of the line
ARM GAS  C:\Users\Brian\AppData\Local\Temp\ccPAhBxt.s 			page 41


 507:.\Generated_Source\PSoC5/TFTSHIELD_1.c **** *
 508:.\Generated_Source\PSoC5/TFTSHIELD_1.c **** *******************************************************************************/
 509:.\Generated_Source\PSoC5/TFTSHIELD_1.c **** void TFTSHIELD_1_DrawVLine(uint16 Pos_X, uint16 Pos_Y, uint16 Length, uint16 Color)
 510:.\Generated_Source\PSoC5/TFTSHIELD_1.c **** {
 1770              		.loc 1 510 0
 1771              		.cfi_startproc
 1772              		@ args = 0, pretend = 0, frame = 16
 1773              		@ frame_needed = 1, uses_anonymous_args = 0
 1774 0000 80B5     		push	{r7, lr}
 1775              	.LCFI35:
 1776              		.cfi_def_cfa_offset 8
 1777              		.cfi_offset 7, -8
 1778              		.cfi_offset 14, -4
 1779 0002 84B0     		sub	sp, sp, #16
 1780              	.LCFI36:
 1781              		.cfi_def_cfa_offset 24
 1782 0004 00AF     		add	r7, sp, #0
 1783              	.LCFI37:
 1784              		.cfi_def_cfa_register 7
 1785 0006 F880     		strh	r0, [r7, #6]	@ movhi
 1786 0008 B980     		strh	r1, [r7, #4]	@ movhi
 1787 000a 7A80     		strh	r2, [r7, #2]	@ movhi
 1788 000c 3B80     		strh	r3, [r7, #0]	@ movhi
 511:.\Generated_Source\PSoC5/TFTSHIELD_1.c **** 	uint16 index;
 512:.\Generated_Source\PSoC5/TFTSHIELD_1.c **** 	TFTSHIELD_1_SetCol(Pos_X, Pos_X);
 1789              		.loc 1 512 0
 1790 000e FA88     		ldrh	r2, [r7, #6]
 1791 0010 FB88     		ldrh	r3, [r7, #6]
 1792 0012 1046     		mov	r0, r2
 1793 0014 1946     		mov	r1, r3
 1794 0016 FFF7FEFF 		bl	TFTSHIELD_1_SetCol
 513:.\Generated_Source\PSoC5/TFTSHIELD_1.c **** 	TFTSHIELD_1_SetPage(Pos_Y, Pos_Y + Length);
 1795              		.loc 1 513 0
 1796 001a BA88     		ldrh	r2, [r7, #4]	@ movhi
 1797 001c 7B88     		ldrh	r3, [r7, #2]	@ movhi
 1798 001e D318     		adds	r3, r2, r3
 1799 0020 9BB2     		uxth	r3, r3
 1800 0022 BA88     		ldrh	r2, [r7, #4]
 1801 0024 1046     		mov	r0, r2
 1802 0026 1946     		mov	r1, r3
 1803 0028 FFF7FEFF 		bl	TFTSHIELD_1_SetPage
 514:.\Generated_Source\PSoC5/TFTSHIELD_1.c **** 	TFTSHIELD_1_SendCmd(0x2C);
 1804              		.loc 1 514 0
 1805 002c 4FF02C00 		mov	r0, #44
 1806 0030 FFF7FEFF 		bl	TFTSHIELD_1_SendCmd
 515:.\Generated_Source\PSoC5/TFTSHIELD_1.c **** 	
 516:.\Generated_Source\PSoC5/TFTSHIELD_1.c **** 	TFTSHIELD_1_DC_HIGH();
 1807              		.loc 1 516 0
 1808 0034 FFF7FEFF 		bl	TFTSHIELD_1_DC_HIGH
 517:.\Generated_Source\PSoC5/TFTSHIELD_1.c **** 	TFTSHIELD_1_CS_LOW();
 1809              		.loc 1 517 0
 1810 0038 FFF7FEFF 		bl	TFTSHIELD_1_CS_LOW
 518:.\Generated_Source\PSoC5/TFTSHIELD_1.c **** 	
 519:.\Generated_Source\PSoC5/TFTSHIELD_1.c **** 	for(index = 0; index < Length; index++)
 1811              		.loc 1 519 0
 1812 003c 4FF00003 		mov	r3, #0
 1813 0040 FB81     		strh	r3, [r7, #14]	@ movhi
ARM GAS  C:\Users\Brian\AppData\Local\Temp\ccPAhBxt.s 			page 42


 1814 0042 10E0     		b	.L24
 1815              	.L25:
 520:.\Generated_Source\PSoC5/TFTSHIELD_1.c **** 	{	
 521:.\Generated_Source\PSoC5/TFTSHIELD_1.c **** 		TFTSHIELD_1_SPITransfer(Color >> 8);
 1816              		.loc 1 521 0 discriminator 2
 1817 0044 3B88     		ldrh	r3, [r7, #0]
 1818 0046 4FEA1323 		lsr	r3, r3, #8
 1819 004a 9BB2     		uxth	r3, r3
 1820 004c DBB2     		uxtb	r3, r3
 1821 004e 1846     		mov	r0, r3
 1822 0050 FFF7FEFF 		bl	TFTSHIELD_1_SPITransfer
 522:.\Generated_Source\PSoC5/TFTSHIELD_1.c **** 		TFTSHIELD_1_SPITransfer(Color & 0xFF);	
 1823              		.loc 1 522 0 discriminator 2
 1824 0054 3B88     		ldrh	r3, [r7, #0]	@ movhi
 1825 0056 DBB2     		uxtb	r3, r3
 1826 0058 1846     		mov	r0, r3
 1827 005a FFF7FEFF 		bl	TFTSHIELD_1_SPITransfer
 519:.\Generated_Source\PSoC5/TFTSHIELD_1.c **** 	for(index = 0; index < Length; index++)
 1828              		.loc 1 519 0 discriminator 2
 1829 005e FB89     		ldrh	r3, [r7, #14]	@ movhi
 1830 0060 03F10103 		add	r3, r3, #1
 1831 0064 FB81     		strh	r3, [r7, #14]	@ movhi
 1832              	.L24:
 519:.\Generated_Source\PSoC5/TFTSHIELD_1.c **** 	for(index = 0; index < Length; index++)
 1833              		.loc 1 519 0 is_stmt 0 discriminator 1
 1834 0066 FA89     		ldrh	r2, [r7, #14]
 1835 0068 7B88     		ldrh	r3, [r7, #2]
 1836 006a 9A42     		cmp	r2, r3
 1837 006c EAD3     		bcc	.L25
 523:.\Generated_Source\PSoC5/TFTSHIELD_1.c **** 	}
 524:.\Generated_Source\PSoC5/TFTSHIELD_1.c **** 	
 525:.\Generated_Source\PSoC5/TFTSHIELD_1.c **** 	TFTSHIELD_1_CS_HIGH();
 1838              		.loc 1 525 0 is_stmt 1
 1839 006e FFF7FEFF 		bl	TFTSHIELD_1_CS_HIGH
 526:.\Generated_Source\PSoC5/TFTSHIELD_1.c **** }
 1840              		.loc 1 526 0
 1841 0072 07F11007 		add	r7, r7, #16
 1842 0076 BD46     		mov	sp, r7
 1843 0078 80BD     		pop	{r7, pc}
 1844              		.cfi_endproc
 1845              	.LFE12:
 1846              		.size	TFTSHIELD_1_DrawVLine, .-TFTSHIELD_1_DrawVLine
 1847 007a 00BF     		.section	.text.TFTSHIELD_1_DrawHLine,"ax",%progbits
 1848              		.align	2
 1849              		.global	TFTSHIELD_1_DrawHLine
 1850              		.thumb
 1851              		.thumb_func
 1852              		.type	TFTSHIELD_1_DrawHLine, %function
 1853              	TFTSHIELD_1_DrawHLine:
 1854              	.LFB13:
 527:.\Generated_Source\PSoC5/TFTSHIELD_1.c **** 
 528:.\Generated_Source\PSoC5/TFTSHIELD_1.c **** void TFTSHIELD_1_DrawHLine(int16_t x, int16_t y,
 529:.\Generated_Source\PSoC5/TFTSHIELD_1.c **** 				 int16_t w, uint16_t color) {
 1855              		.loc 1 529 0
 1856              		.cfi_startproc
 1857              		@ args = 0, pretend = 0, frame = 8
 1858              		@ frame_needed = 1, uses_anonymous_args = 0
ARM GAS  C:\Users\Brian\AppData\Local\Temp\ccPAhBxt.s 			page 43


 1859 0000 90B5     		push	{r4, r7, lr}
 1860              	.LCFI38:
 1861              		.cfi_def_cfa_offset 12
 1862              		.cfi_offset 4, -12
 1863              		.cfi_offset 7, -8
 1864              		.cfi_offset 14, -4
 1865 0002 85B0     		sub	sp, sp, #20
 1866              	.LCFI39:
 1867              		.cfi_def_cfa_offset 32
 1868 0004 02AF     		add	r7, sp, #8
 1869              	.LCFI40:
 1870              		.cfi_def_cfa 7, 24
 1871 0006 F880     		strh	r0, [r7, #6]	@ movhi
 1872 0008 B980     		strh	r1, [r7, #4]	@ movhi
 1873 000a 7A80     		strh	r2, [r7, #2]	@ movhi
 1874 000c 3B80     		strh	r3, [r7, #0]	@ movhi
 530:.\Generated_Source\PSoC5/TFTSHIELD_1.c ****   
 531:.\Generated_Source\PSoC5/TFTSHIELD_1.c ****   TFTSHIELD_1_DrawLine(x, y, x+w-1, y, color);
 1875              		.loc 1 531 0
 1876 000e F888     		ldrh	r0, [r7, #6]
 1877 0010 B988     		ldrh	r1, [r7, #4]
 1878 0012 FA88     		ldrh	r2, [r7, #6]
 1879 0014 7B88     		ldrh	r3, [r7, #2]
 1880 0016 D318     		adds	r3, r2, r3
 1881 0018 9BB2     		uxth	r3, r3
 1882 001a 03F1FF33 		add	r3, r3, #-1
 1883 001e 9AB2     		uxth	r2, r3
 1884 0020 BB88     		ldrh	r3, [r7, #4]
 1885 0022 3C88     		ldrh	r4, [r7, #0]
 1886 0024 0094     		str	r4, [sp, #0]
 1887 0026 FFF7FEFF 		bl	TFTSHIELD_1_DrawLine
 532:.\Generated_Source\PSoC5/TFTSHIELD_1.c **** }
 1888              		.loc 1 532 0
 1889 002a 07F10C07 		add	r7, r7, #12
 1890 002e BD46     		mov	sp, r7
 1891 0030 90BD     		pop	{r4, r7, pc}
 1892              		.cfi_endproc
 1893              	.LFE13:
 1894              		.size	TFTSHIELD_1_DrawHLine, .-TFTSHIELD_1_DrawHLine
 1895              		.global	__aeabi_i2f
 1896              		.global	__aeabi_fdiv
 1897              		.global	__aeabi_fmul
 1898              		.global	__aeabi_fadd
 1899              		.global	__aeabi_f2iz
 1900 0032 00BF     		.section	.text.TFTSHIELD_1_DrawLine,"ax",%progbits
 1901              		.align	2
 1902              		.global	TFTSHIELD_1_DrawLine
 1903              		.thumb
 1904              		.thumb_func
 1905              		.type	TFTSHIELD_1_DrawLine, %function
 1906              	TFTSHIELD_1_DrawLine:
 1907              	.LFB14:
 533:.\Generated_Source\PSoC5/TFTSHIELD_1.c **** 
 534:.\Generated_Source\PSoC5/TFTSHIELD_1.c **** /**************************************************************************//**
 535:.\Generated_Source\PSoC5/TFTSHIELD_1.c **** *  @brief Draws a line
 536:.\Generated_Source\PSoC5/TFTSHIELD_1.c **** *
 537:.\Generated_Source\PSoC5/TFTSHIELD_1.c **** *  @param x1: The starting x coordinate
ARM GAS  C:\Users\Brian\AppData\Local\Temp\ccPAhBxt.s 			page 44


 538:.\Generated_Source\PSoC5/TFTSHIELD_1.c **** *  @param y1: The starting y coordinate
 539:.\Generated_Source\PSoC5/TFTSHIELD_1.c **** *  @param x2: The ending x coordinate
 540:.\Generated_Source\PSoC5/TFTSHIELD_1.c **** *  @param y2: The ending y coordinate
 541:.\Generated_Source\PSoC5/TFTSHIELD_1.c **** *  @param Color: The color of the line
 542:.\Generated_Source\PSoC5/TFTSHIELD_1.c **** *
 543:.\Generated_Source\PSoC5/TFTSHIELD_1.c **** *******************************************************************************/
 544:.\Generated_Source\PSoC5/TFTSHIELD_1.c **** void TFTSHIELD_1_DrawLine( uint16 x1, uint16 y1, uint16 x2, uint16 y2, uint16 Color )
 545:.\Generated_Source\PSoC5/TFTSHIELD_1.c **** {
 1908              		.loc 1 545 0
 1909              		.cfi_startproc
 1910              		@ args = 4, pretend = 0, frame = 32
 1911              		@ frame_needed = 1, uses_anonymous_args = 0
 1912 0000 90B5     		push	{r4, r7, lr}
 1913              	.LCFI41:
 1914              		.cfi_def_cfa_offset 12
 1915              		.cfi_offset 4, -12
 1916              		.cfi_offset 7, -8
 1917              		.cfi_offset 14, -4
 1918 0002 89B0     		sub	sp, sp, #36
 1919              	.LCFI42:
 1920              		.cfi_def_cfa_offset 48
 1921 0004 00AF     		add	r7, sp, #0
 1922              	.LCFI43:
 1923              		.cfi_def_cfa_register 7
 1924 0006 F880     		strh	r0, [r7, #6]	@ movhi
 1925 0008 B980     		strh	r1, [r7, #4]	@ movhi
 1926 000a 7A80     		strh	r2, [r7, #2]	@ movhi
 1927 000c 3B80     		strh	r3, [r7, #0]	@ movhi
 546:.\Generated_Source\PSoC5/TFTSHIELD_1.c **** 	short dx, dy, sdx, sdy, px, py, dxabs, dyabs, i;
 547:.\Generated_Source\PSoC5/TFTSHIELD_1.c **** 	float slope;
 548:.\Generated_Source\PSoC5/TFTSHIELD_1.c **** 
 549:.\Generated_Source\PSoC5/TFTSHIELD_1.c **** 	dx = x2 - x1;
 1928              		.loc 1 549 0
 1929 000e 7A88     		ldrh	r2, [r7, #2]	@ movhi
 1930 0010 FB88     		ldrh	r3, [r7, #6]	@ movhi
 1931 0012 D31A     		subs	r3, r2, r3
 1932 0014 9BB2     		uxth	r3, r3
 1933 0016 BB82     		strh	r3, [r7, #20]	@ movhi
 550:.\Generated_Source\PSoC5/TFTSHIELD_1.c **** 	dy = y2 - y1;
 1934              		.loc 1 550 0
 1935 0018 3A88     		ldrh	r2, [r7, #0]	@ movhi
 1936 001a BB88     		ldrh	r3, [r7, #4]	@ movhi
 1937 001c D31A     		subs	r3, r2, r3
 1938 001e 9BB2     		uxth	r3, r3
 1939 0020 7B82     		strh	r3, [r7, #18]	@ movhi
 551:.\Generated_Source\PSoC5/TFTSHIELD_1.c **** 	dxabs = sdx = 0;
 1940              		.loc 1 551 0
 1941 0022 4FF00003 		mov	r3, #0
 1942 0026 FB83     		strh	r3, [r7, #30]	@ movhi
 1943 0028 FB8B     		ldrh	r3, [r7, #30]	@ movhi
 1944 002a 7B83     		strh	r3, [r7, #26]	@ movhi
 552:.\Generated_Source\PSoC5/TFTSHIELD_1.c **** 	if( dx > 0 )
 1945              		.loc 1 552 0
 1946 002c B7F91430 		ldrsh	r3, [r7, #20]
 1947 0030 002B     		cmp	r3, #0
 1948 0032 05DD     		ble	.L28
 553:.\Generated_Source\PSoC5/TFTSHIELD_1.c **** 	{
ARM GAS  C:\Users\Brian\AppData\Local\Temp\ccPAhBxt.s 			page 45


 554:.\Generated_Source\PSoC5/TFTSHIELD_1.c **** 		dxabs = dx;
 1949              		.loc 1 554 0
 1950 0034 BB8A     		ldrh	r3, [r7, #20]	@ movhi
 1951 0036 7B83     		strh	r3, [r7, #26]	@ movhi
 555:.\Generated_Source\PSoC5/TFTSHIELD_1.c **** 		sdx = 1;
 1952              		.loc 1 555 0
 1953 0038 4FF00103 		mov	r3, #1
 1954 003c FB83     		strh	r3, [r7, #30]	@ movhi
 1955 003e 0BE0     		b	.L29
 1956              	.L28:
 556:.\Generated_Source\PSoC5/TFTSHIELD_1.c **** 	}
 557:.\Generated_Source\PSoC5/TFTSHIELD_1.c **** 	else if ( dx < 0 )
 1957              		.loc 1 557 0
 1958 0040 B7F91430 		ldrsh	r3, [r7, #20]
 1959 0044 002B     		cmp	r3, #0
 1960 0046 07DA     		bge	.L29
 558:.\Generated_Source\PSoC5/TFTSHIELD_1.c **** 	{
 559:.\Generated_Source\PSoC5/TFTSHIELD_1.c **** 		dxabs = -dx;
 1961              		.loc 1 559 0
 1962 0048 BB8A     		ldrh	r3, [r7, #20]
 1963 004a C3F10003 		rsb	r3, r3, #0
 1964 004e 9BB2     		uxth	r3, r3
 1965 0050 7B83     		strh	r3, [r7, #26]	@ movhi
 560:.\Generated_Source\PSoC5/TFTSHIELD_1.c **** 		sdx = -1;
 1966              		.loc 1 560 0
 1967 0052 4FF6FF73 		movw	r3, #65535
 1968 0056 FB83     		strh	r3, [r7, #30]	@ movhi
 1969              	.L29:
 561:.\Generated_Source\PSoC5/TFTSHIELD_1.c **** 	}
 562:.\Generated_Source\PSoC5/TFTSHIELD_1.c **** 	dyabs = sdy = 0;
 1970              		.loc 1 562 0
 1971 0058 4FF00003 		mov	r3, #0
 1972 005c BB83     		strh	r3, [r7, #28]	@ movhi
 1973 005e BB8B     		ldrh	r3, [r7, #28]	@ movhi
 1974 0060 3B83     		strh	r3, [r7, #24]	@ movhi
 563:.\Generated_Source\PSoC5/TFTSHIELD_1.c **** 	if( dy > 0 )
 1975              		.loc 1 563 0
 1976 0062 B7F91230 		ldrsh	r3, [r7, #18]
 1977 0066 002B     		cmp	r3, #0
 1978 0068 05DD     		ble	.L30
 564:.\Generated_Source\PSoC5/TFTSHIELD_1.c **** 	{
 565:.\Generated_Source\PSoC5/TFTSHIELD_1.c **** 		dyabs = dy;
 1979              		.loc 1 565 0
 1980 006a 7B8A     		ldrh	r3, [r7, #18]	@ movhi
 1981 006c 3B83     		strh	r3, [r7, #24]	@ movhi
 566:.\Generated_Source\PSoC5/TFTSHIELD_1.c **** 		sdy = 1;
 1982              		.loc 1 566 0
 1983 006e 4FF00103 		mov	r3, #1
 1984 0072 BB83     		strh	r3, [r7, #28]	@ movhi
 1985 0074 0BE0     		b	.L31
 1986              	.L30:
 567:.\Generated_Source\PSoC5/TFTSHIELD_1.c **** 	}
 568:.\Generated_Source\PSoC5/TFTSHIELD_1.c **** 	else if ( dy < 0 )
 1987              		.loc 1 568 0
 1988 0076 B7F91230 		ldrsh	r3, [r7, #18]
 1989 007a 002B     		cmp	r3, #0
 1990 007c 07DA     		bge	.L31
ARM GAS  C:\Users\Brian\AppData\Local\Temp\ccPAhBxt.s 			page 46


 569:.\Generated_Source\PSoC5/TFTSHIELD_1.c **** 	{
 570:.\Generated_Source\PSoC5/TFTSHIELD_1.c **** 		dyabs = -dy;
 1991              		.loc 1 570 0
 1992 007e 7B8A     		ldrh	r3, [r7, #18]
 1993 0080 C3F10003 		rsb	r3, r3, #0
 1994 0084 9BB2     		uxth	r3, r3
 1995 0086 3B83     		strh	r3, [r7, #24]	@ movhi
 571:.\Generated_Source\PSoC5/TFTSHIELD_1.c **** 		sdy = -1;
 1996              		.loc 1 571 0
 1997 0088 4FF6FF73 		movw	r3, #65535
 1998 008c BB83     		strh	r3, [r7, #28]	@ movhi
 1999              	.L31:
 572:.\Generated_Source\PSoC5/TFTSHIELD_1.c **** 	}
 573:.\Generated_Source\PSoC5/TFTSHIELD_1.c **** 	if ( dxabs >= dyabs )		/* the line is more horizontal than vertical */
 2000              		.loc 1 573 0
 2001 008e B7F91A20 		ldrsh	r2, [r7, #26]
 2002 0092 B7F91830 		ldrsh	r3, [r7, #24]
 2003 0096 9A42     		cmp	r2, r3
 2004 0098 49DB     		blt	.L32
 574:.\Generated_Source\PSoC5/TFTSHIELD_1.c **** 	{
 575:.\Generated_Source\PSoC5/TFTSHIELD_1.c **** 		slope = ( float ) dy / ( float ) dx;
 2005              		.loc 1 575 0
 2006 009a B7F91230 		ldrsh	r3, [r7, #18]
 2007 009e 1846     		mov	r0, r3
 2008 00a0 FFF7FEFF 		bl	__aeabi_i2f
 2009 00a4 0446     		mov	r4, r0
 2010 00a6 B7F91430 		ldrsh	r3, [r7, #20]
 2011 00aa 1846     		mov	r0, r3
 2012 00ac FFF7FEFF 		bl	__aeabi_i2f
 2013 00b0 0346     		mov	r3, r0
 2014 00b2 2046     		mov	r0, r4
 2015 00b4 1946     		mov	r1, r3
 2016 00b6 FFF7FEFF 		bl	__aeabi_fdiv
 2017 00ba 0346     		mov	r3, r0
 2018 00bc FB60     		str	r3, [r7, #12]	@ float
 576:.\Generated_Source\PSoC5/TFTSHIELD_1.c **** 		for ( i = 0; i != dx; i += sdx )
 2019              		.loc 1 576 0
 2020 00be 4FF00003 		mov	r3, #0
 2021 00c2 FB82     		strh	r3, [r7, #22]	@ movhi
 2022 00c4 2CE0     		b	.L33
 2023              	.L34:
 577:.\Generated_Source\PSoC5/TFTSHIELD_1.c **** 		{
 578:.\Generated_Source\PSoC5/TFTSHIELD_1.c **** 			px = i + x1;
 2024              		.loc 1 578 0 discriminator 2
 2025 00c6 FA8A     		ldrh	r2, [r7, #22]
 2026 00c8 FB88     		ldrh	r3, [r7, #6]	@ movhi
 2027 00ca D318     		adds	r3, r2, r3
 2028 00cc 9BB2     		uxth	r3, r3
 2029 00ce 7B81     		strh	r3, [r7, #10]	@ movhi
 579:.\Generated_Source\PSoC5/TFTSHIELD_1.c **** 			py = slope * i + y1;
 2030              		.loc 1 579 0 discriminator 2
 2031 00d0 B7F91630 		ldrsh	r3, [r7, #22]
 2032 00d4 1846     		mov	r0, r3
 2033 00d6 FFF7FEFF 		bl	__aeabi_i2f
 2034 00da 0346     		mov	r3, r0
 2035 00dc 1846     		mov	r0, r3
 2036 00de F968     		ldr	r1, [r7, #12]	@ float
ARM GAS  C:\Users\Brian\AppData\Local\Temp\ccPAhBxt.s 			page 47


 2037 00e0 FFF7FEFF 		bl	__aeabi_fmul
 2038 00e4 0346     		mov	r3, r0
 2039 00e6 1C46     		mov	r4, r3
 2040 00e8 BB88     		ldrh	r3, [r7, #4]
 2041 00ea 1846     		mov	r0, r3
 2042 00ec FFF7FEFF 		bl	__aeabi_i2f
 2043 00f0 0346     		mov	r3, r0
 2044 00f2 2046     		mov	r0, r4
 2045 00f4 1946     		mov	r1, r3
 2046 00f6 FFF7FEFF 		bl	__aeabi_fadd
 2047 00fa 0346     		mov	r3, r0
 2048 00fc 1846     		mov	r0, r3
 2049 00fe FFF7FEFF 		bl	__aeabi_f2iz
 2050 0102 0346     		mov	r3, r0
 2051 0104 3B81     		strh	r3, [r7, #8]	@ movhi
 580:.\Generated_Source\PSoC5/TFTSHIELD_1.c **** 			TFTSHIELD_1_SetPixel( px, py, Color );
 2052              		.loc 1 580 0 discriminator 2
 2053 0106 7989     		ldrh	r1, [r7, #10]
 2054 0108 3A89     		ldrh	r2, [r7, #8]
 2055 010a 3B8E     		ldrh	r3, [r7, #48]
 2056 010c 0846     		mov	r0, r1
 2057 010e 1146     		mov	r1, r2
 2058 0110 1A46     		mov	r2, r3
 2059 0112 FFF7FEFF 		bl	TFTSHIELD_1_SetPixel
 576:.\Generated_Source\PSoC5/TFTSHIELD_1.c **** 		for ( i = 0; i != dx; i += sdx )
 2060              		.loc 1 576 0 discriminator 2
 2061 0116 FA8A     		ldrh	r2, [r7, #22]
 2062 0118 FB8B     		ldrh	r3, [r7, #30]
 2063 011a D318     		adds	r3, r2, r3
 2064 011c 9BB2     		uxth	r3, r3
 2065 011e FB82     		strh	r3, [r7, #22]	@ movhi
 2066              	.L33:
 576:.\Generated_Source\PSoC5/TFTSHIELD_1.c **** 		for ( i = 0; i != dx; i += sdx )
 2067              		.loc 1 576 0 is_stmt 0 discriminator 1
 2068 0120 B7F91620 		ldrsh	r2, [r7, #22]
 2069 0124 B7F91430 		ldrsh	r3, [r7, #20]
 2070 0128 9A42     		cmp	r2, r3
 2071 012a CCD1     		bne	.L34
 576:.\Generated_Source\PSoC5/TFTSHIELD_1.c **** 		for ( i = 0; i != dx; i += sdx )
 2072              		.loc 1 576 0
 2073 012c 48E0     		b	.L27
 2074              	.L32:
 581:.\Generated_Source\PSoC5/TFTSHIELD_1.c **** 		}
 582:.\Generated_Source\PSoC5/TFTSHIELD_1.c **** 	}
 583:.\Generated_Source\PSoC5/TFTSHIELD_1.c **** 	else				/* the line is more vertical than horizontal */
 584:.\Generated_Source\PSoC5/TFTSHIELD_1.c **** 	{
 585:.\Generated_Source\PSoC5/TFTSHIELD_1.c **** 		slope = ( float ) dx / ( float ) dy;
 2075              		.loc 1 585 0 is_stmt 1
 2076 012e B7F91430 		ldrsh	r3, [r7, #20]
 2077 0132 1846     		mov	r0, r3
 2078 0134 FFF7FEFF 		bl	__aeabi_i2f
 2079 0138 0446     		mov	r4, r0
 2080 013a B7F91230 		ldrsh	r3, [r7, #18]
 2081 013e 1846     		mov	r0, r3
 2082 0140 FFF7FEFF 		bl	__aeabi_i2f
 2083 0144 0346     		mov	r3, r0
 2084 0146 2046     		mov	r0, r4
ARM GAS  C:\Users\Brian\AppData\Local\Temp\ccPAhBxt.s 			page 48


 2085 0148 1946     		mov	r1, r3
 2086 014a FFF7FEFF 		bl	__aeabi_fdiv
 2087 014e 0346     		mov	r3, r0
 2088 0150 FB60     		str	r3, [r7, #12]	@ float
 586:.\Generated_Source\PSoC5/TFTSHIELD_1.c **** 		for ( i = 0; i != dy; i += sdy )
 2089              		.loc 1 586 0
 2090 0152 4FF00003 		mov	r3, #0
 2091 0156 FB82     		strh	r3, [r7, #22]	@ movhi
 2092 0158 2CE0     		b	.L36
 2093              	.L37:
 587:.\Generated_Source\PSoC5/TFTSHIELD_1.c **** 		{
 588:.\Generated_Source\PSoC5/TFTSHIELD_1.c **** 			px = slope * i + x1;
 2094              		.loc 1 588 0 discriminator 2
 2095 015a B7F91630 		ldrsh	r3, [r7, #22]
 2096 015e 1846     		mov	r0, r3
 2097 0160 FFF7FEFF 		bl	__aeabi_i2f
 2098 0164 0346     		mov	r3, r0
 2099 0166 1846     		mov	r0, r3
 2100 0168 F968     		ldr	r1, [r7, #12]	@ float
 2101 016a FFF7FEFF 		bl	__aeabi_fmul
 2102 016e 0346     		mov	r3, r0
 2103 0170 1C46     		mov	r4, r3
 2104 0172 FB88     		ldrh	r3, [r7, #6]
 2105 0174 1846     		mov	r0, r3
 2106 0176 FFF7FEFF 		bl	__aeabi_i2f
 2107 017a 0346     		mov	r3, r0
 2108 017c 2046     		mov	r0, r4
 2109 017e 1946     		mov	r1, r3
 2110 0180 FFF7FEFF 		bl	__aeabi_fadd
 2111 0184 0346     		mov	r3, r0
 2112 0186 1846     		mov	r0, r3
 2113 0188 FFF7FEFF 		bl	__aeabi_f2iz
 2114 018c 0346     		mov	r3, r0
 2115 018e 7B81     		strh	r3, [r7, #10]	@ movhi
 589:.\Generated_Source\PSoC5/TFTSHIELD_1.c **** 			py = i + y1;
 2116              		.loc 1 589 0 discriminator 2
 2117 0190 FA8A     		ldrh	r2, [r7, #22]
 2118 0192 BB88     		ldrh	r3, [r7, #4]	@ movhi
 2119 0194 D318     		adds	r3, r2, r3
 2120 0196 9BB2     		uxth	r3, r3
 2121 0198 3B81     		strh	r3, [r7, #8]	@ movhi
 590:.\Generated_Source\PSoC5/TFTSHIELD_1.c **** 			TFTSHIELD_1_SetPixel( px, py, Color );
 2122              		.loc 1 590 0 discriminator 2
 2123 019a 7989     		ldrh	r1, [r7, #10]
 2124 019c 3A89     		ldrh	r2, [r7, #8]
 2125 019e 3B8E     		ldrh	r3, [r7, #48]
 2126 01a0 0846     		mov	r0, r1
 2127 01a2 1146     		mov	r1, r2
 2128 01a4 1A46     		mov	r2, r3
 2129 01a6 FFF7FEFF 		bl	TFTSHIELD_1_SetPixel
 586:.\Generated_Source\PSoC5/TFTSHIELD_1.c **** 		for ( i = 0; i != dy; i += sdy )
 2130              		.loc 1 586 0 discriminator 2
 2131 01aa FA8A     		ldrh	r2, [r7, #22]
 2132 01ac BB8B     		ldrh	r3, [r7, #28]
 2133 01ae D318     		adds	r3, r2, r3
 2134 01b0 9BB2     		uxth	r3, r3
 2135 01b2 FB82     		strh	r3, [r7, #22]	@ movhi
ARM GAS  C:\Users\Brian\AppData\Local\Temp\ccPAhBxt.s 			page 49


 2136              	.L36:
 586:.\Generated_Source\PSoC5/TFTSHIELD_1.c **** 		for ( i = 0; i != dy; i += sdy )
 2137              		.loc 1 586 0 is_stmt 0 discriminator 1
 2138 01b4 B7F91620 		ldrsh	r2, [r7, #22]
 2139 01b8 B7F91230 		ldrsh	r3, [r7, #18]
 2140 01bc 9A42     		cmp	r2, r3
 2141 01be CCD1     		bne	.L37
 2142              	.L27:
 591:.\Generated_Source\PSoC5/TFTSHIELD_1.c **** 		}
 592:.\Generated_Source\PSoC5/TFTSHIELD_1.c **** 	}
 593:.\Generated_Source\PSoC5/TFTSHIELD_1.c **** }
 2143              		.loc 1 593 0 is_stmt 1
 2144 01c0 07F12407 		add	r7, r7, #36
 2145 01c4 BD46     		mov	sp, r7
 2146 01c6 90BD     		pop	{r4, r7, pc}
 2147              		.cfi_endproc
 2148              	.LFE14:
 2149              		.size	TFTSHIELD_1_DrawLine, .-TFTSHIELD_1_DrawLine
 2150              		.section	.text.TFTSHIELD_1_DrawRect,"ax",%progbits
 2151              		.align	2
 2152              		.global	TFTSHIELD_1_DrawRect
 2153              		.thumb
 2154              		.thumb_func
 2155              		.type	TFTSHIELD_1_DrawRect, %function
 2156              	TFTSHIELD_1_DrawRect:
 2157              	.LFB15:
 594:.\Generated_Source\PSoC5/TFTSHIELD_1.c **** 
 595:.\Generated_Source\PSoC5/TFTSHIELD_1.c **** /**************************************************************************//**
 596:.\Generated_Source\PSoC5/TFTSHIELD_1.c **** *  @brief Draws a rectangle outline
 597:.\Generated_Source\PSoC5/TFTSHIELD_1.c **** *
 598:.\Generated_Source\PSoC5/TFTSHIELD_1.c **** *  @param x: The x coordinate
 599:.\Generated_Source\PSoC5/TFTSHIELD_1.c **** *  @param y: The y coordinate
 600:.\Generated_Source\PSoC5/TFTSHIELD_1.c **** *  @param w: The width
 601:.\Generated_Source\PSoC5/TFTSHIELD_1.c **** *  @param h: The height
 602:.\Generated_Source\PSoC5/TFTSHIELD_1.c **** *  @param color: The color of the rectangle
 603:.\Generated_Source\PSoC5/TFTSHIELD_1.c **** *
 604:.\Generated_Source\PSoC5/TFTSHIELD_1.c **** *******************************************************************************/
 605:.\Generated_Source\PSoC5/TFTSHIELD_1.c **** void TFTSHIELD_1_DrawRect(int16_t x, int16_t y, int16_t w, int16_t h, uint16_t color)
 606:.\Generated_Source\PSoC5/TFTSHIELD_1.c **** {
 2158              		.loc 1 606 0
 2159              		.cfi_startproc
 2160              		@ args = 4, pretend = 0, frame = 8
 2161              		@ frame_needed = 1, uses_anonymous_args = 0
 2162 0000 80B5     		push	{r7, lr}
 2163              	.LCFI44:
 2164              		.cfi_def_cfa_offset 8
 2165              		.cfi_offset 7, -8
 2166              		.cfi_offset 14, -4
 2167 0002 82B0     		sub	sp, sp, #8
 2168              	.LCFI45:
 2169              		.cfi_def_cfa_offset 16
 2170 0004 00AF     		add	r7, sp, #0
 2171              	.LCFI46:
 2172              		.cfi_def_cfa_register 7
 2173 0006 F880     		strh	r0, [r7, #6]	@ movhi
 2174 0008 B980     		strh	r1, [r7, #4]	@ movhi
 2175 000a 7A80     		strh	r2, [r7, #2]	@ movhi
ARM GAS  C:\Users\Brian\AppData\Local\Temp\ccPAhBxt.s 			page 50


 2176 000c 3B80     		strh	r3, [r7, #0]	@ movhi
 607:.\Generated_Source\PSoC5/TFTSHIELD_1.c ****    TFTSHIELD_1_DrawHLine(x, y, w, color);
 2177              		.loc 1 607 0
 2178 000e B7F90600 		ldrsh	r0, [r7, #6]
 2179 0012 B7F90410 		ldrsh	r1, [r7, #4]
 2180 0016 B7F90220 		ldrsh	r2, [r7, #2]
 2181 001a 3B8A     		ldrh	r3, [r7, #16]
 2182 001c FFF7FEFF 		bl	TFTSHIELD_1_DrawHLine
 608:.\Generated_Source\PSoC5/TFTSHIELD_1.c ****   TFTSHIELD_1_DrawHLine(x, y+h-1, w, color);
 2183              		.loc 1 608 0
 2184 0020 BA88     		ldrh	r2, [r7, #4]
 2185 0022 3B88     		ldrh	r3, [r7, #0]
 2186 0024 D318     		adds	r3, r2, r3
 2187 0026 9BB2     		uxth	r3, r3
 2188 0028 03F1FF33 		add	r3, r3, #-1
 2189 002c 9BB2     		uxth	r3, r3
 2190 002e 9BB2     		uxth	r3, r3
 2191 0030 B7F90600 		ldrsh	r0, [r7, #6]
 2192 0034 19B2     		sxth	r1, r3
 2193 0036 B7F90220 		ldrsh	r2, [r7, #2]
 2194 003a 3B8A     		ldrh	r3, [r7, #16]
 2195 003c FFF7FEFF 		bl	TFTSHIELD_1_DrawHLine
 609:.\Generated_Source\PSoC5/TFTSHIELD_1.c ****   TFTSHIELD_1_DrawVLine(x, y, h, color);
 2196              		.loc 1 609 0
 2197 0040 F888     		ldrh	r0, [r7, #6]
 2198 0042 B988     		ldrh	r1, [r7, #4]
 2199 0044 3A88     		ldrh	r2, [r7, #0]
 2200 0046 3B8A     		ldrh	r3, [r7, #16]
 2201 0048 FFF7FEFF 		bl	TFTSHIELD_1_DrawVLine
 610:.\Generated_Source\PSoC5/TFTSHIELD_1.c ****   TFTSHIELD_1_DrawVLine(x+w-1, y, h, color);
 2202              		.loc 1 610 0
 2203 004c FA88     		ldrh	r2, [r7, #6]
 2204 004e 7B88     		ldrh	r3, [r7, #2]
 2205 0050 D318     		adds	r3, r2, r3
 2206 0052 9BB2     		uxth	r3, r3
 2207 0054 03F1FF33 		add	r3, r3, #-1
 2208 0058 98B2     		uxth	r0, r3
 2209 005a B988     		ldrh	r1, [r7, #4]
 2210 005c 3A88     		ldrh	r2, [r7, #0]
 2211 005e 3B8A     		ldrh	r3, [r7, #16]
 2212 0060 FFF7FEFF 		bl	TFTSHIELD_1_DrawVLine
 611:.\Generated_Source\PSoC5/TFTSHIELD_1.c **** }
 2213              		.loc 1 611 0
 2214 0064 07F10807 		add	r7, r7, #8
 2215 0068 BD46     		mov	sp, r7
 2216 006a 80BD     		pop	{r7, pc}
 2217              		.cfi_endproc
 2218              	.LFE15:
 2219              		.size	TFTSHIELD_1_DrawRect, .-TFTSHIELD_1_DrawRect
 2220              		.section	.text.TFTSHIELD_1_DrawCircle,"ax",%progbits
 2221              		.align	2
 2222              		.global	TFTSHIELD_1_DrawCircle
 2223              		.thumb
 2224              		.thumb_func
 2225              		.type	TFTSHIELD_1_DrawCircle, %function
 2226              	TFTSHIELD_1_DrawCircle:
 2227              	.LFB16:
ARM GAS  C:\Users\Brian\AppData\Local\Temp\ccPAhBxt.s 			page 51


 612:.\Generated_Source\PSoC5/TFTSHIELD_1.c **** 
 613:.\Generated_Source\PSoC5/TFTSHIELD_1.c **** /**************************************************************************//**
 614:.\Generated_Source\PSoC5/TFTSHIELD_1.c **** *  @brief Draws a circle outline
 615:.\Generated_Source\PSoC5/TFTSHIELD_1.c **** *
 616:.\Generated_Source\PSoC5/TFTSHIELD_1.c **** *  @param x0: The x coordinate
 617:.\Generated_Source\PSoC5/TFTSHIELD_1.c **** *  @param y0: The y coordinate
 618:.\Generated_Source\PSoC5/TFTSHIELD_1.c **** *  @param r: The radius of the circle
 619:.\Generated_Source\PSoC5/TFTSHIELD_1.c **** *  @param color: The color of the circle
 620:.\Generated_Source\PSoC5/TFTSHIELD_1.c **** *
 621:.\Generated_Source\PSoC5/TFTSHIELD_1.c **** *******************************************************************************/
 622:.\Generated_Source\PSoC5/TFTSHIELD_1.c **** 
 623:.\Generated_Source\PSoC5/TFTSHIELD_1.c **** void TFTSHIELD_1_DrawCircle(int16_t x0, int16_t y0, int16_t r, uint16_t color)
 624:.\Generated_Source\PSoC5/TFTSHIELD_1.c **** {
 2228              		.loc 1 624 0
 2229              		.cfi_startproc
 2230              		@ args = 0, pretend = 0, frame = 24
 2231              		@ frame_needed = 1, uses_anonymous_args = 0
 2232 0000 80B5     		push	{r7, lr}
 2233              	.LCFI47:
 2234              		.cfi_def_cfa_offset 8
 2235              		.cfi_offset 7, -8
 2236              		.cfi_offset 14, -4
 2237 0002 86B0     		sub	sp, sp, #24
 2238              	.LCFI48:
 2239              		.cfi_def_cfa_offset 32
 2240 0004 00AF     		add	r7, sp, #0
 2241              	.LCFI49:
 2242              		.cfi_def_cfa_register 7
 2243 0006 F880     		strh	r0, [r7, #6]	@ movhi
 2244 0008 B980     		strh	r1, [r7, #4]	@ movhi
 2245 000a 7A80     		strh	r2, [r7, #2]	@ movhi
 2246 000c 3B80     		strh	r3, [r7, #0]	@ movhi
 625:.\Generated_Source\PSoC5/TFTSHIELD_1.c ****   int16_t f = 1 - r;
 2247              		.loc 1 625 0
 2248 000e 7B88     		ldrh	r3, [r7, #2]
 2249 0010 C3F10103 		rsb	r3, r3, #1
 2250 0014 9BB2     		uxth	r3, r3
 2251 0016 FB82     		strh	r3, [r7, #22]	@ movhi
 626:.\Generated_Source\PSoC5/TFTSHIELD_1.c ****   int16_t ddF_x = 1;
 2252              		.loc 1 626 0
 2253 0018 4FF00103 		mov	r3, #1
 2254 001c BB82     		strh	r3, [r7, #20]	@ movhi
 627:.\Generated_Source\PSoC5/TFTSHIELD_1.c ****   int16_t ddF_y = -2 * r;
 2255              		.loc 1 627 0
 2256 001e 7B88     		ldrh	r3, [r7, #2]
 2257 0020 1A46     		mov	r2, r3	@ movhi
 2258 0022 4FEAC232 		lsl	r2, r2, #15
 2259 0026 D31A     		subs	r3, r2, r3
 2260 0028 4FEA4303 		lsl	r3, r3, #1
 2261 002c 9BB2     		uxth	r3, r3
 2262 002e 7B82     		strh	r3, [r7, #18]	@ movhi
 628:.\Generated_Source\PSoC5/TFTSHIELD_1.c ****   int16_t x = 0;
 2263              		.loc 1 628 0
 2264 0030 4FF00003 		mov	r3, #0
 2265 0034 3B82     		strh	r3, [r7, #16]	@ movhi
 629:.\Generated_Source\PSoC5/TFTSHIELD_1.c ****   int16_t y = r;
 2266              		.loc 1 629 0
ARM GAS  C:\Users\Brian\AppData\Local\Temp\ccPAhBxt.s 			page 52


 2267 0036 7B88     		ldrh	r3, [r7, #2]	@ movhi
 2268 0038 FB81     		strh	r3, [r7, #14]	@ movhi
 630:.\Generated_Source\PSoC5/TFTSHIELD_1.c **** 
 631:.\Generated_Source\PSoC5/TFTSHIELD_1.c ****   TFTSHIELD_1_SetPixel(x0  , y0+r, color);
 2269              		.loc 1 631 0
 2270 003a F988     		ldrh	r1, [r7, #6]
 2271 003c BA88     		ldrh	r2, [r7, #4]
 2272 003e 7B88     		ldrh	r3, [r7, #2]
 2273 0040 D318     		adds	r3, r2, r3
 2274 0042 9AB2     		uxth	r2, r3
 2275 0044 3B88     		ldrh	r3, [r7, #0]
 2276 0046 0846     		mov	r0, r1
 2277 0048 1146     		mov	r1, r2
 2278 004a 1A46     		mov	r2, r3
 2279 004c FFF7FEFF 		bl	TFTSHIELD_1_SetPixel
 632:.\Generated_Source\PSoC5/TFTSHIELD_1.c ****   TFTSHIELD_1_SetPixel(x0  , y0-r, color);
 2280              		.loc 1 632 0
 2281 0050 F988     		ldrh	r1, [r7, #6]
 2282 0052 BA88     		ldrh	r2, [r7, #4]
 2283 0054 7B88     		ldrh	r3, [r7, #2]
 2284 0056 D31A     		subs	r3, r2, r3
 2285 0058 9AB2     		uxth	r2, r3
 2286 005a 3B88     		ldrh	r3, [r7, #0]
 2287 005c 0846     		mov	r0, r1
 2288 005e 1146     		mov	r1, r2
 2289 0060 1A46     		mov	r2, r3
 2290 0062 FFF7FEFF 		bl	TFTSHIELD_1_SetPixel
 633:.\Generated_Source\PSoC5/TFTSHIELD_1.c ****   TFTSHIELD_1_SetPixel(x0+r, y0  , color);
 2291              		.loc 1 633 0
 2292 0066 FA88     		ldrh	r2, [r7, #6]
 2293 0068 7B88     		ldrh	r3, [r7, #2]
 2294 006a D318     		adds	r3, r2, r3
 2295 006c 99B2     		uxth	r1, r3
 2296 006e BA88     		ldrh	r2, [r7, #4]
 2297 0070 3B88     		ldrh	r3, [r7, #0]
 2298 0072 0846     		mov	r0, r1
 2299 0074 1146     		mov	r1, r2
 2300 0076 1A46     		mov	r2, r3
 2301 0078 FFF7FEFF 		bl	TFTSHIELD_1_SetPixel
 634:.\Generated_Source\PSoC5/TFTSHIELD_1.c ****   TFTSHIELD_1_SetPixel(x0-r, y0  , color);
 2302              		.loc 1 634 0
 2303 007c FA88     		ldrh	r2, [r7, #6]
 2304 007e 7B88     		ldrh	r3, [r7, #2]
 2305 0080 D31A     		subs	r3, r2, r3
 2306 0082 99B2     		uxth	r1, r3
 2307 0084 BA88     		ldrh	r2, [r7, #4]
 2308 0086 3B88     		ldrh	r3, [r7, #0]
 2309 0088 0846     		mov	r0, r1
 2310 008a 1146     		mov	r1, r2
 2311 008c 1A46     		mov	r2, r3
 2312 008e FFF7FEFF 		bl	TFTSHIELD_1_SetPixel
 635:.\Generated_Source\PSoC5/TFTSHIELD_1.c **** 
 636:.\Generated_Source\PSoC5/TFTSHIELD_1.c ****   while (x<y) {
 2313              		.loc 1 636 0
 2314 0092 8FE0     		b	.L40
 2315              	.L42:
 637:.\Generated_Source\PSoC5/TFTSHIELD_1.c ****         if (f >= 0) {
ARM GAS  C:\Users\Brian\AppData\Local\Temp\ccPAhBxt.s 			page 53


 2316              		.loc 1 637 0
 2317 0094 B7F91630 		ldrsh	r3, [r7, #22]
 2318 0098 002B     		cmp	r3, #0
 2319 009a 0DDB     		blt	.L41
 638:.\Generated_Source\PSoC5/TFTSHIELD_1.c ****           y--;
 2320              		.loc 1 638 0
 2321 009c FB89     		ldrh	r3, [r7, #14]	@ movhi
 2322 009e 03F1FF33 		add	r3, r3, #-1
 2323 00a2 FB81     		strh	r3, [r7, #14]	@ movhi
 639:.\Generated_Source\PSoC5/TFTSHIELD_1.c ****           ddF_y += 2;
 2324              		.loc 1 639 0
 2325 00a4 7B8A     		ldrh	r3, [r7, #18]
 2326 00a6 03F10203 		add	r3, r3, #2
 2327 00aa 9BB2     		uxth	r3, r3
 2328 00ac 7B82     		strh	r3, [r7, #18]	@ movhi
 640:.\Generated_Source\PSoC5/TFTSHIELD_1.c ****           f += ddF_y;
 2329              		.loc 1 640 0
 2330 00ae FA8A     		ldrh	r2, [r7, #22]
 2331 00b0 7B8A     		ldrh	r3, [r7, #18]
 2332 00b2 D318     		adds	r3, r2, r3
 2333 00b4 9BB2     		uxth	r3, r3
 2334 00b6 FB82     		strh	r3, [r7, #22]	@ movhi
 2335              	.L41:
 641:.\Generated_Source\PSoC5/TFTSHIELD_1.c ****         }
 642:.\Generated_Source\PSoC5/TFTSHIELD_1.c ****         x++;
 2336              		.loc 1 642 0
 2337 00b8 3B8A     		ldrh	r3, [r7, #16]	@ movhi
 2338 00ba 03F10103 		add	r3, r3, #1
 2339 00be 3B82     		strh	r3, [r7, #16]	@ movhi
 643:.\Generated_Source\PSoC5/TFTSHIELD_1.c ****         ddF_x += 2;
 2340              		.loc 1 643 0
 2341 00c0 BB8A     		ldrh	r3, [r7, #20]
 2342 00c2 03F10203 		add	r3, r3, #2
 2343 00c6 9BB2     		uxth	r3, r3
 2344 00c8 BB82     		strh	r3, [r7, #20]	@ movhi
 644:.\Generated_Source\PSoC5/TFTSHIELD_1.c ****         f += ddF_x;
 2345              		.loc 1 644 0
 2346 00ca FA8A     		ldrh	r2, [r7, #22]
 2347 00cc BB8A     		ldrh	r3, [r7, #20]
 2348 00ce D318     		adds	r3, r2, r3
 2349 00d0 9BB2     		uxth	r3, r3
 2350 00d2 FB82     		strh	r3, [r7, #22]	@ movhi
 645:.\Generated_Source\PSoC5/TFTSHIELD_1.c ****       
 646:.\Generated_Source\PSoC5/TFTSHIELD_1.c ****         TFTSHIELD_1_SetPixel(x0 + x, y0 + y, color);
 2351              		.loc 1 646 0
 2352 00d4 FA88     		ldrh	r2, [r7, #6]
 2353 00d6 3B8A     		ldrh	r3, [r7, #16]
 2354 00d8 D318     		adds	r3, r2, r3
 2355 00da 99B2     		uxth	r1, r3
 2356 00dc BA88     		ldrh	r2, [r7, #4]
 2357 00de FB89     		ldrh	r3, [r7, #14]
 2358 00e0 D318     		adds	r3, r2, r3
 2359 00e2 9AB2     		uxth	r2, r3
 2360 00e4 3B88     		ldrh	r3, [r7, #0]
 2361 00e6 0846     		mov	r0, r1
 2362 00e8 1146     		mov	r1, r2
 2363 00ea 1A46     		mov	r2, r3
ARM GAS  C:\Users\Brian\AppData\Local\Temp\ccPAhBxt.s 			page 54


 2364 00ec FFF7FEFF 		bl	TFTSHIELD_1_SetPixel
 647:.\Generated_Source\PSoC5/TFTSHIELD_1.c ****         TFTSHIELD_1_SetPixel(x0 - x, y0 + y, color);
 2365              		.loc 1 647 0
 2366 00f0 FA88     		ldrh	r2, [r7, #6]
 2367 00f2 3B8A     		ldrh	r3, [r7, #16]
 2368 00f4 D31A     		subs	r3, r2, r3
 2369 00f6 99B2     		uxth	r1, r3
 2370 00f8 BA88     		ldrh	r2, [r7, #4]
 2371 00fa FB89     		ldrh	r3, [r7, #14]
 2372 00fc D318     		adds	r3, r2, r3
 2373 00fe 9AB2     		uxth	r2, r3
 2374 0100 3B88     		ldrh	r3, [r7, #0]
 2375 0102 0846     		mov	r0, r1
 2376 0104 1146     		mov	r1, r2
 2377 0106 1A46     		mov	r2, r3
 2378 0108 FFF7FEFF 		bl	TFTSHIELD_1_SetPixel
 648:.\Generated_Source\PSoC5/TFTSHIELD_1.c ****         TFTSHIELD_1_SetPixel(x0 + x, y0 - y, color);
 2379              		.loc 1 648 0
 2380 010c FA88     		ldrh	r2, [r7, #6]
 2381 010e 3B8A     		ldrh	r3, [r7, #16]
 2382 0110 D318     		adds	r3, r2, r3
 2383 0112 99B2     		uxth	r1, r3
 2384 0114 BA88     		ldrh	r2, [r7, #4]
 2385 0116 FB89     		ldrh	r3, [r7, #14]
 2386 0118 D31A     		subs	r3, r2, r3
 2387 011a 9AB2     		uxth	r2, r3
 2388 011c 3B88     		ldrh	r3, [r7, #0]
 2389 011e 0846     		mov	r0, r1
 2390 0120 1146     		mov	r1, r2
 2391 0122 1A46     		mov	r2, r3
 2392 0124 FFF7FEFF 		bl	TFTSHIELD_1_SetPixel
 649:.\Generated_Source\PSoC5/TFTSHIELD_1.c ****         TFTSHIELD_1_SetPixel(x0 - x, y0 - y, color);
 2393              		.loc 1 649 0
 2394 0128 FA88     		ldrh	r2, [r7, #6]
 2395 012a 3B8A     		ldrh	r3, [r7, #16]
 2396 012c D31A     		subs	r3, r2, r3
 2397 012e 99B2     		uxth	r1, r3
 2398 0130 BA88     		ldrh	r2, [r7, #4]
 2399 0132 FB89     		ldrh	r3, [r7, #14]
 2400 0134 D31A     		subs	r3, r2, r3
 2401 0136 9AB2     		uxth	r2, r3
 2402 0138 3B88     		ldrh	r3, [r7, #0]
 2403 013a 0846     		mov	r0, r1
 2404 013c 1146     		mov	r1, r2
 2405 013e 1A46     		mov	r2, r3
 2406 0140 FFF7FEFF 		bl	TFTSHIELD_1_SetPixel
 650:.\Generated_Source\PSoC5/TFTSHIELD_1.c ****         TFTSHIELD_1_SetPixel(x0 + y, y0 + x, color);
 2407              		.loc 1 650 0
 2408 0144 FA88     		ldrh	r2, [r7, #6]
 2409 0146 FB89     		ldrh	r3, [r7, #14]
 2410 0148 D318     		adds	r3, r2, r3
 2411 014a 99B2     		uxth	r1, r3
 2412 014c BA88     		ldrh	r2, [r7, #4]
 2413 014e 3B8A     		ldrh	r3, [r7, #16]
 2414 0150 D318     		adds	r3, r2, r3
 2415 0152 9AB2     		uxth	r2, r3
 2416 0154 3B88     		ldrh	r3, [r7, #0]
ARM GAS  C:\Users\Brian\AppData\Local\Temp\ccPAhBxt.s 			page 55


 2417 0156 0846     		mov	r0, r1
 2418 0158 1146     		mov	r1, r2
 2419 015a 1A46     		mov	r2, r3
 2420 015c FFF7FEFF 		bl	TFTSHIELD_1_SetPixel
 651:.\Generated_Source\PSoC5/TFTSHIELD_1.c ****         TFTSHIELD_1_SetPixel(x0 - y, y0 + x, color);
 2421              		.loc 1 651 0
 2422 0160 FA88     		ldrh	r2, [r7, #6]
 2423 0162 FB89     		ldrh	r3, [r7, #14]
 2424 0164 D31A     		subs	r3, r2, r3
 2425 0166 99B2     		uxth	r1, r3
 2426 0168 BA88     		ldrh	r2, [r7, #4]
 2427 016a 3B8A     		ldrh	r3, [r7, #16]
 2428 016c D318     		adds	r3, r2, r3
 2429 016e 9AB2     		uxth	r2, r3
 2430 0170 3B88     		ldrh	r3, [r7, #0]
 2431 0172 0846     		mov	r0, r1
 2432 0174 1146     		mov	r1, r2
 2433 0176 1A46     		mov	r2, r3
 2434 0178 FFF7FEFF 		bl	TFTSHIELD_1_SetPixel
 652:.\Generated_Source\PSoC5/TFTSHIELD_1.c ****         TFTSHIELD_1_SetPixel(x0 + y, y0 - x, color);
 2435              		.loc 1 652 0
 2436 017c FA88     		ldrh	r2, [r7, #6]
 2437 017e FB89     		ldrh	r3, [r7, #14]
 2438 0180 D318     		adds	r3, r2, r3
 2439 0182 99B2     		uxth	r1, r3
 2440 0184 BA88     		ldrh	r2, [r7, #4]
 2441 0186 3B8A     		ldrh	r3, [r7, #16]
 2442 0188 D31A     		subs	r3, r2, r3
 2443 018a 9AB2     		uxth	r2, r3
 2444 018c 3B88     		ldrh	r3, [r7, #0]
 2445 018e 0846     		mov	r0, r1
 2446 0190 1146     		mov	r1, r2
 2447 0192 1A46     		mov	r2, r3
 2448 0194 FFF7FEFF 		bl	TFTSHIELD_1_SetPixel
 653:.\Generated_Source\PSoC5/TFTSHIELD_1.c ****         TFTSHIELD_1_SetPixel(x0 - y, y0 - x, color); 
 2449              		.loc 1 653 0
 2450 0198 FA88     		ldrh	r2, [r7, #6]
 2451 019a FB89     		ldrh	r3, [r7, #14]
 2452 019c D31A     		subs	r3, r2, r3
 2453 019e 99B2     		uxth	r1, r3
 2454 01a0 BA88     		ldrh	r2, [r7, #4]
 2455 01a2 3B8A     		ldrh	r3, [r7, #16]
 2456 01a4 D31A     		subs	r3, r2, r3
 2457 01a6 9AB2     		uxth	r2, r3
 2458 01a8 3B88     		ldrh	r3, [r7, #0]
 2459 01aa 0846     		mov	r0, r1
 2460 01ac 1146     		mov	r1, r2
 2461 01ae 1A46     		mov	r2, r3
 2462 01b0 FFF7FEFF 		bl	TFTSHIELD_1_SetPixel
 2463              	.L40:
 636:.\Generated_Source\PSoC5/TFTSHIELD_1.c ****   while (x<y) {
 2464              		.loc 1 636 0 discriminator 1
 2465 01b4 B7F91020 		ldrsh	r2, [r7, #16]
 2466 01b8 B7F90E30 		ldrsh	r3, [r7, #14]
 2467 01bc 9A42     		cmp	r2, r3
 2468 01be FFF669AF 		blt	.L42
 654:.\Generated_Source\PSoC5/TFTSHIELD_1.c ****     }
ARM GAS  C:\Users\Brian\AppData\Local\Temp\ccPAhBxt.s 			page 56


 655:.\Generated_Source\PSoC5/TFTSHIELD_1.c **** }
 2469              		.loc 1 655 0
 2470 01c2 07F11807 		add	r7, r7, #24
 2471 01c6 BD46     		mov	sp, r7
 2472 01c8 80BD     		pop	{r7, pc}
 2473              		.cfi_endproc
 2474              	.LFE16:
 2475              		.size	TFTSHIELD_1_DrawCircle, .-TFTSHIELD_1_DrawCircle
 2476 01ca 00BF     		.section	.text.TFTSHIELD_1_DrawCircleHelper,"ax",%progbits
 2477              		.align	2
 2478              		.global	TFTSHIELD_1_DrawCircleHelper
 2479              		.thumb
 2480              		.thumb_func
 2481              		.type	TFTSHIELD_1_DrawCircleHelper, %function
 2482              	TFTSHIELD_1_DrawCircleHelper:
 2483              	.LFB17:
 656:.\Generated_Source\PSoC5/TFTSHIELD_1.c **** 
 657:.\Generated_Source\PSoC5/TFTSHIELD_1.c **** /**************************************************************************//**
 658:.\Generated_Source\PSoC5/TFTSHIELD_1.c **** *  @brief Helper function for drawing circles and corners
 659:.\Generated_Source\PSoC5/TFTSHIELD_1.c **** *
 660:.\Generated_Source\PSoC5/TFTSHIELD_1.c **** *  @param x0: The x coordinate
 661:.\Generated_Source\PSoC5/TFTSHIELD_1.c **** *  @param y0: The y coordinate
 662:.\Generated_Source\PSoC5/TFTSHIELD_1.c **** *  @param r: The radius of the circle
 663:.\Generated_Source\PSoC5/TFTSHIELD_1.c **** *  @param cornername: Corner orientation
 664:.\Generated_Source\PSoC5/TFTSHIELD_1.c **** *  @param delta: Delta value
 665:.\Generated_Source\PSoC5/TFTSHIELD_1.c **** *  @param color: The color of the circle
 666:.\Generated_Source\PSoC5/TFTSHIELD_1.c **** *
 667:.\Generated_Source\PSoC5/TFTSHIELD_1.c **** *******************************************************************************/
 668:.\Generated_Source\PSoC5/TFTSHIELD_1.c **** void TFTSHIELD_1_DrawCircleHelper(int16_t x0, int16_t y0, int16_t r, uint8_t cornername,
 669:.\Generated_Source\PSoC5/TFTSHIELD_1.c ****       uint16_t color)
 670:.\Generated_Source\PSoC5/TFTSHIELD_1.c **** {
 2484              		.loc 1 670 0
 2485              		.cfi_startproc
 2486              		@ args = 4, pretend = 0, frame = 24
 2487              		@ frame_needed = 1, uses_anonymous_args = 0
 2488 0000 80B5     		push	{r7, lr}
 2489              	.LCFI50:
 2490              		.cfi_def_cfa_offset 8
 2491              		.cfi_offset 7, -8
 2492              		.cfi_offset 14, -4
 2493 0002 86B0     		sub	sp, sp, #24
 2494              	.LCFI51:
 2495              		.cfi_def_cfa_offset 32
 2496 0004 00AF     		add	r7, sp, #0
 2497              	.LCFI52:
 2498              		.cfi_def_cfa_register 7
 2499 0006 F880     		strh	r0, [r7, #6]	@ movhi
 2500 0008 B980     		strh	r1, [r7, #4]	@ movhi
 2501 000a 7A80     		strh	r2, [r7, #2]	@ movhi
 2502 000c 7B70     		strb	r3, [r7, #1]
 671:.\Generated_Source\PSoC5/TFTSHIELD_1.c ****   int16_t f     = 1 - r;
 2503              		.loc 1 671 0
 2504 000e 7B88     		ldrh	r3, [r7, #2]
 2505 0010 C3F10103 		rsb	r3, r3, #1
 2506 0014 9BB2     		uxth	r3, r3
 2507 0016 FB82     		strh	r3, [r7, #22]	@ movhi
 672:.\Generated_Source\PSoC5/TFTSHIELD_1.c ****   int16_t ddF_x = 1;
ARM GAS  C:\Users\Brian\AppData\Local\Temp\ccPAhBxt.s 			page 57


 2508              		.loc 1 672 0
 2509 0018 4FF00103 		mov	r3, #1
 2510 001c BB82     		strh	r3, [r7, #20]	@ movhi
 673:.\Generated_Source\PSoC5/TFTSHIELD_1.c ****   int16_t ddF_y = -2 * r;
 2511              		.loc 1 673 0
 2512 001e 7B88     		ldrh	r3, [r7, #2]
 2513 0020 1A46     		mov	r2, r3	@ movhi
 2514 0022 4FEAC232 		lsl	r2, r2, #15
 2515 0026 D31A     		subs	r3, r2, r3
 2516 0028 4FEA4303 		lsl	r3, r3, #1
 2517 002c 9BB2     		uxth	r3, r3
 2518 002e 7B82     		strh	r3, [r7, #18]	@ movhi
 674:.\Generated_Source\PSoC5/TFTSHIELD_1.c ****   int16_t x     = 0;
 2519              		.loc 1 674 0
 2520 0030 4FF00003 		mov	r3, #0
 2521 0034 3B82     		strh	r3, [r7, #16]	@ movhi
 675:.\Generated_Source\PSoC5/TFTSHIELD_1.c ****   int16_t y     = r;
 2522              		.loc 1 675 0
 2523 0036 7B88     		ldrh	r3, [r7, #2]	@ movhi
 2524 0038 FB81     		strh	r3, [r7, #14]	@ movhi
 676:.\Generated_Source\PSoC5/TFTSHIELD_1.c **** 
 677:.\Generated_Source\PSoC5/TFTSHIELD_1.c ****   while (x<y) {
 2525              		.loc 1 677 0
 2526 003a A5E0     		b	.L44
 2527              	.L49:
 678:.\Generated_Source\PSoC5/TFTSHIELD_1.c ****     if (f >= 0) {
 2528              		.loc 1 678 0
 2529 003c B7F91630 		ldrsh	r3, [r7, #22]
 2530 0040 002B     		cmp	r3, #0
 2531 0042 0DDB     		blt	.L45
 679:.\Generated_Source\PSoC5/TFTSHIELD_1.c ****       y--;
 2532              		.loc 1 679 0
 2533 0044 FB89     		ldrh	r3, [r7, #14]	@ movhi
 2534 0046 03F1FF33 		add	r3, r3, #-1
 2535 004a FB81     		strh	r3, [r7, #14]	@ movhi
 680:.\Generated_Source\PSoC5/TFTSHIELD_1.c ****       ddF_y += 2;
 2536              		.loc 1 680 0
 2537 004c 7B8A     		ldrh	r3, [r7, #18]
 2538 004e 03F10203 		add	r3, r3, #2
 2539 0052 9BB2     		uxth	r3, r3
 2540 0054 7B82     		strh	r3, [r7, #18]	@ movhi
 681:.\Generated_Source\PSoC5/TFTSHIELD_1.c ****       f     += ddF_y;
 2541              		.loc 1 681 0
 2542 0056 FA8A     		ldrh	r2, [r7, #22]
 2543 0058 7B8A     		ldrh	r3, [r7, #18]
 2544 005a D318     		adds	r3, r2, r3
 2545 005c 9BB2     		uxth	r3, r3
 2546 005e FB82     		strh	r3, [r7, #22]	@ movhi
 2547              	.L45:
 682:.\Generated_Source\PSoC5/TFTSHIELD_1.c ****     }
 683:.\Generated_Source\PSoC5/TFTSHIELD_1.c ****     x++;
 2548              		.loc 1 683 0
 2549 0060 3B8A     		ldrh	r3, [r7, #16]	@ movhi
 2550 0062 03F10103 		add	r3, r3, #1
 2551 0066 3B82     		strh	r3, [r7, #16]	@ movhi
 684:.\Generated_Source\PSoC5/TFTSHIELD_1.c ****     ddF_x += 2;
 2552              		.loc 1 684 0
ARM GAS  C:\Users\Brian\AppData\Local\Temp\ccPAhBxt.s 			page 58


 2553 0068 BB8A     		ldrh	r3, [r7, #20]
 2554 006a 03F10203 		add	r3, r3, #2
 2555 006e 9BB2     		uxth	r3, r3
 2556 0070 BB82     		strh	r3, [r7, #20]	@ movhi
 685:.\Generated_Source\PSoC5/TFTSHIELD_1.c ****     f     += ddF_x;
 2557              		.loc 1 685 0
 2558 0072 FA8A     		ldrh	r2, [r7, #22]
 2559 0074 BB8A     		ldrh	r3, [r7, #20]
 2560 0076 D318     		adds	r3, r2, r3
 2561 0078 9BB2     		uxth	r3, r3
 2562 007a FB82     		strh	r3, [r7, #22]	@ movhi
 686:.\Generated_Source\PSoC5/TFTSHIELD_1.c ****     if (cornername & 0x4) {
 2563              		.loc 1 686 0
 2564 007c 7B78     		ldrb	r3, [r7, #1]	@ zero_extendqisi2
 2565 007e 03F00403 		and	r3, r3, #4
 2566 0082 002B     		cmp	r3, #0
 2567 0084 1DD0     		beq	.L46
 2568              	.LBB2:
 687:.\Generated_Source\PSoC5/TFTSHIELD_1.c ****       TFTSHIELD_1_SetPixel(x0 + x, y0 + y, color);
 2569              		.loc 1 687 0
 2570 0086 FA88     		ldrh	r2, [r7, #6]
 2571 0088 3B8A     		ldrh	r3, [r7, #16]
 2572 008a D318     		adds	r3, r2, r3
 2573 008c 99B2     		uxth	r1, r3
 2574 008e BA88     		ldrh	r2, [r7, #4]
 2575 0090 FB89     		ldrh	r3, [r7, #14]
 2576 0092 D318     		adds	r3, r2, r3
 2577 0094 9AB2     		uxth	r2, r3
 2578 0096 3B8C     		ldrh	r3, [r7, #32]
 2579 0098 0846     		mov	r0, r1
 2580 009a 1146     		mov	r1, r2
 2581 009c 1A46     		mov	r2, r3
 2582 009e FFF7FEFF 		bl	TFTSHIELD_1_SetPixel
 688:.\Generated_Source\PSoC5/TFTSHIELD_1.c ****       TFTSHIELD_1_Set(x0 + y, y0 + x, color);
 2583              		.loc 1 688 0
 2584 00a2 B7F90620 		ldrsh	r2, [r7, #6]
 2585 00a6 B7F90E30 		ldrsh	r3, [r7, #14]
 2586 00aa D118     		adds	r1, r2, r3
 2587 00ac B7F90420 		ldrsh	r2, [r7, #4]
 2588 00b0 B7F91030 		ldrsh	r3, [r7, #16]
 2589 00b4 D218     		adds	r2, r2, r3
 2590 00b6 3B8C     		ldrh	r3, [r7, #32]
 2591 00b8 0846     		mov	r0, r1
 2592 00ba 1146     		mov	r1, r2
 2593 00bc 1A46     		mov	r2, r3
 2594 00be FFF7FEFF 		bl	TFTSHIELD_1_Set
 2595              	.L46:
 2596              	.LBE2:
 689:.\Generated_Source\PSoC5/TFTSHIELD_1.c ****     } 
 690:.\Generated_Source\PSoC5/TFTSHIELD_1.c ****     if (cornername & 0x2) {
 2597              		.loc 1 690 0
 2598 00c2 7B78     		ldrb	r3, [r7, #1]	@ zero_extendqisi2
 2599 00c4 03F00203 		and	r3, r3, #2
 2600 00c8 002B     		cmp	r3, #0
 2601 00ca 1BD0     		beq	.L47
 691:.\Generated_Source\PSoC5/TFTSHIELD_1.c ****       TFTSHIELD_1_SetPixel(x0 + x, y0 - y, color);
 2602              		.loc 1 691 0
ARM GAS  C:\Users\Brian\AppData\Local\Temp\ccPAhBxt.s 			page 59


 2603 00cc FA88     		ldrh	r2, [r7, #6]
 2604 00ce 3B8A     		ldrh	r3, [r7, #16]
 2605 00d0 D318     		adds	r3, r2, r3
 2606 00d2 99B2     		uxth	r1, r3
 2607 00d4 BA88     		ldrh	r2, [r7, #4]
 2608 00d6 FB89     		ldrh	r3, [r7, #14]
 2609 00d8 D31A     		subs	r3, r2, r3
 2610 00da 9AB2     		uxth	r2, r3
 2611 00dc 3B8C     		ldrh	r3, [r7, #32]
 2612 00de 0846     		mov	r0, r1
 2613 00e0 1146     		mov	r1, r2
 2614 00e2 1A46     		mov	r2, r3
 2615 00e4 FFF7FEFF 		bl	TFTSHIELD_1_SetPixel
 692:.\Generated_Source\PSoC5/TFTSHIELD_1.c ****       TFTSHIELD_1_SetPixel(x0 + y, y0 - x, color);
 2616              		.loc 1 692 0
 2617 00e8 FA88     		ldrh	r2, [r7, #6]
 2618 00ea FB89     		ldrh	r3, [r7, #14]
 2619 00ec D318     		adds	r3, r2, r3
 2620 00ee 99B2     		uxth	r1, r3
 2621 00f0 BA88     		ldrh	r2, [r7, #4]
 2622 00f2 3B8A     		ldrh	r3, [r7, #16]
 2623 00f4 D31A     		subs	r3, r2, r3
 2624 00f6 9AB2     		uxth	r2, r3
 2625 00f8 3B8C     		ldrh	r3, [r7, #32]
 2626 00fa 0846     		mov	r0, r1
 2627 00fc 1146     		mov	r1, r2
 2628 00fe 1A46     		mov	r2, r3
 2629 0100 FFF7FEFF 		bl	TFTSHIELD_1_SetPixel
 2630              	.L47:
 693:.\Generated_Source\PSoC5/TFTSHIELD_1.c ****     }
 694:.\Generated_Source\PSoC5/TFTSHIELD_1.c ****     if (cornername & 0x8) {
 2631              		.loc 1 694 0
 2632 0104 7B78     		ldrb	r3, [r7, #1]	@ zero_extendqisi2
 2633 0106 03F00803 		and	r3, r3, #8
 2634 010a 002B     		cmp	r3, #0
 2635 010c 1BD0     		beq	.L48
 695:.\Generated_Source\PSoC5/TFTSHIELD_1.c ****       TFTSHIELD_1_SetPixel(x0 - y, y0 + x, color);
 2636              		.loc 1 695 0
 2637 010e FA88     		ldrh	r2, [r7, #6]
 2638 0110 FB89     		ldrh	r3, [r7, #14]
 2639 0112 D31A     		subs	r3, r2, r3
 2640 0114 99B2     		uxth	r1, r3
 2641 0116 BA88     		ldrh	r2, [r7, #4]
 2642 0118 3B8A     		ldrh	r3, [r7, #16]
 2643 011a D318     		adds	r3, r2, r3
 2644 011c 9AB2     		uxth	r2, r3
 2645 011e 3B8C     		ldrh	r3, [r7, #32]
 2646 0120 0846     		mov	r0, r1
 2647 0122 1146     		mov	r1, r2
 2648 0124 1A46     		mov	r2, r3
 2649 0126 FFF7FEFF 		bl	TFTSHIELD_1_SetPixel
 696:.\Generated_Source\PSoC5/TFTSHIELD_1.c ****       TFTSHIELD_1_SetPixel(x0 - x, y0 + y, color);
 2650              		.loc 1 696 0
 2651 012a FA88     		ldrh	r2, [r7, #6]
 2652 012c 3B8A     		ldrh	r3, [r7, #16]
 2653 012e D31A     		subs	r3, r2, r3
 2654 0130 99B2     		uxth	r1, r3
ARM GAS  C:\Users\Brian\AppData\Local\Temp\ccPAhBxt.s 			page 60


 2655 0132 BA88     		ldrh	r2, [r7, #4]
 2656 0134 FB89     		ldrh	r3, [r7, #14]
 2657 0136 D318     		adds	r3, r2, r3
 2658 0138 9AB2     		uxth	r2, r3
 2659 013a 3B8C     		ldrh	r3, [r7, #32]
 2660 013c 0846     		mov	r0, r1
 2661 013e 1146     		mov	r1, r2
 2662 0140 1A46     		mov	r2, r3
 2663 0142 FFF7FEFF 		bl	TFTSHIELD_1_SetPixel
 2664              	.L48:
 697:.\Generated_Source\PSoC5/TFTSHIELD_1.c ****     }
 698:.\Generated_Source\PSoC5/TFTSHIELD_1.c ****     if (cornername & 0x1) {
 2665              		.loc 1 698 0
 2666 0146 7B78     		ldrb	r3, [r7, #1]	@ zero_extendqisi2
 2667 0148 03F00103 		and	r3, r3, #1
 2668 014c 002B     		cmp	r3, #0
 2669 014e 1BD0     		beq	.L44
 699:.\Generated_Source\PSoC5/TFTSHIELD_1.c ****       TFTSHIELD_1_SetPixel(x0 - y, y0 - x, color);
 2670              		.loc 1 699 0
 2671 0150 FA88     		ldrh	r2, [r7, #6]
 2672 0152 FB89     		ldrh	r3, [r7, #14]
 2673 0154 D31A     		subs	r3, r2, r3
 2674 0156 99B2     		uxth	r1, r3
 2675 0158 BA88     		ldrh	r2, [r7, #4]
 2676 015a 3B8A     		ldrh	r3, [r7, #16]
 2677 015c D31A     		subs	r3, r2, r3
 2678 015e 9AB2     		uxth	r2, r3
 2679 0160 3B8C     		ldrh	r3, [r7, #32]
 2680 0162 0846     		mov	r0, r1
 2681 0164 1146     		mov	r1, r2
 2682 0166 1A46     		mov	r2, r3
 2683 0168 FFF7FEFF 		bl	TFTSHIELD_1_SetPixel
 700:.\Generated_Source\PSoC5/TFTSHIELD_1.c ****       TFTSHIELD_1_SetPixel(x0 - x, y0 - y, color);
 2684              		.loc 1 700 0
 2685 016c FA88     		ldrh	r2, [r7, #6]
 2686 016e 3B8A     		ldrh	r3, [r7, #16]
 2687 0170 D31A     		subs	r3, r2, r3
 2688 0172 99B2     		uxth	r1, r3
 2689 0174 BA88     		ldrh	r2, [r7, #4]
 2690 0176 FB89     		ldrh	r3, [r7, #14]
 2691 0178 D31A     		subs	r3, r2, r3
 2692 017a 9AB2     		uxth	r2, r3
 2693 017c 3B8C     		ldrh	r3, [r7, #32]
 2694 017e 0846     		mov	r0, r1
 2695 0180 1146     		mov	r1, r2
 2696 0182 1A46     		mov	r2, r3
 2697 0184 FFF7FEFF 		bl	TFTSHIELD_1_SetPixel
 2698              	.L44:
 677:.\Generated_Source\PSoC5/TFTSHIELD_1.c ****   while (x<y) {
 2699              		.loc 1 677 0 discriminator 1
 2700 0188 B7F91020 		ldrsh	r2, [r7, #16]
 2701 018c B7F90E30 		ldrsh	r3, [r7, #14]
 2702 0190 9A42     		cmp	r2, r3
 2703 0192 FFF653AF 		blt	.L49
 701:.\Generated_Source\PSoC5/TFTSHIELD_1.c ****     }
 702:.\Generated_Source\PSoC5/TFTSHIELD_1.c ****   }
 703:.\Generated_Source\PSoC5/TFTSHIELD_1.c **** }
ARM GAS  C:\Users\Brian\AppData\Local\Temp\ccPAhBxt.s 			page 61


 2704              		.loc 1 703 0
 2705 0196 07F11807 		add	r7, r7, #24
 2706 019a BD46     		mov	sp, r7
 2707 019c 80BD     		pop	{r7, pc}
 2708              		.cfi_endproc
 2709              	.LFE17:
 2710              		.size	TFTSHIELD_1_DrawCircleHelper, .-TFTSHIELD_1_DrawCircleHelper
 2711 019e 00BF     		.section	.text.TFTSHIELD_1_FillCircle,"ax",%progbits
 2712              		.align	2
 2713              		.global	TFTSHIELD_1_FillCircle
 2714              		.thumb
 2715              		.thumb_func
 2716              		.type	TFTSHIELD_1_FillCircle, %function
 2717              	TFTSHIELD_1_FillCircle:
 2718              	.LFB18:
 704:.\Generated_Source\PSoC5/TFTSHIELD_1.c **** 
 705:.\Generated_Source\PSoC5/TFTSHIELD_1.c **** /**************************************************************************//**
 706:.\Generated_Source\PSoC5/TFTSHIELD_1.c **** *  @brief Draws a circle filled in with the specified color
 707:.\Generated_Source\PSoC5/TFTSHIELD_1.c **** *
 708:.\Generated_Source\PSoC5/TFTSHIELD_1.c **** *  @param x0: The x coordinate
 709:.\Generated_Source\PSoC5/TFTSHIELD_1.c **** *  @param y0: The y coordinate
 710:.\Generated_Source\PSoC5/TFTSHIELD_1.c **** *  @param r: The radius of the circle
 711:.\Generated_Source\PSoC5/TFTSHIELD_1.c **** *  @param color: The color of the circle
 712:.\Generated_Source\PSoC5/TFTSHIELD_1.c **** *
 713:.\Generated_Source\PSoC5/TFTSHIELD_1.c **** *******************************************************************************/
 714:.\Generated_Source\PSoC5/TFTSHIELD_1.c **** void TFTSHIELD_1_FillCircle(int16_t x0, int16_t y0, int16_t r, uint16_t color)
 715:.\Generated_Source\PSoC5/TFTSHIELD_1.c **** {
 2719              		.loc 1 715 0
 2720              		.cfi_startproc
 2721              		@ args = 0, pretend = 0, frame = 8
 2722              		@ frame_needed = 1, uses_anonymous_args = 0
 2723 0000 80B5     		push	{r7, lr}
 2724              	.LCFI53:
 2725              		.cfi_def_cfa_offset 8
 2726              		.cfi_offset 7, -8
 2727              		.cfi_offset 14, -4
 2728 0002 84B0     		sub	sp, sp, #16
 2729              	.LCFI54:
 2730              		.cfi_def_cfa_offset 24
 2731 0004 02AF     		add	r7, sp, #8
 2732              	.LCFI55:
 2733              		.cfi_def_cfa 7, 16
 2734 0006 F880     		strh	r0, [r7, #6]	@ movhi
 2735 0008 B980     		strh	r1, [r7, #4]	@ movhi
 2736 000a 7A80     		strh	r2, [r7, #2]	@ movhi
 2737 000c 3B80     		strh	r3, [r7, #0]	@ movhi
 716:.\Generated_Source\PSoC5/TFTSHIELD_1.c ****     TFTSHIELD_1_DrawVLine(x0, y0-r, 2*r+1, color);
 2738              		.loc 1 716 0
 2739 000e F888     		ldrh	r0, [r7, #6]
 2740 0010 BA88     		ldrh	r2, [r7, #4]
 2741 0012 7B88     		ldrh	r3, [r7, #2]
 2742 0014 D31A     		subs	r3, r2, r3
 2743 0016 99B2     		uxth	r1, r3
 2744 0018 7B88     		ldrh	r3, [r7, #2]
 2745 001a 4FEA4303 		lsl	r3, r3, #1
 2746 001e 9BB2     		uxth	r3, r3
 2747 0020 03F10103 		add	r3, r3, #1
ARM GAS  C:\Users\Brian\AppData\Local\Temp\ccPAhBxt.s 			page 62


 2748 0024 9AB2     		uxth	r2, r3
 2749 0026 3B88     		ldrh	r3, [r7, #0]
 2750 0028 FFF7FEFF 		bl	TFTSHIELD_1_DrawVLine
 717:.\Generated_Source\PSoC5/TFTSHIELD_1.c ****     TFTSHIELD_1_FillCircleHelper(x0, y0, r, 3, 0, color);
 2751              		.loc 1 717 0
 2752 002c B7F90610 		ldrsh	r1, [r7, #6]
 2753 0030 B7F90420 		ldrsh	r2, [r7, #4]
 2754 0034 B7F90230 		ldrsh	r3, [r7, #2]
 2755 0038 4FF00000 		mov	r0, #0
 2756 003c 0090     		str	r0, [sp, #0]
 2757 003e 3888     		ldrh	r0, [r7, #0]
 2758 0040 0190     		str	r0, [sp, #4]
 2759 0042 0846     		mov	r0, r1
 2760 0044 1146     		mov	r1, r2
 2761 0046 1A46     		mov	r2, r3
 2762 0048 4FF00303 		mov	r3, #3
 2763 004c FFF7FEFF 		bl	TFTSHIELD_1_FillCircleHelper
 718:.\Generated_Source\PSoC5/TFTSHIELD_1.c **** }
 2764              		.loc 1 718 0
 2765 0050 07F10807 		add	r7, r7, #8
 2766 0054 BD46     		mov	sp, r7
 2767 0056 80BD     		pop	{r7, pc}
 2768              		.cfi_endproc
 2769              	.LFE18:
 2770              		.size	TFTSHIELD_1_FillCircle, .-TFTSHIELD_1_FillCircle
 2771              		.section	.text.TFTSHIELD_1_FillCircleHelper,"ax",%progbits
 2772              		.align	2
 2773              		.global	TFTSHIELD_1_FillCircleHelper
 2774              		.thumb
 2775              		.thumb_func
 2776              		.type	TFTSHIELD_1_FillCircleHelper, %function
 2777              	TFTSHIELD_1_FillCircleHelper:
 2778              	.LFB19:
 719:.\Generated_Source\PSoC5/TFTSHIELD_1.c **** 
 720:.\Generated_Source\PSoC5/TFTSHIELD_1.c **** /**************************************************************************//**
 721:.\Generated_Source\PSoC5/TFTSHIELD_1.c **** *  @brief Helper function for filling circles and corners
 722:.\Generated_Source\PSoC5/TFTSHIELD_1.c **** *
 723:.\Generated_Source\PSoC5/TFTSHIELD_1.c **** *  @param x0: The x coordinate
 724:.\Generated_Source\PSoC5/TFTSHIELD_1.c **** *  @param y0: The y coordinate
 725:.\Generated_Source\PSoC5/TFTSHIELD_1.c **** *  @param r: The radius of the circle
 726:.\Generated_Source\PSoC5/TFTSHIELD_1.c **** *  @param cornername: Corner orientation
 727:.\Generated_Source\PSoC5/TFTSHIELD_1.c **** *  @param delta: Delta value
 728:.\Generated_Source\PSoC5/TFTSHIELD_1.c **** *  @param color: The color of the circle
 729:.\Generated_Source\PSoC5/TFTSHIELD_1.c **** *
 730:.\Generated_Source\PSoC5/TFTSHIELD_1.c **** *******************************************************************************/
 731:.\Generated_Source\PSoC5/TFTSHIELD_1.c **** void TFTSHIELD_1_FillCircleHelper(int16_t x0, int16_t y0, int16_t r, uint8_t cornername,
 732:.\Generated_Source\PSoC5/TFTSHIELD_1.c ****       int16_t delta, uint16_t color)
 733:.\Generated_Source\PSoC5/TFTSHIELD_1.c **** {
 2779              		.loc 1 733 0
 2780              		.cfi_startproc
 2781              		@ args = 8, pretend = 0, frame = 24
 2782              		@ frame_needed = 1, uses_anonymous_args = 0
 2783 0000 80B5     		push	{r7, lr}
 2784              	.LCFI56:
 2785              		.cfi_def_cfa_offset 8
 2786              		.cfi_offset 7, -8
 2787              		.cfi_offset 14, -4
ARM GAS  C:\Users\Brian\AppData\Local\Temp\ccPAhBxt.s 			page 63


 2788 0002 86B0     		sub	sp, sp, #24
 2789              	.LCFI57:
 2790              		.cfi_def_cfa_offset 32
 2791 0004 00AF     		add	r7, sp, #0
 2792              	.LCFI58:
 2793              		.cfi_def_cfa_register 7
 2794 0006 F880     		strh	r0, [r7, #6]	@ movhi
 2795 0008 B980     		strh	r1, [r7, #4]	@ movhi
 2796 000a 7A80     		strh	r2, [r7, #2]	@ movhi
 2797 000c 7B70     		strb	r3, [r7, #1]
 734:.\Generated_Source\PSoC5/TFTSHIELD_1.c ****   int16_t f     = 1 - r;
 2798              		.loc 1 734 0
 2799 000e 7B88     		ldrh	r3, [r7, #2]
 2800 0010 C3F10103 		rsb	r3, r3, #1
 2801 0014 9BB2     		uxth	r3, r3
 2802 0016 FB82     		strh	r3, [r7, #22]	@ movhi
 735:.\Generated_Source\PSoC5/TFTSHIELD_1.c ****   int16_t ddF_x = 1;
 2803              		.loc 1 735 0
 2804 0018 4FF00103 		mov	r3, #1
 2805 001c BB82     		strh	r3, [r7, #20]	@ movhi
 736:.\Generated_Source\PSoC5/TFTSHIELD_1.c ****   int16_t ddF_y = -2 * r;
 2806              		.loc 1 736 0
 2807 001e 7B88     		ldrh	r3, [r7, #2]
 2808 0020 1A46     		mov	r2, r3	@ movhi
 2809 0022 4FEAC232 		lsl	r2, r2, #15
 2810 0026 D31A     		subs	r3, r2, r3
 2811 0028 4FEA4303 		lsl	r3, r3, #1
 2812 002c 9BB2     		uxth	r3, r3
 2813 002e 7B82     		strh	r3, [r7, #18]	@ movhi
 737:.\Generated_Source\PSoC5/TFTSHIELD_1.c ****   int16_t x     = 0;
 2814              		.loc 1 737 0
 2815 0030 4FF00003 		mov	r3, #0
 2816 0034 3B82     		strh	r3, [r7, #16]	@ movhi
 738:.\Generated_Source\PSoC5/TFTSHIELD_1.c ****   int16_t y     = r;
 2817              		.loc 1 738 0
 2818 0036 7B88     		ldrh	r3, [r7, #2]	@ movhi
 2819 0038 FB81     		strh	r3, [r7, #14]	@ movhi
 739:.\Generated_Source\PSoC5/TFTSHIELD_1.c **** 
 740:.\Generated_Source\PSoC5/TFTSHIELD_1.c ****   while (x<y) {
 2820              		.loc 1 740 0
 2821 003a 7DE0     		b	.L52
 2822              	.L55:
 741:.\Generated_Source\PSoC5/TFTSHIELD_1.c ****     if (f >= 0) {
 2823              		.loc 1 741 0
 2824 003c B7F91630 		ldrsh	r3, [r7, #22]
 2825 0040 002B     		cmp	r3, #0
 2826 0042 0DDB     		blt	.L53
 742:.\Generated_Source\PSoC5/TFTSHIELD_1.c ****       y--;
 2827              		.loc 1 742 0
 2828 0044 FB89     		ldrh	r3, [r7, #14]	@ movhi
 2829 0046 03F1FF33 		add	r3, r3, #-1
 2830 004a FB81     		strh	r3, [r7, #14]	@ movhi
 743:.\Generated_Source\PSoC5/TFTSHIELD_1.c ****       ddF_y += 2;
 2831              		.loc 1 743 0
 2832 004c 7B8A     		ldrh	r3, [r7, #18]
 2833 004e 03F10203 		add	r3, r3, #2
 2834 0052 9BB2     		uxth	r3, r3
ARM GAS  C:\Users\Brian\AppData\Local\Temp\ccPAhBxt.s 			page 64


 2835 0054 7B82     		strh	r3, [r7, #18]	@ movhi
 744:.\Generated_Source\PSoC5/TFTSHIELD_1.c ****       f     += ddF_y;
 2836              		.loc 1 744 0
 2837 0056 FA8A     		ldrh	r2, [r7, #22]
 2838 0058 7B8A     		ldrh	r3, [r7, #18]
 2839 005a D318     		adds	r3, r2, r3
 2840 005c 9BB2     		uxth	r3, r3
 2841 005e FB82     		strh	r3, [r7, #22]	@ movhi
 2842              	.L53:
 745:.\Generated_Source\PSoC5/TFTSHIELD_1.c ****     }
 746:.\Generated_Source\PSoC5/TFTSHIELD_1.c ****     x++;
 2843              		.loc 1 746 0
 2844 0060 3B8A     		ldrh	r3, [r7, #16]	@ movhi
 2845 0062 03F10103 		add	r3, r3, #1
 2846 0066 3B82     		strh	r3, [r7, #16]	@ movhi
 747:.\Generated_Source\PSoC5/TFTSHIELD_1.c ****     ddF_x += 2;
 2847              		.loc 1 747 0
 2848 0068 BB8A     		ldrh	r3, [r7, #20]
 2849 006a 03F10203 		add	r3, r3, #2
 2850 006e 9BB2     		uxth	r3, r3
 2851 0070 BB82     		strh	r3, [r7, #20]	@ movhi
 748:.\Generated_Source\PSoC5/TFTSHIELD_1.c ****     f     += ddF_x;
 2852              		.loc 1 748 0
 2853 0072 FA8A     		ldrh	r2, [r7, #22]
 2854 0074 BB8A     		ldrh	r3, [r7, #20]
 2855 0076 D318     		adds	r3, r2, r3
 2856 0078 9BB2     		uxth	r3, r3
 2857 007a FB82     		strh	r3, [r7, #22]	@ movhi
 749:.\Generated_Source\PSoC5/TFTSHIELD_1.c **** 
 750:.\Generated_Source\PSoC5/TFTSHIELD_1.c ****     if (cornername & 0x1) {
 2858              		.loc 1 750 0
 2859 007c 7B78     		ldrb	r3, [r7, #1]	@ zero_extendqisi2
 2860 007e 03F00103 		and	r3, r3, #1
 2861 0082 002B     		cmp	r3, #0
 2862 0084 29D0     		beq	.L54
 751:.\Generated_Source\PSoC5/TFTSHIELD_1.c ****       TFTSHIELD_1_DrawVLine(x0+x, y0-y, 2*y+1+delta, color);
 2863              		.loc 1 751 0
 2864 0086 FA88     		ldrh	r2, [r7, #6]
 2865 0088 3B8A     		ldrh	r3, [r7, #16]
 2866 008a D318     		adds	r3, r2, r3
 2867 008c 98B2     		uxth	r0, r3
 2868 008e BA88     		ldrh	r2, [r7, #4]
 2869 0090 FB89     		ldrh	r3, [r7, #14]
 2870 0092 D31A     		subs	r3, r2, r3
 2871 0094 99B2     		uxth	r1, r3
 2872 0096 FB89     		ldrh	r3, [r7, #14]
 2873 0098 4FEA4303 		lsl	r3, r3, #1
 2874 009c 9AB2     		uxth	r2, r3
 2875 009e 3B8C     		ldrh	r3, [r7, #32]
 2876 00a0 D318     		adds	r3, r2, r3
 2877 00a2 9BB2     		uxth	r3, r3
 2878 00a4 03F10103 		add	r3, r3, #1
 2879 00a8 9AB2     		uxth	r2, r3
 2880 00aa BB8C     		ldrh	r3, [r7, #36]
 2881 00ac FFF7FEFF 		bl	TFTSHIELD_1_DrawVLine
 752:.\Generated_Source\PSoC5/TFTSHIELD_1.c ****       TFTSHIELD_1_DrawVLine(x0+y, y0-x, 2*x+1+delta, color);
 2882              		.loc 1 752 0
ARM GAS  C:\Users\Brian\AppData\Local\Temp\ccPAhBxt.s 			page 65


 2883 00b0 FA88     		ldrh	r2, [r7, #6]
 2884 00b2 FB89     		ldrh	r3, [r7, #14]
 2885 00b4 D318     		adds	r3, r2, r3
 2886 00b6 98B2     		uxth	r0, r3
 2887 00b8 BA88     		ldrh	r2, [r7, #4]
 2888 00ba 3B8A     		ldrh	r3, [r7, #16]
 2889 00bc D31A     		subs	r3, r2, r3
 2890 00be 99B2     		uxth	r1, r3
 2891 00c0 3B8A     		ldrh	r3, [r7, #16]
 2892 00c2 4FEA4303 		lsl	r3, r3, #1
 2893 00c6 9AB2     		uxth	r2, r3
 2894 00c8 3B8C     		ldrh	r3, [r7, #32]
 2895 00ca D318     		adds	r3, r2, r3
 2896 00cc 9BB2     		uxth	r3, r3
 2897 00ce 03F10103 		add	r3, r3, #1
 2898 00d2 9AB2     		uxth	r2, r3
 2899 00d4 BB8C     		ldrh	r3, [r7, #36]
 2900 00d6 FFF7FEFF 		bl	TFTSHIELD_1_DrawVLine
 2901              	.L54:
 753:.\Generated_Source\PSoC5/TFTSHIELD_1.c ****     }
 754:.\Generated_Source\PSoC5/TFTSHIELD_1.c ****     if (cornername & 0x2) {
 2902              		.loc 1 754 0
 2903 00da 7B78     		ldrb	r3, [r7, #1]	@ zero_extendqisi2
 2904 00dc 03F00203 		and	r3, r3, #2
 2905 00e0 002B     		cmp	r3, #0
 2906 00e2 29D0     		beq	.L52
 755:.\Generated_Source\PSoC5/TFTSHIELD_1.c ****       TFTSHIELD_1_DrawVLine(x0-x, y0-y, 2*y+1+delta, color);
 2907              		.loc 1 755 0
 2908 00e4 FA88     		ldrh	r2, [r7, #6]
 2909 00e6 3B8A     		ldrh	r3, [r7, #16]
 2910 00e8 D31A     		subs	r3, r2, r3
 2911 00ea 98B2     		uxth	r0, r3
 2912 00ec BA88     		ldrh	r2, [r7, #4]
 2913 00ee FB89     		ldrh	r3, [r7, #14]
 2914 00f0 D31A     		subs	r3, r2, r3
 2915 00f2 99B2     		uxth	r1, r3
 2916 00f4 FB89     		ldrh	r3, [r7, #14]
 2917 00f6 4FEA4303 		lsl	r3, r3, #1
 2918 00fa 9AB2     		uxth	r2, r3
 2919 00fc 3B8C     		ldrh	r3, [r7, #32]
 2920 00fe D318     		adds	r3, r2, r3
 2921 0100 9BB2     		uxth	r3, r3
 2922 0102 03F10103 		add	r3, r3, #1
 2923 0106 9AB2     		uxth	r2, r3
 2924 0108 BB8C     		ldrh	r3, [r7, #36]
 2925 010a FFF7FEFF 		bl	TFTSHIELD_1_DrawVLine
 756:.\Generated_Source\PSoC5/TFTSHIELD_1.c ****      TFTSHIELD_1_DrawVLine(x0-y, y0-x, 2*x+1+delta, color);
 2926              		.loc 1 756 0
 2927 010e FA88     		ldrh	r2, [r7, #6]
 2928 0110 FB89     		ldrh	r3, [r7, #14]
 2929 0112 D31A     		subs	r3, r2, r3
 2930 0114 98B2     		uxth	r0, r3
 2931 0116 BA88     		ldrh	r2, [r7, #4]
 2932 0118 3B8A     		ldrh	r3, [r7, #16]
 2933 011a D31A     		subs	r3, r2, r3
 2934 011c 99B2     		uxth	r1, r3
 2935 011e 3B8A     		ldrh	r3, [r7, #16]
ARM GAS  C:\Users\Brian\AppData\Local\Temp\ccPAhBxt.s 			page 66


 2936 0120 4FEA4303 		lsl	r3, r3, #1
 2937 0124 9AB2     		uxth	r2, r3
 2938 0126 3B8C     		ldrh	r3, [r7, #32]
 2939 0128 D318     		adds	r3, r2, r3
 2940 012a 9BB2     		uxth	r3, r3
 2941 012c 03F10103 		add	r3, r3, #1
 2942 0130 9AB2     		uxth	r2, r3
 2943 0132 BB8C     		ldrh	r3, [r7, #36]
 2944 0134 FFF7FEFF 		bl	TFTSHIELD_1_DrawVLine
 2945              	.L52:
 740:.\Generated_Source\PSoC5/TFTSHIELD_1.c ****   while (x<y) {
 2946              		.loc 1 740 0 discriminator 1
 2947 0138 B7F91020 		ldrsh	r2, [r7, #16]
 2948 013c B7F90E30 		ldrsh	r3, [r7, #14]
 2949 0140 9A42     		cmp	r2, r3
 2950 0142 FFF67BAF 		blt	.L55
 757:.\Generated_Source\PSoC5/TFTSHIELD_1.c ****     }
 758:.\Generated_Source\PSoC5/TFTSHIELD_1.c ****   }
 759:.\Generated_Source\PSoC5/TFTSHIELD_1.c **** }
 2951              		.loc 1 759 0
 2952 0146 07F11807 		add	r7, r7, #24
 2953 014a BD46     		mov	sp, r7
 2954 014c 80BD     		pop	{r7, pc}
 2955              		.cfi_endproc
 2956              	.LFE19:
 2957              		.size	TFTSHIELD_1_FillCircleHelper, .-TFTSHIELD_1_FillCircleHelper
 2958 014e 00BF     		.section	.text.TFTSHIELD_1_DrawTriangle,"ax",%progbits
 2959              		.align	2
 2960              		.global	TFTSHIELD_1_DrawTriangle
 2961              		.thumb
 2962              		.thumb_func
 2963              		.type	TFTSHIELD_1_DrawTriangle, %function
 2964              	TFTSHIELD_1_DrawTriangle:
 2965              	.LFB20:
 760:.\Generated_Source\PSoC5/TFTSHIELD_1.c **** 
 761:.\Generated_Source\PSoC5/TFTSHIELD_1.c **** /**************************************************************************//**
 762:.\Generated_Source\PSoC5/TFTSHIELD_1.c **** *  @brief Draws a triangle outline
 763:.\Generated_Source\PSoC5/TFTSHIELD_1.c **** *
 764:.\Generated_Source\PSoC5/TFTSHIELD_1.c **** *  @param x0: The first x coordinate
 765:.\Generated_Source\PSoC5/TFTSHIELD_1.c **** *  @param y0: The first y coordinate
 766:.\Generated_Source\PSoC5/TFTSHIELD_1.c **** *  @param x1: The second x coordinate
 767:.\Generated_Source\PSoC5/TFTSHIELD_1.c **** *  @param y1: The second y coordinate
 768:.\Generated_Source\PSoC5/TFTSHIELD_1.c **** *  @param x2: The third x coordinate
 769:.\Generated_Source\PSoC5/TFTSHIELD_1.c **** *  @param y2: The third y coordinate
 770:.\Generated_Source\PSoC5/TFTSHIELD_1.c **** *  @param color: The color of the triangle
 771:.\Generated_Source\PSoC5/TFTSHIELD_1.c **** *
 772:.\Generated_Source\PSoC5/TFTSHIELD_1.c **** *******************************************************************************/
 773:.\Generated_Source\PSoC5/TFTSHIELD_1.c **** void TFTSHIELD_1_DrawTriangle(int16_t x0, int16_t y0, int16_t x1, int16_t y1,
 774:.\Generated_Source\PSoC5/TFTSHIELD_1.c ****       int16_t x2, int16_t y2, uint16_t color)
 775:.\Generated_Source\PSoC5/TFTSHIELD_1.c **** {
 2966              		.loc 1 775 0
 2967              		.cfi_startproc
 2968              		@ args = 12, pretend = 0, frame = 8
 2969              		@ frame_needed = 1, uses_anonymous_args = 0
 2970 0000 90B5     		push	{r4, r7, lr}
 2971              	.LCFI59:
 2972              		.cfi_def_cfa_offset 12
ARM GAS  C:\Users\Brian\AppData\Local\Temp\ccPAhBxt.s 			page 67


 2973              		.cfi_offset 4, -12
 2974              		.cfi_offset 7, -8
 2975              		.cfi_offset 14, -4
 2976 0002 85B0     		sub	sp, sp, #20
 2977              	.LCFI60:
 2978              		.cfi_def_cfa_offset 32
 2979 0004 02AF     		add	r7, sp, #8
 2980              	.LCFI61:
 2981              		.cfi_def_cfa 7, 24
 2982 0006 F880     		strh	r0, [r7, #6]	@ movhi
 2983 0008 B980     		strh	r1, [r7, #4]	@ movhi
 2984 000a 7A80     		strh	r2, [r7, #2]	@ movhi
 2985 000c 3B80     		strh	r3, [r7, #0]	@ movhi
 776:.\Generated_Source\PSoC5/TFTSHIELD_1.c ****     TFTSHIELD_1DrawLine(x0, y0, x1, y1, color);
 2986              		.loc 1 776 0
 2987 000e B7F90600 		ldrsh	r0, [r7, #6]
 2988 0012 B7F90410 		ldrsh	r1, [r7, #4]
 2989 0016 B7F90220 		ldrsh	r2, [r7, #2]
 2990 001a B7F90030 		ldrsh	r3, [r7, #0]
 2991 001e 3C8C     		ldrh	r4, [r7, #32]
 2992 0020 0094     		str	r4, [sp, #0]
 2993 0022 FFF7FEFF 		bl	TFTSHIELD_1DrawLine
 777:.\Generated_Source\PSoC5/TFTSHIELD_1.c ****     TFTSHIELD_1DrawLine(x1, y1, x2, y2, color);
 2994              		.loc 1 777 0
 2995 0026 B7F90200 		ldrsh	r0, [r7, #2]
 2996 002a B7F90010 		ldrsh	r1, [r7, #0]
 2997 002e B7F91820 		ldrsh	r2, [r7, #24]
 2998 0032 B7F91C30 		ldrsh	r3, [r7, #28]
 2999 0036 3C8C     		ldrh	r4, [r7, #32]
 3000 0038 0094     		str	r4, [sp, #0]
 3001 003a FFF7FEFF 		bl	TFTSHIELD_1DrawLine
 778:.\Generated_Source\PSoC5/TFTSHIELD_1.c ****     TFTSHIELD_1DrawLine(x2, y2, x0, y0, color);
 3002              		.loc 1 778 0
 3003 003e B7F91800 		ldrsh	r0, [r7, #24]
 3004 0042 B7F91C10 		ldrsh	r1, [r7, #28]
 3005 0046 B7F90620 		ldrsh	r2, [r7, #6]
 3006 004a B7F90430 		ldrsh	r3, [r7, #4]
 3007 004e 3C8C     		ldrh	r4, [r7, #32]
 3008 0050 0094     		str	r4, [sp, #0]
 3009 0052 FFF7FEFF 		bl	TFTSHIELD_1DrawLine
 779:.\Generated_Source\PSoC5/TFTSHIELD_1.c **** }
 3010              		.loc 1 779 0
 3011 0056 07F10C07 		add	r7, r7, #12
 3012 005a BD46     		mov	sp, r7
 3013 005c 90BD     		pop	{r4, r7, pc}
 3014              		.cfi_endproc
 3015              	.LFE20:
 3016              		.size	TFTSHIELD_1_DrawTriangle, .-TFTSHIELD_1_DrawTriangle
 3017 005e 00BF     		.section	.text.TFTSHIELD_1_FillTriangle,"ax",%progbits
 3018              		.align	2
 3019              		.global	TFTSHIELD_1_FillTriangle
 3020              		.thumb
 3021              		.thumb_func
 3022              		.type	TFTSHIELD_1_FillTriangle, %function
 3023              	TFTSHIELD_1_FillTriangle:
 3024              	.LFB21:
 780:.\Generated_Source\PSoC5/TFTSHIELD_1.c **** 
ARM GAS  C:\Users\Brian\AppData\Local\Temp\ccPAhBxt.s 			page 68


 781:.\Generated_Source\PSoC5/TFTSHIELD_1.c **** /**************************************************************************//**
 782:.\Generated_Source\PSoC5/TFTSHIELD_1.c **** *  @brief Draws a triangle filled with the specified color
 783:.\Generated_Source\PSoC5/TFTSHIELD_1.c **** *
 784:.\Generated_Source\PSoC5/TFTSHIELD_1.c **** *  @param x0: The first x coordinate
 785:.\Generated_Source\PSoC5/TFTSHIELD_1.c **** *  @param y0: The first y coordinate
 786:.\Generated_Source\PSoC5/TFTSHIELD_1.c **** *  @param x1: The second x coordinate
 787:.\Generated_Source\PSoC5/TFTSHIELD_1.c **** *  @param y1: The second y coordinate
 788:.\Generated_Source\PSoC5/TFTSHIELD_1.c **** *  @param x2: The third x coordinate
 789:.\Generated_Source\PSoC5/TFTSHIELD_1.c **** *  @param y2: The third y coordinate
 790:.\Generated_Source\PSoC5/TFTSHIELD_1.c **** *  @param color: The color of the triangle
 791:.\Generated_Source\PSoC5/TFTSHIELD_1.c **** *
 792:.\Generated_Source\PSoC5/TFTSHIELD_1.c **** *******************************************************************************/
 793:.\Generated_Source\PSoC5/TFTSHIELD_1.c **** void TFTSHIELD_1_FillTriangle(int16_t x0, int16_t y0, int16_t x1, int16_t y1,
 794:.\Generated_Source\PSoC5/TFTSHIELD_1.c ****       int16_t x2, int16_t y2, uint16_t color)
 795:.\Generated_Source\PSoC5/TFTSHIELD_1.c **** {
 3025              		.loc 1 795 0
 3026              		.cfi_startproc
 3027              		@ args = 12, pretend = 0, frame = 32
 3028              		@ frame_needed = 1, uses_anonymous_args = 0
 3029 0000 80B5     		push	{r7, lr}
 3030              	.LCFI62:
 3031              		.cfi_def_cfa_offset 8
 3032              		.cfi_offset 7, -8
 3033              		.cfi_offset 14, -4
 3034 0002 88B0     		sub	sp, sp, #32
 3035              	.LCFI63:
 3036              		.cfi_def_cfa_offset 40
 3037 0004 00AF     		add	r7, sp, #0
 3038              	.LCFI64:
 3039              		.cfi_def_cfa_register 7
 3040 0006 F880     		strh	r0, [r7, #6]	@ movhi
 3041 0008 B980     		strh	r1, [r7, #4]	@ movhi
 3042 000a 7A80     		strh	r2, [r7, #2]	@ movhi
 3043 000c 3B80     		strh	r3, [r7, #0]	@ movhi
 796:.\Generated_Source\PSoC5/TFTSHIELD_1.c ****      int16_t a, b, y, last;
 797:.\Generated_Source\PSoC5/TFTSHIELD_1.c **** 
 798:.\Generated_Source\PSoC5/TFTSHIELD_1.c ****   // Sort coordinates by Y order (y2 >= y1 >= y0)
 799:.\Generated_Source\PSoC5/TFTSHIELD_1.c ****   if (y0 > y1) {
 3044              		.loc 1 799 0
 3045 000e B7F90420 		ldrsh	r2, [r7, #4]
 3046 0012 B7F90030 		ldrsh	r3, [r7, #0]
 3047 0016 9A42     		cmp	r2, r3
 3048 0018 0FDD     		ble	.L58
 3049              	.LBB3:
 800:.\Generated_Source\PSoC5/TFTSHIELD_1.c ****     swap(y0, y1); swap(x0, x1);
 3050              		.loc 1 800 0
 3051 001a B7F90420 		ldrsh	r2, [r7, #4]
 3052 001e B7F90030 		ldrsh	r3, [r7, #0]
 3053 0022 1046     		mov	r0, r2
 3054 0024 1946     		mov	r1, r3
 3055 0026 FFF7FEFF 		bl	swap
 3056 002a B7F90620 		ldrsh	r2, [r7, #6]
 3057 002e B7F90230 		ldrsh	r3, [r7, #2]
 3058 0032 1046     		mov	r0, r2
 3059 0034 1946     		mov	r1, r3
 3060 0036 FFF7FEFF 		bl	swap
 3061              	.L58:
ARM GAS  C:\Users\Brian\AppData\Local\Temp\ccPAhBxt.s 			page 69


 3062              	.LBE3:
 801:.\Generated_Source\PSoC5/TFTSHIELD_1.c ****   }
 802:.\Generated_Source\PSoC5/TFTSHIELD_1.c ****   if (y1 > y2) {
 3063              		.loc 1 802 0
 3064 003a B7F90020 		ldrsh	r2, [r7, #0]
 3065 003e B7F92C30 		ldrsh	r3, [r7, #44]
 3066 0042 9A42     		cmp	r2, r3
 3067 0044 0FDD     		ble	.L59
 3068              	.LBB4:
 803:.\Generated_Source\PSoC5/TFTSHIELD_1.c ****     swap(y2, y1); swap(x2, x1);
 3069              		.loc 1 803 0
 3070 0046 B7F92C20 		ldrsh	r2, [r7, #44]
 3071 004a B7F90030 		ldrsh	r3, [r7, #0]
 3072 004e 1046     		mov	r0, r2
 3073 0050 1946     		mov	r1, r3
 3074 0052 FFF7FEFF 		bl	swap
 3075 0056 B7F92820 		ldrsh	r2, [r7, #40]
 3076 005a B7F90230 		ldrsh	r3, [r7, #2]
 3077 005e 1046     		mov	r0, r2
 3078 0060 1946     		mov	r1, r3
 3079 0062 FFF7FEFF 		bl	swap
 3080              	.L59:
 3081              	.LBE4:
 804:.\Generated_Source\PSoC5/TFTSHIELD_1.c ****   }
 805:.\Generated_Source\PSoC5/TFTSHIELD_1.c ****   if (y0 > y1) {
 3082              		.loc 1 805 0
 3083 0066 B7F90420 		ldrsh	r2, [r7, #4]
 3084 006a B7F90030 		ldrsh	r3, [r7, #0]
 3085 006e 9A42     		cmp	r2, r3
 3086 0070 0FDD     		ble	.L60
 3087              	.LBB5:
 806:.\Generated_Source\PSoC5/TFTSHIELD_1.c ****     swap(y0, y1); swap(x0, x1);
 3088              		.loc 1 806 0
 3089 0072 B7F90420 		ldrsh	r2, [r7, #4]
 3090 0076 B7F90030 		ldrsh	r3, [r7, #0]
 3091 007a 1046     		mov	r0, r2
 3092 007c 1946     		mov	r1, r3
 3093 007e FFF7FEFF 		bl	swap
 3094 0082 B7F90620 		ldrsh	r2, [r7, #6]
 3095 0086 B7F90230 		ldrsh	r3, [r7, #2]
 3096 008a 1046     		mov	r0, r2
 3097 008c 1946     		mov	r1, r3
 3098 008e FFF7FEFF 		bl	swap
 3099              	.L60:
 3100              	.LBE5:
 807:.\Generated_Source\PSoC5/TFTSHIELD_1.c ****   }
 808:.\Generated_Source\PSoC5/TFTSHIELD_1.c **** 
 809:.\Generated_Source\PSoC5/TFTSHIELD_1.c ****   if(y0 == y2) { // Handle awkward all-on-same-line case as its own thing
 3101              		.loc 1 809 0
 3102 0092 B7F90420 		ldrsh	r2, [r7, #4]
 3103 0096 B7F92C30 		ldrsh	r3, [r7, #44]
 3104 009a 9A42     		cmp	r2, r3
 3105 009c 34D1     		bne	.L61
 3106              	.LBB6:
 810:.\Generated_Source\PSoC5/TFTSHIELD_1.c ****     a = b = x0;
 3107              		.loc 1 810 0
 3108 009e FB88     		ldrh	r3, [r7, #6]	@ movhi
ARM GAS  C:\Users\Brian\AppData\Local\Temp\ccPAhBxt.s 			page 70


 3109 00a0 BB83     		strh	r3, [r7, #28]	@ movhi
 3110 00a2 BB8B     		ldrh	r3, [r7, #28]	@ movhi
 3111 00a4 FB83     		strh	r3, [r7, #30]	@ movhi
 811:.\Generated_Source\PSoC5/TFTSHIELD_1.c ****     if(x1 < a)      a = x1;
 3112              		.loc 1 811 0
 3113 00a6 B7F90220 		ldrsh	r2, [r7, #2]
 3114 00aa B7F91E30 		ldrsh	r3, [r7, #30]
 3115 00ae 9A42     		cmp	r2, r3
 3116 00b0 02DA     		bge	.L62
 3117              		.loc 1 811 0 is_stmt 0 discriminator 1
 3118 00b2 7B88     		ldrh	r3, [r7, #2]	@ movhi
 3119 00b4 FB83     		strh	r3, [r7, #30]	@ movhi
 3120 00b6 07E0     		b	.L63
 3121              	.L62:
 812:.\Generated_Source\PSoC5/TFTSHIELD_1.c ****     else if(x1 > b) b = x1;
 3122              		.loc 1 812 0 is_stmt 1
 3123 00b8 B7F90220 		ldrsh	r2, [r7, #2]
 3124 00bc B7F91C30 		ldrsh	r3, [r7, #28]
 3125 00c0 9A42     		cmp	r2, r3
 3126 00c2 01DD     		ble	.L63
 3127              		.loc 1 812 0 is_stmt 0 discriminator 1
 3128 00c4 7B88     		ldrh	r3, [r7, #2]	@ movhi
 3129 00c6 BB83     		strh	r3, [r7, #28]	@ movhi
 3130              	.L63:
 813:.\Generated_Source\PSoC5/TFTSHIELD_1.c ****     if(x2 < a)      a = x2;
 3131              		.loc 1 813 0 is_stmt 1
 3132 00c8 B7F92820 		ldrsh	r2, [r7, #40]
 3133 00cc B7F91E30 		ldrsh	r3, [r7, #30]
 3134 00d0 9A42     		cmp	r2, r3
 3135 00d2 02DA     		bge	.L64
 3136              		.loc 1 813 0 is_stmt 0 discriminator 1
 3137 00d4 3B8D     		ldrh	r3, [r7, #40]	@ movhi
 3138 00d6 FB83     		strh	r3, [r7, #30]	@ movhi
 3139 00d8 07E0     		b	.L65
 3140              	.L64:
 814:.\Generated_Source\PSoC5/TFTSHIELD_1.c ****     else if(x2 > b) b = x2;
 3141              		.loc 1 814 0 is_stmt 1
 3142 00da B7F92820 		ldrsh	r2, [r7, #40]
 3143 00de B7F91C30 		ldrsh	r3, [r7, #28]
 3144 00e2 9A42     		cmp	r2, r3
 3145 00e4 01DD     		ble	.L65
 3146              		.loc 1 814 0 is_stmt 0 discriminator 1
 3147 00e6 3B8D     		ldrh	r3, [r7, #40]	@ movhi
 3148 00e8 BB83     		strh	r3, [r7, #28]	@ movhi
 3149              	.L65:
 815:.\Generated_Source\PSoC5/TFTSHIELD_1.c ****     TFTSHIELD_1DrawLine(a, y0, b-a+1, color);
 3150              		.loc 1 815 0 is_stmt 1
 3151 00ea B7F91E00 		ldrsh	r0, [r7, #30]
 3152 00ee B7F90410 		ldrsh	r1, [r7, #4]
 3153 00f2 B7F91C20 		ldrsh	r2, [r7, #28]
 3154 00f6 B7F91E30 		ldrsh	r3, [r7, #30]
 3155 00fa D31A     		subs	r3, r2, r3
 3156 00fc 03F10102 		add	r2, r3, #1
 3157 0100 3B8E     		ldrh	r3, [r7, #48]
 3158 0102 FFF7FEFF 		bl	TFTSHIELD_1DrawLine
 816:.\Generated_Source\PSoC5/TFTSHIELD_1.c ****     return;
 3159              		.loc 1 816 0
ARM GAS  C:\Users\Brian\AppData\Local\Temp\ccPAhBxt.s 			page 71


 3160 0106 7AE0     		b	.L57
 3161              	.L61:
 3162              	.LBE6:
 817:.\Generated_Source\PSoC5/TFTSHIELD_1.c ****   }
 818:.\Generated_Source\PSoC5/TFTSHIELD_1.c **** 
 819:.\Generated_Source\PSoC5/TFTSHIELD_1.c ****   int16_t
 820:.\Generated_Source\PSoC5/TFTSHIELD_1.c ****     dx01 = x1 - x0,
 3163              		.loc 1 820 0
 3164 0108 7A88     		ldrh	r2, [r7, #2]
 3165 010a FB88     		ldrh	r3, [r7, #6]
 3166 010c D31A     		subs	r3, r2, r3
 3167 010e 9BB2     		uxth	r3, r3
 3168 0110 7B82     		strh	r3, [r7, #18]	@ movhi
 821:.\Generated_Source\PSoC5/TFTSHIELD_1.c ****     dy01 = y1 - y0,
 3169              		.loc 1 821 0
 3170 0112 3A88     		ldrh	r2, [r7, #0]
 3171 0114 BB88     		ldrh	r3, [r7, #4]
 3172 0116 D31A     		subs	r3, r2, r3
 3173 0118 9BB2     		uxth	r3, r3
 3174 011a 3B82     		strh	r3, [r7, #16]	@ movhi
 822:.\Generated_Source\PSoC5/TFTSHIELD_1.c ****     dx02 = x2 - x0,
 3175              		.loc 1 822 0
 3176 011c 3A8D     		ldrh	r2, [r7, #40]
 3177 011e FB88     		ldrh	r3, [r7, #6]
 3178 0120 D31A     		subs	r3, r2, r3
 3179 0122 9BB2     		uxth	r3, r3
 3180 0124 FB81     		strh	r3, [r7, #14]	@ movhi
 823:.\Generated_Source\PSoC5/TFTSHIELD_1.c ****     dy02 = y2 - y0,
 3181              		.loc 1 823 0
 3182 0126 BA8D     		ldrh	r2, [r7, #44]
 3183 0128 BB88     		ldrh	r3, [r7, #4]
 3184 012a D31A     		subs	r3, r2, r3
 3185 012c 9BB2     		uxth	r3, r3
 3186 012e BB81     		strh	r3, [r7, #12]	@ movhi
 824:.\Generated_Source\PSoC5/TFTSHIELD_1.c ****     dx12 = x2 - x1,
 3187              		.loc 1 824 0
 3188 0130 3A8D     		ldrh	r2, [r7, #40]
 3189 0132 7B88     		ldrh	r3, [r7, #2]
 3190 0134 D31A     		subs	r3, r2, r3
 3191 0136 9BB2     		uxth	r3, r3
 3192 0138 7B81     		strh	r3, [r7, #10]	@ movhi
 825:.\Generated_Source\PSoC5/TFTSHIELD_1.c ****     dy12 = y2 - y1,
 3193              		.loc 1 825 0
 3194 013a BA8D     		ldrh	r2, [r7, #44]
 3195 013c 3B88     		ldrh	r3, [r7, #0]
 3196 013e D31A     		subs	r3, r2, r3
 3197 0140 9BB2     		uxth	r3, r3
 3198 0142 3B81     		strh	r3, [r7, #8]	@ movhi
 826:.\Generated_Source\PSoC5/TFTSHIELD_1.c ****     sa   = 0,
 3199              		.loc 1 826 0
 3200 0144 4FF00003 		mov	r3, #0
 3201 0148 FB82     		strh	r3, [r7, #22]	@ movhi
 827:.\Generated_Source\PSoC5/TFTSHIELD_1.c ****     sb   = 0;
 3202              		.loc 1 827 0
 3203 014a 4FF00003 		mov	r3, #0
 3204 014e BB82     		strh	r3, [r7, #20]	@ movhi
 828:.\Generated_Source\PSoC5/TFTSHIELD_1.c **** 
ARM GAS  C:\Users\Brian\AppData\Local\Temp\ccPAhBxt.s 			page 72


 829:.\Generated_Source\PSoC5/TFTSHIELD_1.c ****   // For upper part of triangle, find scanline crossings for segments
 830:.\Generated_Source\PSoC5/TFTSHIELD_1.c ****   // 0-1 and 0-2.  If y1=y2 (flat-bottomed triangle), the scanline y1
 831:.\Generated_Source\PSoC5/TFTSHIELD_1.c ****   // is included here (and second loop will be skipped, avoiding a /0
 832:.\Generated_Source\PSoC5/TFTSHIELD_1.c ****   // error there), otherwise scanline y1 is skipped here and handled
 833:.\Generated_Source\PSoC5/TFTSHIELD_1.c ****   // in the second loop...which also avoids a /0 error here if y0=y1
 834:.\Generated_Source\PSoC5/TFTSHIELD_1.c ****   // (flat-topped triangle).
 835:.\Generated_Source\PSoC5/TFTSHIELD_1.c ****   if(y1 == y2) last = y1;   // Include y1 scanline
 3205              		.loc 1 835 0
 3206 0150 B7F90020 		ldrsh	r2, [r7, #0]
 3207 0154 B7F92C30 		ldrsh	r3, [r7, #44]
 3208 0158 9A42     		cmp	r2, r3
 3209 015a 02D1     		bne	.L67
 3210              		.loc 1 835 0 is_stmt 0 discriminator 1
 3211 015c 3B88     		ldrh	r3, [r7, #0]	@ movhi
 3212 015e 3B83     		strh	r3, [r7, #24]	@ movhi
 3213 0160 04E0     		b	.L68
 3214              	.L67:
 836:.\Generated_Source\PSoC5/TFTSHIELD_1.c ****   else         last = y1-1; // Skip it
 3215              		.loc 1 836 0 is_stmt 1
 3216 0162 3B88     		ldrh	r3, [r7, #0]
 3217 0164 03F1FF33 		add	r3, r3, #-1
 3218 0168 9BB2     		uxth	r3, r3
 3219 016a 3B83     		strh	r3, [r7, #24]	@ movhi
 3220              	.L68:
 837:.\Generated_Source\PSoC5/TFTSHIELD_1.c **** 
 838:.\Generated_Source\PSoC5/TFTSHIELD_1.c ****   for(y=y0; y<=last; y++) {
 3221              		.loc 1 838 0
 3222 016c BB88     		ldrh	r3, [r7, #4]	@ movhi
 3223 016e 7B83     		strh	r3, [r7, #26]	@ movhi
 3224 0170 3FE0     		b	.L69
 3225              	.L71:
 3226              	.LBB7:
 839:.\Generated_Source\PSoC5/TFTSHIELD_1.c ****         a   = x0 + sa / dy01;
 3227              		.loc 1 839 0
 3228 0172 B7F91620 		ldrsh	r2, [r7, #22]
 3229 0176 B7F91030 		ldrsh	r3, [r7, #16]
 3230 017a 92FBF3F3 		sdiv	r3, r2, r3
 3231 017e 9AB2     		uxth	r2, r3
 3232 0180 FB88     		ldrh	r3, [r7, #6]
 3233 0182 D318     		adds	r3, r2, r3
 3234 0184 9BB2     		uxth	r3, r3
 3235 0186 FB83     		strh	r3, [r7, #30]	@ movhi
 840:.\Generated_Source\PSoC5/TFTSHIELD_1.c ****         b   = x0 + sb / dy02;
 3236              		.loc 1 840 0
 3237 0188 B7F91420 		ldrsh	r2, [r7, #20]
 3238 018c B7F90C30 		ldrsh	r3, [r7, #12]
 3239 0190 92FBF3F3 		sdiv	r3, r2, r3
 3240 0194 9AB2     		uxth	r2, r3
 3241 0196 FB88     		ldrh	r3, [r7, #6]
 3242 0198 D318     		adds	r3, r2, r3
 3243 019a 9BB2     		uxth	r3, r3
 3244 019c BB83     		strh	r3, [r7, #28]	@ movhi
 841:.\Generated_Source\PSoC5/TFTSHIELD_1.c ****         sa += dx01;
 3245              		.loc 1 841 0
 3246 019e FA8A     		ldrh	r2, [r7, #22]
 3247 01a0 7B8A     		ldrh	r3, [r7, #18]
 3248 01a2 D318     		adds	r3, r2, r3
ARM GAS  C:\Users\Brian\AppData\Local\Temp\ccPAhBxt.s 			page 73


 3249 01a4 9BB2     		uxth	r3, r3
 3250 01a6 FB82     		strh	r3, [r7, #22]	@ movhi
 842:.\Generated_Source\PSoC5/TFTSHIELD_1.c ****         sb += dx02;
 3251              		.loc 1 842 0
 3252 01a8 BA8A     		ldrh	r2, [r7, #20]
 3253 01aa FB89     		ldrh	r3, [r7, #14]
 3254 01ac D318     		adds	r3, r2, r3
 3255 01ae 9BB2     		uxth	r3, r3
 3256 01b0 BB82     		strh	r3, [r7, #20]	@ movhi
 843:.\Generated_Source\PSoC5/TFTSHIELD_1.c ****         /* longhand:
 844:.\Generated_Source\PSoC5/TFTSHIELD_1.c ****         a = x0 + (x1 - x0) * (y - y0) / (y1 - y0);
 845:.\Generated_Source\PSoC5/TFTSHIELD_1.c ****         b = x0 + (x2 - x0) * (y - y0) / (y2 - y0);
 846:.\Generated_Source\PSoC5/TFTSHIELD_1.c ****         */
 847:.\Generated_Source\PSoC5/TFTSHIELD_1.c ****         if(a > b) swap(a,b);
 3257              		.loc 1 847 0
 3258 01b2 B7F91E20 		ldrsh	r2, [r7, #30]
 3259 01b6 B7F91C30 		ldrsh	r3, [r7, #28]
 3260 01ba 9A42     		cmp	r2, r3
 3261 01bc 07DD     		ble	.L70
 3262              		.loc 1 847 0 is_stmt 0 discriminator 1
 3263 01be B7F91E20 		ldrsh	r2, [r7, #30]
 3264 01c2 B7F91C30 		ldrsh	r3, [r7, #28]
 3265 01c6 1046     		mov	r0, r2
 3266 01c8 1946     		mov	r1, r3
 3267 01ca FFF7FEFF 		bl	swap
 3268              	.L70:
 848:.\Generated_Source\PSoC5/TFTSHIELD_1.c ****         TFTSHIELD_1DrawLine(a, y, b-a+1, color);
 3269              		.loc 1 848 0 is_stmt 1
 3270 01ce B7F91E00 		ldrsh	r0, [r7, #30]
 3271 01d2 B7F91A10 		ldrsh	r1, [r7, #26]
 3272 01d6 B7F91C20 		ldrsh	r2, [r7, #28]
 3273 01da B7F91E30 		ldrsh	r3, [r7, #30]
 3274 01de D31A     		subs	r3, r2, r3
 3275 01e0 03F10102 		add	r2, r3, #1
 3276 01e4 3B8E     		ldrh	r3, [r7, #48]
 3277 01e6 FFF7FEFF 		bl	TFTSHIELD_1DrawLine
 3278              	.LBE7:
 838:.\Generated_Source\PSoC5/TFTSHIELD_1.c ****   for(y=y0; y<=last; y++) {
 3279              		.loc 1 838 0
 3280 01ea 7B8B     		ldrh	r3, [r7, #26]	@ movhi
 3281 01ec 03F10103 		add	r3, r3, #1
 3282 01f0 7B83     		strh	r3, [r7, #26]	@ movhi
 3283              	.L69:
 838:.\Generated_Source\PSoC5/TFTSHIELD_1.c ****   for(y=y0; y<=last; y++) {
 3284              		.loc 1 838 0 is_stmt 0 discriminator 1
 3285 01f2 B7F91A20 		ldrsh	r2, [r7, #26]
 3286 01f6 B7F91830 		ldrsh	r3, [r7, #24]
 3287 01fa 9A42     		cmp	r2, r3
 3288 01fc B9DD     		ble	.L71
 3289              	.L57:
 849:.\Generated_Source\PSoC5/TFTSHIELD_1.c ****     }
 850:.\Generated_Source\PSoC5/TFTSHIELD_1.c **** }
 3290              		.loc 1 850 0 is_stmt 1
 3291 01fe 07F12007 		add	r7, r7, #32
 3292 0202 BD46     		mov	sp, r7
 3293 0204 80BD     		pop	{r7, pc}
 3294              		.cfi_endproc
ARM GAS  C:\Users\Brian\AppData\Local\Temp\ccPAhBxt.s 			page 74


 3295              	.LFE21:
 3296              		.size	TFTSHIELD_1_FillTriangle, .-TFTSHIELD_1_FillTriangle
 3297 0206 00BF     		.section	.text.TFTSHIELD_1_DrawRoundRect,"ax",%progbits
 3298              		.align	2
 3299              		.global	TFTSHIELD_1_DrawRoundRect
 3300              		.thumb
 3301              		.thumb_func
 3302              		.type	TFTSHIELD_1_DrawRoundRect, %function
 3303              	TFTSHIELD_1_DrawRoundRect:
 3304              	.LFB22:
 851:.\Generated_Source\PSoC5/TFTSHIELD_1.c **** 
 852:.\Generated_Source\PSoC5/TFTSHIELD_1.c **** /**************************************************************************//**
 853:.\Generated_Source\PSoC5/TFTSHIELD_1.c **** *  @brief Draws a rectangle outline with rounded corners
 854:.\Generated_Source\PSoC5/TFTSHIELD_1.c **** *
 855:.\Generated_Source\PSoC5/TFTSHIELD_1.c **** *  @param x: The x coordinate
 856:.\Generated_Source\PSoC5/TFTSHIELD_1.c **** *  @param y: The y coordinate
 857:.\Generated_Source\PSoC5/TFTSHIELD_1.c **** *  @param w: The width
 858:.\Generated_Source\PSoC5/TFTSHIELD_1.c **** *  @param h: The height
 859:.\Generated_Source\PSoC5/TFTSHIELD_1.c **** *  @param r: The radius of the rounded corners
 860:.\Generated_Source\PSoC5/TFTSHIELD_1.c **** *  @param color: The color of the rectangle
 861:.\Generated_Source\PSoC5/TFTSHIELD_1.c **** *
 862:.\Generated_Source\PSoC5/TFTSHIELD_1.c **** *******************************************************************************/
 863:.\Generated_Source\PSoC5/TFTSHIELD_1.c **** void TFTSHIELD_1_DrawRoundRect(int16_t x, int16_t y, int16_t w, int16_t h,
 864:.\Generated_Source\PSoC5/TFTSHIELD_1.c ****       int16_t r, uint16_t color)
 865:.\Generated_Source\PSoC5/TFTSHIELD_1.c **** {
 3305              		.loc 1 865 0
 3306              		.cfi_startproc
 3307              		@ args = 8, pretend = 0, frame = 8
 3308              		@ frame_needed = 1, uses_anonymous_args = 0
 3309 0000 90B5     		push	{r4, r7, lr}
 3310              	.LCFI65:
 3311              		.cfi_def_cfa_offset 12
 3312              		.cfi_offset 4, -12
 3313              		.cfi_offset 7, -8
 3314              		.cfi_offset 14, -4
 3315 0002 85B0     		sub	sp, sp, #20
 3316              	.LCFI66:
 3317              		.cfi_def_cfa_offset 32
 3318 0004 02AF     		add	r7, sp, #8
 3319              	.LCFI67:
 3320              		.cfi_def_cfa 7, 24
 3321 0006 F880     		strh	r0, [r7, #6]	@ movhi
 3322 0008 B980     		strh	r1, [r7, #4]	@ movhi
 3323 000a 7A80     		strh	r2, [r7, #2]	@ movhi
 3324 000c 3B80     		strh	r3, [r7, #0]	@ movhi
 866:.\Generated_Source\PSoC5/TFTSHIELD_1.c ****     // smarter version
 867:.\Generated_Source\PSoC5/TFTSHIELD_1.c ****   TFTSHIELD_1DrawLine(x+r  , y    , w-2*r, color); // Top
 3325              		.loc 1 867 0
 3326 000e B7F90620 		ldrsh	r2, [r7, #6]
 3327 0012 B7F91830 		ldrsh	r3, [r7, #24]
 3328 0016 D018     		adds	r0, r2, r3
 3329 0018 B7F90410 		ldrsh	r1, [r7, #4]
 3330 001c B7F90240 		ldrsh	r4, [r7, #2]
 3331 0020 B7F91820 		ldrsh	r2, [r7, #24]
 3332 0024 1346     		mov	r3, r2
 3333 0026 4FEAC373 		lsl	r3, r3, #31
 3334 002a 9B1A     		subs	r3, r3, r2
ARM GAS  C:\Users\Brian\AppData\Local\Temp\ccPAhBxt.s 			page 75


 3335 002c 4FEA4303 		lsl	r3, r3, #1
 3336 0030 E218     		adds	r2, r4, r3
 3337 0032 BB8B     		ldrh	r3, [r7, #28]
 3338 0034 FFF7FEFF 		bl	TFTSHIELD_1DrawLine
 868:.\Generated_Source\PSoC5/TFTSHIELD_1.c ****   TFTSHIELD_1DrawLine(x+r  , y+h-1, w-2*r, color); // Bottom
 3339              		.loc 1 868 0
 3340 0038 B7F90620 		ldrsh	r2, [r7, #6]
 3341 003c B7F91830 		ldrsh	r3, [r7, #24]
 3342 0040 D018     		adds	r0, r2, r3
 3343 0042 B7F90420 		ldrsh	r2, [r7, #4]
 3344 0046 B7F90030 		ldrsh	r3, [r7, #0]
 3345 004a D318     		adds	r3, r2, r3
 3346 004c 03F1FF31 		add	r1, r3, #-1
 3347 0050 B7F90240 		ldrsh	r4, [r7, #2]
 3348 0054 B7F91820 		ldrsh	r2, [r7, #24]
 3349 0058 1346     		mov	r3, r2
 3350 005a 4FEAC373 		lsl	r3, r3, #31
 3351 005e 9B1A     		subs	r3, r3, r2
 3352 0060 4FEA4303 		lsl	r3, r3, #1
 3353 0064 E218     		adds	r2, r4, r3
 3354 0066 BB8B     		ldrh	r3, [r7, #28]
 3355 0068 FFF7FEFF 		bl	TFTSHIELD_1DrawLine
 869:.\Generated_Source\PSoC5/TFTSHIELD_1.c ****   TFTSHIELD_1DrawLine(x    , y+r  , h-2*r, color); // Left
 3356              		.loc 1 869 0
 3357 006c B7F90600 		ldrsh	r0, [r7, #6]
 3358 0070 B7F90420 		ldrsh	r2, [r7, #4]
 3359 0074 B7F91830 		ldrsh	r3, [r7, #24]
 3360 0078 D118     		adds	r1, r2, r3
 3361 007a B7F90040 		ldrsh	r4, [r7, #0]
 3362 007e B7F91820 		ldrsh	r2, [r7, #24]
 3363 0082 1346     		mov	r3, r2
 3364 0084 4FEAC373 		lsl	r3, r3, #31
 3365 0088 9B1A     		subs	r3, r3, r2
 3366 008a 4FEA4303 		lsl	r3, r3, #1
 3367 008e E218     		adds	r2, r4, r3
 3368 0090 BB8B     		ldrh	r3, [r7, #28]
 3369 0092 FFF7FEFF 		bl	TFTSHIELD_1DrawLine
 870:.\Generated_Source\PSoC5/TFTSHIELD_1.c ****   TFTSHIELD_1DrawLine(x+w-1, y+r  , h-2*r, color); // Right
 3370              		.loc 1 870 0
 3371 0096 B7F90620 		ldrsh	r2, [r7, #6]
 3372 009a B7F90230 		ldrsh	r3, [r7, #2]
 3373 009e D318     		adds	r3, r2, r3
 3374 00a0 03F1FF30 		add	r0, r3, #-1
 3375 00a4 B7F90420 		ldrsh	r2, [r7, #4]
 3376 00a8 B7F91830 		ldrsh	r3, [r7, #24]
 3377 00ac D118     		adds	r1, r2, r3
 3378 00ae B7F90040 		ldrsh	r4, [r7, #0]
 3379 00b2 B7F91820 		ldrsh	r2, [r7, #24]
 3380 00b6 1346     		mov	r3, r2
 3381 00b8 4FEAC373 		lsl	r3, r3, #31
 3382 00bc 9B1A     		subs	r3, r3, r2
 3383 00be 4FEA4303 		lsl	r3, r3, #1
 3384 00c2 E218     		adds	r2, r4, r3
 3385 00c4 BB8B     		ldrh	r3, [r7, #28]
 3386 00c6 FFF7FEFF 		bl	TFTSHIELD_1DrawLine
 871:.\Generated_Source\PSoC5/TFTSHIELD_1.c ****   // draw four corners
 872:.\Generated_Source\PSoC5/TFTSHIELD_1.c ****   TFTSHIELD_1_DrawCircleHelper(x+r    , y+r    , r, 1, color);
ARM GAS  C:\Users\Brian\AppData\Local\Temp\ccPAhBxt.s 			page 76


 3387              		.loc 1 872 0
 3388 00ca FA88     		ldrh	r2, [r7, #6]
 3389 00cc 3B8B     		ldrh	r3, [r7, #24]
 3390 00ce D318     		adds	r3, r2, r3
 3391 00d0 9BB2     		uxth	r3, r3
 3392 00d2 9AB2     		uxth	r2, r3
 3393 00d4 B988     		ldrh	r1, [r7, #4]
 3394 00d6 3B8B     		ldrh	r3, [r7, #24]
 3395 00d8 CB18     		adds	r3, r1, r3
 3396 00da 9BB2     		uxth	r3, r3
 3397 00dc 9BB2     		uxth	r3, r3
 3398 00de 11B2     		sxth	r1, r2
 3399 00e0 1AB2     		sxth	r2, r3
 3400 00e2 B7F91830 		ldrsh	r3, [r7, #24]
 3401 00e6 B88B     		ldrh	r0, [r7, #28]
 3402 00e8 0090     		str	r0, [sp, #0]
 3403 00ea 0846     		mov	r0, r1
 3404 00ec 1146     		mov	r1, r2
 3405 00ee 1A46     		mov	r2, r3
 3406 00f0 4FF00103 		mov	r3, #1
 3407 00f4 FFF7FEFF 		bl	TFTSHIELD_1_DrawCircleHelper
 873:.\Generated_Source\PSoC5/TFTSHIELD_1.c ****   TFTSHIELD_1_DrawCircleHelper(x+w-r-1, y+r    , r, 2, color);
 3408              		.loc 1 873 0
 3409 00f8 FA88     		ldrh	r2, [r7, #6]
 3410 00fa 7B88     		ldrh	r3, [r7, #2]
 3411 00fc D318     		adds	r3, r2, r3
 3412 00fe 9AB2     		uxth	r2, r3
 3413 0100 3B8B     		ldrh	r3, [r7, #24]
 3414 0102 D31A     		subs	r3, r2, r3
 3415 0104 9BB2     		uxth	r3, r3
 3416 0106 03F1FF33 		add	r3, r3, #-1
 3417 010a 9BB2     		uxth	r3, r3
 3418 010c 9AB2     		uxth	r2, r3
 3419 010e B988     		ldrh	r1, [r7, #4]
 3420 0110 3B8B     		ldrh	r3, [r7, #24]
 3421 0112 CB18     		adds	r3, r1, r3
 3422 0114 9BB2     		uxth	r3, r3
 3423 0116 9BB2     		uxth	r3, r3
 3424 0118 11B2     		sxth	r1, r2
 3425 011a 1AB2     		sxth	r2, r3
 3426 011c B7F91830 		ldrsh	r3, [r7, #24]
 3427 0120 B88B     		ldrh	r0, [r7, #28]
 3428 0122 0090     		str	r0, [sp, #0]
 3429 0124 0846     		mov	r0, r1
 3430 0126 1146     		mov	r1, r2
 3431 0128 1A46     		mov	r2, r3
 3432 012a 4FF00203 		mov	r3, #2
 3433 012e FFF7FEFF 		bl	TFTSHIELD_1_DrawCircleHelper
 874:.\Generated_Source\PSoC5/TFTSHIELD_1.c ****   TFTSHIELD_1_DrawCircleHelper(x+w-r-1, y+h-r-1, r, 4, color);
 3434              		.loc 1 874 0
 3435 0132 FA88     		ldrh	r2, [r7, #6]
 3436 0134 7B88     		ldrh	r3, [r7, #2]
 3437 0136 D318     		adds	r3, r2, r3
 3438 0138 9AB2     		uxth	r2, r3
 3439 013a 3B8B     		ldrh	r3, [r7, #24]
 3440 013c D31A     		subs	r3, r2, r3
 3441 013e 9BB2     		uxth	r3, r3
ARM GAS  C:\Users\Brian\AppData\Local\Temp\ccPAhBxt.s 			page 77


 3442 0140 03F1FF33 		add	r3, r3, #-1
 3443 0144 9BB2     		uxth	r3, r3
 3444 0146 9AB2     		uxth	r2, r3
 3445 0148 B988     		ldrh	r1, [r7, #4]
 3446 014a 3B88     		ldrh	r3, [r7, #0]
 3447 014c CB18     		adds	r3, r1, r3
 3448 014e 99B2     		uxth	r1, r3
 3449 0150 3B8B     		ldrh	r3, [r7, #24]
 3450 0152 CB1A     		subs	r3, r1, r3
 3451 0154 9BB2     		uxth	r3, r3
 3452 0156 03F1FF33 		add	r3, r3, #-1
 3453 015a 9BB2     		uxth	r3, r3
 3454 015c 9BB2     		uxth	r3, r3
 3455 015e 11B2     		sxth	r1, r2
 3456 0160 1AB2     		sxth	r2, r3
 3457 0162 B7F91830 		ldrsh	r3, [r7, #24]
 3458 0166 B88B     		ldrh	r0, [r7, #28]
 3459 0168 0090     		str	r0, [sp, #0]
 3460 016a 0846     		mov	r0, r1
 3461 016c 1146     		mov	r1, r2
 3462 016e 1A46     		mov	r2, r3
 3463 0170 4FF00403 		mov	r3, #4
 3464 0174 FFF7FEFF 		bl	TFTSHIELD_1_DrawCircleHelper
 875:.\Generated_Source\PSoC5/TFTSHIELD_1.c ****   TFTSHIELD_1_DrawCircleHelper(x+r    , y+h-r-1, r, 8, color);
 3465              		.loc 1 875 0
 3466 0178 FA88     		ldrh	r2, [r7, #6]
 3467 017a 3B8B     		ldrh	r3, [r7, #24]
 3468 017c D318     		adds	r3, r2, r3
 3469 017e 9BB2     		uxth	r3, r3
 3470 0180 9AB2     		uxth	r2, r3
 3471 0182 B988     		ldrh	r1, [r7, #4]
 3472 0184 3B88     		ldrh	r3, [r7, #0]
 3473 0186 CB18     		adds	r3, r1, r3
 3474 0188 99B2     		uxth	r1, r3
 3475 018a 3B8B     		ldrh	r3, [r7, #24]
 3476 018c CB1A     		subs	r3, r1, r3
 3477 018e 9BB2     		uxth	r3, r3
 3478 0190 03F1FF33 		add	r3, r3, #-1
 3479 0194 9BB2     		uxth	r3, r3
 3480 0196 9BB2     		uxth	r3, r3
 3481 0198 11B2     		sxth	r1, r2
 3482 019a 1AB2     		sxth	r2, r3
 3483 019c B7F91830 		ldrsh	r3, [r7, #24]
 3484 01a0 B88B     		ldrh	r0, [r7, #28]
 3485 01a2 0090     		str	r0, [sp, #0]
 3486 01a4 0846     		mov	r0, r1
 3487 01a6 1146     		mov	r1, r2
 3488 01a8 1A46     		mov	r2, r3
 3489 01aa 4FF00803 		mov	r3, #8
 3490 01ae FFF7FEFF 		bl	TFTSHIELD_1_DrawCircleHelper
 876:.\Generated_Source\PSoC5/TFTSHIELD_1.c **** }
 3491              		.loc 1 876 0
 3492 01b2 07F10C07 		add	r7, r7, #12
 3493 01b6 BD46     		mov	sp, r7
 3494 01b8 90BD     		pop	{r4, r7, pc}
 3495              		.cfi_endproc
 3496              	.LFE22:
ARM GAS  C:\Users\Brian\AppData\Local\Temp\ccPAhBxt.s 			page 78


 3497              		.size	TFTSHIELD_1_DrawRoundRect, .-TFTSHIELD_1_DrawRoundRect
 3498 01ba 00BF     		.section	.text.TFTSHIELD_1_FillRoundRect,"ax",%progbits
 3499              		.align	2
 3500              		.global	TFTSHIELD_1_FillRoundRect
 3501              		.thumb
 3502              		.thumb_func
 3503              		.type	TFTSHIELD_1_FillRoundRect, %function
 3504              	TFTSHIELD_1_FillRoundRect:
 3505              	.LFB23:
 877:.\Generated_Source\PSoC5/TFTSHIELD_1.c **** 
 878:.\Generated_Source\PSoC5/TFTSHIELD_1.c **** /**************************************************************************//**
 879:.\Generated_Source\PSoC5/TFTSHIELD_1.c **** *  @brief Draws a rectangle filled with the specified color and with rounded corners
 880:.\Generated_Source\PSoC5/TFTSHIELD_1.c **** *
 881:.\Generated_Source\PSoC5/TFTSHIELD_1.c **** *  @param x: The x coordinate
 882:.\Generated_Source\PSoC5/TFTSHIELD_1.c **** *  @param y: The y coordinate
 883:.\Generated_Source\PSoC5/TFTSHIELD_1.c **** *  @param w: The width
 884:.\Generated_Source\PSoC5/TFTSHIELD_1.c **** *  @param h: The height
 885:.\Generated_Source\PSoC5/TFTSHIELD_1.c **** *  @param r: The radius of the rounded corners
 886:.\Generated_Source\PSoC5/TFTSHIELD_1.c **** *  @param color: The color of the rectangle
 887:.\Generated_Source\PSoC5/TFTSHIELD_1.c **** *
 888:.\Generated_Source\PSoC5/TFTSHIELD_1.c **** *******************************************************************************/
 889:.\Generated_Source\PSoC5/TFTSHIELD_1.c **** void TFTSHIELD_1_FillRoundRect(int16_t x, int16_t y, int16_t w, int16_t h,
 890:.\Generated_Source\PSoC5/TFTSHIELD_1.c ****       int16_t r, uint16_t color)
 891:.\Generated_Source\PSoC5/TFTSHIELD_1.c **** {
 3506              		.loc 1 891 0
 3507              		.cfi_startproc
 3508              		@ args = 8, pretend = 0, frame = 8
 3509              		@ frame_needed = 1, uses_anonymous_args = 0
 3510 0000 90B5     		push	{r4, r7, lr}
 3511              	.LCFI68:
 3512              		.cfi_def_cfa_offset 12
 3513              		.cfi_offset 4, -12
 3514              		.cfi_offset 7, -8
 3515              		.cfi_offset 14, -4
 3516 0002 85B0     		sub	sp, sp, #20
 3517              	.LCFI69:
 3518              		.cfi_def_cfa_offset 32
 3519 0004 02AF     		add	r7, sp, #8
 3520              	.LCFI70:
 3521              		.cfi_def_cfa 7, 24
 3522 0006 F880     		strh	r0, [r7, #6]	@ movhi
 3523 0008 B980     		strh	r1, [r7, #4]	@ movhi
 3524 000a 7A80     		strh	r2, [r7, #2]	@ movhi
 3525 000c 3B80     		strh	r3, [r7, #0]	@ movhi
 892:.\Generated_Source\PSoC5/TFTSHIELD_1.c ****     // smarter version
 893:.\Generated_Source\PSoC5/TFTSHIELD_1.c ****   TFTSHIELD_1_FillRect(x+r, y, w-2*r, h, color);
 3526              		.loc 1 893 0
 3527 000e FA88     		ldrh	r2, [r7, #6]
 3528 0010 3B8B     		ldrh	r3, [r7, #24]
 3529 0012 D318     		adds	r3, r2, r3
 3530 0014 9BB2     		uxth	r3, r3
 3531 0016 9AB2     		uxth	r2, r3
 3532 0018 3B8B     		ldrh	r3, [r7, #24]
 3533 001a 1946     		mov	r1, r3	@ movhi
 3534 001c 4FEAC131 		lsl	r1, r1, #15
 3535 0020 CB1A     		subs	r3, r1, r3
 3536 0022 4FEA4303 		lsl	r3, r3, #1
ARM GAS  C:\Users\Brian\AppData\Local\Temp\ccPAhBxt.s 			page 79


 3537 0026 99B2     		uxth	r1, r3
 3538 0028 7B88     		ldrh	r3, [r7, #2]
 3539 002a CB18     		adds	r3, r1, r3
 3540 002c 9BB2     		uxth	r3, r3
 3541 002e 9BB2     		uxth	r3, r3
 3542 0030 10B2     		sxth	r0, r2
 3543 0032 B7F90410 		ldrsh	r1, [r7, #4]
 3544 0036 1AB2     		sxth	r2, r3
 3545 0038 B7F90030 		ldrsh	r3, [r7, #0]
 3546 003c BC8B     		ldrh	r4, [r7, #28]
 3547 003e 0094     		str	r4, [sp, #0]
 3548 0040 FFF7FEFF 		bl	TFTSHIELD_1_FillRect
 894:.\Generated_Source\PSoC5/TFTSHIELD_1.c **** 
 895:.\Generated_Source\PSoC5/TFTSHIELD_1.c ****   // draw four corners
 896:.\Generated_Source\PSoC5/TFTSHIELD_1.c ****   TFTSHIELD_1_FillCircleHelper(x+w-r-1, y+r, r, 1, h-2*r-1, color);
 3549              		.loc 1 896 0
 3550 0044 FA88     		ldrh	r2, [r7, #6]
 3551 0046 7B88     		ldrh	r3, [r7, #2]
 3552 0048 D318     		adds	r3, r2, r3
 3553 004a 9AB2     		uxth	r2, r3
 3554 004c 3B8B     		ldrh	r3, [r7, #24]
 3555 004e D31A     		subs	r3, r2, r3
 3556 0050 9BB2     		uxth	r3, r3
 3557 0052 03F1FF33 		add	r3, r3, #-1
 3558 0056 9BB2     		uxth	r3, r3
 3559 0058 99B2     		uxth	r1, r3
 3560 005a BA88     		ldrh	r2, [r7, #4]
 3561 005c 3B8B     		ldrh	r3, [r7, #24]
 3562 005e D318     		adds	r3, r2, r3
 3563 0060 9BB2     		uxth	r3, r3
 3564 0062 9AB2     		uxth	r2, r3
 3565 0064 3B8B     		ldrh	r3, [r7, #24]
 3566 0066 1846     		mov	r0, r3	@ movhi
 3567 0068 4FEAC030 		lsl	r0, r0, #15
 3568 006c C31A     		subs	r3, r0, r3
 3569 006e 4FEA4303 		lsl	r3, r3, #1
 3570 0072 98B2     		uxth	r0, r3
 3571 0074 3B88     		ldrh	r3, [r7, #0]
 3572 0076 C318     		adds	r3, r0, r3
 3573 0078 9BB2     		uxth	r3, r3
 3574 007a 03F1FF33 		add	r3, r3, #-1
 3575 007e 9BB2     		uxth	r3, r3
 3576 0080 98B2     		uxth	r0, r3
 3577 0082 09B2     		sxth	r1, r1
 3578 0084 12B2     		sxth	r2, r2
 3579 0086 B7F91830 		ldrsh	r3, [r7, #24]
 3580 008a 00B2     		sxth	r0, r0
 3581 008c 0090     		str	r0, [sp, #0]
 3582 008e B88B     		ldrh	r0, [r7, #28]
 3583 0090 0190     		str	r0, [sp, #4]
 3584 0092 0846     		mov	r0, r1
 3585 0094 1146     		mov	r1, r2
 3586 0096 1A46     		mov	r2, r3
 3587 0098 4FF00103 		mov	r3, #1
 3588 009c FFF7FEFF 		bl	TFTSHIELD_1_FillCircleHelper
 897:.\Generated_Source\PSoC5/TFTSHIELD_1.c ****   TFTSHIELD_1_FillCircleHelper(x+r    , y+r, r, 2, h-2*r-1, color);
 3589              		.loc 1 897 0
ARM GAS  C:\Users\Brian\AppData\Local\Temp\ccPAhBxt.s 			page 80


 3590 00a0 FA88     		ldrh	r2, [r7, #6]
 3591 00a2 3B8B     		ldrh	r3, [r7, #24]
 3592 00a4 D318     		adds	r3, r2, r3
 3593 00a6 9BB2     		uxth	r3, r3
 3594 00a8 99B2     		uxth	r1, r3
 3595 00aa BA88     		ldrh	r2, [r7, #4]
 3596 00ac 3B8B     		ldrh	r3, [r7, #24]
 3597 00ae D318     		adds	r3, r2, r3
 3598 00b0 9BB2     		uxth	r3, r3
 3599 00b2 9AB2     		uxth	r2, r3
 3600 00b4 3B8B     		ldrh	r3, [r7, #24]
 3601 00b6 1846     		mov	r0, r3	@ movhi
 3602 00b8 4FEAC030 		lsl	r0, r0, #15
 3603 00bc C31A     		subs	r3, r0, r3
 3604 00be 4FEA4303 		lsl	r3, r3, #1
 3605 00c2 98B2     		uxth	r0, r3
 3606 00c4 3B88     		ldrh	r3, [r7, #0]
 3607 00c6 C318     		adds	r3, r0, r3
 3608 00c8 9BB2     		uxth	r3, r3
 3609 00ca 03F1FF33 		add	r3, r3, #-1
 3610 00ce 9BB2     		uxth	r3, r3
 3611 00d0 98B2     		uxth	r0, r3
 3612 00d2 09B2     		sxth	r1, r1
 3613 00d4 12B2     		sxth	r2, r2
 3614 00d6 B7F91830 		ldrsh	r3, [r7, #24]
 3615 00da 00B2     		sxth	r0, r0
 3616 00dc 0090     		str	r0, [sp, #0]
 3617 00de B88B     		ldrh	r0, [r7, #28]
 3618 00e0 0190     		str	r0, [sp, #4]
 3619 00e2 0846     		mov	r0, r1
 3620 00e4 1146     		mov	r1, r2
 3621 00e6 1A46     		mov	r2, r3
 3622 00e8 4FF00203 		mov	r3, #2
 3623 00ec FFF7FEFF 		bl	TFTSHIELD_1_FillCircleHelper
 898:.\Generated_Source\PSoC5/TFTSHIELD_1.c **** }
 3624              		.loc 1 898 0
 3625 00f0 07F10C07 		add	r7, r7, #12
 3626 00f4 BD46     		mov	sp, r7
 3627 00f6 90BD     		pop	{r4, r7, pc}
 3628              		.cfi_endproc
 3629              	.LFE23:
 3630              		.size	TFTSHIELD_1_FillRoundRect, .-TFTSHIELD_1_FillRoundRect
 3631              		.section	.text.TFTSHIELD_1_Print,"ax",%progbits
 3632              		.align	2
 3633              		.global	TFTSHIELD_1_Print
 3634              		.thumb
 3635              		.thumb_func
 3636              		.type	TFTSHIELD_1_Print, %function
 3637              	TFTSHIELD_1_Print:
 3638              	.LFB24:
 899:.\Generated_Source\PSoC5/TFTSHIELD_1.c **** 
 900:.\Generated_Source\PSoC5/TFTSHIELD_1.c **** 
 901:.\Generated_Source\PSoC5/TFTSHIELD_1.c **** /**************************************************************************//**
 902:.\Generated_Source\PSoC5/TFTSHIELD_1.c **** *  @brief Prints a string of ascii txt
 903:.\Generated_Source\PSoC5/TFTSHIELD_1.c **** *
 904:.\Generated_Source\PSoC5/TFTSHIELD_1.c **** *  @param string: The string to print
 905:.\Generated_Source\PSoC5/TFTSHIELD_1.c **** *
ARM GAS  C:\Users\Brian\AppData\Local\Temp\ccPAhBxt.s 			page 81


 906:.\Generated_Source\PSoC5/TFTSHIELD_1.c **** *******************************************************************************/
 907:.\Generated_Source\PSoC5/TFTSHIELD_1.c **** void TFTSHIELD_1_Print(char8 const string[]) 
 908:.\Generated_Source\PSoC5/TFTSHIELD_1.c **** {
 3639              		.loc 1 908 0
 3640              		.cfi_startproc
 3641              		@ args = 0, pretend = 0, frame = 16
 3642              		@ frame_needed = 1, uses_anonymous_args = 0
 3643 0000 80B5     		push	{r7, lr}
 3644              	.LCFI71:
 3645              		.cfi_def_cfa_offset 8
 3646              		.cfi_offset 7, -8
 3647              		.cfi_offset 14, -4
 3648 0002 84B0     		sub	sp, sp, #16
 3649              	.LCFI72:
 3650              		.cfi_def_cfa_offset 24
 3651 0004 00AF     		add	r7, sp, #0
 3652              	.LCFI73:
 3653              		.cfi_def_cfa_register 7
 3654 0006 7860     		str	r0, [r7, #4]
 909:.\Generated_Source\PSoC5/TFTSHIELD_1.c ****     uint8 indexU8 = 1u;
 3655              		.loc 1 909 0
 3656 0008 4FF00103 		mov	r3, #1
 3657 000c FB73     		strb	r3, [r7, #15]
 910:.\Generated_Source\PSoC5/TFTSHIELD_1.c ****     char8 current = *string;
 3658              		.loc 1 910 0
 3659 000e 7B68     		ldr	r3, [r7, #4]
 3660 0010 1B78     		ldrb	r3, [r3, #0]
 3661 0012 BB73     		strb	r3, [r7, #14]
 911:.\Generated_Source\PSoC5/TFTSHIELD_1.c **** 
 912:.\Generated_Source\PSoC5/TFTSHIELD_1.c ****     /* Until null is reached, print next character */
 913:.\Generated_Source\PSoC5/TFTSHIELD_1.c ****     while((char8) '\0' != current)
 3662              		.loc 1 913 0
 3663 0014 0CE0     		b	.L75
 3664              	.L76:
 914:.\Generated_Source\PSoC5/TFTSHIELD_1.c ****     {
 915:.\Generated_Source\PSoC5/TFTSHIELD_1.c ****         TFTSHIELD_1_Write((uint8)current);
 3665              		.loc 1 915 0
 3666 0016 BB7B     		ldrb	r3, [r7, #14]	@ zero_extendqisi2
 3667 0018 1846     		mov	r0, r3
 3668 001a FFF7FEFF 		bl	TFTSHIELD_1_Write
 916:.\Generated_Source\PSoC5/TFTSHIELD_1.c ****         current = string[indexU8];
 3669              		.loc 1 916 0
 3670 001e FB7B     		ldrb	r3, [r7, #15]	@ zero_extendqisi2
 3671 0020 7A68     		ldr	r2, [r7, #4]
 3672 0022 D318     		adds	r3, r2, r3
 3673 0024 1B78     		ldrb	r3, [r3, #0]
 3674 0026 BB73     		strb	r3, [r7, #14]
 917:.\Generated_Source\PSoC5/TFTSHIELD_1.c ****         indexU8++;
 3675              		.loc 1 917 0
 3676 0028 FB7B     		ldrb	r3, [r7, #15]
 3677 002a 03F10103 		add	r3, r3, #1
 3678 002e FB73     		strb	r3, [r7, #15]
 3679              	.L75:
 913:.\Generated_Source\PSoC5/TFTSHIELD_1.c ****     while((char8) '\0' != current)
 3680              		.loc 1 913 0 discriminator 1
 3681 0030 BB7B     		ldrb	r3, [r7, #14]	@ zero_extendqisi2
 3682 0032 002B     		cmp	r3, #0
ARM GAS  C:\Users\Brian\AppData\Local\Temp\ccPAhBxt.s 			page 82


 3683 0034 EFD1     		bne	.L76
 918:.\Generated_Source\PSoC5/TFTSHIELD_1.c ****     }
 919:.\Generated_Source\PSoC5/TFTSHIELD_1.c **** }
 3684              		.loc 1 919 0
 3685 0036 07F11007 		add	r7, r7, #16
 3686 003a BD46     		mov	sp, r7
 3687 003c 80BD     		pop	{r7, pc}
 3688              		.cfi_endproc
 3689              	.LFE24:
 3690              		.size	TFTSHIELD_1_Print, .-TFTSHIELD_1_Print
 3691 003e 00BF     		.section	.rodata
 3692              		.align	2
 3693              	.LC0:
 3694 0300 200900   		.ascii	" \011\000"
 3695 0303 00       		.align	2
 3696              	.LC1:
 3697 0304 2000     		.ascii	" \000"
 3698 0306 0000     		.section	.text.TFTSHIELD_1_PrintString,"ax",%progbits
 3699              		.align	2
 3700              		.global	TFTSHIELD_1_PrintString
 3701              		.thumb
 3702              		.thumb_func
 3703              		.type	TFTSHIELD_1_PrintString, %function
 3704              	TFTSHIELD_1_PrintString:
 3705              	.LFB25:
 920:.\Generated_Source\PSoC5/TFTSHIELD_1.c **** 
 921:.\Generated_Source\PSoC5/TFTSHIELD_1.c **** /**************************************************************************//**
 922:.\Generated_Source\PSoC5/TFTSHIELD_1.c **** *  @brief Prints a string of ascii txt with word wrap
 923:.\Generated_Source\PSoC5/TFTSHIELD_1.c **** *
 924:.\Generated_Source\PSoC5/TFTSHIELD_1.c **** *  @param string: The string to print
 925:.\Generated_Source\PSoC5/TFTSHIELD_1.c **** *
 926:.\Generated_Source\PSoC5/TFTSHIELD_1.c **** *******************************************************************************/
 927:.\Generated_Source\PSoC5/TFTSHIELD_1.c **** void TFTSHIELD_1_PrintString(char8 string[])
 928:.\Generated_Source\PSoC5/TFTSHIELD_1.c **** {
 3706              		.loc 1 928 0
 3707              		.cfi_startproc
 3708              		@ args = 0, pretend = 0, frame = 1056
 3709              		@ frame_needed = 1, uses_anonymous_args = 0
 3710 0000 90B5     		push	{r4, r7, lr}
 3711              	.LCFI74:
 3712              		.cfi_def_cfa_offset 12
 3713              		.cfi_offset 4, -12
 3714              		.cfi_offset 7, -8
 3715              		.cfi_offset 14, -4
 3716 0002 ADF2244D 		subw	sp, sp, #1060
 3717              	.LCFI75:
 3718              		.cfi_def_cfa_offset 1072
 3719 0006 00AF     		add	r7, sp, #0
 3720              	.LCFI76:
 3721              		.cfi_def_cfa_register 7
 3722 0008 07F10403 		add	r3, r7, #4
 3723 000c 1860     		str	r0, [r3, #0]
 929:.\Generated_Source\PSoC5/TFTSHIELD_1.c **** 	char * st = string;
 3724              		.loc 1 929 0
 3725 000e 07F10403 		add	r3, r7, #4
 3726 0012 1B68     		ldr	r3, [r3, #0]
 3727 0014 C7F81434 		str	r3, [r7, #1044]
ARM GAS  C:\Users\Brian\AppData\Local\Temp\ccPAhBxt.s 			page 83


 930:.\Generated_Source\PSoC5/TFTSHIELD_1.c **** 	char temp[1024];
 931:.\Generated_Source\PSoC5/TFTSHIELD_1.c **** 	strcpy(temp,st);
 3728              		.loc 1 931 0
 3729 0018 07F10C03 		add	r3, r7, #12
 3730 001c 1846     		mov	r0, r3
 3731 001e D7F81414 		ldr	r1, [r7, #1044]
 3732 0022 FFF7FEFF 		bl	strcpy
 932:.\Generated_Source\PSoC5/TFTSHIELD_1.c **** 	
 933:.\Generated_Source\PSoC5/TFTSHIELD_1.c **** 	char * word;
 934:.\Generated_Source\PSoC5/TFTSHIELD_1.c **** 	char * unused;
 935:.\Generated_Source\PSoC5/TFTSHIELD_1.c **** 	//separate words in string
 936:.\Generated_Source\PSoC5/TFTSHIELD_1.c **** 	word = strtok(temp, " \t");
 3733              		.loc 1 936 0
 3734 0026 07F10C03 		add	r3, r7, #12
 3735 002a 1846     		mov	r0, r3
 3736 002c 40F20001 		movw	r1, #:lower16:.LC0
 3737 0030 C0F20001 		movt	r1, #:upper16:.LC0
 3738 0034 FFF7FEFF 		bl	strtok
 3739 0038 C7F81C04 		str	r0, [r7, #1052]
 937:.\Generated_Source\PSoC5/TFTSHIELD_1.c **** 	int line_width = _width - textsize*6;
 3740              		.loc 1 937 0
 3741 003c 40F20003 		movw	r3, #:lower16:textsize
 3742 0040 C0F20003 		movt	r3, #:upper16:textsize
 3743 0044 1B78     		ldrb	r3, [r3, #0]	@ zero_extendqisi2
 3744 0046 1A46     		mov	r2, r3
 3745 0048 1346     		mov	r3, r2
 3746 004a 4FEA8202 		lsl	r2, r2, #2
 3747 004e 9B1A     		subs	r3, r3, r2
 3748 0050 4FEA4303 		lsl	r3, r3, #1
 3749 0054 1A46     		mov	r2, r3
 3750 0056 40F20003 		movw	r3, #:lower16:_width
 3751 005a C0F20003 		movt	r3, #:upper16:_width
 3752 005e 1B68     		ldr	r3, [r3, #0]
 3753 0060 D318     		adds	r3, r2, r3
 3754 0062 C7F81034 		str	r3, [r7, #1040]
 938:.\Generated_Source\PSoC5/TFTSHIELD_1.c **** 	int space_left = line_width - cursor_x;
 3755              		.loc 1 938 0
 3756 0066 40F20003 		movw	r3, #:lower16:cursor_x
 3757 006a C0F20003 		movt	r3, #:upper16:cursor_x
 3758 006e 1B88     		ldrh	r3, [r3, #0]
 3759 0070 1BB2     		sxth	r3, r3
 3760 0072 D7F81024 		ldr	r2, [r7, #1040]
 3761 0076 D31A     		subs	r3, r2, r3
 3762 0078 C7F81834 		str	r3, [r7, #1048]
 939:.\Generated_Source\PSoC5/TFTSHIELD_1.c **** 	int length_word = 0;
 3763              		.loc 1 939 0
 3764 007c 4FF00003 		mov	r3, #0
 3765 0080 C7F80C34 		str	r3, [r7, #1036]
 940:.\Generated_Source\PSoC5/TFTSHIELD_1.c **** 	//each char is textsize*6
 941:.\Generated_Source\PSoC5/TFTSHIELD_1.c **** 	//need to strtok string to get individual words for word wrap
 942:.\Generated_Source\PSoC5/TFTSHIELD_1.c **** 	while ( word != NULL )
 3766              		.loc 1 942 0
 3767 0084 67E0     		b	.L78
 3768              	.L81:
 943:.\Generated_Source\PSoC5/TFTSHIELD_1.c **** 	{
 944:.\Generated_Source\PSoC5/TFTSHIELD_1.c **** 		
 945:.\Generated_Source\PSoC5/TFTSHIELD_1.c **** 		//print word if it fits on screen
ARM GAS  C:\Users\Brian\AppData\Local\Temp\ccPAhBxt.s 			page 84


 946:.\Generated_Source\PSoC5/TFTSHIELD_1.c **** 		length_word = textsize*6*strlen(word);
 3769              		.loc 1 946 0
 3770 0086 40F20003 		movw	r3, #:lower16:textsize
 3771 008a C0F20003 		movt	r3, #:upper16:textsize
 3772 008e 1B78     		ldrb	r3, [r3, #0]	@ zero_extendqisi2
 3773 0090 1C46     		mov	r4, r3
 3774 0092 D7F81C04 		ldr	r0, [r7, #1052]
 3775 0096 FFF7FEFF 		bl	strlen
 3776 009a 0346     		mov	r3, r0
 3777 009c 03FB04F2 		mul	r2, r3, r4
 3778 00a0 1346     		mov	r3, r2
 3779 00a2 4FEA4303 		lsl	r3, r3, #1
 3780 00a6 9B18     		adds	r3, r3, r2
 3781 00a8 4FEA4303 		lsl	r3, r3, #1
 3782 00ac C7F80C34 		str	r3, [r7, #1036]
 947:.\Generated_Source\PSoC5/TFTSHIELD_1.c **** 		//space = textsize*6
 948:.\Generated_Source\PSoC5/TFTSHIELD_1.c **** 		if(length_word > space_left)
 3783              		.loc 1 948 0
 3784 00b0 D7F80C24 		ldr	r2, [r7, #1036]
 3785 00b4 D7F81834 		ldr	r3, [r7, #1048]
 3786 00b8 9A42     		cmp	r2, r3
 3787 00ba 24DD     		ble	.L79
 949:.\Generated_Source\PSoC5/TFTSHIELD_1.c **** 		{
 950:.\Generated_Source\PSoC5/TFTSHIELD_1.c **** 			cursor_y += textsize*8;
 3788              		.loc 1 950 0
 3789 00bc 40F20003 		movw	r3, #:lower16:textsize
 3790 00c0 C0F20003 		movt	r3, #:upper16:textsize
 3791 00c4 1B78     		ldrb	r3, [r3, #0]	@ zero_extendqisi2
 3792 00c6 4FEAC303 		lsl	r3, r3, #3
 3793 00ca 9AB2     		uxth	r2, r3
 3794 00cc 40F20003 		movw	r3, #:lower16:cursor_y
 3795 00d0 C0F20003 		movt	r3, #:upper16:cursor_y
 3796 00d4 1B88     		ldrh	r3, [r3, #0]
 3797 00d6 9BB2     		uxth	r3, r3
 3798 00d8 D318     		adds	r3, r2, r3
 3799 00da 9BB2     		uxth	r3, r3
 3800 00dc 9AB2     		uxth	r2, r3
 3801 00de 40F20003 		movw	r3, #:lower16:cursor_y
 3802 00e2 C0F20003 		movt	r3, #:upper16:cursor_y
 3803 00e6 1A80     		strh	r2, [r3, #0]	@ movhi
 951:.\Generated_Source\PSoC5/TFTSHIELD_1.c **** 			cursor_x = 0;
 3804              		.loc 1 951 0
 3805 00e8 40F20003 		movw	r3, #:lower16:cursor_x
 3806 00ec C0F20003 		movt	r3, #:upper16:cursor_x
 3807 00f0 4FF00002 		mov	r2, #0
 3808 00f4 1A80     		strh	r2, [r3, #0]	@ movhi
 952:.\Generated_Source\PSoC5/TFTSHIELD_1.c **** 			space_left = line_width - length_word;
 3809              		.loc 1 952 0
 3810 00f6 D7F81024 		ldr	r2, [r7, #1040]
 3811 00fa D7F80C34 		ldr	r3, [r7, #1036]
 3812 00fe D31A     		subs	r3, r2, r3
 3813 0100 C7F81834 		str	r3, [r7, #1048]
 3814 0104 13E0     		b	.L80
 3815              	.L79:
 953:.\Generated_Source\PSoC5/TFTSHIELD_1.c **** 			
 954:.\Generated_Source\PSoC5/TFTSHIELD_1.c **** 		}
 955:.\Generated_Source\PSoC5/TFTSHIELD_1.c **** 		else
ARM GAS  C:\Users\Brian\AppData\Local\Temp\ccPAhBxt.s 			page 85


 956:.\Generated_Source\PSoC5/TFTSHIELD_1.c **** 		{
 957:.\Generated_Source\PSoC5/TFTSHIELD_1.c **** 			space_left = space_left - length_word - (textsize*6);
 3816              		.loc 1 957 0
 3817 0106 D7F81824 		ldr	r2, [r7, #1048]
 3818 010a D7F80C34 		ldr	r3, [r7, #1036]
 3819 010e D11A     		subs	r1, r2, r3
 3820 0110 40F20003 		movw	r3, #:lower16:textsize
 3821 0114 C0F20003 		movt	r3, #:upper16:textsize
 3822 0118 1B78     		ldrb	r3, [r3, #0]	@ zero_extendqisi2
 3823 011a 1A46     		mov	r2, r3
 3824 011c 1346     		mov	r3, r2
 3825 011e 4FEA8202 		lsl	r2, r2, #2
 3826 0122 9B1A     		subs	r3, r3, r2
 3827 0124 4FEA4303 		lsl	r3, r3, #1
 3828 0128 CB18     		adds	r3, r1, r3
 3829 012a C7F81834 		str	r3, [r7, #1048]
 3830              	.L80:
 958:.\Generated_Source\PSoC5/TFTSHIELD_1.c **** 		}
 959:.\Generated_Source\PSoC5/TFTSHIELD_1.c **** 		//print word
 960:.\Generated_Source\PSoC5/TFTSHIELD_1.c **** 		TFTSHIELD_1_Print(word);
 3831              		.loc 1 960 0
 3832 012e D7F81C04 		ldr	r0, [r7, #1052]
 3833 0132 FFF7FEFF 		bl	TFTSHIELD_1_Print
 961:.\Generated_Source\PSoC5/TFTSHIELD_1.c **** 		//print space
 962:.\Generated_Source\PSoC5/TFTSHIELD_1.c **** 		TFTSHIELD_1_Print(" ");
 3834              		.loc 1 962 0
 3835 0136 40F20000 		movw	r0, #:lower16:.LC1
 3836 013a C0F20000 		movt	r0, #:upper16:.LC1
 3837 013e FFF7FEFF 		bl	TFTSHIELD_1_Print
 963:.\Generated_Source\PSoC5/TFTSHIELD_1.c **** 		
 964:.\Generated_Source\PSoC5/TFTSHIELD_1.c ****         //strtok next word in string
 965:.\Generated_Source\PSoC5/TFTSHIELD_1.c **** 		word = strtok( NULL, " \t");
 3838              		.loc 1 965 0
 3839 0142 4FF00000 		mov	r0, #0
 3840 0146 40F20001 		movw	r1, #:lower16:.LC0
 3841 014a C0F20001 		movt	r1, #:upper16:.LC0
 3842 014e FFF7FEFF 		bl	strtok
 3843 0152 C7F81C04 		str	r0, [r7, #1052]
 3844              	.L78:
 942:.\Generated_Source\PSoC5/TFTSHIELD_1.c **** 	while ( word != NULL )
 3845              		.loc 1 942 0 discriminator 1
 3846 0156 D7F81C34 		ldr	r3, [r7, #1052]
 3847 015a 002B     		cmp	r3, #0
 3848 015c 93D1     		bne	.L81
 966:.\Generated_Source\PSoC5/TFTSHIELD_1.c **** 		
 967:.\Generated_Source\PSoC5/TFTSHIELD_1.c **** 	}
 968:.\Generated_Source\PSoC5/TFTSHIELD_1.c **** 	
 969:.\Generated_Source\PSoC5/TFTSHIELD_1.c **** 	
 970:.\Generated_Source\PSoC5/TFTSHIELD_1.c **** }
 3849              		.loc 1 970 0
 3850 015e 07F12407 		add	r7, r7, #36
 3851 0162 07F58067 		add	r7, r7, #1024
 3852 0166 BD46     		mov	sp, r7
 3853 0168 90BD     		pop	{r4, r7, pc}
 3854              		.cfi_endproc
 3855              	.LFE25:
 3856              		.size	TFTSHIELD_1_PrintString, .-TFTSHIELD_1_PrintString
ARM GAS  C:\Users\Brian\AppData\Local\Temp\ccPAhBxt.s 			page 86


 3857 016a 00BF     		.section	.text.TFTSHIELD_1_Write,"ax",%progbits
 3858              		.align	2
 3859              		.global	TFTSHIELD_1_Write
 3860              		.thumb
 3861              		.thumb_func
 3862              		.type	TFTSHIELD_1_Write, %function
 3863              	TFTSHIELD_1_Write:
 3864              	.LFB26:
 971:.\Generated_Source\PSoC5/TFTSHIELD_1.c **** 
 972:.\Generated_Source\PSoC5/TFTSHIELD_1.c **** /**************************************************************************//**
 973:.\Generated_Source\PSoC5/TFTSHIELD_1.c **** *  @brief Writes a single character
 974:.\Generated_Source\PSoC5/TFTSHIELD_1.c **** *
 975:.\Generated_Source\PSoC5/TFTSHIELD_1.c **** *  @param c: The character to write
 976:.\Generated_Source\PSoC5/TFTSHIELD_1.c **** *
 977:.\Generated_Source\PSoC5/TFTSHIELD_1.c **** *******************************************************************************/
 978:.\Generated_Source\PSoC5/TFTSHIELD_1.c **** void TFTSHIELD_1_Write(uint8_t c)
 979:.\Generated_Source\PSoC5/TFTSHIELD_1.c **** {
 3865              		.loc 1 979 0
 3866              		.cfi_startproc
 3867              		@ args = 0, pretend = 0, frame = 8
 3868              		@ frame_needed = 1, uses_anonymous_args = 0
 3869 0000 B0B5     		push	{r4, r5, r7, lr}
 3870              	.LCFI77:
 3871              		.cfi_def_cfa_offset 16
 3872              		.cfi_offset 4, -16
 3873              		.cfi_offset 5, -12
 3874              		.cfi_offset 7, -8
 3875              		.cfi_offset 14, -4
 3876 0002 84B0     		sub	sp, sp, #16
 3877              	.LCFI78:
 3878              		.cfi_def_cfa_offset 32
 3879 0004 02AF     		add	r7, sp, #8
 3880              	.LCFI79:
 3881              		.cfi_def_cfa 7, 24
 3882 0006 0346     		mov	r3, r0
 3883 0008 FB71     		strb	r3, [r7, #7]
 980:.\Generated_Source\PSoC5/TFTSHIELD_1.c ****     if (c == '\n') 
 3884              		.loc 1 980 0
 3885 000a FB79     		ldrb	r3, [r7, #7]	@ zero_extendqisi2
 3886 000c 0A2B     		cmp	r3, #10
 3887 000e 1DD1     		bne	.L83
 981:.\Generated_Source\PSoC5/TFTSHIELD_1.c ****     {
 982:.\Generated_Source\PSoC5/TFTSHIELD_1.c ****         cursor_y += textsize*8;
 3888              		.loc 1 982 0
 3889 0010 40F20003 		movw	r3, #:lower16:textsize
 3890 0014 C0F20003 		movt	r3, #:upper16:textsize
 3891 0018 1B78     		ldrb	r3, [r3, #0]	@ zero_extendqisi2
 3892 001a 4FEAC303 		lsl	r3, r3, #3
 3893 001e 9AB2     		uxth	r2, r3
 3894 0020 40F20003 		movw	r3, #:lower16:cursor_y
 3895 0024 C0F20003 		movt	r3, #:upper16:cursor_y
 3896 0028 1B88     		ldrh	r3, [r3, #0]
 3897 002a 9BB2     		uxth	r3, r3
 3898 002c D318     		adds	r3, r2, r3
 3899 002e 9BB2     		uxth	r3, r3
 3900 0030 9AB2     		uxth	r2, r3
 3901 0032 40F20003 		movw	r3, #:lower16:cursor_y
ARM GAS  C:\Users\Brian\AppData\Local\Temp\ccPAhBxt.s 			page 87


 3902 0036 C0F20003 		movt	r3, #:upper16:cursor_y
 3903 003a 1A80     		strh	r2, [r3, #0]	@ movhi
 983:.\Generated_Source\PSoC5/TFTSHIELD_1.c ****         cursor_x  = 0;
 3904              		.loc 1 983 0
 3905 003c 40F20003 		movw	r3, #:lower16:cursor_x
 3906 0040 C0F20003 		movt	r3, #:upper16:cursor_x
 3907 0044 4FF00002 		mov	r2, #0
 3908 0048 1A80     		strh	r2, [r3, #0]	@ movhi
 3909 004a 53E0     		b	.L82
 3910              	.L83:
 984:.\Generated_Source\PSoC5/TFTSHIELD_1.c ****     }
 985:.\Generated_Source\PSoC5/TFTSHIELD_1.c ****     else if (c == '\r') 
 3911              		.loc 1 985 0
 3912 004c FB79     		ldrb	r3, [r7, #7]	@ zero_extendqisi2
 3913 004e 0D2B     		cmp	r3, #13
 3914 0050 12D1     		bne	.L85
 986:.\Generated_Source\PSoC5/TFTSHIELD_1.c ****     {
 987:.\Generated_Source\PSoC5/TFTSHIELD_1.c ****         // clear screen and reset cursor
 988:.\Generated_Source\PSoC5/TFTSHIELD_1.c ****         TFTSHIELD_1_FillScreen(BLACK);
 3915              		.loc 1 988 0
 3916 0052 4FF00000 		mov	r0, #0
 3917 0056 FFF7FEFF 		bl	TFTSHIELD_1_FillScreen
 989:.\Generated_Source\PSoC5/TFTSHIELD_1.c ****         cursor_y = 0;
 3918              		.loc 1 989 0
 3919 005a 40F20003 		movw	r3, #:lower16:cursor_y
 3920 005e C0F20003 		movt	r3, #:upper16:cursor_y
 3921 0062 4FF00002 		mov	r2, #0
 3922 0066 1A80     		strh	r2, [r3, #0]	@ movhi
 990:.\Generated_Source\PSoC5/TFTSHIELD_1.c ****         cursor_x = 0;
 3923              		.loc 1 990 0
 3924 0068 40F20003 		movw	r3, #:lower16:cursor_x
 3925 006c C0F20003 		movt	r3, #:upper16:cursor_x
 3926 0070 4FF00002 		mov	r2, #0
 3927 0074 1A80     		strh	r2, [r3, #0]	@ movhi
 3928 0076 3DE0     		b	.L82
 3929              	.L85:
 991:.\Generated_Source\PSoC5/TFTSHIELD_1.c ****     } 
 992:.\Generated_Source\PSoC5/TFTSHIELD_1.c ****     else 
 993:.\Generated_Source\PSoC5/TFTSHIELD_1.c ****     {
 994:.\Generated_Source\PSoC5/TFTSHIELD_1.c ****         TFTSHIELD_1_DrawChar(cursor_x, cursor_y, c, textcolor, textbgcolor, textsize);
 3930              		.loc 1 994 0
 3931 0078 40F20003 		movw	r3, #:lower16:cursor_x
 3932 007c C0F20003 		movt	r3, #:upper16:cursor_x
 3933 0080 1988     		ldrh	r1, [r3, #0]
 3934 0082 40F20003 		movw	r3, #:lower16:cursor_y
 3935 0086 C0F20003 		movt	r3, #:upper16:cursor_y
 3936 008a 1A88     		ldrh	r2, [r3, #0]
 3937 008c 40F20003 		movw	r3, #:lower16:textcolor
 3938 0090 C0F20003 		movt	r3, #:upper16:textcolor
 3939 0094 1C88     		ldrh	r4, [r3, #0]
 3940 0096 40F20003 		movw	r3, #:lower16:textbgcolor
 3941 009a C0F20003 		movt	r3, #:upper16:textbgcolor
 3942 009e 1D88     		ldrh	r5, [r3, #0]
 3943 00a0 40F20003 		movw	r3, #:lower16:textsize
 3944 00a4 C0F20003 		movt	r3, #:upper16:textsize
 3945 00a8 1878     		ldrb	r0, [r3, #0]	@ zero_extendqisi2
 3946 00aa 09B2     		sxth	r1, r1
ARM GAS  C:\Users\Brian\AppData\Local\Temp\ccPAhBxt.s 			page 88


 3947 00ac 12B2     		sxth	r2, r2
 3948 00ae FB79     		ldrb	r3, [r7, #7]	@ zero_extendqisi2
 3949 00b0 0095     		str	r5, [sp, #0]
 3950 00b2 0190     		str	r0, [sp, #4]
 3951 00b4 0846     		mov	r0, r1
 3952 00b6 1146     		mov	r1, r2
 3953 00b8 1A46     		mov	r2, r3
 3954 00ba 2346     		mov	r3, r4
 3955 00bc FFF7FEFF 		bl	TFTSHIELD_1_DrawChar
 995:.\Generated_Source\PSoC5/TFTSHIELD_1.c ****         cursor_x += textsize*6;
 3956              		.loc 1 995 0
 3957 00c0 40F20003 		movw	r3, #:lower16:textsize
 3958 00c4 C0F20003 		movt	r3, #:upper16:textsize
 3959 00c8 1B78     		ldrb	r3, [r3, #0]	@ zero_extendqisi2
 3960 00ca 1A46     		mov	r2, r3	@ movhi
 3961 00cc 4FEA4202 		lsl	r2, r2, #1
 3962 00d0 D318     		adds	r3, r2, r3
 3963 00d2 4FEA4303 		lsl	r3, r3, #1
 3964 00d6 9AB2     		uxth	r2, r3
 3965 00d8 40F20003 		movw	r3, #:lower16:cursor_x
 3966 00dc C0F20003 		movt	r3, #:upper16:cursor_x
 3967 00e0 1B88     		ldrh	r3, [r3, #0]
 3968 00e2 9BB2     		uxth	r3, r3
 3969 00e4 D318     		adds	r3, r2, r3
 3970 00e6 9BB2     		uxth	r3, r3
 3971 00e8 9AB2     		uxth	r2, r3
 3972 00ea 40F20003 		movw	r3, #:lower16:cursor_x
 3973 00ee C0F20003 		movt	r3, #:upper16:cursor_x
 3974 00f2 1A80     		strh	r2, [r3, #0]	@ movhi
 3975              	.L82:
 996:.\Generated_Source\PSoC5/TFTSHIELD_1.c ****         /*if (wrap && (cursor_x > (TFTWIDTH - textsize*6))) 
 997:.\Generated_Source\PSoC5/TFTSHIELD_1.c ****         {
 998:.\Generated_Source\PSoC5/TFTSHIELD_1.c ****           cursor_y += textsize*8;
 999:.\Generated_Source\PSoC5/TFTSHIELD_1.c ****           cursor_x = 0;
1000:.\Generated_Source\PSoC5/TFTSHIELD_1.c ****         }*/
1001:.\Generated_Source\PSoC5/TFTSHIELD_1.c ****     }
1002:.\Generated_Source\PSoC5/TFTSHIELD_1.c **** }
 3976              		.loc 1 1002 0
 3977 00f4 07F10807 		add	r7, r7, #8
 3978 00f8 BD46     		mov	sp, r7
 3979 00fa B0BD     		pop	{r4, r5, r7, pc}
 3980              		.cfi_endproc
 3981              	.LFE26:
 3982              		.size	TFTSHIELD_1_Write, .-TFTSHIELD_1_Write
 3983              		.section	.text.TFTSHIELD_1_DrawChar,"ax",%progbits
 3984              		.align	2
 3985              		.global	TFTSHIELD_1_DrawChar
 3986              		.thumb
 3987              		.thumb_func
 3988              		.type	TFTSHIELD_1_DrawChar, %function
 3989              	TFTSHIELD_1_DrawChar:
 3990              	.LFB27:
1003:.\Generated_Source\PSoC5/TFTSHIELD_1.c **** 
1004:.\Generated_Source\PSoC5/TFTSHIELD_1.c **** /**************************************************************************//**
1005:.\Generated_Source\PSoC5/TFTSHIELD_1.c **** *  @brief Draws character
1006:.\Generated_Source\PSoC5/TFTSHIELD_1.c **** *
1007:.\Generated_Source\PSoC5/TFTSHIELD_1.c **** *  @param x: The starting x coordinate
ARM GAS  C:\Users\Brian\AppData\Local\Temp\ccPAhBxt.s 			page 89


1008:.\Generated_Source\PSoC5/TFTSHIELD_1.c **** *  @param y: The starting y coordinate
1009:.\Generated_Source\PSoC5/TFTSHIELD_1.c **** *  @param c: The character to draw
1010:.\Generated_Source\PSoC5/TFTSHIELD_1.c **** *  @param color: The color of the character
1011:.\Generated_Source\PSoC5/TFTSHIELD_1.c **** *  @param bg: The depth of the character
1012:.\Generated_Source\PSoC5/TFTSHIELD_1.c **** *  @param size: The font size of the character
1013:.\Generated_Source\PSoC5/TFTSHIELD_1.c **** *
1014:.\Generated_Source\PSoC5/TFTSHIELD_1.c **** *******************************************************************************/
1015:.\Generated_Source\PSoC5/TFTSHIELD_1.c **** void TFTSHIELD_1_DrawChar(int16_t x, int16_t y, unsigned char c,
1016:.\Generated_Source\PSoC5/TFTSHIELD_1.c **** 			    uint16_t color, uint16_t bg, uint8_t size)
1017:.\Generated_Source\PSoC5/TFTSHIELD_1.c **** {
 3991              		.loc 1 1017 0
 3992              		.cfi_startproc
 3993              		@ args = 8, pretend = 0, frame = 16
 3994              		@ frame_needed = 1, uses_anonymous_args = 0
 3995 0000 90B5     		push	{r4, r7, lr}
 3996              	.LCFI80:
 3997              		.cfi_def_cfa_offset 12
 3998              		.cfi_offset 4, -12
 3999              		.cfi_offset 7, -8
 4000              		.cfi_offset 14, -4
 4001 0002 87B0     		sub	sp, sp, #28
 4002              	.LCFI81:
 4003              		.cfi_def_cfa_offset 40
 4004 0004 02AF     		add	r7, sp, #8
 4005              	.LCFI82:
 4006              		.cfi_def_cfa 7, 32
 4007 0006 F880     		strh	r0, [r7, #6]	@ movhi
 4008 0008 B980     		strh	r1, [r7, #4]	@ movhi
 4009 000a FA70     		strb	r2, [r7, #3]
 4010 000c 3B80     		strh	r3, [r7, #0]	@ movhi
1018:.\Generated_Source\PSoC5/TFTSHIELD_1.c ****     if((x >= _width)            || // Clip right
 4011              		.loc 1 1018 0
 4012 000e B7F90620 		ldrsh	r2, [r7, #6]
 4013 0012 40F20003 		movw	r3, #:lower16:_width
 4014 0016 C0F20003 		movt	r3, #:upper16:_width
 4015 001a 1B68     		ldr	r3, [r3, #0]
 4016 001c 9A42     		cmp	r2, r3
 4017 001e 80F20681 		bge	.L100
1019:.\Generated_Source\PSoC5/TFTSHIELD_1.c ****      (y >= _height)           || // Clip bottom
 4018              		.loc 1 1019 0 discriminator 1
 4019 0022 B7F90420 		ldrsh	r2, [r7, #4]
 4020 0026 40F20003 		movw	r3, #:lower16:_height
 4021 002a C0F20003 		movt	r3, #:upper16:_height
 4022 002e 1B68     		ldr	r3, [r3, #0]
1018:.\Generated_Source\PSoC5/TFTSHIELD_1.c ****     if((x >= _width)            || // Clip right
 4023              		.loc 1 1018 0 discriminator 1
 4024 0030 9A42     		cmp	r2, r3
 4025 0032 80F2FC80 		bge	.L100
1020:.\Generated_Source\PSoC5/TFTSHIELD_1.c ****      ((x + 6 * size - 1) < 0) || // Clip left
 4026              		.loc 1 1020 0
 4027 0036 B7F90610 		ldrsh	r1, [r7, #6]
 4028 003a 97F82420 		ldrb	r2, [r7, #36]	@ zero_extendqisi2
 4029 003e 1346     		mov	r3, r2
 4030 0040 4FEA4303 		lsl	r3, r3, #1
 4031 0044 9B18     		adds	r3, r3, r2
 4032 0046 4FEA4303 		lsl	r3, r3, #1
 4033 004a CB18     		adds	r3, r1, r3
ARM GAS  C:\Users\Brian\AppData\Local\Temp\ccPAhBxt.s 			page 90


 4034 004c 03F1FF33 		add	r3, r3, #-1
1019:.\Generated_Source\PSoC5/TFTSHIELD_1.c ****      (y >= _height)           || // Clip bottom
 4035              		.loc 1 1019 0
 4036 0050 002B     		cmp	r3, #0
 4037 0052 C0F2EC80 		blt	.L100
1021:.\Generated_Source\PSoC5/TFTSHIELD_1.c ****      ((y + 8 * size - 1) < 0))   // Clip top
 4038              		.loc 1 1021 0
 4039 0056 B7F90420 		ldrsh	r2, [r7, #4]
 4040 005a 97F82430 		ldrb	r3, [r7, #36]	@ zero_extendqisi2
 4041 005e 4FEAC303 		lsl	r3, r3, #3
 4042 0062 D318     		adds	r3, r2, r3
 4043 0064 03F1FF33 		add	r3, r3, #-1
1020:.\Generated_Source\PSoC5/TFTSHIELD_1.c ****      ((x + 6 * size - 1) < 0) || // Clip left
 4044              		.loc 1 1020 0
 4045 0068 002B     		cmp	r3, #0
 4046 006a C0F2E080 		blt	.L100
 4047              	.L88:
1022:.\Generated_Source\PSoC5/TFTSHIELD_1.c ****     return;
1023:.\Generated_Source\PSoC5/TFTSHIELD_1.c ****   int8_t i,j;  
1024:.\Generated_Source\PSoC5/TFTSHIELD_1.c ****   for (i=0; i<6; i++ ) {
 4048              		.loc 1 1024 0
 4049 006e 4FF00003 		mov	r3, #0
 4050 0072 FB73     		strb	r3, [r7, #15]
 4051 0074 D5E0     		b	.L90
 4052              	.L99:
 4053              	.LBB8:
1025:.\Generated_Source\PSoC5/TFTSHIELD_1.c ****     uint8_t line;
1026:.\Generated_Source\PSoC5/TFTSHIELD_1.c ****     if (i == 6) 
 4054              		.loc 1 1026 0
 4055 0076 97F90F30 		ldrsb	r3, [r7, #15]
 4056 007a 062B     		cmp	r3, #6
 4057 007c 03D1     		bne	.L91
1027:.\Generated_Source\PSoC5/TFTSHIELD_1.c ****        line = 0x0;
 4058              		.loc 1 1027 0
 4059 007e 4FF00003 		mov	r3, #0
 4060 0082 7B73     		strb	r3, [r7, #13]
 4061 0084 10E0     		b	.L92
 4062              	.L91:
1028:.\Generated_Source\PSoC5/TFTSHIELD_1.c ****     else 
1029:.\Generated_Source\PSoC5/TFTSHIELD_1.c ****       line = fontA[c][i];
 4063              		.loc 1 1029 0
 4064 0086 F978     		ldrb	r1, [r7, #3]	@ zero_extendqisi2
 4065 0088 97F90F00 		ldrsb	r0, [r7, #15]
 4066 008c 40F20002 		movw	r2, #:lower16:fontA
 4067 0090 C0F20002 		movt	r2, #:upper16:fontA
 4068 0094 0B46     		mov	r3, r1
 4069 0096 4FEA4303 		lsl	r3, r3, #1
 4070 009a 5B18     		adds	r3, r3, r1
 4071 009c 4FEA4303 		lsl	r3, r3, #1
 4072 00a0 1B18     		adds	r3, r3, r0
 4073 00a2 D318     		adds	r3, r2, r3
 4074 00a4 1B78     		ldrb	r3, [r3, #0]
 4075 00a6 7B73     		strb	r3, [r7, #13]
 4076              	.L92:
1030:.\Generated_Source\PSoC5/TFTSHIELD_1.c ****     for (j = 0; j<8; j++) {
 4077              		.loc 1 1030 0
 4078 00a8 4FF00003 		mov	r3, #0
ARM GAS  C:\Users\Brian\AppData\Local\Temp\ccPAhBxt.s 			page 91


 4079 00ac BB73     		strb	r3, [r7, #14]
 4080 00ae AFE0     		b	.L93
 4081              	.L98:
1031:.\Generated_Source\PSoC5/TFTSHIELD_1.c ****       if (line & 0x1) {
 4082              		.loc 1 1031 0
 4083 00b0 7B7B     		ldrb	r3, [r7, #13]	@ zero_extendqisi2
 4084 00b2 03F00103 		and	r3, r3, #1
 4085 00b6 002B     		cmp	r3, #0
 4086 00b8 4FD0     		beq	.L94
1032:.\Generated_Source\PSoC5/TFTSHIELD_1.c ****         if (size == 1) // default size
 4087              		.loc 1 1032 0
 4088 00ba 97F82430 		ldrb	r3, [r7, #36]	@ zero_extendqisi2
 4089 00be 012B     		cmp	r3, #1
 4090 00c0 1AD1     		bne	.L95
1033:.\Generated_Source\PSoC5/TFTSHIELD_1.c ****           TFTSHIELD_1_SetPixel(_width - (x+i), y+j, color);
 4091              		.loc 1 1033 0
 4092 00c2 40F20003 		movw	r3, #:lower16:_width
 4093 00c6 C0F20003 		movt	r3, #:upper16:_width
 4094 00ca 1B68     		ldr	r3, [r3, #0]
 4095 00cc 9AB2     		uxth	r2, r3
 4096 00ce 97F90F30 		ldrsb	r3, [r7, #15]
 4097 00d2 99B2     		uxth	r1, r3
 4098 00d4 FB88     		ldrh	r3, [r7, #6]
 4099 00d6 CB18     		adds	r3, r1, r3
 4100 00d8 9BB2     		uxth	r3, r3
 4101 00da D31A     		subs	r3, r2, r3
 4102 00dc 99B2     		uxth	r1, r3
 4103 00de 97F90E30 		ldrsb	r3, [r7, #14]
 4104 00e2 9AB2     		uxth	r2, r3
 4105 00e4 BB88     		ldrh	r3, [r7, #4]
 4106 00e6 D318     		adds	r3, r2, r3
 4107 00e8 9AB2     		uxth	r2, r3
 4108 00ea 3B88     		ldrh	r3, [r7, #0]
 4109 00ec 0846     		mov	r0, r1
 4110 00ee 1146     		mov	r1, r2
 4111 00f0 1A46     		mov	r2, r3
 4112 00f2 FFF7FEFF 		bl	TFTSHIELD_1_SetPixel
 4113 00f6 83E0     		b	.L96
 4114              	.L95:
1034:.\Generated_Source\PSoC5/TFTSHIELD_1.c ****         else {  // big size
1035:.\Generated_Source\PSoC5/TFTSHIELD_1.c ****           TFTSHIELD_1_FillRect(_width - (x+(i*size)), y+(j*size), size, size, color);
 4115              		.loc 1 1035 0
 4116 00f8 40F20003 		movw	r3, #:lower16:_width
 4117 00fc C0F20003 		movt	r3, #:upper16:_width
 4118 0100 1B68     		ldr	r3, [r3, #0]
 4119 0102 9AB2     		uxth	r2, r3
 4120 0104 97F90F30 		ldrsb	r3, [r7, #15]
 4121 0108 9BB2     		uxth	r3, r3
 4122 010a 97F82410 		ldrb	r1, [r7, #36]	@ zero_extendqisi2
 4123 010e 89B2     		uxth	r1, r1
 4124 0110 01FB03F3 		mul	r3, r1, r3
 4125 0114 99B2     		uxth	r1, r3
 4126 0116 FB88     		ldrh	r3, [r7, #6]
 4127 0118 CB18     		adds	r3, r1, r3
 4128 011a 9BB2     		uxth	r3, r3
 4129 011c D31A     		subs	r3, r2, r3
 4130 011e 9BB2     		uxth	r3, r3
ARM GAS  C:\Users\Brian\AppData\Local\Temp\ccPAhBxt.s 			page 92


 4131 0120 98B2     		uxth	r0, r3
 4132 0122 97F90E30 		ldrsb	r3, [r7, #14]
 4133 0126 9BB2     		uxth	r3, r3
 4134 0128 97F82420 		ldrb	r2, [r7, #36]	@ zero_extendqisi2
 4135 012c 92B2     		uxth	r2, r2
 4136 012e 02FB03F3 		mul	r3, r2, r3
 4137 0132 9AB2     		uxth	r2, r3
 4138 0134 BB88     		ldrh	r3, [r7, #4]
 4139 0136 D318     		adds	r3, r2, r3
 4140 0138 9BB2     		uxth	r3, r3
 4141 013a 99B2     		uxth	r1, r3
 4142 013c 97F82430 		ldrb	r3, [r7, #36]	@ zero_extendqisi2
 4143 0140 9AB2     		uxth	r2, r3
 4144 0142 97F82430 		ldrb	r3, [r7, #36]	@ zero_extendqisi2
 4145 0146 9BB2     		uxth	r3, r3
 4146 0148 00B2     		sxth	r0, r0
 4147 014a 09B2     		sxth	r1, r1
 4148 014c 12B2     		sxth	r2, r2
 4149 014e 1BB2     		sxth	r3, r3
 4150 0150 3C88     		ldrh	r4, [r7, #0]
 4151 0152 0094     		str	r4, [sp, #0]
 4152 0154 FFF7FEFF 		bl	TFTSHIELD_1_FillRect
 4153 0158 52E0     		b	.L96
 4154              	.L94:
1036:.\Generated_Source\PSoC5/TFTSHIELD_1.c ****         } 
1037:.\Generated_Source\PSoC5/TFTSHIELD_1.c ****       } else if (bg != color) {
 4155              		.loc 1 1037 0
 4156 015a 3A8C     		ldrh	r2, [r7, #32]
 4157 015c 3B88     		ldrh	r3, [r7, #0]
 4158 015e 9A42     		cmp	r2, r3
 4159 0160 4ED0     		beq	.L96
1038:.\Generated_Source\PSoC5/TFTSHIELD_1.c ****         if (size == 1) // default size
 4160              		.loc 1 1038 0
 4161 0162 97F82430 		ldrb	r3, [r7, #36]	@ zero_extendqisi2
 4162 0166 012B     		cmp	r3, #1
 4163 0168 1AD1     		bne	.L97
1039:.\Generated_Source\PSoC5/TFTSHIELD_1.c ****           TFTSHIELD_1_SetPixel(_width - (x+i), y+j, bg);
 4164              		.loc 1 1039 0
 4165 016a 40F20003 		movw	r3, #:lower16:_width
 4166 016e C0F20003 		movt	r3, #:upper16:_width
 4167 0172 1B68     		ldr	r3, [r3, #0]
 4168 0174 9AB2     		uxth	r2, r3
 4169 0176 97F90F30 		ldrsb	r3, [r7, #15]
 4170 017a 99B2     		uxth	r1, r3
 4171 017c FB88     		ldrh	r3, [r7, #6]
 4172 017e CB18     		adds	r3, r1, r3
 4173 0180 9BB2     		uxth	r3, r3
 4174 0182 D31A     		subs	r3, r2, r3
 4175 0184 99B2     		uxth	r1, r3
 4176 0186 97F90E30 		ldrsb	r3, [r7, #14]
 4177 018a 9AB2     		uxth	r2, r3
 4178 018c BB88     		ldrh	r3, [r7, #4]
 4179 018e D318     		adds	r3, r2, r3
 4180 0190 9AB2     		uxth	r2, r3
 4181 0192 3B8C     		ldrh	r3, [r7, #32]
 4182 0194 0846     		mov	r0, r1
 4183 0196 1146     		mov	r1, r2
ARM GAS  C:\Users\Brian\AppData\Local\Temp\ccPAhBxt.s 			page 93


 4184 0198 1A46     		mov	r2, r3
 4185 019a FFF7FEFF 		bl	TFTSHIELD_1_SetPixel
 4186 019e 2FE0     		b	.L96
 4187              	.L97:
1040:.\Generated_Source\PSoC5/TFTSHIELD_1.c ****         else {  // big size
1041:.\Generated_Source\PSoC5/TFTSHIELD_1.c ****           TFTSHIELD_1_FillRect(_width - (x+i*size), y+j*size, size, size, bg);
 4188              		.loc 1 1041 0
 4189 01a0 40F20003 		movw	r3, #:lower16:_width
 4190 01a4 C0F20003 		movt	r3, #:upper16:_width
 4191 01a8 1B68     		ldr	r3, [r3, #0]
 4192 01aa 9AB2     		uxth	r2, r3
 4193 01ac 97F90F30 		ldrsb	r3, [r7, #15]
 4194 01b0 9BB2     		uxth	r3, r3
 4195 01b2 97F82410 		ldrb	r1, [r7, #36]	@ zero_extendqisi2
 4196 01b6 89B2     		uxth	r1, r1
 4197 01b8 01FB03F3 		mul	r3, r1, r3
 4198 01bc 99B2     		uxth	r1, r3
 4199 01be FB88     		ldrh	r3, [r7, #6]
 4200 01c0 CB18     		adds	r3, r1, r3
 4201 01c2 9BB2     		uxth	r3, r3
 4202 01c4 D31A     		subs	r3, r2, r3
 4203 01c6 9BB2     		uxth	r3, r3
 4204 01c8 98B2     		uxth	r0, r3
 4205 01ca 97F90E30 		ldrsb	r3, [r7, #14]
 4206 01ce 9BB2     		uxth	r3, r3
 4207 01d0 97F82420 		ldrb	r2, [r7, #36]	@ zero_extendqisi2
 4208 01d4 92B2     		uxth	r2, r2
 4209 01d6 02FB03F3 		mul	r3, r2, r3
 4210 01da 9AB2     		uxth	r2, r3
 4211 01dc BB88     		ldrh	r3, [r7, #4]
 4212 01de D318     		adds	r3, r2, r3
 4213 01e0 9BB2     		uxth	r3, r3
 4214 01e2 99B2     		uxth	r1, r3
 4215 01e4 97F82430 		ldrb	r3, [r7, #36]	@ zero_extendqisi2
 4216 01e8 9AB2     		uxth	r2, r3
 4217 01ea 97F82430 		ldrb	r3, [r7, #36]	@ zero_extendqisi2
 4218 01ee 9BB2     		uxth	r3, r3
 4219 01f0 00B2     		sxth	r0, r0
 4220 01f2 09B2     		sxth	r1, r1
 4221 01f4 12B2     		sxth	r2, r2
 4222 01f6 1BB2     		sxth	r3, r3
 4223 01f8 3C8C     		ldrh	r4, [r7, #32]
 4224 01fa 0094     		str	r4, [sp, #0]
 4225 01fc FFF7FEFF 		bl	TFTSHIELD_1_FillRect
 4226              	.L96:
1042:.\Generated_Source\PSoC5/TFTSHIELD_1.c ****         }
1043:.\Generated_Source\PSoC5/TFTSHIELD_1.c ****       }
1044:.\Generated_Source\PSoC5/TFTSHIELD_1.c ****       line >>= 1;
 4227              		.loc 1 1044 0
 4228 0200 7B7B     		ldrb	r3, [r7, #13]	@ zero_extendqisi2
 4229 0202 4FEA5303 		lsr	r3, r3, #1
 4230 0206 7B73     		strb	r3, [r7, #13]
1030:.\Generated_Source\PSoC5/TFTSHIELD_1.c ****     for (j = 0; j<8; j++) {
 4231              		.loc 1 1030 0
 4232 0208 BB7B     		ldrb	r3, [r7, #14]
 4233 020a 03F10103 		add	r3, r3, #1
 4234 020e BB73     		strb	r3, [r7, #14]
ARM GAS  C:\Users\Brian\AppData\Local\Temp\ccPAhBxt.s 			page 94


 4235              	.L93:
1030:.\Generated_Source\PSoC5/TFTSHIELD_1.c ****     for (j = 0; j<8; j++) {
 4236              		.loc 1 1030 0 is_stmt 0 discriminator 1
 4237 0210 97F90E30 		ldrsb	r3, [r7, #14]
 4238 0214 072B     		cmp	r3, #7
 4239 0216 7FF74BAF 		ble	.L98
 4240              	.LBE8:
1024:.\Generated_Source\PSoC5/TFTSHIELD_1.c ****   for (i=0; i<6; i++ ) {
 4241              		.loc 1 1024 0 is_stmt 1
 4242 021a FB7B     		ldrb	r3, [r7, #15]
 4243 021c 03F10103 		add	r3, r3, #1
 4244 0220 FB73     		strb	r3, [r7, #15]
 4245              	.L90:
1024:.\Generated_Source\PSoC5/TFTSHIELD_1.c ****   for (i=0; i<6; i++ ) {
 4246              		.loc 1 1024 0 is_stmt 0 discriminator 1
 4247 0222 97F90F30 		ldrsb	r3, [r7, #15]
 4248 0226 052B     		cmp	r3, #5
 4249 0228 7FF725AF 		ble	.L99
 4250 022c 00E0     		b	.L86
 4251              	.L100:
1022:.\Generated_Source\PSoC5/TFTSHIELD_1.c ****     return;
 4252              		.loc 1 1022 0 is_stmt 1
 4253 022e 00BF     		nop
 4254              	.L86:
1045:.\Generated_Source\PSoC5/TFTSHIELD_1.c ****     }
1046:.\Generated_Source\PSoC5/TFTSHIELD_1.c ****   }
1047:.\Generated_Source\PSoC5/TFTSHIELD_1.c **** }
 4255              		.loc 1 1047 0
 4256 0230 07F11407 		add	r7, r7, #20
 4257 0234 BD46     		mov	sp, r7
 4258 0236 90BD     		pop	{r4, r7, pc}
 4259              		.cfi_endproc
 4260              	.LFE27:
 4261              		.size	TFTSHIELD_1_DrawChar, .-TFTSHIELD_1_DrawChar
 4262              		.section	.text.TFTSHIELD_1_SetCursor,"ax",%progbits
 4263              		.align	2
 4264              		.global	TFTSHIELD_1_SetCursor
 4265              		.thumb
 4266              		.thumb_func
 4267              		.type	TFTSHIELD_1_SetCursor, %function
 4268              	TFTSHIELD_1_SetCursor:
 4269              	.LFB28:
1048:.\Generated_Source\PSoC5/TFTSHIELD_1.c **** 
1049:.\Generated_Source\PSoC5/TFTSHIELD_1.c **** /**************************************************************************//**
1050:.\Generated_Source\PSoC5/TFTSHIELD_1.c **** *  @brief Sets the cursor for writing text
1051:.\Generated_Source\PSoC5/TFTSHIELD_1.c **** *
1052:.\Generated_Source\PSoC5/TFTSHIELD_1.c **** *  @param x: The x position of the cursor
1053:.\Generated_Source\PSoC5/TFTSHIELD_1.c **** *  @param y: The y position of the cursor
1054:.\Generated_Source\PSoC5/TFTSHIELD_1.c **** *
1055:.\Generated_Source\PSoC5/TFTSHIELD_1.c **** *******************************************************************************/
1056:.\Generated_Source\PSoC5/TFTSHIELD_1.c **** void TFTSHIELD_1_SetCursor(int16_t x, int16_t y) {
 4270              		.loc 1 1056 0
 4271              		.cfi_startproc
 4272              		@ args = 0, pretend = 0, frame = 8
 4273              		@ frame_needed = 1, uses_anonymous_args = 0
 4274              		@ link register save eliminated.
 4275 0000 80B4     		push	{r7}
ARM GAS  C:\Users\Brian\AppData\Local\Temp\ccPAhBxt.s 			page 95


 4276              	.LCFI83:
 4277              		.cfi_def_cfa_offset 4
 4278              		.cfi_offset 7, -4
 4279 0002 83B0     		sub	sp, sp, #12
 4280              	.LCFI84:
 4281              		.cfi_def_cfa_offset 16
 4282 0004 00AF     		add	r7, sp, #0
 4283              	.LCFI85:
 4284              		.cfi_def_cfa_register 7
 4285 0006 0246     		mov	r2, r0
 4286 0008 0B46     		mov	r3, r1
 4287 000a FA80     		strh	r2, [r7, #6]	@ movhi
 4288 000c BB80     		strh	r3, [r7, #4]	@ movhi
1057:.\Generated_Source\PSoC5/TFTSHIELD_1.c ****   cursor_x = x;
 4289              		.loc 1 1057 0
 4290 000e 40F20003 		movw	r3, #:lower16:cursor_x
 4291 0012 C0F20003 		movt	r3, #:upper16:cursor_x
 4292 0016 FA88     		ldrh	r2, [r7, #6]	@ movhi
 4293 0018 1A80     		strh	r2, [r3, #0]	@ movhi
1058:.\Generated_Source\PSoC5/TFTSHIELD_1.c ****   cursor_y = y;
 4294              		.loc 1 1058 0
 4295 001a 40F20003 		movw	r3, #:lower16:cursor_y
 4296 001e C0F20003 		movt	r3, #:upper16:cursor_y
 4297 0022 BA88     		ldrh	r2, [r7, #4]	@ movhi
 4298 0024 1A80     		strh	r2, [r3, #0]	@ movhi
1059:.\Generated_Source\PSoC5/TFTSHIELD_1.c **** }
 4299              		.loc 1 1059 0
 4300 0026 07F10C07 		add	r7, r7, #12
 4301 002a BD46     		mov	sp, r7
 4302 002c 80BC     		pop	{r7}
 4303 002e 7047     		bx	lr
 4304              		.cfi_endproc
 4305              	.LFE28:
 4306              		.size	TFTSHIELD_1_SetCursor, .-TFTSHIELD_1_SetCursor
 4307              		.section	.text.TFTSHIELD_1_SetTextSize,"ax",%progbits
 4308              		.align	2
 4309              		.global	TFTSHIELD_1_SetTextSize
 4310              		.thumb
 4311              		.thumb_func
 4312              		.type	TFTSHIELD_1_SetTextSize, %function
 4313              	TFTSHIELD_1_SetTextSize:
 4314              	.LFB29:
1060:.\Generated_Source\PSoC5/TFTSHIELD_1.c **** 
1061:.\Generated_Source\PSoC5/TFTSHIELD_1.c **** /**************************************************************************//**
1062:.\Generated_Source\PSoC5/TFTSHIELD_1.c **** *  @brief Set the text size
1063:.\Generated_Source\PSoC5/TFTSHIELD_1.c **** *
1064:.\Generated_Source\PSoC5/TFTSHIELD_1.c **** *  @param s: Sets the font size
1065:.\Generated_Source\PSoC5/TFTSHIELD_1.c **** *
1066:.\Generated_Source\PSoC5/TFTSHIELD_1.c **** *******************************************************************************/
1067:.\Generated_Source\PSoC5/TFTSHIELD_1.c **** void TFTSHIELD_1_SetTextSize(uint8_t s) {
 4315              		.loc 1 1067 0
 4316              		.cfi_startproc
 4317              		@ args = 0, pretend = 0, frame = 8
 4318              		@ frame_needed = 1, uses_anonymous_args = 0
 4319              		@ link register save eliminated.
 4320 0000 80B4     		push	{r7}
 4321              	.LCFI86:
ARM GAS  C:\Users\Brian\AppData\Local\Temp\ccPAhBxt.s 			page 96


 4322              		.cfi_def_cfa_offset 4
 4323              		.cfi_offset 7, -4
 4324 0002 83B0     		sub	sp, sp, #12
 4325              	.LCFI87:
 4326              		.cfi_def_cfa_offset 16
 4327 0004 00AF     		add	r7, sp, #0
 4328              	.LCFI88:
 4329              		.cfi_def_cfa_register 7
 4330 0006 0346     		mov	r3, r0
 4331 0008 FB71     		strb	r3, [r7, #7]
1068:.\Generated_Source\PSoC5/TFTSHIELD_1.c ****   textsize = (s > 0) ? s : 1;
 4332              		.loc 1 1068 0
 4333 000a FB79     		ldrb	r3, [r7, #7]	@ zero_extendqisi2
 4334 000c 002B     		cmp	r3, #0
 4335 000e 01D0     		beq	.L103
 4336              		.loc 1 1068 0 is_stmt 0 discriminator 1
 4337 0010 FA79     		ldrb	r2, [r7, #7]	@ zero_extendqisi2
 4338 0012 01E0     		b	.L104
 4339              	.L103:
 4340              		.loc 1 1068 0 discriminator 2
 4341 0014 4FF00102 		mov	r2, #1
 4342              	.L104:
 4343              		.loc 1 1068 0 discriminator 3
 4344 0018 40F20003 		movw	r3, #:lower16:textsize
 4345 001c C0F20003 		movt	r3, #:upper16:textsize
 4346 0020 1A70     		strb	r2, [r3, #0]
1069:.\Generated_Source\PSoC5/TFTSHIELD_1.c **** }
 4347              		.loc 1 1069 0 is_stmt 1 discriminator 3
 4348 0022 07F10C07 		add	r7, r7, #12
 4349 0026 BD46     		mov	sp, r7
 4350 0028 80BC     		pop	{r7}
 4351 002a 7047     		bx	lr
 4352              		.cfi_endproc
 4353              	.LFE29:
 4354              		.size	TFTSHIELD_1_SetTextSize, .-TFTSHIELD_1_SetTextSize
 4355              		.section	.text.TFTSHIELD_1_SetTextColor,"ax",%progbits
 4356              		.align	2
 4357              		.global	TFTSHIELD_1_SetTextColor
 4358              		.thumb
 4359              		.thumb_func
 4360              		.type	TFTSHIELD_1_SetTextColor, %function
 4361              	TFTSHIELD_1_SetTextColor:
 4362              	.LFB30:
1070:.\Generated_Source\PSoC5/TFTSHIELD_1.c **** 
1071:.\Generated_Source\PSoC5/TFTSHIELD_1.c **** /**************************************************************************//**
1072:.\Generated_Source\PSoC5/TFTSHIELD_1.c **** *  @brief Sets the color of the text
1073:.\Generated_Source\PSoC5/TFTSHIELD_1.c **** *
1074:.\Generated_Source\PSoC5/TFTSHIELD_1.c **** *  @param c: Sets the color
1075:.\Generated_Source\PSoC5/TFTSHIELD_1.c **** *
1076:.\Generated_Source\PSoC5/TFTSHIELD_1.c **** *******************************************************************************/
1077:.\Generated_Source\PSoC5/TFTSHIELD_1.c **** void TFTSHIELD_1_SetTextColor(uint16_t c)
1078:.\Generated_Source\PSoC5/TFTSHIELD_1.c **** {
 4363              		.loc 1 1078 0
 4364              		.cfi_startproc
 4365              		@ args = 0, pretend = 0, frame = 8
 4366              		@ frame_needed = 1, uses_anonymous_args = 0
 4367              		@ link register save eliminated.
ARM GAS  C:\Users\Brian\AppData\Local\Temp\ccPAhBxt.s 			page 97


 4368 0000 80B4     		push	{r7}
 4369              	.LCFI89:
 4370              		.cfi_def_cfa_offset 4
 4371              		.cfi_offset 7, -4
 4372 0002 83B0     		sub	sp, sp, #12
 4373              	.LCFI90:
 4374              		.cfi_def_cfa_offset 16
 4375 0004 00AF     		add	r7, sp, #0
 4376              	.LCFI91:
 4377              		.cfi_def_cfa_register 7
 4378 0006 0346     		mov	r3, r0
 4379 0008 FB80     		strh	r3, [r7, #6]	@ movhi
1079:.\Generated_Source\PSoC5/TFTSHIELD_1.c ****   // For 'transparent' background, we'll set the bg 
1080:.\Generated_Source\PSoC5/TFTSHIELD_1.c ****   // to the same as fg instead of using a flag
1081:.\Generated_Source\PSoC5/TFTSHIELD_1.c ****   textcolor = textbgcolor = c;
 4380              		.loc 1 1081 0
 4381 000a 40F20003 		movw	r3, #:lower16:textbgcolor
 4382 000e C0F20003 		movt	r3, #:upper16:textbgcolor
 4383 0012 FA88     		ldrh	r2, [r7, #6]	@ movhi
 4384 0014 1A80     		strh	r2, [r3, #0]	@ movhi
 4385 0016 40F20003 		movw	r3, #:lower16:textbgcolor
 4386 001a C0F20003 		movt	r3, #:upper16:textbgcolor
 4387 001e 1A88     		ldrh	r2, [r3, #0]
 4388 0020 40F20003 		movw	r3, #:lower16:textcolor
 4389 0024 C0F20003 		movt	r3, #:upper16:textcolor
 4390 0028 1A80     		strh	r2, [r3, #0]	@ movhi
1082:.\Generated_Source\PSoC5/TFTSHIELD_1.c **** }
 4391              		.loc 1 1082 0
 4392 002a 07F10C07 		add	r7, r7, #12
 4393 002e BD46     		mov	sp, r7
 4394 0030 80BC     		pop	{r7}
 4395 0032 7047     		bx	lr
 4396              		.cfi_endproc
 4397              	.LFE30:
 4398              		.size	TFTSHIELD_1_SetTextColor, .-TFTSHIELD_1_SetTextColor
 4399              		.section	.text.TFTSHIELD_1_SetTextWrap,"ax",%progbits
 4400              		.align	2
 4401              		.global	TFTSHIELD_1_SetTextWrap
 4402              		.thumb
 4403              		.thumb_func
 4404              		.type	TFTSHIELD_1_SetTextWrap, %function
 4405              	TFTSHIELD_1_SetTextWrap:
 4406              	.LFB31:
1083:.\Generated_Source\PSoC5/TFTSHIELD_1.c **** 
1084:.\Generated_Source\PSoC5/TFTSHIELD_1.c **** /**************************************************************************//**
1085:.\Generated_Source\PSoC5/TFTSHIELD_1.c **** *  @brief Draws a vertical line
1086:.\Generated_Source\PSoC5/TFTSHIELD_1.c **** *
1087:.\Generated_Source\PSoC5/TFTSHIELD_1.c **** *  @param w: If true sets text wrap, else text wrap is off
1088:.\Generated_Source\PSoC5/TFTSHIELD_1.c **** *
1089:.\Generated_Source\PSoC5/TFTSHIELD_1.c **** *******************************************************************************/
1090:.\Generated_Source\PSoC5/TFTSHIELD_1.c **** void TFTSHIELD_1_SetTextWrap(uint8_t w) {
 4407              		.loc 1 1090 0
 4408              		.cfi_startproc
 4409              		@ args = 0, pretend = 0, frame = 8
 4410              		@ frame_needed = 1, uses_anonymous_args = 0
 4411              		@ link register save eliminated.
 4412 0000 80B4     		push	{r7}
ARM GAS  C:\Users\Brian\AppData\Local\Temp\ccPAhBxt.s 			page 98


 4413              	.LCFI92:
 4414              		.cfi_def_cfa_offset 4
 4415              		.cfi_offset 7, -4
 4416 0002 83B0     		sub	sp, sp, #12
 4417              	.LCFI93:
 4418              		.cfi_def_cfa_offset 16
 4419 0004 00AF     		add	r7, sp, #0
 4420              	.LCFI94:
 4421              		.cfi_def_cfa_register 7
 4422 0006 0346     		mov	r3, r0
 4423 0008 FB71     		strb	r3, [r7, #7]
1091:.\Generated_Source\PSoC5/TFTSHIELD_1.c ****   wrap = w;
 4424              		.loc 1 1091 0
 4425 000a 40F20003 		movw	r3, #:lower16:wrap
 4426 000e C0F20003 		movt	r3, #:upper16:wrap
 4427 0012 FA79     		ldrb	r2, [r7, #7]
 4428 0014 1A70     		strb	r2, [r3, #0]
1092:.\Generated_Source\PSoC5/TFTSHIELD_1.c **** }
 4429              		.loc 1 1092 0
 4430 0016 07F10C07 		add	r7, r7, #12
 4431 001a BD46     		mov	sp, r7
 4432 001c 80BC     		pop	{r7}
 4433 001e 7047     		bx	lr
 4434              		.cfi_endproc
 4435              	.LFE31:
 4436              		.size	TFTSHIELD_1_SetTextWrap, .-TFTSHIELD_1_SetTextWrap
 4437              		.section	.text.TFTSHIELD_1_Color565,"ax",%progbits
 4438              		.align	2
 4439              		.global	TFTSHIELD_1_Color565
 4440              		.thumb
 4441              		.thumb_func
 4442              		.type	TFTSHIELD_1_Color565, %function
 4443              	TFTSHIELD_1_Color565:
 4444              	.LFB32:
1093:.\Generated_Source\PSoC5/TFTSHIELD_1.c **** 
1094:.\Generated_Source\PSoC5/TFTSHIELD_1.c **** /**************************************************************************//**
1095:.\Generated_Source\PSoC5/TFTSHIELD_1.c **** *  @brief Pass 8-bit (each) R,G,B, get back 16-bit packed color
1096:.\Generated_Source\PSoC5/TFTSHIELD_1.c **** *
1097:.\Generated_Source\PSoC5/TFTSHIELD_1.c **** *  @param r: 8-bit red value
1098:.\Generated_Source\PSoC5/TFTSHIELD_1.c **** *  @param g: 8-bit green value
1099:.\Generated_Source\PSoC5/TFTSHIELD_1.c **** *  @param b: 8-bit blue value
1100:.\Generated_Source\PSoC5/TFTSHIELD_1.c **** *
1101:.\Generated_Source\PSoC5/TFTSHIELD_1.c **** *  @return 16-bit color value
1102:.\Generated_Source\PSoC5/TFTSHIELD_1.c **** *
1103:.\Generated_Source\PSoC5/TFTSHIELD_1.c **** *******************************************************************************/
1104:.\Generated_Source\PSoC5/TFTSHIELD_1.c **** uint16_t TFTSHIELD_1_Color565(uint8_t r, uint8_t g, uint8_t b)
1105:.\Generated_Source\PSoC5/TFTSHIELD_1.c **** {
 4445              		.loc 1 1105 0
 4446              		.cfi_startproc
 4447              		@ args = 0, pretend = 0, frame = 8
 4448              		@ frame_needed = 1, uses_anonymous_args = 0
 4449              		@ link register save eliminated.
 4450 0000 80B4     		push	{r7}
 4451              	.LCFI95:
 4452              		.cfi_def_cfa_offset 4
 4453              		.cfi_offset 7, -4
 4454 0002 83B0     		sub	sp, sp, #12
ARM GAS  C:\Users\Brian\AppData\Local\Temp\ccPAhBxt.s 			page 99


 4455              	.LCFI96:
 4456              		.cfi_def_cfa_offset 16
 4457 0004 00AF     		add	r7, sp, #0
 4458              	.LCFI97:
 4459              		.cfi_def_cfa_register 7
 4460 0006 1346     		mov	r3, r2
 4461 0008 0246     		mov	r2, r0
 4462 000a FA71     		strb	r2, [r7, #7]
 4463 000c 0A46     		mov	r2, r1
 4464 000e BA71     		strb	r2, [r7, #6]
 4465 0010 7B71     		strb	r3, [r7, #5]
1106:.\Generated_Source\PSoC5/TFTSHIELD_1.c ****     return ((r & 0xF8) << 8) | ((g & 0xFC) << 3) | (b >> 3);
 4466              		.loc 1 1106 0
 4467 0012 FB79     		ldrb	r3, [r7, #7]	@ zero_extendqisi2
 4468 0014 03F0F803 		and	r3, r3, #248
 4469 0018 4FEA0323 		lsl	r3, r3, #8
 4470 001c 9AB2     		uxth	r2, r3
 4471 001e BB79     		ldrb	r3, [r7, #6]	@ zero_extendqisi2
 4472 0020 03F0FC03 		and	r3, r3, #252
 4473 0024 4FEAC303 		lsl	r3, r3, #3
 4474 0028 9BB2     		uxth	r3, r3
 4475 002a 1343     		orrs	r3, r3, r2
 4476 002c 9AB2     		uxth	r2, r3
 4477 002e 7B79     		ldrb	r3, [r7, #5]	@ zero_extendqisi2
 4478 0030 4FEAD303 		lsr	r3, r3, #3
 4479 0034 DBB2     		uxtb	r3, r3
 4480 0036 1343     		orrs	r3, r3, r2
 4481 0038 9BB2     		uxth	r3, r3
 4482 003a 9BB2     		uxth	r3, r3
1107:.\Generated_Source\PSoC5/TFTSHIELD_1.c **** }
 4483              		.loc 1 1107 0
 4484 003c 1846     		mov	r0, r3
 4485 003e 07F10C07 		add	r7, r7, #12
 4486 0042 BD46     		mov	sp, r7
 4487 0044 80BC     		pop	{r7}
 4488 0046 7047     		bx	lr
 4489              		.cfi_endproc
 4490              	.LFE32:
 4491              		.size	TFTSHIELD_1_Color565, .-TFTSHIELD_1_Color565
 4492              		.section	.text.TFTSHIELD_1_SetRotation,"ax",%progbits
 4493              		.align	2
 4494              		.global	TFTSHIELD_1_SetRotation
 4495              		.thumb
 4496              		.thumb_func
 4497              		.type	TFTSHIELD_1_SetRotation, %function
 4498              	TFTSHIELD_1_SetRotation:
 4499              	.LFB33:
1108:.\Generated_Source\PSoC5/TFTSHIELD_1.c **** 
1109:.\Generated_Source\PSoC5/TFTSHIELD_1.c **** 
1110:.\Generated_Source\PSoC5/TFTSHIELD_1.c **** /**************************************************************************//**
1111:.\Generated_Source\PSoC5/TFTSHIELD_1.c **** *  @brief Sets screen orientation
1112:.\Generated_Source\PSoC5/TFTSHIELD_1.c **** *
1113:.\Generated_Source\PSoC5/TFTSHIELD_1.c **** *  @param r: Orientation from 0-3
1114:.\Generated_Source\PSoC5/TFTSHIELD_1.c **** *  0 and 2: Portrait with opposite starting points
1115:.\Generated_Source\PSoC5/TFTSHIELD_1.c **** *  1 and 3: Landscape with opposite starting points
1116:.\Generated_Source\PSoC5/TFTSHIELD_1.c **** *
1117:.\Generated_Source\PSoC5/TFTSHIELD_1.c **** *******************************************************************************/
ARM GAS  C:\Users\Brian\AppData\Local\Temp\ccPAhBxt.s 			page 100


1118:.\Generated_Source\PSoC5/TFTSHIELD_1.c **** void TFTSHIELD_1_SetRotation(uint8_t r)
1119:.\Generated_Source\PSoC5/TFTSHIELD_1.c **** {
 4500              		.loc 1 1119 0
 4501              		.cfi_startproc
 4502              		@ args = 0, pretend = 0, frame = 8
 4503              		@ frame_needed = 1, uses_anonymous_args = 0
 4504 0000 80B5     		push	{r7, lr}
 4505              	.LCFI98:
 4506              		.cfi_def_cfa_offset 8
 4507              		.cfi_offset 7, -8
 4508              		.cfi_offset 14, -4
 4509 0002 82B0     		sub	sp, sp, #8
 4510              	.LCFI99:
 4511              		.cfi_def_cfa_offset 16
 4512 0004 00AF     		add	r7, sp, #0
 4513              	.LCFI100:
 4514              		.cfi_def_cfa_register 7
 4515 0006 0346     		mov	r3, r0
 4516 0008 FB71     		strb	r3, [r7, #7]
1120:.\Generated_Source\PSoC5/TFTSHIELD_1.c **** 	//writecommand(ILI9341_MADCTL);
1121:.\Generated_Source\PSoC5/TFTSHIELD_1.c **** 	TFTSHIELD_1_SendCmd(ILI9341_MADCTL);
 4517              		.loc 1 1121 0
 4518 000a 4FF03600 		mov	r0, #54
 4519 000e FFF7FEFF 		bl	TFTSHIELD_1_SendCmd
1122:.\Generated_Source\PSoC5/TFTSHIELD_1.c **** 	rotation = r % 4; // can't be higher than 3
 4520              		.loc 1 1122 0
 4521 0012 FB79     		ldrb	r3, [r7, #7]
 4522 0014 03F00303 		and	r3, r3, #3
 4523 0018 DAB2     		uxtb	r2, r3
 4524 001a 40F20003 		movw	r3, #:lower16:rotation
 4525 001e C0F20003 		movt	r3, #:upper16:rotation
 4526 0022 1A70     		strb	r2, [r3, #0]
1123:.\Generated_Source\PSoC5/TFTSHIELD_1.c ****   switch (rotation) {
 4527              		.loc 1 1123 0
 4528 0024 40F20003 		movw	r3, #:lower16:rotation
 4529 0028 C0F20003 		movt	r3, #:upper16:rotation
 4530 002c 1B78     		ldrb	r3, [r3, #0]	@ zero_extendqisi2
 4531 002e 032B     		cmp	r3, #3
 4532 0030 56D8     		bhi	.L109
 4533 0032 01A2     		adr	r2, .L115
 4534 0034 52F823F0 		ldr	pc, [r2, r3, lsl #2]
 4535              		.align	2
 4536              	.L115:
 4537 0038 49000000 		.word	.L111+1
 4538 003c 6F000000 		.word	.L112+1
 4539 0040 95000000 		.word	.L113+1
 4540 0044 BB000000 		.word	.L114+1
 4541              	.L111:
1124:.\Generated_Source\PSoC5/TFTSHIELD_1.c ****    case 0:
1125:.\Generated_Source\PSoC5/TFTSHIELD_1.c **** 	 //writedata(MADCTL_MX | MADCTL_BGR);
1126:.\Generated_Source\PSoC5/TFTSHIELD_1.c **** 	 TFTSHIELD_1_SendData(MADCTL_MX | MADCTL_BGR);
 4542              		.loc 1 1126 0
 4543 0048 4FF04800 		mov	r0, #72
 4544 004c FFF7FEFF 		bl	TFTSHIELD_1_SendData
1127:.\Generated_Source\PSoC5/TFTSHIELD_1.c **** 	 _width  = TFTWIDTH;
 4545              		.loc 1 1127 0
 4546 0050 40F20003 		movw	r3, #:lower16:_width
ARM GAS  C:\Users\Brian\AppData\Local\Temp\ccPAhBxt.s 			page 101


 4547 0054 C0F20003 		movt	r3, #:upper16:_width
 4548 0058 4FF0F002 		mov	r2, #240
 4549 005c 1A60     		str	r2, [r3, #0]
1128:.\Generated_Source\PSoC5/TFTSHIELD_1.c **** 	 _height = TFTHEIGHT;
 4550              		.loc 1 1128 0
 4551 005e 40F20003 		movw	r3, #:lower16:_height
 4552 0062 C0F20003 		movt	r3, #:upper16:_height
 4553 0066 4FF4A072 		mov	r2, #320
 4554 006a 1A60     		str	r2, [r3, #0]
1129:.\Generated_Source\PSoC5/TFTSHIELD_1.c **** 	 break;
 4555              		.loc 1 1129 0
 4556 006c 38E0     		b	.L109
 4557              	.L112:
1130:.\Generated_Source\PSoC5/TFTSHIELD_1.c ****    case 1:
1131:.\Generated_Source\PSoC5/TFTSHIELD_1.c **** 	 //writedata(MADCTL_MV | MADCTL_BGR);
1132:.\Generated_Source\PSoC5/TFTSHIELD_1.c **** 	 TFTSHIELD_1_SendData(MADCTL_MV | MADCTL_BGR);
 4558              		.loc 1 1132 0
 4559 006e 4FF02800 		mov	r0, #40
 4560 0072 FFF7FEFF 		bl	TFTSHIELD_1_SendData
1133:.\Generated_Source\PSoC5/TFTSHIELD_1.c **** 	 _width  = TFTHEIGHT;
 4561              		.loc 1 1133 0
 4562 0076 40F20003 		movw	r3, #:lower16:_width
 4563 007a C0F20003 		movt	r3, #:upper16:_width
 4564 007e 4FF4A072 		mov	r2, #320
 4565 0082 1A60     		str	r2, [r3, #0]
1134:.\Generated_Source\PSoC5/TFTSHIELD_1.c **** 	 _height = TFTWIDTH;
 4566              		.loc 1 1134 0
 4567 0084 40F20003 		movw	r3, #:lower16:_height
 4568 0088 C0F20003 		movt	r3, #:upper16:_height
 4569 008c 4FF0F002 		mov	r2, #240
 4570 0090 1A60     		str	r2, [r3, #0]
1135:.\Generated_Source\PSoC5/TFTSHIELD_1.c **** 	 break;
 4571              		.loc 1 1135 0
 4572 0092 25E0     		b	.L109
 4573              	.L113:
1136:.\Generated_Source\PSoC5/TFTSHIELD_1.c ****   case 2:
1137:.\Generated_Source\PSoC5/TFTSHIELD_1.c **** 	//writedata(MADCTL_MY | MADCTL_BGR);
1138:.\Generated_Source\PSoC5/TFTSHIELD_1.c **** 	TFTSHIELD_1_SendData(MADCTL_MY | MADCTL_BGR);
 4574              		.loc 1 1138 0
 4575 0094 4FF08800 		mov	r0, #136
 4576 0098 FFF7FEFF 		bl	TFTSHIELD_1_SendData
1139:.\Generated_Source\PSoC5/TFTSHIELD_1.c **** 	 _width  = TFTWIDTH;
 4577              		.loc 1 1139 0
 4578 009c 40F20003 		movw	r3, #:lower16:_width
 4579 00a0 C0F20003 		movt	r3, #:upper16:_width
 4580 00a4 4FF0F002 		mov	r2, #240
 4581 00a8 1A60     		str	r2, [r3, #0]
1140:.\Generated_Source\PSoC5/TFTSHIELD_1.c **** 	 _height = TFTHEIGHT;
 4582              		.loc 1 1140 0
 4583 00aa 40F20003 		movw	r3, #:lower16:_height
 4584 00ae C0F20003 		movt	r3, #:upper16:_height
 4585 00b2 4FF4A072 		mov	r2, #320
 4586 00b6 1A60     		str	r2, [r3, #0]
1141:.\Generated_Source\PSoC5/TFTSHIELD_1.c **** 	break;
 4587              		.loc 1 1141 0
 4588 00b8 12E0     		b	.L109
 4589              	.L114:
ARM GAS  C:\Users\Brian\AppData\Local\Temp\ccPAhBxt.s 			page 102


1142:.\Generated_Source\PSoC5/TFTSHIELD_1.c ****    case 3:
1143:.\Generated_Source\PSoC5/TFTSHIELD_1.c **** 	 //writedata(MADCTL_MX | MADCTL_MY | MADCTL_MV | MADCTL_BGR);
1144:.\Generated_Source\PSoC5/TFTSHIELD_1.c **** 	 TFTSHIELD_1_SendData(MADCTL_MX | MADCTL_MY | MADCTL_MV | MADCTL_BGR);
 4590              		.loc 1 1144 0
 4591 00ba 4FF0E800 		mov	r0, #232
 4592 00be FFF7FEFF 		bl	TFTSHIELD_1_SendData
1145:.\Generated_Source\PSoC5/TFTSHIELD_1.c **** 	 _width  = TFTHEIGHT;
 4593              		.loc 1 1145 0
 4594 00c2 40F20003 		movw	r3, #:lower16:_width
 4595 00c6 C0F20003 		movt	r3, #:upper16:_width
 4596 00ca 4FF4A072 		mov	r2, #320
 4597 00ce 1A60     		str	r2, [r3, #0]
1146:.\Generated_Source\PSoC5/TFTSHIELD_1.c **** 	 _height = TFTWIDTH;
 4598              		.loc 1 1146 0
 4599 00d0 40F20003 		movw	r3, #:lower16:_height
 4600 00d4 C0F20003 		movt	r3, #:upper16:_height
 4601 00d8 4FF0F002 		mov	r2, #240
 4602 00dc 1A60     		str	r2, [r3, #0]
1147:.\Generated_Source\PSoC5/TFTSHIELD_1.c **** 	 break;
 4603              		.loc 1 1147 0
 4604 00de 00BF     		nop
 4605              	.L109:
1148:.\Generated_Source\PSoC5/TFTSHIELD_1.c ****   }
1149:.\Generated_Source\PSoC5/TFTSHIELD_1.c **** }
 4606              		.loc 1 1149 0
 4607 00e0 07F10807 		add	r7, r7, #8
 4608 00e4 BD46     		mov	sp, r7
 4609 00e6 80BD     		pop	{r7, pc}
 4610              		.cfi_endproc
 4611              	.LFE33:
 4612              		.size	TFTSHIELD_1_SetRotation, .-TFTSHIELD_1_SetRotation
 4613              		.section	.text.TFTSHIELD_1_CS_LOW,"ax",%progbits
 4614              		.align	2
 4615              		.global	TFTSHIELD_1_CS_LOW
 4616              		.thumb
 4617              		.thumb_func
 4618              		.type	TFTSHIELD_1_CS_LOW, %function
 4619              	TFTSHIELD_1_CS_LOW:
 4620              	.LFB34:
1150:.\Generated_Source\PSoC5/TFTSHIELD_1.c **** 
1151:.\Generated_Source\PSoC5/TFTSHIELD_1.c **** 
1152:.\Generated_Source\PSoC5/TFTSHIELD_1.c **** /**************************************************************************//**
1153:.\Generated_Source\PSoC5/TFTSHIELD_1.c **** *  @brief Sets command select line to low
1154:.\Generated_Source\PSoC5/TFTSHIELD_1.c **** *
1155:.\Generated_Source\PSoC5/TFTSHIELD_1.c **** *******************************************************************************/
1156:.\Generated_Source\PSoC5/TFTSHIELD_1.c **** void TFTSHIELD_1_CS_LOW(void)
1157:.\Generated_Source\PSoC5/TFTSHIELD_1.c **** {
 4621              		.loc 1 1157 0
 4622              		.cfi_startproc
 4623              		@ args = 0, pretend = 0, frame = 8
 4624              		@ frame_needed = 1, uses_anonymous_args = 0
 4625 0000 80B5     		push	{r7, lr}
 4626              	.LCFI101:
 4627              		.cfi_def_cfa_offset 8
 4628              		.cfi_offset 7, -8
 4629              		.cfi_offset 14, -4
 4630 0002 82B0     		sub	sp, sp, #8
ARM GAS  C:\Users\Brian\AppData\Local\Temp\ccPAhBxt.s 			page 103


 4631              	.LCFI102:
 4632              		.cfi_def_cfa_offset 16
 4633 0004 00AF     		add	r7, sp, #0
 4634              	.LCFI103:
 4635              		.cfi_def_cfa_register 7
1158:.\Generated_Source\PSoC5/TFTSHIELD_1.c ****     uint8 temp = TFTSHIELD_1_CR_1_Read();
 4636              		.loc 1 1158 0
 4637 0006 FFF7FEFF 		bl	TFTSHIELD_1_CR_1_Read
 4638 000a 0346     		mov	r3, r0
 4639 000c FB71     		strb	r3, [r7, #7]
1159:.\Generated_Source\PSoC5/TFTSHIELD_1.c ****     temp &= 0x0E;
 4640              		.loc 1 1159 0
 4641 000e FB79     		ldrb	r3, [r7, #7]
 4642 0010 03F00E03 		and	r3, r3, #14
 4643 0014 FB71     		strb	r3, [r7, #7]
1160:.\Generated_Source\PSoC5/TFTSHIELD_1.c ****     TFTSHIELD_1_CR_1_Write(temp);
 4644              		.loc 1 1160 0
 4645 0016 FB79     		ldrb	r3, [r7, #7]	@ zero_extendqisi2
 4646 0018 1846     		mov	r0, r3
 4647 001a FFF7FEFF 		bl	TFTSHIELD_1_CR_1_Write
1161:.\Generated_Source\PSoC5/TFTSHIELD_1.c **** }
 4648              		.loc 1 1161 0
 4649 001e 07F10807 		add	r7, r7, #8
 4650 0022 BD46     		mov	sp, r7
 4651 0024 80BD     		pop	{r7, pc}
 4652              		.cfi_endproc
 4653              	.LFE34:
 4654              		.size	TFTSHIELD_1_CS_LOW, .-TFTSHIELD_1_CS_LOW
 4655 0026 00BF     		.section	.text.TFTSHIELD_1_CS_HIGH,"ax",%progbits
 4656              		.align	2
 4657              		.global	TFTSHIELD_1_CS_HIGH
 4658              		.thumb
 4659              		.thumb_func
 4660              		.type	TFTSHIELD_1_CS_HIGH, %function
 4661              	TFTSHIELD_1_CS_HIGH:
 4662              	.LFB35:
1162:.\Generated_Source\PSoC5/TFTSHIELD_1.c **** 
1163:.\Generated_Source\PSoC5/TFTSHIELD_1.c **** /**************************************************************************//**
1164:.\Generated_Source\PSoC5/TFTSHIELD_1.c **** *  @brief Sets command select line to high
1165:.\Generated_Source\PSoC5/TFTSHIELD_1.c **** *
1166:.\Generated_Source\PSoC5/TFTSHIELD_1.c **** *******************************************************************************/
1167:.\Generated_Source\PSoC5/TFTSHIELD_1.c **** void TFTSHIELD_1_CS_HIGH(void)
1168:.\Generated_Source\PSoC5/TFTSHIELD_1.c **** {
 4663              		.loc 1 1168 0
 4664              		.cfi_startproc
 4665              		@ args = 0, pretend = 0, frame = 8
 4666              		@ frame_needed = 1, uses_anonymous_args = 0
 4667 0000 80B5     		push	{r7, lr}
 4668              	.LCFI104:
 4669              		.cfi_def_cfa_offset 8
 4670              		.cfi_offset 7, -8
 4671              		.cfi_offset 14, -4
 4672 0002 82B0     		sub	sp, sp, #8
 4673              	.LCFI105:
 4674              		.cfi_def_cfa_offset 16
 4675 0004 00AF     		add	r7, sp, #0
 4676              	.LCFI106:
ARM GAS  C:\Users\Brian\AppData\Local\Temp\ccPAhBxt.s 			page 104


 4677              		.cfi_def_cfa_register 7
1169:.\Generated_Source\PSoC5/TFTSHIELD_1.c ****     uint8 temp = TFTSHIELD_1_CR_1_Read();
 4678              		.loc 1 1169 0
 4679 0006 FFF7FEFF 		bl	TFTSHIELD_1_CR_1_Read
 4680 000a 0346     		mov	r3, r0
 4681 000c FB71     		strb	r3, [r7, #7]
1170:.\Generated_Source\PSoC5/TFTSHIELD_1.c ****     temp |= 0x01;
 4682              		.loc 1 1170 0
 4683 000e FB79     		ldrb	r3, [r7, #7]
 4684 0010 43F00103 		orr	r3, r3, #1
 4685 0014 FB71     		strb	r3, [r7, #7]
1171:.\Generated_Source\PSoC5/TFTSHIELD_1.c ****     TFTSHIELD_1_CR_1_Write(temp);
 4686              		.loc 1 1171 0
 4687 0016 FB79     		ldrb	r3, [r7, #7]	@ zero_extendqisi2
 4688 0018 1846     		mov	r0, r3
 4689 001a FFF7FEFF 		bl	TFTSHIELD_1_CR_1_Write
1172:.\Generated_Source\PSoC5/TFTSHIELD_1.c **** }
 4690              		.loc 1 1172 0
 4691 001e 07F10807 		add	r7, r7, #8
 4692 0022 BD46     		mov	sp, r7
 4693 0024 80BD     		pop	{r7, pc}
 4694              		.cfi_endproc
 4695              	.LFE35:
 4696              		.size	TFTSHIELD_1_CS_HIGH, .-TFTSHIELD_1_CS_HIGH
 4697 0026 00BF     		.section	.text.TFTSHIELD_1_DC_LOW,"ax",%progbits
 4698              		.align	2
 4699              		.global	TFTSHIELD_1_DC_LOW
 4700              		.thumb
 4701              		.thumb_func
 4702              		.type	TFTSHIELD_1_DC_LOW, %function
 4703              	TFTSHIELD_1_DC_LOW:
 4704              	.LFB36:
1173:.\Generated_Source\PSoC5/TFTSHIELD_1.c **** 
1174:.\Generated_Source\PSoC5/TFTSHIELD_1.c **** /**************************************************************************//**
1175:.\Generated_Source\PSoC5/TFTSHIELD_1.c **** *  @brief Sets data select line to low
1176:.\Generated_Source\PSoC5/TFTSHIELD_1.c **** *
1177:.\Generated_Source\PSoC5/TFTSHIELD_1.c **** *******************************************************************************/
1178:.\Generated_Source\PSoC5/TFTSHIELD_1.c **** void TFTSHIELD_1_DC_LOW(void)
1179:.\Generated_Source\PSoC5/TFTSHIELD_1.c **** {
 4705              		.loc 1 1179 0
 4706              		.cfi_startproc
 4707              		@ args = 0, pretend = 0, frame = 8
 4708              		@ frame_needed = 1, uses_anonymous_args = 0
 4709 0000 80B5     		push	{r7, lr}
 4710              	.LCFI107:
 4711              		.cfi_def_cfa_offset 8
 4712              		.cfi_offset 7, -8
 4713              		.cfi_offset 14, -4
 4714 0002 82B0     		sub	sp, sp, #8
 4715              	.LCFI108:
 4716              		.cfi_def_cfa_offset 16
 4717 0004 00AF     		add	r7, sp, #0
 4718              	.LCFI109:
 4719              		.cfi_def_cfa_register 7
1180:.\Generated_Source\PSoC5/TFTSHIELD_1.c ****     uint8 temp = TFTSHIELD_1_CR_1_Read();
 4720              		.loc 1 1180 0
 4721 0006 FFF7FEFF 		bl	TFTSHIELD_1_CR_1_Read
ARM GAS  C:\Users\Brian\AppData\Local\Temp\ccPAhBxt.s 			page 105


 4722 000a 0346     		mov	r3, r0
 4723 000c FB71     		strb	r3, [r7, #7]
1181:.\Generated_Source\PSoC5/TFTSHIELD_1.c ****     temp &= 0x0D;
 4724              		.loc 1 1181 0
 4725 000e FB79     		ldrb	r3, [r7, #7]
 4726 0010 03F00D03 		and	r3, r3, #13
 4727 0014 FB71     		strb	r3, [r7, #7]
1182:.\Generated_Source\PSoC5/TFTSHIELD_1.c ****     TFTSHIELD_1_CR_1_Write(temp);
 4728              		.loc 1 1182 0
 4729 0016 FB79     		ldrb	r3, [r7, #7]	@ zero_extendqisi2
 4730 0018 1846     		mov	r0, r3
 4731 001a FFF7FEFF 		bl	TFTSHIELD_1_CR_1_Write
1183:.\Generated_Source\PSoC5/TFTSHIELD_1.c **** }
 4732              		.loc 1 1183 0
 4733 001e 07F10807 		add	r7, r7, #8
 4734 0022 BD46     		mov	sp, r7
 4735 0024 80BD     		pop	{r7, pc}
 4736              		.cfi_endproc
 4737              	.LFE36:
 4738              		.size	TFTSHIELD_1_DC_LOW, .-TFTSHIELD_1_DC_LOW
 4739 0026 00BF     		.section	.text.TFTSHIELD_1_DC_HIGH,"ax",%progbits
 4740              		.align	2
 4741              		.global	TFTSHIELD_1_DC_HIGH
 4742              		.thumb
 4743              		.thumb_func
 4744              		.type	TFTSHIELD_1_DC_HIGH, %function
 4745              	TFTSHIELD_1_DC_HIGH:
 4746              	.LFB37:
1184:.\Generated_Source\PSoC5/TFTSHIELD_1.c **** 
1185:.\Generated_Source\PSoC5/TFTSHIELD_1.c **** /**************************************************************************//**
1186:.\Generated_Source\PSoC5/TFTSHIELD_1.c **** *  @brief Sets data select line to high
1187:.\Generated_Source\PSoC5/TFTSHIELD_1.c **** *
1188:.\Generated_Source\PSoC5/TFTSHIELD_1.c **** *******************************************************************************/
1189:.\Generated_Source\PSoC5/TFTSHIELD_1.c **** void TFTSHIELD_1_DC_HIGH(void)
1190:.\Generated_Source\PSoC5/TFTSHIELD_1.c **** {
 4747              		.loc 1 1190 0
 4748              		.cfi_startproc
 4749              		@ args = 0, pretend = 0, frame = 8
 4750              		@ frame_needed = 1, uses_anonymous_args = 0
 4751 0000 80B5     		push	{r7, lr}
 4752              	.LCFI110:
 4753              		.cfi_def_cfa_offset 8
 4754              		.cfi_offset 7, -8
 4755              		.cfi_offset 14, -4
 4756 0002 82B0     		sub	sp, sp, #8
 4757              	.LCFI111:
 4758              		.cfi_def_cfa_offset 16
 4759 0004 00AF     		add	r7, sp, #0
 4760              	.LCFI112:
 4761              		.cfi_def_cfa_register 7
1191:.\Generated_Source\PSoC5/TFTSHIELD_1.c ****     uint8 temp = TFTSHIELD_1_CR_1_Read();
 4762              		.loc 1 1191 0
 4763 0006 FFF7FEFF 		bl	TFTSHIELD_1_CR_1_Read
 4764 000a 0346     		mov	r3, r0
 4765 000c FB71     		strb	r3, [r7, #7]
1192:.\Generated_Source\PSoC5/TFTSHIELD_1.c ****     temp |= 0x02;
 4766              		.loc 1 1192 0
ARM GAS  C:\Users\Brian\AppData\Local\Temp\ccPAhBxt.s 			page 106


 4767 000e FB79     		ldrb	r3, [r7, #7]
 4768 0010 43F00203 		orr	r3, r3, #2
 4769 0014 FB71     		strb	r3, [r7, #7]
1193:.\Generated_Source\PSoC5/TFTSHIELD_1.c ****     TFTSHIELD_1_CR_1_Write(temp);
 4770              		.loc 1 1193 0
 4771 0016 FB79     		ldrb	r3, [r7, #7]	@ zero_extendqisi2
 4772 0018 1846     		mov	r0, r3
 4773 001a FFF7FEFF 		bl	TFTSHIELD_1_CR_1_Write
1194:.\Generated_Source\PSoC5/TFTSHIELD_1.c **** }
 4774              		.loc 1 1194 0
 4775 001e 07F10807 		add	r7, r7, #8
 4776 0022 BD46     		mov	sp, r7
 4777 0024 80BD     		pop	{r7, pc}
 4778              		.cfi_endproc
 4779              	.LFE37:
 4780              		.size	TFTSHIELD_1_DC_HIGH, .-TFTSHIELD_1_DC_HIGH
 4781 0026 00BF     		.section	.text.TFTSHIELD_1_RT_CS_LOW,"ax",%progbits
 4782              		.align	2
 4783              		.global	TFTSHIELD_1_RT_CS_LOW
 4784              		.thumb
 4785              		.thumb_func
 4786              		.type	TFTSHIELD_1_RT_CS_LOW, %function
 4787              	TFTSHIELD_1_RT_CS_LOW:
 4788              	.LFB38:
1195:.\Generated_Source\PSoC5/TFTSHIELD_1.c **** 
1196:.\Generated_Source\PSoC5/TFTSHIELD_1.c **** //Touchscreen. SPI clock must be set to 1MHZ before calling any of these functions!
1197:.\Generated_Source\PSoC5/TFTSHIELD_1.c **** 
1198:.\Generated_Source\PSoC5/TFTSHIELD_1.c **** /**************************************************************************//**
1199:.\Generated_Source\PSoC5/TFTSHIELD_1.c **** *  @brief Sets touchscreen command select line to low
1200:.\Generated_Source\PSoC5/TFTSHIELD_1.c **** *
1201:.\Generated_Source\PSoC5/TFTSHIELD_1.c **** *******************************************************************************/
1202:.\Generated_Source\PSoC5/TFTSHIELD_1.c **** void TFTSHIELD_1_RT_CS_LOW(void)
1203:.\Generated_Source\PSoC5/TFTSHIELD_1.c **** {
 4789              		.loc 1 1203 0
 4790              		.cfi_startproc
 4791              		@ args = 0, pretend = 0, frame = 8
 4792              		@ frame_needed = 1, uses_anonymous_args = 0
 4793 0000 80B5     		push	{r7, lr}
 4794              	.LCFI113:
 4795              		.cfi_def_cfa_offset 8
 4796              		.cfi_offset 7, -8
 4797              		.cfi_offset 14, -4
 4798 0002 82B0     		sub	sp, sp, #8
 4799              	.LCFI114:
 4800              		.cfi_def_cfa_offset 16
 4801 0004 00AF     		add	r7, sp, #0
 4802              	.LCFI115:
 4803              		.cfi_def_cfa_register 7
1204:.\Generated_Source\PSoC5/TFTSHIELD_1.c ****     uint8 temp = TFTSHIELD_1_CR_1_Read();
 4804              		.loc 1 1204 0
 4805 0006 FFF7FEFF 		bl	TFTSHIELD_1_CR_1_Read
 4806 000a 0346     		mov	r3, r0
 4807 000c FB71     		strb	r3, [r7, #7]
1205:.\Generated_Source\PSoC5/TFTSHIELD_1.c ****     temp &= 0x0B;
 4808              		.loc 1 1205 0
 4809 000e FB79     		ldrb	r3, [r7, #7]
 4810 0010 03F00B03 		and	r3, r3, #11
ARM GAS  C:\Users\Brian\AppData\Local\Temp\ccPAhBxt.s 			page 107


 4811 0014 FB71     		strb	r3, [r7, #7]
1206:.\Generated_Source\PSoC5/TFTSHIELD_1.c ****     TFTSHIELD_1_CR_1_Write(temp);
 4812              		.loc 1 1206 0
 4813 0016 FB79     		ldrb	r3, [r7, #7]	@ zero_extendqisi2
 4814 0018 1846     		mov	r0, r3
 4815 001a FFF7FEFF 		bl	TFTSHIELD_1_CR_1_Write
1207:.\Generated_Source\PSoC5/TFTSHIELD_1.c **** }
 4816              		.loc 1 1207 0
 4817 001e 07F10807 		add	r7, r7, #8
 4818 0022 BD46     		mov	sp, r7
 4819 0024 80BD     		pop	{r7, pc}
 4820              		.cfi_endproc
 4821              	.LFE38:
 4822              		.size	TFTSHIELD_1_RT_CS_LOW, .-TFTSHIELD_1_RT_CS_LOW
 4823 0026 00BF     		.section	.text.TFTSHIELD_1_RT_CS_HIGH,"ax",%progbits
 4824              		.align	2
 4825              		.global	TFTSHIELD_1_RT_CS_HIGH
 4826              		.thumb
 4827              		.thumb_func
 4828              		.type	TFTSHIELD_1_RT_CS_HIGH, %function
 4829              	TFTSHIELD_1_RT_CS_HIGH:
 4830              	.LFB39:
1208:.\Generated_Source\PSoC5/TFTSHIELD_1.c **** 
1209:.\Generated_Source\PSoC5/TFTSHIELD_1.c **** /**************************************************************************//**
1210:.\Generated_Source\PSoC5/TFTSHIELD_1.c **** *  @brief Sets touchscreen command select line to high
1211:.\Generated_Source\PSoC5/TFTSHIELD_1.c **** *
1212:.\Generated_Source\PSoC5/TFTSHIELD_1.c **** *******************************************************************************/
1213:.\Generated_Source\PSoC5/TFTSHIELD_1.c **** void TFTSHIELD_1_RT_CS_HIGH(void)
1214:.\Generated_Source\PSoC5/TFTSHIELD_1.c **** {
 4831              		.loc 1 1214 0
 4832              		.cfi_startproc
 4833              		@ args = 0, pretend = 0, frame = 8
 4834              		@ frame_needed = 1, uses_anonymous_args = 0
 4835 0000 80B5     		push	{r7, lr}
 4836              	.LCFI116:
 4837              		.cfi_def_cfa_offset 8
 4838              		.cfi_offset 7, -8
 4839              		.cfi_offset 14, -4
 4840 0002 82B0     		sub	sp, sp, #8
 4841              	.LCFI117:
 4842              		.cfi_def_cfa_offset 16
 4843 0004 00AF     		add	r7, sp, #0
 4844              	.LCFI118:
 4845              		.cfi_def_cfa_register 7
1215:.\Generated_Source\PSoC5/TFTSHIELD_1.c ****     uint8 temp = TFTSHIELD_1_CR_1_Read();
 4846              		.loc 1 1215 0
 4847 0006 FFF7FEFF 		bl	TFTSHIELD_1_CR_1_Read
 4848 000a 0346     		mov	r3, r0
 4849 000c FB71     		strb	r3, [r7, #7]
1216:.\Generated_Source\PSoC5/TFTSHIELD_1.c ****     temp |= 0x04;
 4850              		.loc 1 1216 0
 4851 000e FB79     		ldrb	r3, [r7, #7]
 4852 0010 43F00403 		orr	r3, r3, #4
 4853 0014 FB71     		strb	r3, [r7, #7]
1217:.\Generated_Source\PSoC5/TFTSHIELD_1.c ****     TFTSHIELD_1_CR_1_Write(temp);
 4854              		.loc 1 1217 0
 4855 0016 FB79     		ldrb	r3, [r7, #7]	@ zero_extendqisi2
ARM GAS  C:\Users\Brian\AppData\Local\Temp\ccPAhBxt.s 			page 108


 4856 0018 1846     		mov	r0, r3
 4857 001a FFF7FEFF 		bl	TFTSHIELD_1_CR_1_Write
1218:.\Generated_Source\PSoC5/TFTSHIELD_1.c **** }
 4858              		.loc 1 1218 0
 4859 001e 07F10807 		add	r7, r7, #8
 4860 0022 BD46     		mov	sp, r7
 4861 0024 80BD     		pop	{r7, pc}
 4862              		.cfi_endproc
 4863              	.LFE39:
 4864              		.size	TFTSHIELD_1_RT_CS_HIGH, .-TFTSHIELD_1_RT_CS_HIGH
 4865 0026 00BF     		.section	.text.TFTSHIELD_1_StartTouch,"ax",%progbits
 4866              		.align	2
 4867              		.global	TFTSHIELD_1_StartTouch
 4868              		.thumb
 4869              		.thumb_func
 4870              		.type	TFTSHIELD_1_StartTouch, %function
 4871              	TFTSHIELD_1_StartTouch:
 4872              	.LFB40:
1219:.\Generated_Source\PSoC5/TFTSHIELD_1.c **** 
1220:.\Generated_Source\PSoC5/TFTSHIELD_1.c **** 
1221:.\Generated_Source\PSoC5/TFTSHIELD_1.c **** /**************************************************************************//**
1222:.\Generated_Source\PSoC5/TFTSHIELD_1.c **** *  @brief Initializes touchscreen
1223:.\Generated_Source\PSoC5/TFTSHIELD_1.c **** *
1224:.\Generated_Source\PSoC5/TFTSHIELD_1.c **** *******************************************************************************/
1225:.\Generated_Source\PSoC5/TFTSHIELD_1.c **** bool TFTSHIELD_1_StartTouch(void)
1226:.\Generated_Source\PSoC5/TFTSHIELD_1.c **** {
 4873              		.loc 1 1226 0
 4874              		.cfi_startproc
 4875              		@ args = 0, pretend = 0, frame = 8
 4876              		@ frame_needed = 1, uses_anonymous_args = 0
 4877 0000 80B5     		push	{r7, lr}
 4878              	.LCFI119:
 4879              		.cfi_def_cfa_offset 8
 4880              		.cfi_offset 7, -8
 4881              		.cfi_offset 14, -4
 4882 0002 82B0     		sub	sp, sp, #8
 4883              	.LCFI120:
 4884              		.cfi_def_cfa_offset 16
 4885 0004 00AF     		add	r7, sp, #0
 4886              	.LCFI121:
 4887              		.cfi_def_cfa_register 7
1227:.\Generated_Source\PSoC5/TFTSHIELD_1.c ****     TFTSHIELD_1_SPIM_1_Start();
 4888              		.loc 1 1227 0
 4889 0006 FFF7FEFF 		bl	TFTSHIELD_1_SPIM_1_Start
1228:.\Generated_Source\PSoC5/TFTSHIELD_1.c ****     if (TFTSHIELD_1_GetVersion() != 0x811)
 4890              		.loc 1 1228 0
 4891 000a FFF7FEFF 		bl	TFTSHIELD_1_GetVersion
 4892 000e 0346     		mov	r3, r0
 4893 0010 1A46     		mov	r2, r3
 4894 0012 40F61103 		movw	r3, #2065
 4895 0016 9A42     		cmp	r2, r3
 4896 0018 02D0     		beq	.L123
1229:.\Generated_Source\PSoC5/TFTSHIELD_1.c ****     {
1230:.\Generated_Source\PSoC5/TFTSHIELD_1.c ****         return false;
 4897              		.loc 1 1230 0
 4898 001a 4FF00003 		mov	r3, #0
 4899 001e 6FE0     		b	.L124
ARM GAS  C:\Users\Brian\AppData\Local\Temp\ccPAhBxt.s 			page 109


 4900              	.L123:
1231:.\Generated_Source\PSoC5/TFTSHIELD_1.c ****     }
1232:.\Generated_Source\PSoC5/TFTSHIELD_1.c ****     
1233:.\Generated_Source\PSoC5/TFTSHIELD_1.c ****     TFTSHIELD_1_RT_CS_HIGH();
 4901              		.loc 1 1233 0
 4902 0020 FFF7FEFF 		bl	TFTSHIELD_1_RT_CS_HIGH
1234:.\Generated_Source\PSoC5/TFTSHIELD_1.c ****     
1235:.\Generated_Source\PSoC5/TFTSHIELD_1.c ****     TFTSHIELD_1_WriteRegister8(STMPE_SYS_CTRL1, STMPE_SYS_CTRL1_RESET);
 4903              		.loc 1 1235 0
 4904 0024 4FF00300 		mov	r0, #3
 4905 0028 4FF00201 		mov	r1, #2
 4906 002c FFF7FEFF 		bl	TFTSHIELD_1_WriteRegister8
1236:.\Generated_Source\PSoC5/TFTSHIELD_1.c ****     CyDelay(10);
 4907              		.loc 1 1236 0
 4908 0030 4FF00A00 		mov	r0, #10
 4909 0034 FFF7FEFF 		bl	CyDelay
1237:.\Generated_Source\PSoC5/TFTSHIELD_1.c ****     //char buf[50];
1238:.\Generated_Source\PSoC5/TFTSHIELD_1.c ****     uint8_t i;
1239:.\Generated_Source\PSoC5/TFTSHIELD_1.c ****     uint8_t val = 0;
 4910              		.loc 1 1239 0
 4911 0038 4FF00003 		mov	r3, #0
 4912 003c BB71     		strb	r3, [r7, #6]
1240:.\Generated_Source\PSoC5/TFTSHIELD_1.c ****     for (i=1; i<65; i++)
 4913              		.loc 1 1240 0
 4914 003e 4FF00103 		mov	r3, #1
 4915 0042 FB71     		strb	r3, [r7, #7]
 4916 0044 09E0     		b	.L125
 4917              	.L126:
1241:.\Generated_Source\PSoC5/TFTSHIELD_1.c ****     {
1242:.\Generated_Source\PSoC5/TFTSHIELD_1.c ****         val = TFTSHIELD_1_ReadRegister8(i);
 4918              		.loc 1 1242 0 discriminator 2
 4919 0046 FB79     		ldrb	r3, [r7, #7]	@ zero_extendqisi2
 4920 0048 1846     		mov	r0, r3
 4921 004a FFF7FEFF 		bl	TFTSHIELD_1_ReadRegister8
 4922 004e 0346     		mov	r3, r0
 4923 0050 BB71     		strb	r3, [r7, #6]
1240:.\Generated_Source\PSoC5/TFTSHIELD_1.c ****     for (i=1; i<65; i++)
 4924              		.loc 1 1240 0 discriminator 2
 4925 0052 FB79     		ldrb	r3, [r7, #7]
 4926 0054 03F10103 		add	r3, r3, #1
 4927 0058 FB71     		strb	r3, [r7, #7]
 4928              	.L125:
1240:.\Generated_Source\PSoC5/TFTSHIELD_1.c ****     for (i=1; i<65; i++)
 4929              		.loc 1 1240 0 is_stmt 0 discriminator 1
 4930 005a FB79     		ldrb	r3, [r7, #7]	@ zero_extendqisi2
 4931 005c 402B     		cmp	r3, #64
 4932 005e F2D9     		bls	.L126
1243:.\Generated_Source\PSoC5/TFTSHIELD_1.c ****         //sprintf(buf,"reg num %i = %i\n",i,val);
1244:.\Generated_Source\PSoC5/TFTSHIELD_1.c ****         //TFTSHIELD_1_PrintString(buf);
1245:.\Generated_Source\PSoC5/TFTSHIELD_1.c ****     }
1246:.\Generated_Source\PSoC5/TFTSHIELD_1.c **** 
1247:.\Generated_Source\PSoC5/TFTSHIELD_1.c ****     TFTSHIELD_1_WriteRegister8(STMPE_SYS_CTRL2, 0x0); // turn on clocks!
 4933              		.loc 1 1247 0 is_stmt 1
 4934 0060 4FF00400 		mov	r0, #4
 4935 0064 4FF00001 		mov	r1, #0
 4936 0068 FFF7FEFF 		bl	TFTSHIELD_1_WriteRegister8
1248:.\Generated_Source\PSoC5/TFTSHIELD_1.c ****     TFTSHIELD_1_WriteRegister8(STMPE_TSC_CTRL, STMPE_TSC_CTRL_XYZ | STMPE_TSC_CTRL_EN); // XYZ and 
ARM GAS  C:\Users\Brian\AppData\Local\Temp\ccPAhBxt.s 			page 110


 4937              		.loc 1 1248 0
 4938 006c 4FF04000 		mov	r0, #64
 4939 0070 4FF00101 		mov	r1, #1
 4940 0074 FFF7FEFF 		bl	TFTSHIELD_1_WriteRegister8
1249:.\Generated_Source\PSoC5/TFTSHIELD_1.c ****     TFTSHIELD_1_WriteRegister8(STMPE_INT_EN, STMPE_INT_EN_TOUCHDET);
 4941              		.loc 1 1249 0
 4942 0078 4FF00A00 		mov	r0, #10
 4943 007c 4FF00101 		mov	r1, #1
 4944 0080 FFF7FEFF 		bl	TFTSHIELD_1_WriteRegister8
1250:.\Generated_Source\PSoC5/TFTSHIELD_1.c ****     TFTSHIELD_1_WriteRegister8(STMPE_ADC_CTRL1, STMPE_ADC_CTRL1_10BIT | (0x6 << 4)); // 96 clocks p
 4945              		.loc 1 1250 0
 4946 0084 4FF02000 		mov	r0, #32
 4947 0088 4FF06001 		mov	r1, #96
 4948 008c FFF7FEFF 		bl	TFTSHIELD_1_WriteRegister8
1251:.\Generated_Source\PSoC5/TFTSHIELD_1.c ****     TFTSHIELD_1_WriteRegister8(STMPE_ADC_CTRL2, STMPE_ADC_CTRL2_6_5MHZ);
 4949              		.loc 1 1251 0
 4950 0090 4FF02100 		mov	r0, #33
 4951 0094 4FF00201 		mov	r1, #2
 4952 0098 FFF7FEFF 		bl	TFTSHIELD_1_WriteRegister8
1252:.\Generated_Source\PSoC5/TFTSHIELD_1.c ****     TFTSHIELD_1_WriteRegister8(STMPE_TSC_CFG, STMPE_TSC_CFG_4SAMPLE | STMPE_TSC_CFG_DELAY_1MS | STM
 4953              		.loc 1 1252 0
 4954 009c 4FF04100 		mov	r0, #65
 4955 00a0 4FF0A401 		mov	r1, #164
 4956 00a4 FFF7FEFF 		bl	TFTSHIELD_1_WriteRegister8
1253:.\Generated_Source\PSoC5/TFTSHIELD_1.c ****     TFTSHIELD_1_WriteRegister8(STMPE_TSC_FRACTION_Z, 0x6);
 4957              		.loc 1 1253 0
 4958 00a8 4FF05600 		mov	r0, #86
 4959 00ac 4FF00601 		mov	r1, #6
 4960 00b0 FFF7FEFF 		bl	TFTSHIELD_1_WriteRegister8
1254:.\Generated_Source\PSoC5/TFTSHIELD_1.c ****     TFTSHIELD_1_WriteRegister8(STMPE_FIFO_TH, 1);
 4961              		.loc 1 1254 0
 4962 00b4 4FF04A00 		mov	r0, #74
 4963 00b8 4FF00101 		mov	r1, #1
 4964 00bc FFF7FEFF 		bl	TFTSHIELD_1_WriteRegister8
1255:.\Generated_Source\PSoC5/TFTSHIELD_1.c ****     TFTSHIELD_1_WriteRegister8(STMPE_FIFO_STA, STMPE_FIFO_STA_RESET);
 4965              		.loc 1 1255 0
 4966 00c0 4FF04B00 		mov	r0, #75
 4967 00c4 4FF00101 		mov	r1, #1
 4968 00c8 FFF7FEFF 		bl	TFTSHIELD_1_WriteRegister8
1256:.\Generated_Source\PSoC5/TFTSHIELD_1.c ****     TFTSHIELD_1_WriteRegister8(STMPE_FIFO_STA, 0);    // unreset
 4969              		.loc 1 1256 0
 4970 00cc 4FF04B00 		mov	r0, #75
 4971 00d0 4FF00001 		mov	r1, #0
 4972 00d4 FFF7FEFF 		bl	TFTSHIELD_1_WriteRegister8
1257:.\Generated_Source\PSoC5/TFTSHIELD_1.c ****     TFTSHIELD_1_WriteRegister8(STMPE_TSC_I_DRIVE, STMPE_TSC_I_DRIVE_50MA);
 4973              		.loc 1 1257 0
 4974 00d8 4FF05800 		mov	r0, #88
 4975 00dc 4FF00101 		mov	r1, #1
 4976 00e0 FFF7FEFF 		bl	TFTSHIELD_1_WriteRegister8
1258:.\Generated_Source\PSoC5/TFTSHIELD_1.c ****     TFTSHIELD_1_WriteRegister8(STMPE_INT_STA, 0xFF); // reset all ints
 4977              		.loc 1 1258 0
 4978 00e4 4FF00B00 		mov	r0, #11
 4979 00e8 4FF0FF01 		mov	r1, #255
 4980 00ec FFF7FEFF 		bl	TFTSHIELD_1_WriteRegister8
1259:.\Generated_Source\PSoC5/TFTSHIELD_1.c ****     TFTSHIELD_1_WriteRegister8(STMPE_INT_CTRL, STMPE_INT_CTRL_POL_HIGH | STMPE_INT_CTRL_ENABLE);
 4981              		.loc 1 1259 0
 4982 00f0 4FF00900 		mov	r0, #9
ARM GAS  C:\Users\Brian\AppData\Local\Temp\ccPAhBxt.s 			page 111


 4983 00f4 4FF00501 		mov	r1, #5
 4984 00f8 FFF7FEFF 		bl	TFTSHIELD_1_WriteRegister8
1260:.\Generated_Source\PSoC5/TFTSHIELD_1.c **** 
1261:.\Generated_Source\PSoC5/TFTSHIELD_1.c ****     
1262:.\Generated_Source\PSoC5/TFTSHIELD_1.c ****     /*for (i=1; i<65; i++)
1263:.\Generated_Source\PSoC5/TFTSHIELD_1.c ****     {
1264:.\Generated_Source\PSoC5/TFTSHIELD_1.c ****         val = TFTSHIELD_1_ReadRegister8(i);
1265:.\Generated_Source\PSoC5/TFTSHIELD_1.c ****         //sprintf(buf,"reg num %i = %i\n",i,val);
1266:.\Generated_Source\PSoC5/TFTSHIELD_1.c ****         //TFTSHIELD_1_PrintString(buf);
1267:.\Generated_Source\PSoC5/TFTSHIELD_1.c ****     }*/
1268:.\Generated_Source\PSoC5/TFTSHIELD_1.c ****     
1269:.\Generated_Source\PSoC5/TFTSHIELD_1.c ****     return true;
 4985              		.loc 1 1269 0
 4986 00fc 4FF00103 		mov	r3, #1
 4987              	.L124:
1270:.\Generated_Source\PSoC5/TFTSHIELD_1.c **** }
 4988              		.loc 1 1270 0
 4989 0100 1846     		mov	r0, r3
 4990 0102 07F10807 		add	r7, r7, #8
 4991 0106 BD46     		mov	sp, r7
 4992 0108 80BD     		pop	{r7, pc}
 4993              		.cfi_endproc
 4994              	.LFE40:
 4995              		.size	TFTSHIELD_1_StartTouch, .-TFTSHIELD_1_StartTouch
 4996 010a 00BF     		.section	.text.TFTSHIELD_1_WriteRegister8,"ax",%progbits
 4997              		.align	2
 4998              		.global	TFTSHIELD_1_WriteRegister8
 4999              		.thumb
 5000              		.thumb_func
 5001              		.type	TFTSHIELD_1_WriteRegister8, %function
 5002              	TFTSHIELD_1_WriteRegister8:
 5003              	.LFB41:
1271:.\Generated_Source\PSoC5/TFTSHIELD_1.c **** 
1272:.\Generated_Source\PSoC5/TFTSHIELD_1.c **** /**************************************************************************//**
1273:.\Generated_Source\PSoC5/TFTSHIELD_1.c **** *  @brief Writes register value to touchscreen
1274:.\Generated_Source\PSoC5/TFTSHIELD_1.c **** *
1275:.\Generated_Source\PSoC5/TFTSHIELD_1.c **** *  @param reg: register
1276:.\Generated_Source\PSoC5/TFTSHIELD_1.c **** *  @param val: value to be written
1277:.\Generated_Source\PSoC5/TFTSHIELD_1.c **** *
1278:.\Generated_Source\PSoC5/TFTSHIELD_1.c **** *******************************************************************************/
1279:.\Generated_Source\PSoC5/TFTSHIELD_1.c **** void TFTSHIELD_1_WriteRegister8(uint16_t reg, uint16_t val)
1280:.\Generated_Source\PSoC5/TFTSHIELD_1.c **** {
 5004              		.loc 1 1280 0
 5005              		.cfi_startproc
 5006              		@ args = 0, pretend = 0, frame = 8
 5007              		@ frame_needed = 1, uses_anonymous_args = 0
 5008 0000 80B5     		push	{r7, lr}
 5009              	.LCFI122:
 5010              		.cfi_def_cfa_offset 8
 5011              		.cfi_offset 7, -8
 5012              		.cfi_offset 14, -4
 5013 0002 82B0     		sub	sp, sp, #8
 5014              	.LCFI123:
 5015              		.cfi_def_cfa_offset 16
 5016 0004 00AF     		add	r7, sp, #0
 5017              	.LCFI124:
 5018              		.cfi_def_cfa_register 7
ARM GAS  C:\Users\Brian\AppData\Local\Temp\ccPAhBxt.s 			page 112


 5019 0006 0246     		mov	r2, r0
 5020 0008 0B46     		mov	r3, r1
 5021 000a FA80     		strh	r2, [r7, #6]	@ movhi
 5022 000c BB80     		strh	r3, [r7, #4]	@ movhi
1281:.\Generated_Source\PSoC5/TFTSHIELD_1.c ****     TFTSHIELD_1_RT_CS_LOW();
 5023              		.loc 1 1281 0
 5024 000e FFF7FEFF 		bl	TFTSHIELD_1_RT_CS_LOW
1282:.\Generated_Source\PSoC5/TFTSHIELD_1.c ****      CyDelay(1);
 5025              		.loc 1 1282 0
 5026 0012 4FF00100 		mov	r0, #1
 5027 0016 FFF7FEFF 		bl	CyDelay
1283:.\Generated_Source\PSoC5/TFTSHIELD_1.c ****     TFTSHIELD_1_SPITransfer(reg);
 5028              		.loc 1 1283 0
 5029 001a FB88     		ldrh	r3, [r7, #6]	@ movhi
 5030 001c DBB2     		uxtb	r3, r3
 5031 001e 1846     		mov	r0, r3
 5032 0020 FFF7FEFF 		bl	TFTSHIELD_1_SPITransfer
1284:.\Generated_Source\PSoC5/TFTSHIELD_1.c ****      CyDelay(1);
 5033              		.loc 1 1284 0
 5034 0024 4FF00100 		mov	r0, #1
 5035 0028 FFF7FEFF 		bl	CyDelay
1285:.\Generated_Source\PSoC5/TFTSHIELD_1.c ****     TFTSHIELD_1_SPITransfer(val);
 5036              		.loc 1 1285 0
 5037 002c BB88     		ldrh	r3, [r7, #4]	@ movhi
 5038 002e DBB2     		uxtb	r3, r3
 5039 0030 1846     		mov	r0, r3
 5040 0032 FFF7FEFF 		bl	TFTSHIELD_1_SPITransfer
1286:.\Generated_Source\PSoC5/TFTSHIELD_1.c ****      CyDelay(1);
 5041              		.loc 1 1286 0
 5042 0036 4FF00100 		mov	r0, #1
 5043 003a FFF7FEFF 		bl	CyDelay
1287:.\Generated_Source\PSoC5/TFTSHIELD_1.c ****     TFTSHIELD_1_RT_CS_HIGH();
 5044              		.loc 1 1287 0
 5045 003e FFF7FEFF 		bl	TFTSHIELD_1_RT_CS_HIGH
1288:.\Generated_Source\PSoC5/TFTSHIELD_1.c **** }
 5046              		.loc 1 1288 0
 5047 0042 07F10807 		add	r7, r7, #8
 5048 0046 BD46     		mov	sp, r7
 5049 0048 80BD     		pop	{r7, pc}
 5050              		.cfi_endproc
 5051              	.LFE41:
 5052              		.size	TFTSHIELD_1_WriteRegister8, .-TFTSHIELD_1_WriteRegister8
 5053 004a 00BF     		.section	.text.TFTSHIELD_1_ReadRegister16,"ax",%progbits
 5054              		.align	2
 5055              		.global	TFTSHIELD_1_ReadRegister16
 5056              		.thumb
 5057              		.thumb_func
 5058              		.type	TFTSHIELD_1_ReadRegister16, %function
 5059              	TFTSHIELD_1_ReadRegister16:
 5060              	.LFB42:
1289:.\Generated_Source\PSoC5/TFTSHIELD_1.c **** 
1290:.\Generated_Source\PSoC5/TFTSHIELD_1.c **** /**************************************************************************//**
1291:.\Generated_Source\PSoC5/TFTSHIELD_1.c **** *  @brief Reads register value from touchscreen
1292:.\Generated_Source\PSoC5/TFTSHIELD_1.c **** *
1293:.\Generated_Source\PSoC5/TFTSHIELD_1.c **** *  @param reg: register
1294:.\Generated_Source\PSoC5/TFTSHIELD_1.c **** *
1295:.\Generated_Source\PSoC5/TFTSHIELD_1.c **** *  @return: 16 bit register value
ARM GAS  C:\Users\Brian\AppData\Local\Temp\ccPAhBxt.s 			page 113


1296:.\Generated_Source\PSoC5/TFTSHIELD_1.c **** *
1297:.\Generated_Source\PSoC5/TFTSHIELD_1.c **** *******************************************************************************/
1298:.\Generated_Source\PSoC5/TFTSHIELD_1.c **** uint16_t TFTSHIELD_1_ReadRegister16(uint16_t reg)
1299:.\Generated_Source\PSoC5/TFTSHIELD_1.c **** {
 5061              		.loc 1 1299 0
 5062              		.cfi_startproc
 5063              		@ args = 0, pretend = 0, frame = 16
 5064              		@ frame_needed = 1, uses_anonymous_args = 0
 5065 0000 80B5     		push	{r7, lr}
 5066              	.LCFI125:
 5067              		.cfi_def_cfa_offset 8
 5068              		.cfi_offset 7, -8
 5069              		.cfi_offset 14, -4
 5070 0002 84B0     		sub	sp, sp, #16
 5071              	.LCFI126:
 5072              		.cfi_def_cfa_offset 24
 5073 0004 00AF     		add	r7, sp, #0
 5074              	.LCFI127:
 5075              		.cfi_def_cfa_register 7
 5076 0006 0346     		mov	r3, r0
 5077 0008 FB80     		strh	r3, [r7, #6]	@ movhi
1300:.\Generated_Source\PSoC5/TFTSHIELD_1.c ****     uint16_t output;
1301:.\Generated_Source\PSoC5/TFTSHIELD_1.c ****     
1302:.\Generated_Source\PSoC5/TFTSHIELD_1.c ****     TFTSHIELD_1_RT_CS_LOW();
 5078              		.loc 1 1302 0
 5079 000a FFF7FEFF 		bl	TFTSHIELD_1_RT_CS_LOW
1303:.\Generated_Source\PSoC5/TFTSHIELD_1.c ****     TFTSHIELD_1_SPIM_1_WriteTxData(0x80 | reg);
 5080              		.loc 1 1303 0
 5081 000e FB88     		ldrh	r3, [r7, #6]	@ movhi
 5082 0010 43F08003 		orr	r3, r3, #128
 5083 0014 9BB2     		uxth	r3, r3
 5084 0016 1846     		mov	r0, r3
 5085 0018 FFF7FEFF 		bl	TFTSHIELD_1_SPIM_1_WriteTxData
1304:.\Generated_Source\PSoC5/TFTSHIELD_1.c ****     TFTSHIELD_1_SPIM_1_WriteTxData(0x00);
 5086              		.loc 1 1304 0
 5087 001c 4FF00000 		mov	r0, #0
 5088 0020 FFF7FEFF 		bl	TFTSHIELD_1_SPIM_1_WriteTxData
1305:.\Generated_Source\PSoC5/TFTSHIELD_1.c ****     
1306:.\Generated_Source\PSoC5/TFTSHIELD_1.c ****     while(!TFTSHIELD_1_SPIM_1_GetRxBufferSize());
 5089              		.loc 1 1306 0
 5090 0024 00BF     		nop
 5091              	.L129:
 5092              		.loc 1 1306 0 is_stmt 0 discriminator 1
 5093 0026 FFF7FEFF 		bl	TFTSHIELD_1_SPIM_1_GetRxBufferSize
 5094 002a 0346     		mov	r3, r0
 5095 002c 002B     		cmp	r3, #0
 5096 002e FAD0     		beq	.L129
1307:.\Generated_Source\PSoC5/TFTSHIELD_1.c ****     //{
1308:.\Generated_Source\PSoC5/TFTSHIELD_1.c ****         //TFTSHIELD_1_SPIM_1_WriteTxData(0);
1309:.\Generated_Source\PSoC5/TFTSHIELD_1.c ****         output = TFTSHIELD_1_SPIM_1_ReadRxData();
 5097              		.loc 1 1309 0 is_stmt 1
 5098 0030 FFF7FEFF 		bl	TFTSHIELD_1_SPIM_1_ReadRxData
 5099 0034 0346     		mov	r3, r0
 5100 0036 FB81     		strh	r3, [r7, #14]	@ movhi
1310:.\Generated_Source\PSoC5/TFTSHIELD_1.c ****         output <<= 8;
 5101              		.loc 1 1310 0
 5102 0038 FB89     		ldrh	r3, [r7, #14]	@ movhi
ARM GAS  C:\Users\Brian\AppData\Local\Temp\ccPAhBxt.s 			page 114


 5103 003a 4FEA0323 		lsl	r3, r3, #8
 5104 003e FB81     		strh	r3, [r7, #14]	@ movhi
1311:.\Generated_Source\PSoC5/TFTSHIELD_1.c ****         while(!TFTSHIELD_1_SPIM_1_GetRxBufferSize());
 5105              		.loc 1 1311 0
 5106 0040 00BF     		nop
 5107              	.L130:
 5108              		.loc 1 1311 0 is_stmt 0 discriminator 1
 5109 0042 FFF7FEFF 		bl	TFTSHIELD_1_SPIM_1_GetRxBufferSize
 5110 0046 0346     		mov	r3, r0
 5111 0048 002B     		cmp	r3, #0
 5112 004a FAD0     		beq	.L130
1312:.\Generated_Source\PSoC5/TFTSHIELD_1.c ****         //{
1313:.\Generated_Source\PSoC5/TFTSHIELD_1.c ****             //TFTSHIELD_1_SPIM_1_WriteTxData(0);
1314:.\Generated_Source\PSoC5/TFTSHIELD_1.c ****             output |= TFTSHIELD_1_SPIM_1_ReadRxData();
 5113              		.loc 1 1314 0 is_stmt 1
 5114 004c FFF7FEFF 		bl	TFTSHIELD_1_SPIM_1_ReadRxData
 5115 0050 0346     		mov	r3, r0
 5116 0052 9AB2     		uxth	r2, r3
 5117 0054 FB89     		ldrh	r3, [r7, #14]
 5118 0056 1343     		orrs	r3, r3, r2
 5119 0058 9BB2     		uxth	r3, r3
 5120 005a FB81     		strh	r3, [r7, #14]	@ movhi
1315:.\Generated_Source\PSoC5/TFTSHIELD_1.c ****        // }
1316:.\Generated_Source\PSoC5/TFTSHIELD_1.c ****     //}
1317:.\Generated_Source\PSoC5/TFTSHIELD_1.c ****     TFTSHIELD_1_RT_CS_HIGH();
 5121              		.loc 1 1317 0
 5122 005c FFF7FEFF 		bl	TFTSHIELD_1_RT_CS_HIGH
1318:.\Generated_Source\PSoC5/TFTSHIELD_1.c ****     
1319:.\Generated_Source\PSoC5/TFTSHIELD_1.c ****     return output;
 5123              		.loc 1 1319 0
 5124 0060 FB89     		ldrh	r3, [r7, #14]
1320:.\Generated_Source\PSoC5/TFTSHIELD_1.c **** }
 5125              		.loc 1 1320 0
 5126 0062 1846     		mov	r0, r3
 5127 0064 07F11007 		add	r7, r7, #16
 5128 0068 BD46     		mov	sp, r7
 5129 006a 80BD     		pop	{r7, pc}
 5130              		.cfi_endproc
 5131              	.LFE42:
 5132              		.size	TFTSHIELD_1_ReadRegister16, .-TFTSHIELD_1_ReadRegister16
 5133              		.section	.text.TFTSHIELD_1_ReadRegister8,"ax",%progbits
 5134              		.align	2
 5135              		.global	TFTSHIELD_1_ReadRegister8
 5136              		.thumb
 5137              		.thumb_func
 5138              		.type	TFTSHIELD_1_ReadRegister8, %function
 5139              	TFTSHIELD_1_ReadRegister8:
 5140              	.LFB43:
1321:.\Generated_Source\PSoC5/TFTSHIELD_1.c **** 
1322:.\Generated_Source\PSoC5/TFTSHIELD_1.c **** /**************************************************************************//**
1323:.\Generated_Source\PSoC5/TFTSHIELD_1.c **** *  @brief Reads register value from touchscreen
1324:.\Generated_Source\PSoC5/TFTSHIELD_1.c **** *
1325:.\Generated_Source\PSoC5/TFTSHIELD_1.c **** *  @param reg: register
1326:.\Generated_Source\PSoC5/TFTSHIELD_1.c **** *
1327:.\Generated_Source\PSoC5/TFTSHIELD_1.c **** *  @return: 8 bit register value
1328:.\Generated_Source\PSoC5/TFTSHIELD_1.c **** *
1329:.\Generated_Source\PSoC5/TFTSHIELD_1.c **** *******************************************************************************/
ARM GAS  C:\Users\Brian\AppData\Local\Temp\ccPAhBxt.s 			page 115


1330:.\Generated_Source\PSoC5/TFTSHIELD_1.c **** uint8_t TFTSHIELD_1_ReadRegister8(uint8_t reg)
1331:.\Generated_Source\PSoC5/TFTSHIELD_1.c **** {
 5141              		.loc 1 1331 0
 5142              		.cfi_startproc
 5143              		@ args = 0, pretend = 0, frame = 16
 5144              		@ frame_needed = 1, uses_anonymous_args = 0
 5145 0000 80B5     		push	{r7, lr}
 5146              	.LCFI128:
 5147              		.cfi_def_cfa_offset 8
 5148              		.cfi_offset 7, -8
 5149              		.cfi_offset 14, -4
 5150 0002 84B0     		sub	sp, sp, #16
 5151              	.LCFI129:
 5152              		.cfi_def_cfa_offset 24
 5153 0004 00AF     		add	r7, sp, #0
 5154              	.LCFI130:
 5155              		.cfi_def_cfa_register 7
 5156 0006 0346     		mov	r3, r0
 5157 0008 FB71     		strb	r3, [r7, #7]
1332:.\Generated_Source\PSoC5/TFTSHIELD_1.c ****     //CyDelay(1);
1333:.\Generated_Source\PSoC5/TFTSHIELD_1.c ****     uint8_t output;
1334:.\Generated_Source\PSoC5/TFTSHIELD_1.c ****     
1335:.\Generated_Source\PSoC5/TFTSHIELD_1.c ****     //TFTSHIELD_1_SPIM_1_ClearRxBuffer();
1336:.\Generated_Source\PSoC5/TFTSHIELD_1.c ****     //TFTSHIELD_1_SPIM_1_ClearTxBuffer();
1337:.\Generated_Source\PSoC5/TFTSHIELD_1.c ****     TFTSHIELD_1_RT_CS_LOW();
 5158              		.loc 1 1337 0
 5159 000a FFF7FEFF 		bl	TFTSHIELD_1_RT_CS_LOW
1338:.\Generated_Source\PSoC5/TFTSHIELD_1.c ****     CyDelay(1);
 5160              		.loc 1 1338 0
 5161 000e 4FF00100 		mov	r0, #1
 5162 0012 FFF7FEFF 		bl	CyDelay
1339:.\Generated_Source\PSoC5/TFTSHIELD_1.c ****     TFTSHIELD_1_SPIM_1_WriteTxData(0x80 | reg);
 5163              		.loc 1 1339 0
 5164 0016 FB79     		ldrb	r3, [r7, #7]
 5165 0018 63F07F03 		orn	r3, r3, #127
 5166 001c DBB2     		uxtb	r3, r3
 5167 001e 1846     		mov	r0, r3
 5168 0020 FFF7FEFF 		bl	TFTSHIELD_1_SPIM_1_WriteTxData
1340:.\Generated_Source\PSoC5/TFTSHIELD_1.c ****     CyDelay(1);
 5169              		.loc 1 1340 0
 5170 0024 4FF00100 		mov	r0, #1
 5171 0028 FFF7FEFF 		bl	CyDelay
1341:.\Generated_Source\PSoC5/TFTSHIELD_1.c ****     TFTSHIELD_1_SPIM_1_WriteTxData(0x00);
 5172              		.loc 1 1341 0
 5173 002c 4FF00000 		mov	r0, #0
 5174 0030 FFF7FEFF 		bl	TFTSHIELD_1_SPIM_1_WriteTxData
1342:.\Generated_Source\PSoC5/TFTSHIELD_1.c ****     CyDelay(1);
 5175              		.loc 1 1342 0
 5176 0034 4FF00100 		mov	r0, #1
 5177 0038 FFF7FEFF 		bl	CyDelay
1343:.\Generated_Source\PSoC5/TFTSHIELD_1.c ****     while(!TFTSHIELD_1_SPIM_1_GetRxBufferSize());
 5178              		.loc 1 1343 0
 5179 003c 00BF     		nop
 5180              	.L133:
 5181              		.loc 1 1343 0 is_stmt 0 discriminator 1
 5182 003e FFF7FEFF 		bl	TFTSHIELD_1_SPIM_1_GetRxBufferSize
 5183 0042 0346     		mov	r3, r0
ARM GAS  C:\Users\Brian\AppData\Local\Temp\ccPAhBxt.s 			page 116


 5184 0044 002B     		cmp	r3, #0
 5185 0046 FAD0     		beq	.L133
1344:.\Generated_Source\PSoC5/TFTSHIELD_1.c ****     //{  
1345:.\Generated_Source\PSoC5/TFTSHIELD_1.c ****         CyDelay(1);
 5186              		.loc 1 1345 0 is_stmt 1
 5187 0048 4FF00100 		mov	r0, #1
 5188 004c FFF7FEFF 		bl	CyDelay
1346:.\Generated_Source\PSoC5/TFTSHIELD_1.c ****         TFTSHIELD_1_SPIM_1_WriteTxData(0);
 5189              		.loc 1 1346 0
 5190 0050 4FF00000 		mov	r0, #0
 5191 0054 FFF7FEFF 		bl	TFTSHIELD_1_SPIM_1_WriteTxData
1347:.\Generated_Source\PSoC5/TFTSHIELD_1.c ****         CyDelayUs(100);
 5192              		.loc 1 1347 0
 5193 0058 4FF06400 		mov	r0, #100
 5194 005c FFF7FEFF 		bl	CyDelayUs
1348:.\Generated_Source\PSoC5/TFTSHIELD_1.c ****         while(!TFTSHIELD_1_SPIM_1_GetRxBufferSize());
 5195              		.loc 1 1348 0
 5196 0060 00BF     		nop
 5197              	.L134:
 5198              		.loc 1 1348 0 is_stmt 0 discriminator 1
 5199 0062 FFF7FEFF 		bl	TFTSHIELD_1_SPIM_1_GetRxBufferSize
 5200 0066 0346     		mov	r3, r0
 5201 0068 002B     		cmp	r3, #0
 5202 006a FAD0     		beq	.L134
1349:.\Generated_Source\PSoC5/TFTSHIELD_1.c ****         output = TFTSHIELD_1_SPIM_1_ReadRxData();
 5203              		.loc 1 1349 0 is_stmt 1
 5204 006c FFF7FEFF 		bl	TFTSHIELD_1_SPIM_1_ReadRxData
 5205 0070 0346     		mov	r3, r0
 5206 0072 FB73     		strb	r3, [r7, #15]
1350:.\Generated_Source\PSoC5/TFTSHIELD_1.c ****         //output = TFTSHIELD_1_SPIM_1_ReadRxData();
1351:.\Generated_Source\PSoC5/TFTSHIELD_1.c ****    // }
1352:.\Generated_Source\PSoC5/TFTSHIELD_1.c ****     TFTSHIELD_1_RT_CS_HIGH();
 5207              		.loc 1 1352 0
 5208 0074 FFF7FEFF 		bl	TFTSHIELD_1_RT_CS_HIGH
1353:.\Generated_Source\PSoC5/TFTSHIELD_1.c ****     
1354:.\Generated_Source\PSoC5/TFTSHIELD_1.c ****     return output;
 5209              		.loc 1 1354 0
 5210 0078 FB7B     		ldrb	r3, [r7, #15]	@ zero_extendqisi2
1355:.\Generated_Source\PSoC5/TFTSHIELD_1.c **** }
 5211              		.loc 1 1355 0
 5212 007a 1846     		mov	r0, r3
 5213 007c 07F11007 		add	r7, r7, #16
 5214 0080 BD46     		mov	sp, r7
 5215 0082 80BD     		pop	{r7, pc}
 5216              		.cfi_endproc
 5217              	.LFE43:
 5218              		.size	TFTSHIELD_1_ReadRegister8, .-TFTSHIELD_1_ReadRegister8
 5219              		.section	.text.TFTSHIELD_1_ReadData,"ax",%progbits
 5220              		.align	2
 5221              		.global	TFTSHIELD_1_ReadData
 5222              		.thumb
 5223              		.thumb_func
 5224              		.type	TFTSHIELD_1_ReadData, %function
 5225              	TFTSHIELD_1_ReadData:
 5226              	.LFB44:
1356:.\Generated_Source\PSoC5/TFTSHIELD_1.c **** 
1357:.\Generated_Source\PSoC5/TFTSHIELD_1.c **** /**************************************************************************//**
ARM GAS  C:\Users\Brian\AppData\Local\Temp\ccPAhBxt.s 			page 117


1358:.\Generated_Source\PSoC5/TFTSHIELD_1.c **** *  @brief Reads coordinates from touchscreen
1359:.\Generated_Source\PSoC5/TFTSHIELD_1.c **** *
1360:.\Generated_Source\PSoC5/TFTSHIELD_1.c **** *  @param x: x coordinate
1361:.\Generated_Source\PSoC5/TFTSHIELD_1.c **** *  @param y: y coordinate
1362:.\Generated_Source\PSoC5/TFTSHIELD_1.c **** *  @param z: pressure value
1363:.\Generated_Source\PSoC5/TFTSHIELD_1.c **** *
1364:.\Generated_Source\PSoC5/TFTSHIELD_1.c **** *******************************************************************************/
1365:.\Generated_Source\PSoC5/TFTSHIELD_1.c **** void TFTSHIELD_1_ReadData(uint16_t *x, uint16_t *y, uint8_t *z)
1366:.\Generated_Source\PSoC5/TFTSHIELD_1.c **** {
 5227              		.loc 1 1366 0
 5228              		.cfi_startproc
 5229              		@ args = 0, pretend = 0, frame = 24
 5230              		@ frame_needed = 1, uses_anonymous_args = 0
 5231 0000 90B5     		push	{r4, r7, lr}
 5232              	.LCFI131:
 5233              		.cfi_def_cfa_offset 12
 5234              		.cfi_offset 4, -12
 5235              		.cfi_offset 7, -8
 5236              		.cfi_offset 14, -4
 5237 0002 87B0     		sub	sp, sp, #28
 5238              	.LCFI132:
 5239              		.cfi_def_cfa_offset 40
 5240 0004 00AF     		add	r7, sp, #0
 5241              	.LCFI133:
 5242              		.cfi_def_cfa_register 7
 5243 0006 F860     		str	r0, [r7, #12]
 5244 0008 B960     		str	r1, [r7, #8]
 5245 000a 7A60     		str	r2, [r7, #4]
1367:.\Generated_Source\PSoC5/TFTSHIELD_1.c ****     uint8_t data[4];
1368:.\Generated_Source\PSoC5/TFTSHIELD_1.c ****     uint8_t i;
1369:.\Generated_Source\PSoC5/TFTSHIELD_1.c ****     
1370:.\Generated_Source\PSoC5/TFTSHIELD_1.c ****     for (i=0; i<4; i++)
 5246              		.loc 1 1370 0
 5247 000c 4FF00003 		mov	r3, #0
 5248 0010 FB75     		strb	r3, [r7, #23]
 5249 0012 0FE0     		b	.L137
 5250              	.L138:
1371:.\Generated_Source\PSoC5/TFTSHIELD_1.c ****     {
1372:.\Generated_Source\PSoC5/TFTSHIELD_1.c ****         data[i] = TFTSHIELD_1_ReadRegister8(0xD7);
 5251              		.loc 1 1372 0 discriminator 2
 5252 0014 FC7D     		ldrb	r4, [r7, #23]	@ zero_extendqisi2
 5253 0016 4FF0D700 		mov	r0, #215
 5254 001a FFF7FEFF 		bl	TFTSHIELD_1_ReadRegister8
 5255 001e 0346     		mov	r3, r0
 5256 0020 1A46     		mov	r2, r3
 5257 0022 07F11801 		add	r1, r7, #24
 5258 0026 0B19     		adds	r3, r1, r4
 5259 0028 03F8082C 		strb	r2, [r3, #-8]
1370:.\Generated_Source\PSoC5/TFTSHIELD_1.c ****     for (i=0; i<4; i++)
 5260              		.loc 1 1370 0 discriminator 2
 5261 002c FB7D     		ldrb	r3, [r7, #23]
 5262 002e 03F10103 		add	r3, r3, #1
 5263 0032 FB75     		strb	r3, [r7, #23]
 5264              	.L137:
1370:.\Generated_Source\PSoC5/TFTSHIELD_1.c ****     for (i=0; i<4; i++)
 5265              		.loc 1 1370 0 is_stmt 0 discriminator 1
 5266 0034 FB7D     		ldrb	r3, [r7, #23]	@ zero_extendqisi2
ARM GAS  C:\Users\Brian\AppData\Local\Temp\ccPAhBxt.s 			page 118


 5267 0036 032B     		cmp	r3, #3
 5268 0038 ECD9     		bls	.L138
1373:.\Generated_Source\PSoC5/TFTSHIELD_1.c ****     }
1374:.\Generated_Source\PSoC5/TFTSHIELD_1.c ****     *x = data[0];
 5269              		.loc 1 1374 0 is_stmt 1
 5270 003a 3B7C     		ldrb	r3, [r7, #16]	@ zero_extendqisi2
 5271 003c 1A46     		mov	r2, r3
 5272 003e FB68     		ldr	r3, [r7, #12]
 5273 0040 1A80     		strh	r2, [r3, #0]	@ movhi
1375:.\Generated_Source\PSoC5/TFTSHIELD_1.c ****     *x <<= 4;
 5274              		.loc 1 1375 0
 5275 0042 FB68     		ldr	r3, [r7, #12]
 5276 0044 1B88     		ldrh	r3, [r3, #0]
 5277 0046 4FEA0313 		lsl	r3, r3, #4
 5278 004a 9AB2     		uxth	r2, r3
 5279 004c FB68     		ldr	r3, [r7, #12]
 5280 004e 1A80     		strh	r2, [r3, #0]	@ movhi
1376:.\Generated_Source\PSoC5/TFTSHIELD_1.c ****     *x |= (data[1] >> 4);
 5281              		.loc 1 1376 0
 5282 0050 FB68     		ldr	r3, [r7, #12]
 5283 0052 1A88     		ldrh	r2, [r3, #0]
 5284 0054 7B7C     		ldrb	r3, [r7, #17]	@ zero_extendqisi2
 5285 0056 4FEA1313 		lsr	r3, r3, #4
 5286 005a DBB2     		uxtb	r3, r3
 5287 005c 1343     		orrs	r3, r3, r2
 5288 005e 9AB2     		uxth	r2, r3
 5289 0060 FB68     		ldr	r3, [r7, #12]
 5290 0062 1A80     		strh	r2, [r3, #0]	@ movhi
1377:.\Generated_Source\PSoC5/TFTSHIELD_1.c ****     *y = data[1] & 0x0F; 
 5291              		.loc 1 1377 0
 5292 0064 7B7C     		ldrb	r3, [r7, #17]	@ zero_extendqisi2
 5293 0066 03F00F03 		and	r3, r3, #15
 5294 006a 9AB2     		uxth	r2, r3
 5295 006c BB68     		ldr	r3, [r7, #8]
 5296 006e 1A80     		strh	r2, [r3, #0]	@ movhi
1378:.\Generated_Source\PSoC5/TFTSHIELD_1.c ****     *y <<= 8;
 5297              		.loc 1 1378 0
 5298 0070 BB68     		ldr	r3, [r7, #8]
 5299 0072 1B88     		ldrh	r3, [r3, #0]
 5300 0074 4FEA0323 		lsl	r3, r3, #8
 5301 0078 9AB2     		uxth	r2, r3
 5302 007a BB68     		ldr	r3, [r7, #8]
 5303 007c 1A80     		strh	r2, [r3, #0]	@ movhi
1379:.\Generated_Source\PSoC5/TFTSHIELD_1.c ****     *y |= data[2]; 
 5304              		.loc 1 1379 0
 5305 007e BB68     		ldr	r3, [r7, #8]
 5306 0080 1A88     		ldrh	r2, [r3, #0]
 5307 0082 BB7C     		ldrb	r3, [r7, #18]	@ zero_extendqisi2
 5308 0084 1343     		orrs	r3, r3, r2
 5309 0086 9AB2     		uxth	r2, r3
 5310 0088 BB68     		ldr	r3, [r7, #8]
 5311 008a 1A80     		strh	r2, [r3, #0]	@ movhi
1380:.\Generated_Source\PSoC5/TFTSHIELD_1.c ****     *z = data[3];
 5312              		.loc 1 1380 0
 5313 008c FA7C     		ldrb	r2, [r7, #19]	@ zero_extendqisi2
 5314 008e 7B68     		ldr	r3, [r7, #4]
 5315 0090 1A70     		strb	r2, [r3, #0]
ARM GAS  C:\Users\Brian\AppData\Local\Temp\ccPAhBxt.s 			page 119


1381:.\Generated_Source\PSoC5/TFTSHIELD_1.c ****     
1382:.\Generated_Source\PSoC5/TFTSHIELD_1.c ****     if(TFTSHIELD_1_BufferEmpty())
 5316              		.loc 1 1382 0
 5317 0092 FFF7FEFF 		bl	TFTSHIELD_1_BufferEmpty
 5318 0096 0346     		mov	r3, r0
 5319 0098 002B     		cmp	r3, #0
 5320 009a 05D0     		beq	.L136
1383:.\Generated_Source\PSoC5/TFTSHIELD_1.c ****     {
1384:.\Generated_Source\PSoC5/TFTSHIELD_1.c ****         TFTSHIELD_1_WriteRegister8(STMPE_INT_STA, 0xFF); // reset all ints
 5321              		.loc 1 1384 0
 5322 009c 4FF00B00 		mov	r0, #11
 5323 00a0 4FF0FF01 		mov	r1, #255
 5324 00a4 FFF7FEFF 		bl	TFTSHIELD_1_WriteRegister8
 5325              	.L136:
1385:.\Generated_Source\PSoC5/TFTSHIELD_1.c ****     }
1386:.\Generated_Source\PSoC5/TFTSHIELD_1.c ****     
1387:.\Generated_Source\PSoC5/TFTSHIELD_1.c **** }
 5326              		.loc 1 1387 0
 5327 00a8 07F11C07 		add	r7, r7, #28
 5328 00ac BD46     		mov	sp, r7
 5329 00ae 90BD     		pop	{r4, r7, pc}
 5330              		.cfi_endproc
 5331              	.LFE44:
 5332              		.size	TFTSHIELD_1_ReadData, .-TFTSHIELD_1_ReadData
 5333              		.section	.text.TFTSHIELD_1_GetVersion,"ax",%progbits
 5334              		.align	2
 5335              		.global	TFTSHIELD_1_GetVersion
 5336              		.thumb
 5337              		.thumb_func
 5338              		.type	TFTSHIELD_1_GetVersion, %function
 5339              	TFTSHIELD_1_GetVersion:
 5340              	.LFB45:
1388:.\Generated_Source\PSoC5/TFTSHIELD_1.c **** 
1389:.\Generated_Source\PSoC5/TFTSHIELD_1.c **** /**************************************************************************//**
1390:.\Generated_Source\PSoC5/TFTSHIELD_1.c **** *  @brief Gets touchscreen version
1391:.\Generated_Source\PSoC5/TFTSHIELD_1.c **** *
1392:.\Generated_Source\PSoC5/TFTSHIELD_1.c **** *  @return: version number
1393:.\Generated_Source\PSoC5/TFTSHIELD_1.c **** *
1394:.\Generated_Source\PSoC5/TFTSHIELD_1.c **** *******************************************************************************/
1395:.\Generated_Source\PSoC5/TFTSHIELD_1.c **** uint16_t TFTSHIELD_1_GetVersion()
1396:.\Generated_Source\PSoC5/TFTSHIELD_1.c **** {
 5341              		.loc 1 1396 0
 5342              		.cfi_startproc
 5343              		@ args = 0, pretend = 0, frame = 8
 5344              		@ frame_needed = 1, uses_anonymous_args = 0
 5345 0000 80B5     		push	{r7, lr}
 5346              	.LCFI134:
 5347              		.cfi_def_cfa_offset 8
 5348              		.cfi_offset 7, -8
 5349              		.cfi_offset 14, -4
 5350 0002 82B0     		sub	sp, sp, #8
 5351              	.LCFI135:
 5352              		.cfi_def_cfa_offset 16
 5353 0004 00AF     		add	r7, sp, #0
 5354              	.LCFI136:
 5355              		.cfi_def_cfa_register 7
1397:.\Generated_Source\PSoC5/TFTSHIELD_1.c ****     uint16_t v;
ARM GAS  C:\Users\Brian\AppData\Local\Temp\ccPAhBxt.s 			page 120


1398:.\Generated_Source\PSoC5/TFTSHIELD_1.c ****     
1399:.\Generated_Source\PSoC5/TFTSHIELD_1.c ****     v = TFTSHIELD_1_ReadRegister8(0);
 5356              		.loc 1 1399 0
 5357 0006 4FF00000 		mov	r0, #0
 5358 000a FFF7FEFF 		bl	TFTSHIELD_1_ReadRegister8
 5359 000e 0346     		mov	r3, r0
 5360 0010 FB80     		strh	r3, [r7, #6]	@ movhi
1400:.\Generated_Source\PSoC5/TFTSHIELD_1.c ****     v <<= 8;
 5361              		.loc 1 1400 0
 5362 0012 FB88     		ldrh	r3, [r7, #6]	@ movhi
 5363 0014 4FEA0323 		lsl	r3, r3, #8
 5364 0018 FB80     		strh	r3, [r7, #6]	@ movhi
1401:.\Generated_Source\PSoC5/TFTSHIELD_1.c ****     v |= TFTSHIELD_1_ReadRegister8(1);
 5365              		.loc 1 1401 0
 5366 001a 4FF00100 		mov	r0, #1
 5367 001e FFF7FEFF 		bl	TFTSHIELD_1_ReadRegister8
 5368 0022 0346     		mov	r3, r0
 5369 0024 1A46     		mov	r2, r3
 5370 0026 FB88     		ldrh	r3, [r7, #6]	@ movhi
 5371 0028 1343     		orrs	r3, r3, r2
 5372 002a FB80     		strh	r3, [r7, #6]	@ movhi
1402:.\Generated_Source\PSoC5/TFTSHIELD_1.c ****    // v = TFTSHIELD_1_ReadRegister16(1);
1403:.\Generated_Source\PSoC5/TFTSHIELD_1.c ****     return v;
 5373              		.loc 1 1403 0
 5374 002c FB88     		ldrh	r3, [r7, #6]
1404:.\Generated_Source\PSoC5/TFTSHIELD_1.c **** }
 5375              		.loc 1 1404 0
 5376 002e 1846     		mov	r0, r3
 5377 0030 07F10807 		add	r7, r7, #8
 5378 0034 BD46     		mov	sp, r7
 5379 0036 80BD     		pop	{r7, pc}
 5380              		.cfi_endproc
 5381              	.LFE45:
 5382              		.size	TFTSHIELD_1_GetVersion, .-TFTSHIELD_1_GetVersion
 5383              		.section	.text.TFTSHIELD_1_ResetBuffer,"ax",%progbits
 5384              		.align	2
 5385              		.global	TFTSHIELD_1_ResetBuffer
 5386              		.thumb
 5387              		.thumb_func
 5388              		.type	TFTSHIELD_1_ResetBuffer, %function
 5389              	TFTSHIELD_1_ResetBuffer:
 5390              	.LFB46:
1405:.\Generated_Source\PSoC5/TFTSHIELD_1.c **** 
1406:.\Generated_Source\PSoC5/TFTSHIELD_1.c **** void TFTSHIELD_1_ResetBuffer(void)
1407:.\Generated_Source\PSoC5/TFTSHIELD_1.c **** {
 5391              		.loc 1 1407 0
 5392              		.cfi_startproc
 5393              		@ args = 0, pretend = 0, frame = 0
 5394              		@ frame_needed = 1, uses_anonymous_args = 0
 5395 0000 80B5     		push	{r7, lr}
 5396              	.LCFI137:
 5397              		.cfi_def_cfa_offset 8
 5398              		.cfi_offset 7, -8
 5399              		.cfi_offset 14, -4
 5400 0002 00AF     		add	r7, sp, #0
 5401              	.LCFI138:
 5402              		.cfi_def_cfa_register 7
ARM GAS  C:\Users\Brian\AppData\Local\Temp\ccPAhBxt.s 			page 121


1408:.\Generated_Source\PSoC5/TFTSHIELD_1.c ****      
1409:.\Generated_Source\PSoC5/TFTSHIELD_1.c ****     TFTSHIELD_1_WriteRegister8(STMPE_FIFO_STA,TFTSHIELD_1_ReadRegister8(STMPE_FIFO_STA) | 0x01);
 5403              		.loc 1 1409 0
 5404 0004 4FF04B00 		mov	r0, #75
 5405 0008 FFF7FEFF 		bl	TFTSHIELD_1_ReadRegister8
 5406 000c 0346     		mov	r3, r0
 5407 000e 43F00103 		orr	r3, r3, #1
 5408 0012 DBB2     		uxtb	r3, r3
 5409 0014 4FF04B00 		mov	r0, #75
 5410 0018 1946     		mov	r1, r3
 5411 001a FFF7FEFF 		bl	TFTSHIELD_1_WriteRegister8
1410:.\Generated_Source\PSoC5/TFTSHIELD_1.c ****     TFTSHIELD_1_WriteRegister8(STMPE_FIFO_STA,TFTSHIELD_1_ReadRegister8(STMPE_FIFO_STA) & 0xFE);
 5412              		.loc 1 1410 0
 5413 001e 4FF04B00 		mov	r0, #75
 5414 0022 FFF7FEFF 		bl	TFTSHIELD_1_ReadRegister8
 5415 0026 0346     		mov	r3, r0
 5416 0028 03F0FE03 		and	r3, r3, #254
 5417 002c 9BB2     		uxth	r3, r3
 5418 002e 4FF04B00 		mov	r0, #75
 5419 0032 1946     		mov	r1, r3
 5420 0034 FFF7FEFF 		bl	TFTSHIELD_1_WriteRegister8
1411:.\Generated_Source\PSoC5/TFTSHIELD_1.c ****     
1412:.\Generated_Source\PSoC5/TFTSHIELD_1.c **** }
 5421              		.loc 1 1412 0
 5422 0038 80BD     		pop	{r7, pc}
 5423              		.cfi_endproc
 5424              	.LFE46:
 5425              		.size	TFTSHIELD_1_ResetBuffer, .-TFTSHIELD_1_ResetBuffer
 5426 003a 00BF     		.section	.text.TFTSHIELD_1_Touched,"ax",%progbits
 5427              		.align	2
 5428              		.global	TFTSHIELD_1_Touched
 5429              		.thumb
 5430              		.thumb_func
 5431              		.type	TFTSHIELD_1_Touched, %function
 5432              	TFTSHIELD_1_Touched:
 5433              	.LFB47:
1413:.\Generated_Source\PSoC5/TFTSHIELD_1.c **** /**************************************************************************//**
1414:.\Generated_Source\PSoC5/TFTSHIELD_1.c **** *  @brief Checks if the screen currently being touched
1415:.\Generated_Source\PSoC5/TFTSHIELD_1.c **** *
1416:.\Generated_Source\PSoC5/TFTSHIELD_1.c **** *  @return: true for touched, false otherwise
1417:.\Generated_Source\PSoC5/TFTSHIELD_1.c **** *
1418:.\Generated_Source\PSoC5/TFTSHIELD_1.c **** *******************************************************************************/
1419:.\Generated_Source\PSoC5/TFTSHIELD_1.c **** bool TFTSHIELD_1_Touched(void)
1420:.\Generated_Source\PSoC5/TFTSHIELD_1.c **** {
 5434              		.loc 1 1420 0
 5435              		.cfi_startproc
 5436              		@ args = 0, pretend = 0, frame = 8
 5437              		@ frame_needed = 1, uses_anonymous_args = 0
 5438 0000 80B5     		push	{r7, lr}
 5439              	.LCFI139:
 5440              		.cfi_def_cfa_offset 8
 5441              		.cfi_offset 7, -8
 5442              		.cfi_offset 14, -4
 5443 0002 82B0     		sub	sp, sp, #8
 5444              	.LCFI140:
 5445              		.cfi_def_cfa_offset 16
 5446 0004 00AF     		add	r7, sp, #0
ARM GAS  C:\Users\Brian\AppData\Local\Temp\ccPAhBxt.s 			page 122


 5447              	.LCFI141:
 5448              		.cfi_def_cfa_register 7
1421:.\Generated_Source\PSoC5/TFTSHIELD_1.c ****     uint8_t touch = TFTSHIELD_1_ReadRegister8(0x40);//STMPE_TSC_CTRL);
 5449              		.loc 1 1421 0
 5450 0006 4FF04000 		mov	r0, #64
 5451 000a FFF7FEFF 		bl	TFTSHIELD_1_ReadRegister8
 5452 000e 0346     		mov	r3, r0
 5453 0010 FB71     		strb	r3, [r7, #7]
1422:.\Generated_Source\PSoC5/TFTSHIELD_1.c ****     uint8_t touch_final = touch & 0x80;
 5454              		.loc 1 1422 0
 5455 0012 FB79     		ldrb	r3, [r7, #7]
 5456 0014 23F07F03 		bic	r3, r3, #127
 5457 0018 BB71     		strb	r3, [r7, #6]
1423:.\Generated_Source\PSoC5/TFTSHIELD_1.c ****     return touch_final;//(TFTSHIELD_1_ReadRegister8(STMPE_TSC_CTRL) & 0x80);
 5458              		.loc 1 1423 0
 5459 001a BB79     		ldrb	r3, [r7, #6]	@ zero_extendqisi2
 5460 001c 002B     		cmp	r3, #0
 5461 001e 0CBF     		ite	eq
 5462 0020 0023     		moveq	r3, #0
 5463 0022 0123     		movne	r3, #1
 5464 0024 DBB2     		uxtb	r3, r3
1424:.\Generated_Source\PSoC5/TFTSHIELD_1.c **** }
 5465              		.loc 1 1424 0
 5466 0026 1846     		mov	r0, r3
 5467 0028 07F10807 		add	r7, r7, #8
 5468 002c BD46     		mov	sp, r7
 5469 002e 80BD     		pop	{r7, pc}
 5470              		.cfi_endproc
 5471              	.LFE47:
 5472              		.size	TFTSHIELD_1_Touched, .-TFTSHIELD_1_Touched
 5473              		.section	.text.TFTSHIELD_1_BufferEmpty,"ax",%progbits
 5474              		.align	2
 5475              		.global	TFTSHIELD_1_BufferEmpty
 5476              		.thumb
 5477              		.thumb_func
 5478              		.type	TFTSHIELD_1_BufferEmpty, %function
 5479              	TFTSHIELD_1_BufferEmpty:
 5480              	.LFB48:
1425:.\Generated_Source\PSoC5/TFTSHIELD_1.c **** 
1426:.\Generated_Source\PSoC5/TFTSHIELD_1.c **** /**************************************************************************//**
1427:.\Generated_Source\PSoC5/TFTSHIELD_1.c **** *  @brief Checks if the touchscreen buffer is empty
1428:.\Generated_Source\PSoC5/TFTSHIELD_1.c **** *
1429:.\Generated_Source\PSoC5/TFTSHIELD_1.c **** *  @return: false for empty, true otherwise
1430:.\Generated_Source\PSoC5/TFTSHIELD_1.c **** *
1431:.\Generated_Source\PSoC5/TFTSHIELD_1.c **** *******************************************************************************/
1432:.\Generated_Source\PSoC5/TFTSHIELD_1.c **** bool TFTSHIELD_1_BufferEmpty(void)
1433:.\Generated_Source\PSoC5/TFTSHIELD_1.c **** {
 5481              		.loc 1 1433 0
 5482              		.cfi_startproc
 5483              		@ args = 0, pretend = 0, frame = 0
 5484              		@ frame_needed = 1, uses_anonymous_args = 0
 5485 0000 80B5     		push	{r7, lr}
 5486              	.LCFI142:
 5487              		.cfi_def_cfa_offset 8
 5488              		.cfi_offset 7, -8
 5489              		.cfi_offset 14, -4
 5490 0002 00AF     		add	r7, sp, #0
ARM GAS  C:\Users\Brian\AppData\Local\Temp\ccPAhBxt.s 			page 123


 5491              	.LCFI143:
 5492              		.cfi_def_cfa_register 7
1434:.\Generated_Source\PSoC5/TFTSHIELD_1.c ****     return (TFTSHIELD_1_ReadRegister8(STMPE_FIFO_STA) & STMPE_FIFO_STA_EMPTY);
 5493              		.loc 1 1434 0
 5494 0004 4FF04B00 		mov	r0, #75
 5495 0008 FFF7FEFF 		bl	TFTSHIELD_1_ReadRegister8
 5496 000c 0346     		mov	r3, r0
 5497 000e 03F02003 		and	r3, r3, #32
 5498 0012 002B     		cmp	r3, #0
 5499 0014 0CBF     		ite	eq
 5500 0016 0023     		moveq	r3, #0
 5501 0018 0123     		movne	r3, #1
 5502 001a DBB2     		uxtb	r3, r3
1435:.\Generated_Source\PSoC5/TFTSHIELD_1.c **** }
 5503              		.loc 1 1435 0
 5504 001c 1846     		mov	r0, r3
 5505 001e 80BD     		pop	{r7, pc}
 5506              		.cfi_endproc
 5507              	.LFE48:
 5508              		.size	TFTSHIELD_1_BufferEmpty, .-TFTSHIELD_1_BufferEmpty
 5509              		.section	.text.TFTSHIELD_1_BufferSize,"ax",%progbits
 5510              		.align	2
 5511              		.global	TFTSHIELD_1_BufferSize
 5512              		.thumb
 5513              		.thumb_func
 5514              		.type	TFTSHIELD_1_BufferSize, %function
 5515              	TFTSHIELD_1_BufferSize:
 5516              	.LFB49:
1436:.\Generated_Source\PSoC5/TFTSHIELD_1.c **** 
1437:.\Generated_Source\PSoC5/TFTSHIELD_1.c **** /**************************************************************************//**
1438:.\Generated_Source\PSoC5/TFTSHIELD_1.c **** *  @brief Checks the size of the touchscreen buffer
1439:.\Generated_Source\PSoC5/TFTSHIELD_1.c **** *
1440:.\Generated_Source\PSoC5/TFTSHIELD_1.c **** *  @return: size of buffer
1441:.\Generated_Source\PSoC5/TFTSHIELD_1.c **** *
1442:.\Generated_Source\PSoC5/TFTSHIELD_1.c **** *******************************************************************************/
1443:.\Generated_Source\PSoC5/TFTSHIELD_1.c **** uint8_t TFTSHIELD_1_BufferSize(void)
1444:.\Generated_Source\PSoC5/TFTSHIELD_1.c **** {
 5517              		.loc 1 1444 0
 5518              		.cfi_startproc
 5519              		@ args = 0, pretend = 0, frame = 0
 5520              		@ frame_needed = 1, uses_anonymous_args = 0
 5521 0000 80B5     		push	{r7, lr}
 5522              	.LCFI144:
 5523              		.cfi_def_cfa_offset 8
 5524              		.cfi_offset 7, -8
 5525              		.cfi_offset 14, -4
 5526 0002 00AF     		add	r7, sp, #0
 5527              	.LCFI145:
 5528              		.cfi_def_cfa_register 7
1445:.\Generated_Source\PSoC5/TFTSHIELD_1.c ****     return TFTSHIELD_1_ReadRegister8(STMPE_FIFO_SIZE);
 5529              		.loc 1 1445 0
 5530 0004 4FF04C00 		mov	r0, #76
 5531 0008 FFF7FEFF 		bl	TFTSHIELD_1_ReadRegister8
 5532 000c 0346     		mov	r3, r0
1446:.\Generated_Source\PSoC5/TFTSHIELD_1.c **** }
 5533              		.loc 1 1446 0
 5534 000e 1846     		mov	r0, r3
ARM GAS  C:\Users\Brian\AppData\Local\Temp\ccPAhBxt.s 			page 124


 5535 0010 80BD     		pop	{r7, pc}
 5536              		.cfi_endproc
 5537              	.LFE49:
 5538              		.size	TFTSHIELD_1_BufferSize, .-TFTSHIELD_1_BufferSize
 5539 0012 00BF     		.section	.text.TFTSHIELD_1_swap,"ax",%progbits
 5540              		.align	2
 5541              		.global	TFTSHIELD_1_swap
 5542              		.thumb
 5543              		.thumb_func
 5544              		.type	TFTSHIELD_1_swap, %function
 5545              	TFTSHIELD_1_swap:
 5546              	.LFB50:
1447:.\Generated_Source\PSoC5/TFTSHIELD_1.c **** //TS_Point TFTSHIELD_1_GetPoint(void);
1448:.\Generated_Source\PSoC5/TFTSHIELD_1.c **** 
1449:.\Generated_Source\PSoC5/TFTSHIELD_1.c **** //swap two variables
1450:.\Generated_Source\PSoC5/TFTSHIELD_1.c **** void TFTSHIELD_1_swap(int16_t *a, int16_t *b)
1451:.\Generated_Source\PSoC5/TFTSHIELD_1.c **** {
 5547              		.loc 1 1451 0
 5548              		.cfi_startproc
 5549              		@ args = 0, pretend = 0, frame = 16
 5550              		@ frame_needed = 1, uses_anonymous_args = 0
 5551              		@ link register save eliminated.
 5552 0000 80B4     		push	{r7}
 5553              	.LCFI146:
 5554              		.cfi_def_cfa_offset 4
 5555              		.cfi_offset 7, -4
 5556 0002 85B0     		sub	sp, sp, #20
 5557              	.LCFI147:
 5558              		.cfi_def_cfa_offset 24
 5559 0004 00AF     		add	r7, sp, #0
 5560              	.LCFI148:
 5561              		.cfi_def_cfa_register 7
 5562 0006 7860     		str	r0, [r7, #4]
 5563 0008 3960     		str	r1, [r7, #0]
1452:.\Generated_Source\PSoC5/TFTSHIELD_1.c ****    int16_t *c = a;
 5564              		.loc 1 1452 0
 5565 000a 7B68     		ldr	r3, [r7, #4]
 5566 000c FB60     		str	r3, [r7, #12]
1453:.\Generated_Source\PSoC5/TFTSHIELD_1.c ****    a = b;
 5567              		.loc 1 1453 0
 5568 000e 3B68     		ldr	r3, [r7, #0]
 5569 0010 7B60     		str	r3, [r7, #4]
1454:.\Generated_Source\PSoC5/TFTSHIELD_1.c ****    b = c;
 5570              		.loc 1 1454 0
 5571 0012 FB68     		ldr	r3, [r7, #12]
 5572 0014 3B60     		str	r3, [r7, #0]
1455:.\Generated_Source\PSoC5/TFTSHIELD_1.c **** }
 5573              		.loc 1 1455 0
 5574 0016 07F11407 		add	r7, r7, #20
 5575 001a BD46     		mov	sp, r7
 5576 001c 80BC     		pop	{r7}
 5577 001e 7047     		bx	lr
 5578              		.cfi_endproc
 5579              	.LFE50:
 5580              		.size	TFTSHIELD_1_swap, .-TFTSHIELD_1_swap
 5581              		.text
 5582              	.Letext0:
ARM GAS  C:\Users\Brian\AppData\Local\Temp\ccPAhBxt.s 			page 125


 5583              		.file 2 "c:\\program files (x86)\\cypress\\psoc creator\\3.0\\psoc creator\\import\\gnu_cs\\arm\\4
 5584              		.file 3 ".\\Generated_Source\\PSoC5\\cytypes.h"
 5585              		.file 4 ".\\Generated_Source\\PSoC5\\TFTSHIELD_1.h"
 5586              		.section	.debug_info,"",%progbits
 5587              	.Ldebug_info0:
 5588 0000 FF130000 		.4byte	0x13ff
 5589 0004 0200     		.2byte	0x2
 5590 0006 00000000 		.4byte	.Ldebug_abbrev0
 5591 000a 04       		.byte	0x4
 5592 000b 01       		.uleb128 0x1
 5593 000c 6F070000 		.4byte	.LASF131
 5594 0010 01       		.byte	0x1
 5595 0011 3B030000 		.4byte	.LASF132
 5596 0015 0F040000 		.4byte	.LASF133
 5597 0019 00000000 		.4byte	.Ldebug_ranges0+0
 5598 001d 00000000 		.4byte	0
 5599 0021 00000000 		.4byte	0
 5600 0025 00000000 		.4byte	.Ldebug_line0
 5601 0029 02       		.uleb128 0x2
 5602 002a 5B010000 		.4byte	.LASF0
 5603 002e 02       		.byte	0x2
 5604 002f 29       		.byte	0x29
 5605 0030 34000000 		.4byte	0x34
 5606 0034 03       		.uleb128 0x3
 5607 0035 01       		.byte	0x1
 5608 0036 06       		.byte	0x6
 5609 0037 33070000 		.4byte	.LASF2
 5610 003b 02       		.uleb128 0x2
 5611 003c 17030000 		.4byte	.LASF1
 5612 0040 02       		.byte	0x2
 5613 0041 2A       		.byte	0x2a
 5614 0042 46000000 		.4byte	0x46
 5615 0046 03       		.uleb128 0x3
 5616 0047 01       		.byte	0x1
 5617 0048 08       		.byte	0x8
 5618 0049 30060000 		.4byte	.LASF3
 5619 004d 02       		.uleb128 0x2
 5620 004e BF010000 		.4byte	.LASF4
 5621 0052 02       		.byte	0x2
 5622 0053 35       		.byte	0x35
 5623 0054 58000000 		.4byte	0x58
 5624 0058 03       		.uleb128 0x3
 5625 0059 02       		.byte	0x2
 5626 005a 05       		.byte	0x5
 5627 005b 14050000 		.4byte	.LASF5
 5628 005f 02       		.uleb128 0x2
 5629 0060 CF040000 		.4byte	.LASF6
 5630 0064 02       		.byte	0x2
 5631 0065 36       		.byte	0x36
 5632 0066 6A000000 		.4byte	0x6a
 5633 006a 03       		.uleb128 0x3
 5634 006b 02       		.byte	0x2
 5635 006c 07       		.byte	0x7
 5636 006d 5C070000 		.4byte	.LASF7
 5637 0071 03       		.uleb128 0x3
 5638 0072 04       		.byte	0x4
 5639 0073 05       		.byte	0x5
ARM GAS  C:\Users\Brian\AppData\Local\Temp\ccPAhBxt.s 			page 126


 5640 0074 35050000 		.4byte	.LASF8
 5641 0078 03       		.uleb128 0x3
 5642 0079 04       		.byte	0x4
 5643 007a 07       		.byte	0x7
 5644 007b C9050000 		.4byte	.LASF9
 5645 007f 03       		.uleb128 0x3
 5646 0080 08       		.byte	0x8
 5647 0081 05       		.byte	0x5
 5648 0082 9A030000 		.4byte	.LASF10
 5649 0086 03       		.uleb128 0x3
 5650 0087 08       		.byte	0x8
 5651 0088 07       		.byte	0x7
 5652 0089 D2010000 		.4byte	.LASF11
 5653 008d 04       		.uleb128 0x4
 5654 008e 04       		.byte	0x4
 5655 008f 05       		.byte	0x5
 5656 0090 696E7400 		.ascii	"int\000"
 5657 0094 03       		.uleb128 0x3
 5658 0095 04       		.byte	0x4
 5659 0096 07       		.byte	0x7
 5660 0097 A7000000 		.4byte	.LASF12
 5661 009b 02       		.uleb128 0x2
 5662 009c E4070000 		.4byte	.LASF13
 5663 00a0 03       		.byte	0x3
 5664 00a1 5B       		.byte	0x5b
 5665 00a2 46000000 		.4byte	0x46
 5666 00a6 02       		.uleb128 0x2
 5667 00a7 F9020000 		.4byte	.LASF14
 5668 00ab 03       		.byte	0x3
 5669 00ac 5C       		.byte	0x5c
 5670 00ad 6A000000 		.4byte	0x6a
 5671 00b1 03       		.uleb128 0x3
 5672 00b2 04       		.byte	0x4
 5673 00b3 04       		.byte	0x4
 5674 00b4 62010000 		.4byte	.LASF15
 5675 00b8 03       		.uleb128 0x3
 5676 00b9 08       		.byte	0x8
 5677 00ba 04       		.byte	0x4
 5678 00bb EA070000 		.4byte	.LASF16
 5679 00bf 02       		.uleb128 0x2
 5680 00c0 2F030000 		.4byte	.LASF17
 5681 00c4 03       		.byte	0x3
 5682 00c5 6C       		.byte	0x6c
 5683 00c6 CA000000 		.4byte	0xca
 5684 00ca 03       		.uleb128 0x3
 5685 00cb 01       		.byte	0x1
 5686 00cc 08       		.byte	0x8
 5687 00cd A8020000 		.4byte	.LASF18
 5688 00d1 03       		.uleb128 0x3
 5689 00d2 04       		.byte	0x4
 5690 00d3 07       		.byte	0x7
 5691 00d4 C0050000 		.4byte	.LASF19
 5692 00d8 05       		.uleb128 0x5
 5693 00d9 04       		.byte	0x4
 5694 00da CA000000 		.4byte	0xca
 5695 00de 06       		.uleb128 0x6
 5696 00df 01       		.byte	0x1
ARM GAS  C:\Users\Brian\AppData\Local\Temp\ccPAhBxt.s 			page 127


 5697 00e0 B4000000 		.4byte	.LASF113
 5698 00e4 01       		.byte	0x1
 5699 00e5 B1       		.byte	0xb1
 5700 00e6 01       		.byte	0x1
 5701 00e7 00000000 		.4byte	.LFB0
 5702 00eb 48030000 		.4byte	.LFE0
 5703 00ef 00000000 		.4byte	.LLST0
 5704 00f3 01       		.byte	0x1
 5705 00f4 07       		.uleb128 0x7
 5706 00f5 01       		.byte	0x1
 5707 00f6 F9000000 		.4byte	.LASF23
 5708 00fa 01       		.byte	0x1
 5709 00fb 3401     		.2byte	0x134
 5710 00fd 01       		.byte	0x1
 5711 00fe 00000000 		.4byte	.LFB1
 5712 0102 2E000000 		.4byte	.LFE1
 5713 0106 2C000000 		.4byte	.LLST1
 5714 010a 01       		.byte	0x1
 5715 010b 3D010000 		.4byte	0x13d
 5716 010f 08       		.uleb128 0x8
 5717 0110 64000000 		.4byte	.LASF20
 5718 0114 01       		.byte	0x1
 5719 0115 3401     		.2byte	0x134
 5720 0117 A6000000 		.4byte	0xa6
 5721 011b 02       		.byte	0x2
 5722 011c 91       		.byte	0x91
 5723 011d 76       		.sleb128 -10
 5724 011e 08       		.uleb128 0x8
 5725 011f 6A000000 		.4byte	.LASF21
 5726 0123 01       		.byte	0x1
 5727 0124 3401     		.2byte	0x134
 5728 0126 A6000000 		.4byte	0xa6
 5729 012a 02       		.byte	0x2
 5730 012b 91       		.byte	0x91
 5731 012c 74       		.sleb128 -12
 5732 012d 08       		.uleb128 0x8
 5733 012e D5060000 		.4byte	.LASF22
 5734 0132 01       		.byte	0x1
 5735 0133 3401     		.2byte	0x134
 5736 0135 A6000000 		.4byte	0xa6
 5737 0139 02       		.byte	0x2
 5738 013a 91       		.byte	0x91
 5739 013b 72       		.sleb128 -14
 5740 013c 00       		.byte	0
 5741 013d 07       		.uleb128 0x7
 5742 013e 01       		.byte	0x1
 5743 013f 51000000 		.4byte	.LASF24
 5744 0143 01       		.byte	0x1
 5745 0144 4101     		.2byte	0x141
 5746 0146 01       		.byte	0x1
 5747 0147 00000000 		.4byte	.LFB2
 5748 014b 36000000 		.4byte	.LFE2
 5749 014f 64000000 		.4byte	.LLST2
 5750 0153 01       		.byte	0x1
 5751 0154 77010000 		.4byte	0x177
 5752 0158 08       		.uleb128 0x8
 5753 0159 64000000 		.4byte	.LASF20
ARM GAS  C:\Users\Brian\AppData\Local\Temp\ccPAhBxt.s 			page 128


 5754 015d 01       		.byte	0x1
 5755 015e 4101     		.2byte	0x141
 5756 0160 A6000000 		.4byte	0xa6
 5757 0164 02       		.byte	0x2
 5758 0165 91       		.byte	0x91
 5759 0166 76       		.sleb128 -10
 5760 0167 08       		.uleb128 0x8
 5761 0168 6A000000 		.4byte	.LASF21
 5762 016c 01       		.byte	0x1
 5763 016d 4101     		.2byte	0x141
 5764 016f A6000000 		.4byte	0xa6
 5765 0173 02       		.byte	0x2
 5766 0174 91       		.byte	0x91
 5767 0175 74       		.sleb128 -12
 5768 0176 00       		.byte	0
 5769 0177 07       		.uleb128 0x7
 5770 0178 01       		.byte	0x1
 5771 0179 0E080000 		.4byte	.LASF25
 5772 017d 01       		.byte	0x1
 5773 017e 4F01     		.2byte	0x14f
 5774 0180 01       		.byte	0x1
 5775 0181 00000000 		.4byte	.LFB3
 5776 0185 2E000000 		.4byte	.LFE3
 5777 0189 9C000000 		.4byte	.LLST3
 5778 018d 01       		.byte	0x1
 5779 018e B1010000 		.4byte	0x1b1
 5780 0192 08       		.uleb128 0x8
 5781 0193 F0040000 		.4byte	.LASF26
 5782 0197 01       		.byte	0x1
 5783 0198 4F01     		.2byte	0x14f
 5784 019a A6000000 		.4byte	0xa6
 5785 019e 02       		.byte	0x2
 5786 019f 91       		.byte	0x91
 5787 01a0 76       		.sleb128 -10
 5788 01a1 08       		.uleb128 0x8
 5789 01a2 B7050000 		.4byte	.LASF27
 5790 01a6 01       		.byte	0x1
 5791 01a7 4F01     		.2byte	0x14f
 5792 01a9 A6000000 		.4byte	0xa6
 5793 01ad 02       		.byte	0x2
 5794 01ae 91       		.byte	0x91
 5795 01af 74       		.sleb128 -12
 5796 01b0 00       		.byte	0
 5797 01b1 07       		.uleb128 0x7
 5798 01b2 01       		.byte	0x1
 5799 01b3 F5030000 		.4byte	.LASF28
 5800 01b7 01       		.byte	0x1
 5801 01b8 5F01     		.2byte	0x15f
 5802 01ba 01       		.byte	0x1
 5803 01bb 00000000 		.4byte	.LFB4
 5804 01bf 4E000000 		.4byte	.LFE4
 5805 01c3 D4000000 		.4byte	.LLST4
 5806 01c7 01       		.byte	0x1
 5807 01c8 05020000 		.4byte	0x205
 5808 01cc 09       		.uleb128 0x9
 5809 01cd 783000   		.ascii	"x0\000"
 5810 01d0 01       		.byte	0x1
ARM GAS  C:\Users\Brian\AppData\Local\Temp\ccPAhBxt.s 			page 129


 5811 01d1 5F01     		.2byte	0x15f
 5812 01d3 5F000000 		.4byte	0x5f
 5813 01d7 02       		.byte	0x2
 5814 01d8 91       		.byte	0x91
 5815 01d9 76       		.sleb128 -10
 5816 01da 09       		.uleb128 0x9
 5817 01db 793000   		.ascii	"y0\000"
 5818 01de 01       		.byte	0x1
 5819 01df 5F01     		.2byte	0x15f
 5820 01e1 5F000000 		.4byte	0x5f
 5821 01e5 02       		.byte	0x2
 5822 01e6 91       		.byte	0x91
 5823 01e7 74       		.sleb128 -12
 5824 01e8 09       		.uleb128 0x9
 5825 01e9 783100   		.ascii	"x1\000"
 5826 01ec 01       		.byte	0x1
 5827 01ed 5F01     		.2byte	0x15f
 5828 01ef 5F000000 		.4byte	0x5f
 5829 01f3 02       		.byte	0x2
 5830 01f4 91       		.byte	0x91
 5831 01f5 72       		.sleb128 -14
 5832 01f6 09       		.uleb128 0x9
 5833 01f7 793100   		.ascii	"y1\000"
 5834 01fa 01       		.byte	0x1
 5835 01fb 6001     		.2byte	0x160
 5836 01fd 5F000000 		.4byte	0x5f
 5837 0201 02       		.byte	0x2
 5838 0202 91       		.byte	0x91
 5839 0203 70       		.sleb128 -16
 5840 0204 00       		.byte	0
 5841 0205 07       		.uleb128 0x7
 5842 0206 01       		.byte	0x1
 5843 0207 0E010000 		.4byte	.LASF29
 5844 020b 01       		.byte	0x1
 5845 020c 7701     		.2byte	0x177
 5846 020e 01       		.byte	0x1
 5847 020f 00000000 		.4byte	.LFB5
 5848 0213 18010000 		.4byte	.LFE5
 5849 0217 0C010000 		.4byte	.LLST5
 5850 021b 01       		.byte	0x1
 5851 021c 80020000 		.4byte	0x280
 5852 0220 09       		.uleb128 0x9
 5853 0221 7800     		.ascii	"x\000"
 5854 0223 01       		.byte	0x1
 5855 0224 7701     		.2byte	0x177
 5856 0226 4D000000 		.4byte	0x4d
 5857 022a 02       		.byte	0x2
 5858 022b 91       		.byte	0x91
 5859 022c 66       		.sleb128 -26
 5860 022d 09       		.uleb128 0x9
 5861 022e 7900     		.ascii	"y\000"
 5862 0230 01       		.byte	0x1
 5863 0231 7701     		.2byte	0x177
 5864 0233 4D000000 		.4byte	0x4d
 5865 0237 02       		.byte	0x2
 5866 0238 91       		.byte	0x91
 5867 0239 64       		.sleb128 -28
ARM GAS  C:\Users\Brian\AppData\Local\Temp\ccPAhBxt.s 			page 130


 5868 023a 09       		.uleb128 0x9
 5869 023b 7700     		.ascii	"w\000"
 5870 023d 01       		.byte	0x1
 5871 023e 7701     		.2byte	0x177
 5872 0240 4D000000 		.4byte	0x4d
 5873 0244 02       		.byte	0x2
 5874 0245 91       		.byte	0x91
 5875 0246 62       		.sleb128 -30
 5876 0247 09       		.uleb128 0x9
 5877 0248 6800     		.ascii	"h\000"
 5878 024a 01       		.byte	0x1
 5879 024b 7701     		.2byte	0x177
 5880 024d 4D000000 		.4byte	0x4d
 5881 0251 02       		.byte	0x2
 5882 0252 91       		.byte	0x91
 5883 0253 60       		.sleb128 -32
 5884 0254 08       		.uleb128 0x8
 5885 0255 43050000 		.4byte	.LASF30
 5886 0259 01       		.byte	0x1
 5887 025a 7801     		.2byte	0x178
 5888 025c 5F000000 		.4byte	0x5f
 5889 0260 02       		.byte	0x2
 5890 0261 91       		.byte	0x91
 5891 0262 00       		.sleb128 0
 5892 0263 0A       		.uleb128 0xa
 5893 0264 686900   		.ascii	"hi\000"
 5894 0267 01       		.byte	0x1
 5895 0268 8101     		.2byte	0x181
 5896 026a 3B000000 		.4byte	0x3b
 5897 026e 02       		.byte	0x2
 5898 026f 91       		.byte	0x91
 5899 0270 6F       		.sleb128 -17
 5900 0271 0A       		.uleb128 0xa
 5901 0272 6C6F00   		.ascii	"lo\000"
 5902 0275 01       		.byte	0x1
 5903 0276 8101     		.2byte	0x181
 5904 0278 3B000000 		.4byte	0x3b
 5905 027c 02       		.byte	0x2
 5906 027d 91       		.byte	0x91
 5907 027e 6E       		.sleb128 -18
 5908 027f 00       		.byte	0
 5909 0280 07       		.uleb128 0x7
 5910 0281 01       		.byte	0x1
 5911 0282 80040000 		.4byte	.LASF31
 5912 0286 01       		.byte	0x1
 5913 0287 9C01     		.2byte	0x19c
 5914 0289 01       		.byte	0x1
 5915 028a 00000000 		.4byte	.LFB6
 5916 028e 3E000000 		.4byte	.LFE6
 5917 0292 44010000 		.4byte	.LLST6
 5918 0296 01       		.byte	0x1
 5919 0297 AB020000 		.4byte	0x2ab
 5920 029b 08       		.uleb128 0x8
 5921 029c 43050000 		.4byte	.LASF30
 5922 02a0 01       		.byte	0x1
 5923 02a1 9C01     		.2byte	0x19c
 5924 02a3 5F000000 		.4byte	0x5f
ARM GAS  C:\Users\Brian\AppData\Local\Temp\ccPAhBxt.s 			page 131


 5925 02a7 02       		.byte	0x2
 5926 02a8 91       		.byte	0x91
 5927 02a9 76       		.sleb128 -10
 5928 02aa 00       		.byte	0
 5929 02ab 07       		.uleb128 0x7
 5930 02ac 01       		.byte	0x1
 5931 02ad FB070000 		.4byte	.LASF32
 5932 02b1 01       		.byte	0x1
 5933 02b2 A901     		.2byte	0x1a9
 5934 02b4 01       		.byte	0x1
 5935 02b5 00000000 		.4byte	.LFB7
 5936 02b9 2E000000 		.4byte	.LFE7
 5937 02bd 7C010000 		.4byte	.LLST7
 5938 02c1 01       		.byte	0x1
 5939 02c2 E5020000 		.4byte	0x2e5
 5940 02c6 08       		.uleb128 0x8
 5941 02c7 E8020000 		.4byte	.LASF33
 5942 02cb 01       		.byte	0x1
 5943 02cc A901     		.2byte	0x1a9
 5944 02ce A6000000 		.4byte	0xa6
 5945 02d2 02       		.byte	0x2
 5946 02d3 91       		.byte	0x91
 5947 02d4 76       		.sleb128 -10
 5948 02d5 08       		.uleb128 0x8
 5949 02d6 05030000 		.4byte	.LASF34
 5950 02da 01       		.byte	0x1
 5951 02db A901     		.2byte	0x1a9
 5952 02dd A6000000 		.4byte	0xa6
 5953 02e1 02       		.byte	0x2
 5954 02e2 91       		.byte	0x91
 5955 02e3 74       		.sleb128 -12
 5956 02e4 00       		.byte	0
 5957 02e5 07       		.uleb128 0x7
 5958 02e6 01       		.byte	0x1
 5959 02e7 A8030000 		.4byte	.LASF35
 5960 02eb 01       		.byte	0x1
 5961 02ec B601     		.2byte	0x1b6
 5962 02ee 01       		.byte	0x1
 5963 02ef 00000000 		.4byte	.LFB8
 5964 02f3 3C000000 		.4byte	.LFE8
 5965 02f7 B4010000 		.4byte	.LLST8
 5966 02fb 01       		.byte	0x1
 5967 02fc 2E030000 		.4byte	0x32e
 5968 0300 08       		.uleb128 0x8
 5969 0301 E9030000 		.4byte	.LASF36
 5970 0305 01       		.byte	0x1
 5971 0306 B601     		.2byte	0x1b6
 5972 0308 A6000000 		.4byte	0xa6
 5973 030c 02       		.byte	0x2
 5974 030d 91       		.byte	0x91
 5975 030e 6E       		.sleb128 -18
 5976 030f 0A       		.uleb128 0xa
 5977 0310 4D534200 		.ascii	"MSB\000"
 5978 0314 01       		.byte	0x1
 5979 0315 B801     		.2byte	0x1b8
 5980 0317 9B000000 		.4byte	0x9b
 5981 031b 02       		.byte	0x2
ARM GAS  C:\Users\Brian\AppData\Local\Temp\ccPAhBxt.s 			page 132


 5982 031c 91       		.byte	0x91
 5983 031d 77       		.sleb128 -9
 5984 031e 0A       		.uleb128 0xa
 5985 031f 4C534200 		.ascii	"LSB\000"
 5986 0323 01       		.byte	0x1
 5987 0324 B801     		.2byte	0x1b8
 5988 0326 9B000000 		.4byte	0x9b
 5989 032a 02       		.byte	0x2
 5990 032b 91       		.byte	0x91
 5991 032c 76       		.sleb128 -10
 5992 032d 00       		.byte	0
 5993 032e 07       		.uleb128 0x7
 5994 032f 01       		.byte	0x1
 5995 0330 7A000000 		.4byte	.LASF37
 5996 0334 01       		.byte	0x1
 5997 0335 CC01     		.2byte	0x1cc
 5998 0337 01       		.byte	0x1
 5999 0338 00000000 		.4byte	.LFB9
 6000 033c 26000000 		.4byte	.LFE9
 6001 0340 EC010000 		.4byte	.LLST9
 6002 0344 01       		.byte	0x1
 6003 0345 59030000 		.4byte	0x359
 6004 0349 09       		.uleb128 0x9
 6005 034a 64617400 		.ascii	"dat\000"
 6006 034e 01       		.byte	0x1
 6007 034f CC01     		.2byte	0x1cc
 6008 0351 9B000000 		.4byte	0x9b
 6009 0355 02       		.byte	0x2
 6010 0356 91       		.byte	0x91
 6011 0357 77       		.sleb128 -9
 6012 0358 00       		.byte	0
 6013 0359 07       		.uleb128 0x7
 6014 035a 01       		.byte	0x1
 6015 035b 49020000 		.4byte	.LASF38
 6016 035f 01       		.byte	0x1
 6017 0360 DC01     		.2byte	0x1dc
 6018 0362 01       		.byte	0x1
 6019 0363 00000000 		.4byte	.LFB10
 6020 0367 26000000 		.4byte	.LFE10
 6021 036b 24020000 		.4byte	.LLST10
 6022 036f 01       		.byte	0x1
 6023 0370 84030000 		.4byte	0x384
 6024 0374 09       		.uleb128 0x9
 6025 0375 636D6400 		.ascii	"cmd\000"
 6026 0379 01       		.byte	0x1
 6027 037a DC01     		.2byte	0x1dc
 6028 037c 9B000000 		.4byte	0x9b
 6029 0380 02       		.byte	0x2
 6030 0381 91       		.byte	0x91
 6031 0382 77       		.sleb128 -9
 6032 0383 00       		.byte	0
 6033 0384 07       		.uleb128 0x7
 6034 0385 01       		.byte	0x1
 6035 0386 66060000 		.4byte	.LASF39
 6036 038a 01       		.byte	0x1
 6037 038b EC01     		.2byte	0x1ec
 6038 038d 01       		.byte	0x1
ARM GAS  C:\Users\Brian\AppData\Local\Temp\ccPAhBxt.s 			page 133


 6039 038e 00000000 		.4byte	.LFB11
 6040 0392 1A000000 		.4byte	.LFE11
 6041 0396 5C020000 		.4byte	.LLST11
 6042 039a 01       		.byte	0x1
 6043 039b BF030000 		.4byte	0x3bf
 6044 039f 08       		.uleb128 0x8
 6045 03a0 94030000 		.4byte	.LASF40
 6046 03a4 01       		.byte	0x1
 6047 03a5 EC01     		.2byte	0x1ec
 6048 03a7 9B000000 		.4byte	0x9b
 6049 03ab 02       		.byte	0x2
 6050 03ac 91       		.byte	0x91
 6051 03ad 77       		.sleb128 -9
 6052 03ae 0B       		.uleb128 0xb
 6053 03af 01       		.byte	0x1
 6054 03b0 97040000 		.4byte	.LASF55
 6055 03b4 01       		.byte	0x1
 6056 03b5 EF01     		.2byte	0x1ef
 6057 03b7 8D000000 		.4byte	0x8d
 6058 03bb 01       		.byte	0x1
 6059 03bc 0C       		.uleb128 0xc
 6060 03bd 00       		.byte	0
 6061 03be 00       		.byte	0
 6062 03bf 07       		.uleb128 0x7
 6063 03c0 01       		.byte	0x1
 6064 03c1 62030000 		.4byte	.LASF41
 6065 03c5 01       		.byte	0x1
 6066 03c6 FD01     		.2byte	0x1fd
 6067 03c8 01       		.byte	0x1
 6068 03c9 00000000 		.4byte	.LFB12
 6069 03cd 7A000000 		.4byte	.LFE12
 6070 03d1 94020000 		.4byte	.LLST12
 6071 03d5 01       		.byte	0x1
 6072 03d6 26040000 		.4byte	0x426
 6073 03da 08       		.uleb128 0x8
 6074 03db 64000000 		.4byte	.LASF20
 6075 03df 01       		.byte	0x1
 6076 03e0 FD01     		.2byte	0x1fd
 6077 03e2 A6000000 		.4byte	0xa6
 6078 03e6 02       		.byte	0x2
 6079 03e7 91       		.byte	0x91
 6080 03e8 6E       		.sleb128 -18
 6081 03e9 08       		.uleb128 0x8
 6082 03ea 6A000000 		.4byte	.LASF21
 6083 03ee 01       		.byte	0x1
 6084 03ef FD01     		.2byte	0x1fd
 6085 03f1 A6000000 		.4byte	0xa6
 6086 03f5 02       		.byte	0x2
 6087 03f6 91       		.byte	0x91
 6088 03f7 6C       		.sleb128 -20
 6089 03f8 08       		.uleb128 0x8
 6090 03f9 42020000 		.4byte	.LASF42
 6091 03fd 01       		.byte	0x1
 6092 03fe FD01     		.2byte	0x1fd
 6093 0400 A6000000 		.4byte	0xa6
 6094 0404 02       		.byte	0x2
 6095 0405 91       		.byte	0x91
ARM GAS  C:\Users\Brian\AppData\Local\Temp\ccPAhBxt.s 			page 134


 6096 0406 6A       		.sleb128 -22
 6097 0407 08       		.uleb128 0x8
 6098 0408 D5060000 		.4byte	.LASF22
 6099 040c 01       		.byte	0x1
 6100 040d FD01     		.2byte	0x1fd
 6101 040f A6000000 		.4byte	0xa6
 6102 0413 02       		.byte	0x2
 6103 0414 91       		.byte	0x91
 6104 0415 68       		.sleb128 -24
 6105 0416 0D       		.uleb128 0xd
 6106 0417 9C010000 		.4byte	.LASF43
 6107 041b 01       		.byte	0x1
 6108 041c FF01     		.2byte	0x1ff
 6109 041e A6000000 		.4byte	0xa6
 6110 0422 02       		.byte	0x2
 6111 0423 91       		.byte	0x91
 6112 0424 76       		.sleb128 -10
 6113 0425 00       		.byte	0
 6114 0426 07       		.uleb128 0x7
 6115 0427 01       		.byte	0x1
 6116 0428 78020000 		.4byte	.LASF44
 6117 042c 01       		.byte	0x1
 6118 042d 1002     		.2byte	0x210
 6119 042f 01       		.byte	0x1
 6120 0430 00000000 		.4byte	.LFB13
 6121 0434 32000000 		.4byte	.LFE13
 6122 0438 CC020000 		.4byte	.LLST13
 6123 043c 01       		.byte	0x1
 6124 043d 78040000 		.4byte	0x478
 6125 0441 09       		.uleb128 0x9
 6126 0442 7800     		.ascii	"x\000"
 6127 0444 01       		.byte	0x1
 6128 0445 1002     		.2byte	0x210
 6129 0447 4D000000 		.4byte	0x4d
 6130 044b 02       		.byte	0x2
 6131 044c 91       		.byte	0x91
 6132 044d 6E       		.sleb128 -18
 6133 044e 09       		.uleb128 0x9
 6134 044f 7900     		.ascii	"y\000"
 6135 0451 01       		.byte	0x1
 6136 0452 1002     		.2byte	0x210
 6137 0454 4D000000 		.4byte	0x4d
 6138 0458 02       		.byte	0x2
 6139 0459 91       		.byte	0x91
 6140 045a 6C       		.sleb128 -20
 6141 045b 09       		.uleb128 0x9
 6142 045c 7700     		.ascii	"w\000"
 6143 045e 01       		.byte	0x1
 6144 045f 1102     		.2byte	0x211
 6145 0461 4D000000 		.4byte	0x4d
 6146 0465 02       		.byte	0x2
 6147 0466 91       		.byte	0x91
 6148 0467 6A       		.sleb128 -22
 6149 0468 08       		.uleb128 0x8
 6150 0469 43050000 		.4byte	.LASF30
 6151 046d 01       		.byte	0x1
 6152 046e 1102     		.2byte	0x211
ARM GAS  C:\Users\Brian\AppData\Local\Temp\ccPAhBxt.s 			page 135


 6153 0470 5F000000 		.4byte	0x5f
 6154 0474 02       		.byte	0x2
 6155 0475 91       		.byte	0x91
 6156 0476 68       		.sleb128 -24
 6157 0477 00       		.byte	0
 6158 0478 07       		.uleb128 0x7
 6159 0479 01       		.byte	0x1
 6160 047a 8D050000 		.4byte	.LASF45
 6161 047e 01       		.byte	0x1
 6162 047f 2002     		.2byte	0x220
 6163 0481 01       		.byte	0x1
 6164 0482 00000000 		.4byte	.LFB14
 6165 0486 C8010000 		.4byte	.LFE14
 6166 048a 04030000 		.4byte	.LLST14
 6167 048e 01       		.byte	0x1
 6168 048f 6B050000 		.4byte	0x56b
 6169 0493 09       		.uleb128 0x9
 6170 0494 783100   		.ascii	"x1\000"
 6171 0497 01       		.byte	0x1
 6172 0498 2002     		.2byte	0x220
 6173 049a A6000000 		.4byte	0xa6
 6174 049e 02       		.byte	0x2
 6175 049f 91       		.byte	0x91
 6176 04a0 56       		.sleb128 -42
 6177 04a1 09       		.uleb128 0x9
 6178 04a2 793100   		.ascii	"y1\000"
 6179 04a5 01       		.byte	0x1
 6180 04a6 2002     		.2byte	0x220
 6181 04a8 A6000000 		.4byte	0xa6
 6182 04ac 02       		.byte	0x2
 6183 04ad 91       		.byte	0x91
 6184 04ae 54       		.sleb128 -44
 6185 04af 09       		.uleb128 0x9
 6186 04b0 783200   		.ascii	"x2\000"
 6187 04b3 01       		.byte	0x1
 6188 04b4 2002     		.2byte	0x220
 6189 04b6 A6000000 		.4byte	0xa6
 6190 04ba 02       		.byte	0x2
 6191 04bb 91       		.byte	0x91
 6192 04bc 52       		.sleb128 -46
 6193 04bd 09       		.uleb128 0x9
 6194 04be 793200   		.ascii	"y2\000"
 6195 04c1 01       		.byte	0x1
 6196 04c2 2002     		.2byte	0x220
 6197 04c4 A6000000 		.4byte	0xa6
 6198 04c8 02       		.byte	0x2
 6199 04c9 91       		.byte	0x91
 6200 04ca 50       		.sleb128 -48
 6201 04cb 08       		.uleb128 0x8
 6202 04cc D5060000 		.4byte	.LASF22
 6203 04d0 01       		.byte	0x1
 6204 04d1 2002     		.2byte	0x220
 6205 04d3 A6000000 		.4byte	0xa6
 6206 04d7 02       		.byte	0x2
 6207 04d8 91       		.byte	0x91
 6208 04d9 00       		.sleb128 0
 6209 04da 0A       		.uleb128 0xa
ARM GAS  C:\Users\Brian\AppData\Local\Temp\ccPAhBxt.s 			page 136


 6210 04db 647800   		.ascii	"dx\000"
 6211 04de 01       		.byte	0x1
 6212 04df 2202     		.2byte	0x222
 6213 04e1 58000000 		.4byte	0x58
 6214 04e5 02       		.byte	0x2
 6215 04e6 91       		.byte	0x91
 6216 04e7 64       		.sleb128 -28
 6217 04e8 0A       		.uleb128 0xa
 6218 04e9 647900   		.ascii	"dy\000"
 6219 04ec 01       		.byte	0x1
 6220 04ed 2202     		.2byte	0x222
 6221 04ef 58000000 		.4byte	0x58
 6222 04f3 02       		.byte	0x2
 6223 04f4 91       		.byte	0x91
 6224 04f5 62       		.sleb128 -30
 6225 04f6 0A       		.uleb128 0xa
 6226 04f7 73647800 		.ascii	"sdx\000"
 6227 04fb 01       		.byte	0x1
 6228 04fc 2202     		.2byte	0x222
 6229 04fe 58000000 		.4byte	0x58
 6230 0502 02       		.byte	0x2
 6231 0503 91       		.byte	0x91
 6232 0504 6E       		.sleb128 -18
 6233 0505 0A       		.uleb128 0xa
 6234 0506 73647900 		.ascii	"sdy\000"
 6235 050a 01       		.byte	0x1
 6236 050b 2202     		.2byte	0x222
 6237 050d 58000000 		.4byte	0x58
 6238 0511 02       		.byte	0x2
 6239 0512 91       		.byte	0x91
 6240 0513 6C       		.sleb128 -20
 6241 0514 0A       		.uleb128 0xa
 6242 0515 707800   		.ascii	"px\000"
 6243 0518 01       		.byte	0x1
 6244 0519 2202     		.2byte	0x222
 6245 051b 58000000 		.4byte	0x58
 6246 051f 02       		.byte	0x2
 6247 0520 91       		.byte	0x91
 6248 0521 5A       		.sleb128 -38
 6249 0522 0A       		.uleb128 0xa
 6250 0523 707900   		.ascii	"py\000"
 6251 0526 01       		.byte	0x1
 6252 0527 2202     		.2byte	0x222
 6253 0529 58000000 		.4byte	0x58
 6254 052d 02       		.byte	0x2
 6255 052e 91       		.byte	0x91
 6256 052f 58       		.sleb128 -40
 6257 0530 0D       		.uleb128 0xd
 6258 0531 8E020000 		.4byte	.LASF46
 6259 0535 01       		.byte	0x1
 6260 0536 2202     		.2byte	0x222
 6261 0538 58000000 		.4byte	0x58
 6262 053c 02       		.byte	0x2
 6263 053d 91       		.byte	0x91
 6264 053e 6A       		.sleb128 -22
 6265 053f 0D       		.uleb128 0xd
 6266 0540 B8070000 		.4byte	.LASF47
ARM GAS  C:\Users\Brian\AppData\Local\Temp\ccPAhBxt.s 			page 137


 6267 0544 01       		.byte	0x1
 6268 0545 2202     		.2byte	0x222
 6269 0547 58000000 		.4byte	0x58
 6270 054b 02       		.byte	0x2
 6271 054c 91       		.byte	0x91
 6272 054d 68       		.sleb128 -24
 6273 054e 0A       		.uleb128 0xa
 6274 054f 6900     		.ascii	"i\000"
 6275 0551 01       		.byte	0x1
 6276 0552 2202     		.2byte	0x222
 6277 0554 58000000 		.4byte	0x58
 6278 0558 02       		.byte	0x2
 6279 0559 91       		.byte	0x91
 6280 055a 66       		.sleb128 -26
 6281 055b 0D       		.uleb128 0xd
 6282 055c E3030000 		.4byte	.LASF48
 6283 0560 01       		.byte	0x1
 6284 0561 2302     		.2byte	0x223
 6285 0563 B1000000 		.4byte	0xb1
 6286 0567 02       		.byte	0x2
 6287 0568 91       		.byte	0x91
 6288 0569 5C       		.sleb128 -36
 6289 056a 00       		.byte	0
 6290 056b 07       		.uleb128 0x7
 6291 056c 01       		.byte	0x1
 6292 056d C6070000 		.4byte	.LASF49
 6293 0571 01       		.byte	0x1
 6294 0572 5D02     		.2byte	0x25d
 6295 0574 01       		.byte	0x1
 6296 0575 00000000 		.4byte	.LFB15
 6297 0579 6C000000 		.4byte	.LFE15
 6298 057d 3C030000 		.4byte	.LLST15
 6299 0581 01       		.byte	0x1
 6300 0582 CA050000 		.4byte	0x5ca
 6301 0586 09       		.uleb128 0x9
 6302 0587 7800     		.ascii	"x\000"
 6303 0589 01       		.byte	0x1
 6304 058a 5D02     		.2byte	0x25d
 6305 058c 4D000000 		.4byte	0x4d
 6306 0590 02       		.byte	0x2
 6307 0591 91       		.byte	0x91
 6308 0592 76       		.sleb128 -10
 6309 0593 09       		.uleb128 0x9
 6310 0594 7900     		.ascii	"y\000"
 6311 0596 01       		.byte	0x1
 6312 0597 5D02     		.2byte	0x25d
 6313 0599 4D000000 		.4byte	0x4d
 6314 059d 02       		.byte	0x2
 6315 059e 91       		.byte	0x91
 6316 059f 74       		.sleb128 -12
 6317 05a0 09       		.uleb128 0x9
 6318 05a1 7700     		.ascii	"w\000"
 6319 05a3 01       		.byte	0x1
 6320 05a4 5D02     		.2byte	0x25d
 6321 05a6 4D000000 		.4byte	0x4d
 6322 05aa 02       		.byte	0x2
 6323 05ab 91       		.byte	0x91
ARM GAS  C:\Users\Brian\AppData\Local\Temp\ccPAhBxt.s 			page 138


 6324 05ac 72       		.sleb128 -14
 6325 05ad 09       		.uleb128 0x9
 6326 05ae 6800     		.ascii	"h\000"
 6327 05b0 01       		.byte	0x1
 6328 05b1 5D02     		.2byte	0x25d
 6329 05b3 4D000000 		.4byte	0x4d
 6330 05b7 02       		.byte	0x2
 6331 05b8 91       		.byte	0x91
 6332 05b9 70       		.sleb128 -16
 6333 05ba 08       		.uleb128 0x8
 6334 05bb 43050000 		.4byte	.LASF30
 6335 05bf 01       		.byte	0x1
 6336 05c0 5D02     		.2byte	0x25d
 6337 05c2 5F000000 		.4byte	0x5f
 6338 05c6 02       		.byte	0x2
 6339 05c7 91       		.byte	0x91
 6340 05c8 00       		.sleb128 0
 6341 05c9 00       		.byte	0
 6342 05ca 07       		.uleb128 0x7
 6343 05cb 01       		.byte	0x1
 6344 05cc E2050000 		.4byte	.LASF50
 6345 05d0 01       		.byte	0x1
 6346 05d1 6F02     		.2byte	0x26f
 6347 05d3 01       		.byte	0x1
 6348 05d4 00000000 		.4byte	.LFB16
 6349 05d8 CA010000 		.4byte	.LFE16
 6350 05dc 74030000 		.4byte	.LLST16
 6351 05e0 01       		.byte	0x1
 6352 05e1 63060000 		.4byte	0x663
 6353 05e5 09       		.uleb128 0x9
 6354 05e6 783000   		.ascii	"x0\000"
 6355 05e9 01       		.byte	0x1
 6356 05ea 6F02     		.2byte	0x26f
 6357 05ec 4D000000 		.4byte	0x4d
 6358 05f0 02       		.byte	0x2
 6359 05f1 91       		.byte	0x91
 6360 05f2 66       		.sleb128 -26
 6361 05f3 09       		.uleb128 0x9
 6362 05f4 793000   		.ascii	"y0\000"
 6363 05f7 01       		.byte	0x1
 6364 05f8 6F02     		.2byte	0x26f
 6365 05fa 4D000000 		.4byte	0x4d
 6366 05fe 02       		.byte	0x2
 6367 05ff 91       		.byte	0x91
 6368 0600 64       		.sleb128 -28
 6369 0601 09       		.uleb128 0x9
 6370 0602 7200     		.ascii	"r\000"
 6371 0604 01       		.byte	0x1
 6372 0605 6F02     		.2byte	0x26f
 6373 0607 4D000000 		.4byte	0x4d
 6374 060b 02       		.byte	0x2
 6375 060c 91       		.byte	0x91
 6376 060d 62       		.sleb128 -30
 6377 060e 08       		.uleb128 0x8
 6378 060f 43050000 		.4byte	.LASF30
 6379 0613 01       		.byte	0x1
 6380 0614 6F02     		.2byte	0x26f
ARM GAS  C:\Users\Brian\AppData\Local\Temp\ccPAhBxt.s 			page 139


 6381 0616 5F000000 		.4byte	0x5f
 6382 061a 02       		.byte	0x2
 6383 061b 91       		.byte	0x91
 6384 061c 60       		.sleb128 -32
 6385 061d 0A       		.uleb128 0xa
 6386 061e 6600     		.ascii	"f\000"
 6387 0620 01       		.byte	0x1
 6388 0621 7102     		.2byte	0x271
 6389 0623 4D000000 		.4byte	0x4d
 6390 0627 02       		.byte	0x2
 6391 0628 91       		.byte	0x91
 6392 0629 76       		.sleb128 -10
 6393 062a 0D       		.uleb128 0xd
 6394 062b 27070000 		.4byte	.LASF51
 6395 062f 01       		.byte	0x1
 6396 0630 7202     		.2byte	0x272
 6397 0632 4D000000 		.4byte	0x4d
 6398 0636 02       		.byte	0x2
 6399 0637 91       		.byte	0x91
 6400 0638 74       		.sleb128 -12
 6401 0639 0D       		.uleb128 0xd
 6402 063a 2D070000 		.4byte	.LASF52
 6403 063e 01       		.byte	0x1
 6404 063f 7302     		.2byte	0x273
 6405 0641 4D000000 		.4byte	0x4d
 6406 0645 02       		.byte	0x2
 6407 0646 91       		.byte	0x91
 6408 0647 72       		.sleb128 -14
 6409 0648 0A       		.uleb128 0xa
 6410 0649 7800     		.ascii	"x\000"
 6411 064b 01       		.byte	0x1
 6412 064c 7402     		.2byte	0x274
 6413 064e 4D000000 		.4byte	0x4d
 6414 0652 02       		.byte	0x2
 6415 0653 91       		.byte	0x91
 6416 0654 70       		.sleb128 -16
 6417 0655 0A       		.uleb128 0xa
 6418 0656 7900     		.ascii	"y\000"
 6419 0658 01       		.byte	0x1
 6420 0659 7502     		.2byte	0x275
 6421 065b 4D000000 		.4byte	0x4d
 6422 065f 02       		.byte	0x2
 6423 0660 91       		.byte	0x91
 6424 0661 6E       		.sleb128 -18
 6425 0662 00       		.byte	0
 6426 0663 07       		.uleb128 0x7
 6427 0664 01       		.byte	0x1
 6428 0665 CB020000 		.4byte	.LASF53
 6429 0669 01       		.byte	0x1
 6430 066a 9C02     		.2byte	0x29c
 6431 066c 01       		.byte	0x1
 6432 066d 00000000 		.4byte	.LFB17
 6433 0671 9E010000 		.4byte	.LFE17
 6434 0675 AC030000 		.4byte	.LLST17
 6435 0679 01       		.byte	0x1
 6436 067a 25070000 		.4byte	0x725
 6437 067e 09       		.uleb128 0x9
ARM GAS  C:\Users\Brian\AppData\Local\Temp\ccPAhBxt.s 			page 140


 6438 067f 783000   		.ascii	"x0\000"
 6439 0682 01       		.byte	0x1
 6440 0683 9C02     		.2byte	0x29c
 6441 0685 4D000000 		.4byte	0x4d
 6442 0689 02       		.byte	0x2
 6443 068a 91       		.byte	0x91
 6444 068b 66       		.sleb128 -26
 6445 068c 09       		.uleb128 0x9
 6446 068d 793000   		.ascii	"y0\000"
 6447 0690 01       		.byte	0x1
 6448 0691 9C02     		.2byte	0x29c
 6449 0693 4D000000 		.4byte	0x4d
 6450 0697 02       		.byte	0x2
 6451 0698 91       		.byte	0x91
 6452 0699 64       		.sleb128 -28
 6453 069a 09       		.uleb128 0x9
 6454 069b 7200     		.ascii	"r\000"
 6455 069d 01       		.byte	0x1
 6456 069e 9C02     		.2byte	0x29c
 6457 06a0 4D000000 		.4byte	0x4d
 6458 06a4 02       		.byte	0x2
 6459 06a5 91       		.byte	0x91
 6460 06a6 62       		.sleb128 -30
 6461 06a7 08       		.uleb128 0x8
 6462 06a8 DB060000 		.4byte	.LASF54
 6463 06ac 01       		.byte	0x1
 6464 06ad 9C02     		.2byte	0x29c
 6465 06af 3B000000 		.4byte	0x3b
 6466 06b3 02       		.byte	0x2
 6467 06b4 91       		.byte	0x91
 6468 06b5 61       		.sleb128 -31
 6469 06b6 08       		.uleb128 0x8
 6470 06b7 43050000 		.4byte	.LASF30
 6471 06bb 01       		.byte	0x1
 6472 06bc 9D02     		.2byte	0x29d
 6473 06be 5F000000 		.4byte	0x5f
 6474 06c2 02       		.byte	0x2
 6475 06c3 91       		.byte	0x91
 6476 06c4 00       		.sleb128 0
 6477 06c5 0A       		.uleb128 0xa
 6478 06c6 6600     		.ascii	"f\000"
 6479 06c8 01       		.byte	0x1
 6480 06c9 9F02     		.2byte	0x29f
 6481 06cb 4D000000 		.4byte	0x4d
 6482 06cf 02       		.byte	0x2
 6483 06d0 91       		.byte	0x91
 6484 06d1 76       		.sleb128 -10
 6485 06d2 0D       		.uleb128 0xd
 6486 06d3 27070000 		.4byte	.LASF51
 6487 06d7 01       		.byte	0x1
 6488 06d8 A002     		.2byte	0x2a0
 6489 06da 4D000000 		.4byte	0x4d
 6490 06de 02       		.byte	0x2
 6491 06df 91       		.byte	0x91
 6492 06e0 74       		.sleb128 -12
 6493 06e1 0D       		.uleb128 0xd
 6494 06e2 2D070000 		.4byte	.LASF52
ARM GAS  C:\Users\Brian\AppData\Local\Temp\ccPAhBxt.s 			page 141


 6495 06e6 01       		.byte	0x1
 6496 06e7 A102     		.2byte	0x2a1
 6497 06e9 4D000000 		.4byte	0x4d
 6498 06ed 02       		.byte	0x2
 6499 06ee 91       		.byte	0x91
 6500 06ef 72       		.sleb128 -14
 6501 06f0 0A       		.uleb128 0xa
 6502 06f1 7800     		.ascii	"x\000"
 6503 06f3 01       		.byte	0x1
 6504 06f4 A202     		.2byte	0x2a2
 6505 06f6 4D000000 		.4byte	0x4d
 6506 06fa 02       		.byte	0x2
 6507 06fb 91       		.byte	0x91
 6508 06fc 70       		.sleb128 -16
 6509 06fd 0A       		.uleb128 0xa
 6510 06fe 7900     		.ascii	"y\000"
 6511 0700 01       		.byte	0x1
 6512 0701 A302     		.2byte	0x2a3
 6513 0703 4D000000 		.4byte	0x4d
 6514 0707 02       		.byte	0x2
 6515 0708 91       		.byte	0x91
 6516 0709 6E       		.sleb128 -18
 6517 070a 0E       		.uleb128 0xe
 6518 070b 86000000 		.4byte	.LBB2
 6519 070f C2000000 		.4byte	.LBE2
 6520 0713 0B       		.uleb128 0xb
 6521 0714 01       		.byte	0x1
 6522 0715 1F030000 		.4byte	.LASF56
 6523 0719 01       		.byte	0x1
 6524 071a B002     		.2byte	0x2b0
 6525 071c 8D000000 		.4byte	0x8d
 6526 0720 01       		.byte	0x1
 6527 0721 0C       		.uleb128 0xc
 6528 0722 00       		.byte	0
 6529 0723 00       		.byte	0
 6530 0724 00       		.byte	0
 6531 0725 07       		.uleb128 0x7
 6532 0726 01       		.byte	0x1
 6533 0727 7D030000 		.4byte	.LASF57
 6534 072b 01       		.byte	0x1
 6535 072c CA02     		.2byte	0x2ca
 6536 072e 01       		.byte	0x1
 6537 072f 00000000 		.4byte	.LFB18
 6538 0733 58000000 		.4byte	.LFE18
 6539 0737 E4030000 		.4byte	.LLST18
 6540 073b 01       		.byte	0x1
 6541 073c 79070000 		.4byte	0x779
 6542 0740 09       		.uleb128 0x9
 6543 0741 783000   		.ascii	"x0\000"
 6544 0744 01       		.byte	0x1
 6545 0745 CA02     		.2byte	0x2ca
 6546 0747 4D000000 		.4byte	0x4d
 6547 074b 02       		.byte	0x2
 6548 074c 91       		.byte	0x91
 6549 074d 76       		.sleb128 -10
 6550 074e 09       		.uleb128 0x9
 6551 074f 793000   		.ascii	"y0\000"
ARM GAS  C:\Users\Brian\AppData\Local\Temp\ccPAhBxt.s 			page 142


 6552 0752 01       		.byte	0x1
 6553 0753 CA02     		.2byte	0x2ca
 6554 0755 4D000000 		.4byte	0x4d
 6555 0759 02       		.byte	0x2
 6556 075a 91       		.byte	0x91
 6557 075b 74       		.sleb128 -12
 6558 075c 09       		.uleb128 0x9
 6559 075d 7200     		.ascii	"r\000"
 6560 075f 01       		.byte	0x1
 6561 0760 CA02     		.2byte	0x2ca
 6562 0762 4D000000 		.4byte	0x4d
 6563 0766 02       		.byte	0x2
 6564 0767 91       		.byte	0x91
 6565 0768 72       		.sleb128 -14
 6566 0769 08       		.uleb128 0x8
 6567 076a 43050000 		.4byte	.LASF30
 6568 076e 01       		.byte	0x1
 6569 076f CA02     		.2byte	0x2ca
 6570 0771 5F000000 		.4byte	0x5f
 6571 0775 02       		.byte	0x2
 6572 0776 91       		.byte	0x91
 6573 0777 70       		.sleb128 -16
 6574 0778 00       		.byte	0
 6575 0779 07       		.uleb128 0x7
 6576 077a 01       		.byte	0x1
 6577 077b 13060000 		.4byte	.LASF58
 6578 077f 01       		.byte	0x1
 6579 0780 DB02     		.2byte	0x2db
 6580 0782 01       		.byte	0x1
 6581 0783 00000000 		.4byte	.LFB19
 6582 0787 4E010000 		.4byte	.LFE19
 6583 078b 1C040000 		.4byte	.LLST19
 6584 078f 01       		.byte	0x1
 6585 0790 30080000 		.4byte	0x830
 6586 0794 09       		.uleb128 0x9
 6587 0795 783000   		.ascii	"x0\000"
 6588 0798 01       		.byte	0x1
 6589 0799 DB02     		.2byte	0x2db
 6590 079b 4D000000 		.4byte	0x4d
 6591 079f 02       		.byte	0x2
 6592 07a0 91       		.byte	0x91
 6593 07a1 66       		.sleb128 -26
 6594 07a2 09       		.uleb128 0x9
 6595 07a3 793000   		.ascii	"y0\000"
 6596 07a6 01       		.byte	0x1
 6597 07a7 DB02     		.2byte	0x2db
 6598 07a9 4D000000 		.4byte	0x4d
 6599 07ad 02       		.byte	0x2
 6600 07ae 91       		.byte	0x91
 6601 07af 64       		.sleb128 -28
 6602 07b0 09       		.uleb128 0x9
 6603 07b1 7200     		.ascii	"r\000"
 6604 07b3 01       		.byte	0x1
 6605 07b4 DB02     		.2byte	0x2db
 6606 07b6 4D000000 		.4byte	0x4d
 6607 07ba 02       		.byte	0x2
 6608 07bb 91       		.byte	0x91
ARM GAS  C:\Users\Brian\AppData\Local\Temp\ccPAhBxt.s 			page 143


 6609 07bc 62       		.sleb128 -30
 6610 07bd 08       		.uleb128 0x8
 6611 07be DB060000 		.4byte	.LASF54
 6612 07c2 01       		.byte	0x1
 6613 07c3 DB02     		.2byte	0x2db
 6614 07c5 3B000000 		.4byte	0x3b
 6615 07c9 02       		.byte	0x2
 6616 07ca 91       		.byte	0x91
 6617 07cb 61       		.sleb128 -31
 6618 07cc 08       		.uleb128 0x8
 6619 07cd 3F070000 		.4byte	.LASF59
 6620 07d1 01       		.byte	0x1
 6621 07d2 DC02     		.2byte	0x2dc
 6622 07d4 4D000000 		.4byte	0x4d
 6623 07d8 02       		.byte	0x2
 6624 07d9 91       		.byte	0x91
 6625 07da 00       		.sleb128 0
 6626 07db 08       		.uleb128 0x8
 6627 07dc 43050000 		.4byte	.LASF30
 6628 07e0 01       		.byte	0x1
 6629 07e1 DC02     		.2byte	0x2dc
 6630 07e3 5F000000 		.4byte	0x5f
 6631 07e7 02       		.byte	0x2
 6632 07e8 91       		.byte	0x91
 6633 07e9 04       		.sleb128 4
 6634 07ea 0A       		.uleb128 0xa
 6635 07eb 6600     		.ascii	"f\000"
 6636 07ed 01       		.byte	0x1
 6637 07ee DE02     		.2byte	0x2de
 6638 07f0 4D000000 		.4byte	0x4d
 6639 07f4 02       		.byte	0x2
 6640 07f5 91       		.byte	0x91
 6641 07f6 76       		.sleb128 -10
 6642 07f7 0D       		.uleb128 0xd
 6643 07f8 27070000 		.4byte	.LASF51
 6644 07fc 01       		.byte	0x1
 6645 07fd DF02     		.2byte	0x2df
 6646 07ff 4D000000 		.4byte	0x4d
 6647 0803 02       		.byte	0x2
 6648 0804 91       		.byte	0x91
 6649 0805 74       		.sleb128 -12
 6650 0806 0D       		.uleb128 0xd
 6651 0807 2D070000 		.4byte	.LASF52
 6652 080b 01       		.byte	0x1
 6653 080c E002     		.2byte	0x2e0
 6654 080e 4D000000 		.4byte	0x4d
 6655 0812 02       		.byte	0x2
 6656 0813 91       		.byte	0x91
 6657 0814 72       		.sleb128 -14
 6658 0815 0A       		.uleb128 0xa
 6659 0816 7800     		.ascii	"x\000"
 6660 0818 01       		.byte	0x1
 6661 0819 E102     		.2byte	0x2e1
 6662 081b 4D000000 		.4byte	0x4d
 6663 081f 02       		.byte	0x2
 6664 0820 91       		.byte	0x91
 6665 0821 70       		.sleb128 -16
ARM GAS  C:\Users\Brian\AppData\Local\Temp\ccPAhBxt.s 			page 144


 6666 0822 0A       		.uleb128 0xa
 6667 0823 7900     		.ascii	"y\000"
 6668 0825 01       		.byte	0x1
 6669 0826 E202     		.2byte	0x2e2
 6670 0828 4D000000 		.4byte	0x4d
 6671 082c 02       		.byte	0x2
 6672 082d 91       		.byte	0x91
 6673 082e 6E       		.sleb128 -18
 6674 082f 00       		.byte	0
 6675 0830 07       		.uleb128 0x7
 6676 0831 01       		.byte	0x1
 6677 0832 FB040000 		.4byte	.LASF60
 6678 0836 01       		.byte	0x1
 6679 0837 0503     		.2byte	0x305
 6680 0839 01       		.byte	0x1
 6681 083a 00000000 		.4byte	.LFB20
 6682 083e 5E000000 		.4byte	.LFE20
 6683 0842 54040000 		.4byte	.LLST20
 6684 0846 01       		.byte	0x1
 6685 0847 BF080000 		.4byte	0x8bf
 6686 084b 09       		.uleb128 0x9
 6687 084c 783000   		.ascii	"x0\000"
 6688 084f 01       		.byte	0x1
 6689 0850 0503     		.2byte	0x305
 6690 0852 4D000000 		.4byte	0x4d
 6691 0856 02       		.byte	0x2
 6692 0857 91       		.byte	0x91
 6693 0858 6E       		.sleb128 -18
 6694 0859 09       		.uleb128 0x9
 6695 085a 793000   		.ascii	"y0\000"
 6696 085d 01       		.byte	0x1
 6697 085e 0503     		.2byte	0x305
 6698 0860 4D000000 		.4byte	0x4d
 6699 0864 02       		.byte	0x2
 6700 0865 91       		.byte	0x91
 6701 0866 6C       		.sleb128 -20
 6702 0867 09       		.uleb128 0x9
 6703 0868 783100   		.ascii	"x1\000"
 6704 086b 01       		.byte	0x1
 6705 086c 0503     		.2byte	0x305
 6706 086e 4D000000 		.4byte	0x4d
 6707 0872 02       		.byte	0x2
 6708 0873 91       		.byte	0x91
 6709 0874 6A       		.sleb128 -22
 6710 0875 09       		.uleb128 0x9
 6711 0876 793100   		.ascii	"y1\000"
 6712 0879 01       		.byte	0x1
 6713 087a 0503     		.2byte	0x305
 6714 087c 4D000000 		.4byte	0x4d
 6715 0880 02       		.byte	0x2
 6716 0881 91       		.byte	0x91
 6717 0882 68       		.sleb128 -24
 6718 0883 09       		.uleb128 0x9
 6719 0884 783200   		.ascii	"x2\000"
 6720 0887 01       		.byte	0x1
 6721 0888 0603     		.2byte	0x306
 6722 088a 4D000000 		.4byte	0x4d
ARM GAS  C:\Users\Brian\AppData\Local\Temp\ccPAhBxt.s 			page 145


 6723 088e 02       		.byte	0x2
 6724 088f 91       		.byte	0x91
 6725 0890 00       		.sleb128 0
 6726 0891 09       		.uleb128 0x9
 6727 0892 793200   		.ascii	"y2\000"
 6728 0895 01       		.byte	0x1
 6729 0896 0603     		.2byte	0x306
 6730 0898 4D000000 		.4byte	0x4d
 6731 089c 02       		.byte	0x2
 6732 089d 91       		.byte	0x91
 6733 089e 04       		.sleb128 4
 6734 089f 08       		.uleb128 0x8
 6735 08a0 43050000 		.4byte	.LASF30
 6736 08a4 01       		.byte	0x1
 6737 08a5 0603     		.2byte	0x306
 6738 08a7 5F000000 		.4byte	0x5f
 6739 08ab 02       		.byte	0x2
 6740 08ac 91       		.byte	0x91
 6741 08ad 08       		.sleb128 8
 6742 08ae 0B       		.uleb128 0xb
 6743 08af 01       		.byte	0x1
 6744 08b0 94020000 		.4byte	.LASF61
 6745 08b4 01       		.byte	0x1
 6746 08b5 0803     		.2byte	0x308
 6747 08b7 8D000000 		.4byte	0x8d
 6748 08bb 01       		.byte	0x1
 6749 08bc 0C       		.uleb128 0xc
 6750 08bd 00       		.byte	0
 6751 08be 00       		.byte	0
 6752 08bf 07       		.uleb128 0x7
 6753 08c0 01       		.byte	0x1
 6754 08c1 B6040000 		.4byte	.LASF62
 6755 08c5 01       		.byte	0x1
 6756 08c6 1903     		.2byte	0x319
 6757 08c8 01       		.byte	0x1
 6758 08c9 00000000 		.4byte	.LFB21
 6759 08cd 06020000 		.4byte	.LFE21
 6760 08d1 8C040000 		.4byte	.LLST21
 6761 08d5 01       		.byte	0x1
 6762 08d6 900A0000 		.4byte	0xa90
 6763 08da 09       		.uleb128 0x9
 6764 08db 783000   		.ascii	"x0\000"
 6765 08de 01       		.byte	0x1
 6766 08df 1903     		.2byte	0x319
 6767 08e1 4D000000 		.4byte	0x4d
 6768 08e5 02       		.byte	0x2
 6769 08e6 91       		.byte	0x91
 6770 08e7 5E       		.sleb128 -34
 6771 08e8 09       		.uleb128 0x9
 6772 08e9 793000   		.ascii	"y0\000"
 6773 08ec 01       		.byte	0x1
 6774 08ed 1903     		.2byte	0x319
 6775 08ef 4D000000 		.4byte	0x4d
 6776 08f3 02       		.byte	0x2
 6777 08f4 91       		.byte	0x91
 6778 08f5 5C       		.sleb128 -36
 6779 08f6 09       		.uleb128 0x9
ARM GAS  C:\Users\Brian\AppData\Local\Temp\ccPAhBxt.s 			page 146


 6780 08f7 783100   		.ascii	"x1\000"
 6781 08fa 01       		.byte	0x1
 6782 08fb 1903     		.2byte	0x319
 6783 08fd 4D000000 		.4byte	0x4d
 6784 0901 02       		.byte	0x2
 6785 0902 91       		.byte	0x91
 6786 0903 5A       		.sleb128 -38
 6787 0904 09       		.uleb128 0x9
 6788 0905 793100   		.ascii	"y1\000"
 6789 0908 01       		.byte	0x1
 6790 0909 1903     		.2byte	0x319
 6791 090b 4D000000 		.4byte	0x4d
 6792 090f 02       		.byte	0x2
 6793 0910 91       		.byte	0x91
 6794 0911 58       		.sleb128 -40
 6795 0912 09       		.uleb128 0x9
 6796 0913 783200   		.ascii	"x2\000"
 6797 0916 01       		.byte	0x1
 6798 0917 1A03     		.2byte	0x31a
 6799 0919 4D000000 		.4byte	0x4d
 6800 091d 02       		.byte	0x2
 6801 091e 91       		.byte	0x91
 6802 091f 00       		.sleb128 0
 6803 0920 09       		.uleb128 0x9
 6804 0921 793200   		.ascii	"y2\000"
 6805 0924 01       		.byte	0x1
 6806 0925 1A03     		.2byte	0x31a
 6807 0927 4D000000 		.4byte	0x4d
 6808 092b 02       		.byte	0x2
 6809 092c 91       		.byte	0x91
 6810 092d 04       		.sleb128 4
 6811 092e 08       		.uleb128 0x8
 6812 092f 43050000 		.4byte	.LASF30
 6813 0933 01       		.byte	0x1
 6814 0934 1A03     		.2byte	0x31a
 6815 0936 5F000000 		.4byte	0x5f
 6816 093a 02       		.byte	0x2
 6817 093b 91       		.byte	0x91
 6818 093c 08       		.sleb128 8
 6819 093d 0A       		.uleb128 0xa
 6820 093e 6100     		.ascii	"a\000"
 6821 0940 01       		.byte	0x1
 6822 0941 1C03     		.2byte	0x31c
 6823 0943 4D000000 		.4byte	0x4d
 6824 0947 02       		.byte	0x2
 6825 0948 91       		.byte	0x91
 6826 0949 76       		.sleb128 -10
 6827 094a 0A       		.uleb128 0xa
 6828 094b 6200     		.ascii	"b\000"
 6829 094d 01       		.byte	0x1
 6830 094e 1C03     		.2byte	0x31c
 6831 0950 4D000000 		.4byte	0x4d
 6832 0954 02       		.byte	0x2
 6833 0955 91       		.byte	0x91
 6834 0956 74       		.sleb128 -12
 6835 0957 0A       		.uleb128 0xa
 6836 0958 7900     		.ascii	"y\000"
ARM GAS  C:\Users\Brian\AppData\Local\Temp\ccPAhBxt.s 			page 147


 6837 095a 01       		.byte	0x1
 6838 095b 1C03     		.2byte	0x31c
 6839 095d 4D000000 		.4byte	0x4d
 6840 0961 02       		.byte	0x2
 6841 0962 91       		.byte	0x91
 6842 0963 72       		.sleb128 -14
 6843 0964 0D       		.uleb128 0xd
 6844 0965 00000000 		.4byte	.LASF63
 6845 0969 01       		.byte	0x1
 6846 096a 1C03     		.2byte	0x31c
 6847 096c 4D000000 		.4byte	0x4d
 6848 0970 02       		.byte	0x2
 6849 0971 91       		.byte	0x91
 6850 0972 70       		.sleb128 -16
 6851 0973 0D       		.uleb128 0xd
 6852 0974 70000000 		.4byte	.LASF64
 6853 0978 01       		.byte	0x1
 6854 0979 3403     		.2byte	0x334
 6855 097b 4D000000 		.4byte	0x4d
 6856 097f 02       		.byte	0x2
 6857 0980 91       		.byte	0x91
 6858 0981 6A       		.sleb128 -22
 6859 0982 0D       		.uleb128 0xd
 6860 0983 0D030000 		.4byte	.LASF65
 6861 0987 01       		.byte	0x1
 6862 0988 3503     		.2byte	0x335
 6863 098a 4D000000 		.4byte	0x4d
 6864 098e 02       		.byte	0x2
 6865 098f 91       		.byte	0x91
 6866 0990 68       		.sleb128 -24
 6867 0991 0D       		.uleb128 0xd
 6868 0992 75000000 		.4byte	.LASF66
 6869 0996 01       		.byte	0x1
 6870 0997 3603     		.2byte	0x336
 6871 0999 4D000000 		.4byte	0x4d
 6872 099d 02       		.byte	0x2
 6873 099e 91       		.byte	0x91
 6874 099f 66       		.sleb128 -26
 6875 09a0 0D       		.uleb128 0xd
 6876 09a1 12030000 		.4byte	.LASF67
 6877 09a5 01       		.byte	0x1
 6878 09a6 3703     		.2byte	0x337
 6879 09a8 4D000000 		.4byte	0x4d
 6880 09ac 02       		.byte	0x2
 6881 09ad 91       		.byte	0x91
 6882 09ae 64       		.sleb128 -28
 6883 09af 0D       		.uleb128 0xd
 6884 09b0 F4000000 		.4byte	.LASF68
 6885 09b4 01       		.byte	0x1
 6886 09b5 3803     		.2byte	0x338
 6887 09b7 4D000000 		.4byte	0x4d
 6888 09bb 02       		.byte	0x2
 6889 09bc 91       		.byte	0x91
 6890 09bd 62       		.sleb128 -30
 6891 09be 0D       		.uleb128 0xd
 6892 09bf D6030000 		.4byte	.LASF69
 6893 09c3 01       		.byte	0x1
ARM GAS  C:\Users\Brian\AppData\Local\Temp\ccPAhBxt.s 			page 148


 6894 09c4 3903     		.2byte	0x339
 6895 09c6 4D000000 		.4byte	0x4d
 6896 09ca 02       		.byte	0x2
 6897 09cb 91       		.byte	0x91
 6898 09cc 60       		.sleb128 -32
 6899 09cd 0A       		.uleb128 0xa
 6900 09ce 736100   		.ascii	"sa\000"
 6901 09d1 01       		.byte	0x1
 6902 09d2 3A03     		.2byte	0x33a
 6903 09d4 4D000000 		.4byte	0x4d
 6904 09d8 02       		.byte	0x2
 6905 09d9 91       		.byte	0x91
 6906 09da 6E       		.sleb128 -18
 6907 09db 0A       		.uleb128 0xa
 6908 09dc 736200   		.ascii	"sb\000"
 6909 09df 01       		.byte	0x1
 6910 09e0 3B03     		.2byte	0x33b
 6911 09e2 4D000000 		.4byte	0x4d
 6912 09e6 02       		.byte	0x2
 6913 09e7 91       		.byte	0x91
 6914 09e8 6C       		.sleb128 -20
 6915 09e9 0F       		.uleb128 0xf
 6916 09ea 1A000000 		.4byte	.LBB3
 6917 09ee 3A000000 		.4byte	.LBE3
 6918 09f2 070A0000 		.4byte	0xa07
 6919 09f6 0B       		.uleb128 0xb
 6920 09f7 01       		.byte	0x1
 6921 09f8 78030000 		.4byte	.LASF70
 6922 09fc 01       		.byte	0x1
 6923 09fd 2003     		.2byte	0x320
 6924 09ff 8D000000 		.4byte	0x8d
 6925 0a03 01       		.byte	0x1
 6926 0a04 0C       		.uleb128 0xc
 6927 0a05 00       		.byte	0
 6928 0a06 00       		.byte	0
 6929 0a07 0F       		.uleb128 0xf
 6930 0a08 46000000 		.4byte	.LBB4
 6931 0a0c 66000000 		.4byte	.LBE4
 6932 0a10 250A0000 		.4byte	0xa25
 6933 0a14 0B       		.uleb128 0xb
 6934 0a15 01       		.byte	0x1
 6935 0a16 78030000 		.4byte	.LASF70
 6936 0a1a 01       		.byte	0x1
 6937 0a1b 2003     		.2byte	0x320
 6938 0a1d 8D000000 		.4byte	0x8d
 6939 0a21 01       		.byte	0x1
 6940 0a22 0C       		.uleb128 0xc
 6941 0a23 00       		.byte	0
 6942 0a24 00       		.byte	0
 6943 0a25 0F       		.uleb128 0xf
 6944 0a26 72000000 		.4byte	.LBB5
 6945 0a2a 92000000 		.4byte	.LBE5
 6946 0a2e 430A0000 		.4byte	0xa43
 6947 0a32 0B       		.uleb128 0xb
 6948 0a33 01       		.byte	0x1
 6949 0a34 78030000 		.4byte	.LASF70
 6950 0a38 01       		.byte	0x1
ARM GAS  C:\Users\Brian\AppData\Local\Temp\ccPAhBxt.s 			page 149


 6951 0a39 2003     		.2byte	0x320
 6952 0a3b 8D000000 		.4byte	0x8d
 6953 0a3f 01       		.byte	0x1
 6954 0a40 0C       		.uleb128 0xc
 6955 0a41 00       		.byte	0
 6956 0a42 00       		.byte	0
 6957 0a43 0F       		.uleb128 0xf
 6958 0a44 9E000000 		.4byte	.LBB6
 6959 0a48 08010000 		.4byte	.LBE6
 6960 0a4c 610A0000 		.4byte	0xa61
 6961 0a50 0B       		.uleb128 0xb
 6962 0a51 01       		.byte	0x1
 6963 0a52 94020000 		.4byte	.LASF61
 6964 0a56 01       		.byte	0x1
 6965 0a57 0803     		.2byte	0x308
 6966 0a59 8D000000 		.4byte	0x8d
 6967 0a5d 01       		.byte	0x1
 6968 0a5e 0C       		.uleb128 0xc
 6969 0a5f 00       		.byte	0
 6970 0a60 00       		.byte	0
 6971 0a61 0E       		.uleb128 0xe
 6972 0a62 72010000 		.4byte	.LBB7
 6973 0a66 EA010000 		.4byte	.LBE7
 6974 0a6a 10       		.uleb128 0x10
 6975 0a6b 01       		.byte	0x1
 6976 0a6c 78030000 		.4byte	.LASF70
 6977 0a70 01       		.byte	0x1
 6978 0a71 2003     		.2byte	0x320
 6979 0a73 8D000000 		.4byte	0x8d
 6980 0a77 01       		.byte	0x1
 6981 0a78 7E0A0000 		.4byte	0xa7e
 6982 0a7c 0C       		.uleb128 0xc
 6983 0a7d 00       		.byte	0
 6984 0a7e 0B       		.uleb128 0xb
 6985 0a7f 01       		.byte	0x1
 6986 0a80 94020000 		.4byte	.LASF61
 6987 0a84 01       		.byte	0x1
 6988 0a85 0803     		.2byte	0x308
 6989 0a87 8D000000 		.4byte	0x8d
 6990 0a8b 01       		.byte	0x1
 6991 0a8c 0C       		.uleb128 0xc
 6992 0a8d 00       		.byte	0
 6993 0a8e 00       		.byte	0
 6994 0a8f 00       		.byte	0
 6995 0a90 07       		.uleb128 0x7
 6996 0a91 01       		.byte	0x1
 6997 0a92 A8060000 		.4byte	.LASF71
 6998 0a96 01       		.byte	0x1
 6999 0a97 5F03     		.2byte	0x35f
 7000 0a99 01       		.byte	0x1
 7001 0a9a 00000000 		.4byte	.LFB22
 7002 0a9e BA010000 		.4byte	.LFE22
 7003 0aa2 C4040000 		.4byte	.LLST22
 7004 0aa6 01       		.byte	0x1
 7005 0aa7 0C0B0000 		.4byte	0xb0c
 7006 0aab 09       		.uleb128 0x9
 7007 0aac 7800     		.ascii	"x\000"
ARM GAS  C:\Users\Brian\AppData\Local\Temp\ccPAhBxt.s 			page 150


 7008 0aae 01       		.byte	0x1
 7009 0aaf 5F03     		.2byte	0x35f
 7010 0ab1 4D000000 		.4byte	0x4d
 7011 0ab5 02       		.byte	0x2
 7012 0ab6 91       		.byte	0x91
 7013 0ab7 6E       		.sleb128 -18
 7014 0ab8 09       		.uleb128 0x9
 7015 0ab9 7900     		.ascii	"y\000"
 7016 0abb 01       		.byte	0x1
 7017 0abc 5F03     		.2byte	0x35f
 7018 0abe 4D000000 		.4byte	0x4d
 7019 0ac2 02       		.byte	0x2
 7020 0ac3 91       		.byte	0x91
 7021 0ac4 6C       		.sleb128 -20
 7022 0ac5 09       		.uleb128 0x9
 7023 0ac6 7700     		.ascii	"w\000"
 7024 0ac8 01       		.byte	0x1
 7025 0ac9 5F03     		.2byte	0x35f
 7026 0acb 4D000000 		.4byte	0x4d
 7027 0acf 02       		.byte	0x2
 7028 0ad0 91       		.byte	0x91
 7029 0ad1 6A       		.sleb128 -22
 7030 0ad2 09       		.uleb128 0x9
 7031 0ad3 6800     		.ascii	"h\000"
 7032 0ad5 01       		.byte	0x1
 7033 0ad6 5F03     		.2byte	0x35f
 7034 0ad8 4D000000 		.4byte	0x4d
 7035 0adc 02       		.byte	0x2
 7036 0add 91       		.byte	0x91
 7037 0ade 68       		.sleb128 -24
 7038 0adf 09       		.uleb128 0x9
 7039 0ae0 7200     		.ascii	"r\000"
 7040 0ae2 01       		.byte	0x1
 7041 0ae3 6003     		.2byte	0x360
 7042 0ae5 4D000000 		.4byte	0x4d
 7043 0ae9 02       		.byte	0x2
 7044 0aea 91       		.byte	0x91
 7045 0aeb 00       		.sleb128 0
 7046 0aec 08       		.uleb128 0x8
 7047 0aed 43050000 		.4byte	.LASF30
 7048 0af1 01       		.byte	0x1
 7049 0af2 6003     		.2byte	0x360
 7050 0af4 5F000000 		.4byte	0x5f
 7051 0af8 02       		.byte	0x2
 7052 0af9 91       		.byte	0x91
 7053 0afa 04       		.sleb128 4
 7054 0afb 0B       		.uleb128 0xb
 7055 0afc 01       		.byte	0x1
 7056 0afd 94020000 		.4byte	.LASF61
 7057 0b01 01       		.byte	0x1
 7058 0b02 0803     		.2byte	0x308
 7059 0b04 8D000000 		.4byte	0x8d
 7060 0b08 01       		.byte	0x1
 7061 0b09 0C       		.uleb128 0xc
 7062 0b0a 00       		.byte	0
 7063 0b0b 00       		.byte	0
 7064 0b0c 07       		.uleb128 0x7
ARM GAS  C:\Users\Brian\AppData\Local\Temp\ccPAhBxt.s 			page 151


 7065 0b0d 01       		.byte	0x1
 7066 0b0e 73050000 		.4byte	.LASF72
 7067 0b12 01       		.byte	0x1
 7068 0b13 7903     		.2byte	0x379
 7069 0b15 01       		.byte	0x1
 7070 0b16 00000000 		.4byte	.LFB23
 7071 0b1a F8000000 		.4byte	.LFE23
 7072 0b1e FC040000 		.4byte	.LLST23
 7073 0b22 01       		.byte	0x1
 7074 0b23 780B0000 		.4byte	0xb78
 7075 0b27 09       		.uleb128 0x9
 7076 0b28 7800     		.ascii	"x\000"
 7077 0b2a 01       		.byte	0x1
 7078 0b2b 7903     		.2byte	0x379
 7079 0b2d 4D000000 		.4byte	0x4d
 7080 0b31 02       		.byte	0x2
 7081 0b32 91       		.byte	0x91
 7082 0b33 6E       		.sleb128 -18
 7083 0b34 09       		.uleb128 0x9
 7084 0b35 7900     		.ascii	"y\000"
 7085 0b37 01       		.byte	0x1
 7086 0b38 7903     		.2byte	0x379
 7087 0b3a 4D000000 		.4byte	0x4d
 7088 0b3e 02       		.byte	0x2
 7089 0b3f 91       		.byte	0x91
 7090 0b40 6C       		.sleb128 -20
 7091 0b41 09       		.uleb128 0x9
 7092 0b42 7700     		.ascii	"w\000"
 7093 0b44 01       		.byte	0x1
 7094 0b45 7903     		.2byte	0x379
 7095 0b47 4D000000 		.4byte	0x4d
 7096 0b4b 02       		.byte	0x2
 7097 0b4c 91       		.byte	0x91
 7098 0b4d 6A       		.sleb128 -22
 7099 0b4e 09       		.uleb128 0x9
 7100 0b4f 6800     		.ascii	"h\000"
 7101 0b51 01       		.byte	0x1
 7102 0b52 7903     		.2byte	0x379
 7103 0b54 4D000000 		.4byte	0x4d
 7104 0b58 02       		.byte	0x2
 7105 0b59 91       		.byte	0x91
 7106 0b5a 68       		.sleb128 -24
 7107 0b5b 09       		.uleb128 0x9
 7108 0b5c 7200     		.ascii	"r\000"
 7109 0b5e 01       		.byte	0x1
 7110 0b5f 7A03     		.2byte	0x37a
 7111 0b61 4D000000 		.4byte	0x4d
 7112 0b65 02       		.byte	0x2
 7113 0b66 91       		.byte	0x91
 7114 0b67 00       		.sleb128 0
 7115 0b68 08       		.uleb128 0x8
 7116 0b69 43050000 		.4byte	.LASF30
 7117 0b6d 01       		.byte	0x1
 7118 0b6e 7A03     		.2byte	0x37a
 7119 0b70 5F000000 		.4byte	0x5f
 7120 0b74 02       		.byte	0x2
 7121 0b75 91       		.byte	0x91
ARM GAS  C:\Users\Brian\AppData\Local\Temp\ccPAhBxt.s 			page 152


 7122 0b76 04       		.sleb128 4
 7123 0b77 00       		.byte	0
 7124 0b78 07       		.uleb128 0x7
 7125 0b79 01       		.byte	0x1
 7126 0b7a E6060000 		.4byte	.LASF73
 7127 0b7e 01       		.byte	0x1
 7128 0b7f 8B03     		.2byte	0x38b
 7129 0b81 01       		.byte	0x1
 7130 0b82 00000000 		.4byte	.LFB24
 7131 0b86 3E000000 		.4byte	.LFE24
 7132 0b8a 34050000 		.4byte	.LLST24
 7133 0b8e 01       		.byte	0x1
 7134 0b8f C10B0000 		.4byte	0xbc1
 7135 0b93 08       		.uleb128 0x8
 7136 0b94 F2020000 		.4byte	.LASF74
 7137 0b98 01       		.byte	0x1
 7138 0b99 8B03     		.2byte	0x38b
 7139 0b9b C10B0000 		.4byte	0xbc1
 7140 0b9f 02       		.byte	0x2
 7141 0ba0 91       		.byte	0x91
 7142 0ba1 6C       		.sleb128 -20
 7143 0ba2 0D       		.uleb128 0xd
 7144 0ba3 22020000 		.4byte	.LASF75
 7145 0ba7 01       		.byte	0x1
 7146 0ba8 8D03     		.2byte	0x38d
 7147 0baa 9B000000 		.4byte	0x9b
 7148 0bae 02       		.byte	0x2
 7149 0baf 91       		.byte	0x91
 7150 0bb0 77       		.sleb128 -9
 7151 0bb1 0D       		.uleb128 0xd
 7152 0bb2 BE070000 		.4byte	.LASF76
 7153 0bb6 01       		.byte	0x1
 7154 0bb7 8E03     		.2byte	0x38e
 7155 0bb9 BF000000 		.4byte	0xbf
 7156 0bbd 02       		.byte	0x2
 7157 0bbe 91       		.byte	0x91
 7158 0bbf 76       		.sleb128 -10
 7159 0bc0 00       		.byte	0
 7160 0bc1 05       		.uleb128 0x5
 7161 0bc2 04       		.byte	0x4
 7162 0bc3 C70B0000 		.4byte	0xbc7
 7163 0bc7 11       		.uleb128 0x11
 7164 0bc8 BF000000 		.4byte	0xbf
 7165 0bcc 07       		.uleb128 0x7
 7166 0bcd 01       		.byte	0x1
 7167 0bce 4E050000 		.4byte	.LASF77
 7168 0bd2 01       		.byte	0x1
 7169 0bd3 9F03     		.2byte	0x39f
 7170 0bd5 01       		.byte	0x1
 7171 0bd6 00000000 		.4byte	.LFB25
 7172 0bda 6A010000 		.4byte	.LFE25
 7173 0bde 6C050000 		.4byte	.LLST25
 7174 0be2 01       		.byte	0x1
 7175 0be3 5E0C0000 		.4byte	0xc5e
 7176 0be7 08       		.uleb128 0x8
 7177 0be8 F2020000 		.4byte	.LASF74
 7178 0bec 01       		.byte	0x1
ARM GAS  C:\Users\Brian\AppData\Local\Temp\ccPAhBxt.s 			page 153


 7179 0bed 9F03     		.2byte	0x39f
 7180 0bef 5E0C0000 		.4byte	0xc5e
 7181 0bf3 03       		.byte	0x3
 7182 0bf4 91       		.byte	0x91
 7183 0bf5 D477     		.sleb128 -1068
 7184 0bf7 0A       		.uleb128 0xa
 7185 0bf8 737400   		.ascii	"st\000"
 7186 0bfb 01       		.byte	0x1
 7187 0bfc A103     		.2byte	0x3a1
 7188 0bfe D8000000 		.4byte	0xd8
 7189 0c02 02       		.byte	0x2
 7190 0c03 91       		.byte	0x91
 7191 0c04 64       		.sleb128 -28
 7192 0c05 0D       		.uleb128 0xd
 7193 0c06 3E050000 		.4byte	.LASF78
 7194 0c0a 01       		.byte	0x1
 7195 0c0b A203     		.2byte	0x3a2
 7196 0c0d 640C0000 		.4byte	0xc64
 7197 0c11 03       		.byte	0x3
 7198 0c12 91       		.byte	0x91
 7199 0c13 DC77     		.sleb128 -1060
 7200 0c15 0D       		.uleb128 0xd
 7201 0c16 49050000 		.4byte	.LASF79
 7202 0c1a 01       		.byte	0x1
 7203 0c1b A503     		.2byte	0x3a5
 7204 0c1d D8000000 		.4byte	0xd8
 7205 0c21 02       		.byte	0x2
 7206 0c22 91       		.byte	0x91
 7207 0c23 6C       		.sleb128 -20
 7208 0c24 12       		.uleb128 0x12
 7209 0c25 DB050000 		.4byte	.LASF134
 7210 0c29 01       		.byte	0x1
 7211 0c2a A603     		.2byte	0x3a6
 7212 0c2c D8000000 		.4byte	0xd8
 7213 0c30 0D       		.uleb128 0xd
 7214 0c31 C7010000 		.4byte	.LASF80
 7215 0c35 01       		.byte	0x1
 7216 0c36 A903     		.2byte	0x3a9
 7217 0c38 8D000000 		.4byte	0x8d
 7218 0c3c 02       		.byte	0x2
 7219 0c3d 91       		.byte	0x91
 7220 0c3e 60       		.sleb128 -32
 7221 0c3f 0D       		.uleb128 0xd
 7222 0c40 17020000 		.4byte	.LASF81
 7223 0c44 01       		.byte	0x1
 7224 0c45 AA03     		.2byte	0x3aa
 7225 0c47 8D000000 		.4byte	0x8d
 7226 0c4b 02       		.byte	0x2
 7227 0c4c 91       		.byte	0x91
 7228 0c4d 68       		.sleb128 -24
 7229 0c4e 0D       		.uleb128 0xd
 7230 0c4f 55060000 		.4byte	.LASF82
 7231 0c53 01       		.byte	0x1
 7232 0c54 AB03     		.2byte	0x3ab
 7233 0c56 8D000000 		.4byte	0x8d
 7234 0c5a 02       		.byte	0x2
 7235 0c5b 91       		.byte	0x91
ARM GAS  C:\Users\Brian\AppData\Local\Temp\ccPAhBxt.s 			page 154


 7236 0c5c 5C       		.sleb128 -36
 7237 0c5d 00       		.byte	0
 7238 0c5e 05       		.uleb128 0x5
 7239 0c5f 04       		.byte	0x4
 7240 0c60 BF000000 		.4byte	0xbf
 7241 0c64 13       		.uleb128 0x13
 7242 0c65 CA000000 		.4byte	0xca
 7243 0c69 750C0000 		.4byte	0xc75
 7244 0c6d 14       		.uleb128 0x14
 7245 0c6e D1000000 		.4byte	0xd1
 7246 0c72 FF03     		.2byte	0x3ff
 7247 0c74 00       		.byte	0
 7248 0c75 07       		.uleb128 0x7
 7249 0c76 01       		.byte	0x1
 7250 0c77 68010000 		.4byte	.LASF83
 7251 0c7b 01       		.byte	0x1
 7252 0c7c D203     		.2byte	0x3d2
 7253 0c7e 01       		.byte	0x1
 7254 0c7f 00000000 		.4byte	.LFB26
 7255 0c83 FC000000 		.4byte	.LFE26
 7256 0c87 A6050000 		.4byte	.LLST26
 7257 0c8b 01       		.byte	0x1
 7258 0c8c 9E0C0000 		.4byte	0xc9e
 7259 0c90 09       		.uleb128 0x9
 7260 0c91 6300     		.ascii	"c\000"
 7261 0c93 01       		.byte	0x1
 7262 0c94 D203     		.2byte	0x3d2
 7263 0c96 3B000000 		.4byte	0x3b
 7264 0c9a 02       		.byte	0x2
 7265 0c9b 91       		.byte	0x91
 7266 0c9c 6F       		.sleb128 -17
 7267 0c9d 00       		.byte	0
 7268 0c9e 07       		.uleb128 0x7
 7269 0c9f 01       		.byte	0x1
 7270 0ca0 5D020000 		.4byte	.LASF84
 7271 0ca4 01       		.byte	0x1
 7272 0ca5 F703     		.2byte	0x3f7
 7273 0ca7 01       		.byte	0x1
 7274 0ca8 00000000 		.4byte	.LFB27
 7275 0cac 38020000 		.4byte	.LFE27
 7276 0cb0 DE050000 		.4byte	.LLST27
 7277 0cb4 01       		.byte	0x1
 7278 0cb5 400D0000 		.4byte	0xd40
 7279 0cb9 09       		.uleb128 0x9
 7280 0cba 7800     		.ascii	"x\000"
 7281 0cbc 01       		.byte	0x1
 7282 0cbd F703     		.2byte	0x3f7
 7283 0cbf 4D000000 		.4byte	0x4d
 7284 0cc3 02       		.byte	0x2
 7285 0cc4 91       		.byte	0x91
 7286 0cc5 66       		.sleb128 -26
 7287 0cc6 09       		.uleb128 0x9
 7288 0cc7 7900     		.ascii	"y\000"
 7289 0cc9 01       		.byte	0x1
 7290 0cca F703     		.2byte	0x3f7
 7291 0ccc 4D000000 		.4byte	0x4d
 7292 0cd0 02       		.byte	0x2
ARM GAS  C:\Users\Brian\AppData\Local\Temp\ccPAhBxt.s 			page 155


 7293 0cd1 91       		.byte	0x91
 7294 0cd2 64       		.sleb128 -28
 7295 0cd3 09       		.uleb128 0x9
 7296 0cd4 6300     		.ascii	"c\000"
 7297 0cd6 01       		.byte	0x1
 7298 0cd7 F703     		.2byte	0x3f7
 7299 0cd9 46000000 		.4byte	0x46
 7300 0cdd 02       		.byte	0x2
 7301 0cde 91       		.byte	0x91
 7302 0cdf 63       		.sleb128 -29
 7303 0ce0 08       		.uleb128 0x8
 7304 0ce1 43050000 		.4byte	.LASF30
 7305 0ce5 01       		.byte	0x1
 7306 0ce6 F803     		.2byte	0x3f8
 7307 0ce8 5F000000 		.4byte	0x5f
 7308 0cec 02       		.byte	0x2
 7309 0ced 91       		.byte	0x91
 7310 0cee 60       		.sleb128 -32
 7311 0cef 09       		.uleb128 0x9
 7312 0cf0 626700   		.ascii	"bg\000"
 7313 0cf3 01       		.byte	0x1
 7314 0cf4 F803     		.2byte	0x3f8
 7315 0cf6 5F000000 		.4byte	0x5f
 7316 0cfa 02       		.byte	0x2
 7317 0cfb 91       		.byte	0x91
 7318 0cfc 00       		.sleb128 0
 7319 0cfd 08       		.uleb128 0x8
 7320 0cfe F0030000 		.4byte	.LASF85
 7321 0d02 01       		.byte	0x1
 7322 0d03 F803     		.2byte	0x3f8
 7323 0d05 3B000000 		.4byte	0x3b
 7324 0d09 02       		.byte	0x2
 7325 0d0a 91       		.byte	0x91
 7326 0d0b 04       		.sleb128 4
 7327 0d0c 0A       		.uleb128 0xa
 7328 0d0d 6900     		.ascii	"i\000"
 7329 0d0f 01       		.byte	0x1
 7330 0d10 FF03     		.2byte	0x3ff
 7331 0d12 29000000 		.4byte	0x29
 7332 0d16 02       		.byte	0x2
 7333 0d17 91       		.byte	0x91
 7334 0d18 6F       		.sleb128 -17
 7335 0d19 0A       		.uleb128 0xa
 7336 0d1a 6A00     		.ascii	"j\000"
 7337 0d1c 01       		.byte	0x1
 7338 0d1d FF03     		.2byte	0x3ff
 7339 0d1f 29000000 		.4byte	0x29
 7340 0d23 02       		.byte	0x2
 7341 0d24 91       		.byte	0x91
 7342 0d25 6E       		.sleb128 -18
 7343 0d26 0E       		.uleb128 0xe
 7344 0d27 76000000 		.4byte	.LBB8
 7345 0d2b 1A020000 		.4byte	.LBE8
 7346 0d2f 0D       		.uleb128 0xd
 7347 0d30 61060000 		.4byte	.LASF86
 7348 0d34 01       		.byte	0x1
 7349 0d35 0104     		.2byte	0x401
ARM GAS  C:\Users\Brian\AppData\Local\Temp\ccPAhBxt.s 			page 156


 7350 0d37 3B000000 		.4byte	0x3b
 7351 0d3b 02       		.byte	0x2
 7352 0d3c 91       		.byte	0x91
 7353 0d3d 6D       		.sleb128 -19
 7354 0d3e 00       		.byte	0
 7355 0d3f 00       		.byte	0
 7356 0d40 15       		.uleb128 0x15
 7357 0d41 01       		.byte	0x1
 7358 0d42 01020000 		.4byte	.LASF87
 7359 0d46 01       		.byte	0x1
 7360 0d47 2004     		.2byte	0x420
 7361 0d49 01       		.byte	0x1
 7362 0d4a 00000000 		.4byte	.LFB28
 7363 0d4e 30000000 		.4byte	.LFE28
 7364 0d52 16060000 		.4byte	.LLST28
 7365 0d56 01       		.byte	0x1
 7366 0d57 760D0000 		.4byte	0xd76
 7367 0d5b 09       		.uleb128 0x9
 7368 0d5c 7800     		.ascii	"x\000"
 7369 0d5e 01       		.byte	0x1
 7370 0d5f 2004     		.2byte	0x420
 7371 0d61 4D000000 		.4byte	0x4d
 7372 0d65 02       		.byte	0x2
 7373 0d66 91       		.byte	0x91
 7374 0d67 76       		.sleb128 -10
 7375 0d68 09       		.uleb128 0x9
 7376 0d69 7900     		.ascii	"y\000"
 7377 0d6b 01       		.byte	0x1
 7378 0d6c 2004     		.2byte	0x420
 7379 0d6e 4D000000 		.4byte	0x4d
 7380 0d72 02       		.byte	0x2
 7381 0d73 91       		.byte	0x91
 7382 0d74 74       		.sleb128 -12
 7383 0d75 00       		.byte	0
 7384 0d76 15       		.uleb128 0x15
 7385 0d77 01       		.byte	0x1
 7386 0d78 F8060000 		.4byte	.LASF88
 7387 0d7c 01       		.byte	0x1
 7388 0d7d 2B04     		.2byte	0x42b
 7389 0d7f 01       		.byte	0x1
 7390 0d80 00000000 		.4byte	.LFB29
 7391 0d84 2C000000 		.4byte	.LFE29
 7392 0d88 4E060000 		.4byte	.LLST29
 7393 0d8c 01       		.byte	0x1
 7394 0d8d 9F0D0000 		.4byte	0xd9f
 7395 0d91 09       		.uleb128 0x9
 7396 0d92 7300     		.ascii	"s\000"
 7397 0d94 01       		.byte	0x1
 7398 0d95 2B04     		.2byte	0x42b
 7399 0d97 3B000000 		.4byte	0x3b
 7400 0d9b 02       		.byte	0x2
 7401 0d9c 91       		.byte	0x91
 7402 0d9d 77       		.sleb128 -9
 7403 0d9e 00       		.byte	0
 7404 0d9f 15       		.uleb128 0x15
 7405 0da0 01       		.byte	0x1
 7406 0da1 31000000 		.4byte	.LASF89
ARM GAS  C:\Users\Brian\AppData\Local\Temp\ccPAhBxt.s 			page 157


 7407 0da5 01       		.byte	0x1
 7408 0da6 3504     		.2byte	0x435
 7409 0da8 01       		.byte	0x1
 7410 0da9 00000000 		.4byte	.LFB30
 7411 0dad 34000000 		.4byte	.LFE30
 7412 0db1 86060000 		.4byte	.LLST30
 7413 0db5 01       		.byte	0x1
 7414 0db6 C80D0000 		.4byte	0xdc8
 7415 0dba 09       		.uleb128 0x9
 7416 0dbb 6300     		.ascii	"c\000"
 7417 0dbd 01       		.byte	0x1
 7418 0dbe 3504     		.2byte	0x435
 7419 0dc0 5F000000 		.4byte	0x5f
 7420 0dc4 02       		.byte	0x2
 7421 0dc5 91       		.byte	0x91
 7422 0dc6 76       		.sleb128 -10
 7423 0dc7 00       		.byte	0
 7424 0dc8 15       		.uleb128 0x15
 7425 0dc9 01       		.byte	0x1
 7426 0dca 8F000000 		.4byte	.LASF90
 7427 0dce 01       		.byte	0x1
 7428 0dcf 4204     		.2byte	0x442
 7429 0dd1 01       		.byte	0x1
 7430 0dd2 00000000 		.4byte	.LFB31
 7431 0dd6 20000000 		.4byte	.LFE31
 7432 0dda BE060000 		.4byte	.LLST31
 7433 0dde 01       		.byte	0x1
 7434 0ddf F10D0000 		.4byte	0xdf1
 7435 0de3 09       		.uleb128 0x9
 7436 0de4 7700     		.ascii	"w\000"
 7437 0de6 01       		.byte	0x1
 7438 0de7 4204     		.2byte	0x442
 7439 0de9 3B000000 		.4byte	0x3b
 7440 0ded 02       		.byte	0x2
 7441 0dee 91       		.byte	0x91
 7442 0def 77       		.sleb128 -9
 7443 0df0 00       		.byte	0
 7444 0df1 16       		.uleb128 0x16
 7445 0df2 01       		.byte	0x1
 7446 0df3 A2050000 		.4byte	.LASF100
 7447 0df7 01       		.byte	0x1
 7448 0df8 5004     		.2byte	0x450
 7449 0dfa 01       		.byte	0x1
 7450 0dfb 5F000000 		.4byte	0x5f
 7451 0dff 00000000 		.4byte	.LFB32
 7452 0e03 48000000 		.4byte	.LFE32
 7453 0e07 F6060000 		.4byte	.LLST32
 7454 0e0b 01       		.byte	0x1
 7455 0e0c 380E0000 		.4byte	0xe38
 7456 0e10 09       		.uleb128 0x9
 7457 0e11 7200     		.ascii	"r\000"
 7458 0e13 01       		.byte	0x1
 7459 0e14 5004     		.2byte	0x450
 7460 0e16 3B000000 		.4byte	0x3b
 7461 0e1a 02       		.byte	0x2
 7462 0e1b 91       		.byte	0x91
 7463 0e1c 77       		.sleb128 -9
ARM GAS  C:\Users\Brian\AppData\Local\Temp\ccPAhBxt.s 			page 158


 7464 0e1d 09       		.uleb128 0x9
 7465 0e1e 6700     		.ascii	"g\000"
 7466 0e20 01       		.byte	0x1
 7467 0e21 5004     		.2byte	0x450
 7468 0e23 3B000000 		.4byte	0x3b
 7469 0e27 02       		.byte	0x2
 7470 0e28 91       		.byte	0x91
 7471 0e29 76       		.sleb128 -10
 7472 0e2a 09       		.uleb128 0x9
 7473 0e2b 6200     		.ascii	"b\000"
 7474 0e2d 01       		.byte	0x1
 7475 0e2e 5004     		.2byte	0x450
 7476 0e30 3B000000 		.4byte	0x3b
 7477 0e34 02       		.byte	0x2
 7478 0e35 91       		.byte	0x91
 7479 0e36 75       		.sleb128 -11
 7480 0e37 00       		.byte	0
 7481 0e38 07       		.uleb128 0x7
 7482 0e39 01       		.byte	0x1
 7483 0e3a 2A020000 		.4byte	.LASF91
 7484 0e3e 01       		.byte	0x1
 7485 0e3f 5E04     		.2byte	0x45e
 7486 0e41 01       		.byte	0x1
 7487 0e42 00000000 		.4byte	.LFB33
 7488 0e46 E8000000 		.4byte	.LFE33
 7489 0e4a 2E070000 		.4byte	.LLST33
 7490 0e4e 01       		.byte	0x1
 7491 0e4f 610E0000 		.4byte	0xe61
 7492 0e53 09       		.uleb128 0x9
 7493 0e54 7200     		.ascii	"r\000"
 7494 0e56 01       		.byte	0x1
 7495 0e57 5E04     		.2byte	0x45e
 7496 0e59 3B000000 		.4byte	0x3b
 7497 0e5d 02       		.byte	0x2
 7498 0e5e 91       		.byte	0x91
 7499 0e5f 77       		.sleb128 -9
 7500 0e60 00       		.byte	0
 7501 0e61 07       		.uleb128 0x7
 7502 0e62 01       		.byte	0x1
 7503 0e63 C2060000 		.4byte	.LASF92
 7504 0e67 01       		.byte	0x1
 7505 0e68 8404     		.2byte	0x484
 7506 0e6a 01       		.byte	0x1
 7507 0e6b 00000000 		.4byte	.LFB34
 7508 0e6f 26000000 		.4byte	.LFE34
 7509 0e73 66070000 		.4byte	.LLST34
 7510 0e77 01       		.byte	0x1
 7511 0e78 B00E0000 		.4byte	0xeb0
 7512 0e7c 0D       		.uleb128 0xd
 7513 0e7d 3E050000 		.4byte	.LASF78
 7514 0e81 01       		.byte	0x1
 7515 0e82 8604     		.2byte	0x486
 7516 0e84 9B000000 		.4byte	0x9b
 7517 0e88 02       		.byte	0x2
 7518 0e89 91       		.byte	0x91
 7519 0e8a 77       		.sleb128 -9
 7520 0e8b 10       		.uleb128 0x10
ARM GAS  C:\Users\Brian\AppData\Local\Temp\ccPAhBxt.s 			page 159


 7521 0e8c 01       		.byte	0x1
 7522 0e8d 2E080000 		.4byte	.LASF93
 7523 0e91 01       		.byte	0x1
 7524 0e92 8604     		.2byte	0x486
 7525 0e94 8D000000 		.4byte	0x8d
 7526 0e98 01       		.byte	0x1
 7527 0e99 9F0E0000 		.4byte	0xe9f
 7528 0e9d 0C       		.uleb128 0xc
 7529 0e9e 00       		.byte	0
 7530 0e9f 0B       		.uleb128 0xb
 7531 0ea0 01       		.byte	0x1
 7532 0ea1 1E050000 		.4byte	.LASF94
 7533 0ea5 01       		.byte	0x1
 7534 0ea6 8804     		.2byte	0x488
 7535 0ea8 8D000000 		.4byte	0x8d
 7536 0eac 01       		.byte	0x1
 7537 0ead 0C       		.uleb128 0xc
 7538 0eae 00       		.byte	0
 7539 0eaf 00       		.byte	0
 7540 0eb0 07       		.uleb128 0x7
 7541 0eb1 01       		.byte	0x1
 7542 0eb2 A2010000 		.4byte	.LASF95
 7543 0eb6 01       		.byte	0x1
 7544 0eb7 8F04     		.2byte	0x48f
 7545 0eb9 01       		.byte	0x1
 7546 0eba 00000000 		.4byte	.LFB35
 7547 0ebe 26000000 		.4byte	.LFE35
 7548 0ec2 9E070000 		.4byte	.LLST35
 7549 0ec6 01       		.byte	0x1
 7550 0ec7 FF0E0000 		.4byte	0xeff
 7551 0ecb 0D       		.uleb128 0xd
 7552 0ecc 3E050000 		.4byte	.LASF78
 7553 0ed0 01       		.byte	0x1
 7554 0ed1 9104     		.2byte	0x491
 7555 0ed3 9B000000 		.4byte	0x9b
 7556 0ed7 02       		.byte	0x2
 7557 0ed8 91       		.byte	0x91
 7558 0ed9 77       		.sleb128 -9
 7559 0eda 10       		.uleb128 0x10
 7560 0edb 01       		.byte	0x1
 7561 0edc 2E080000 		.4byte	.LASF93
 7562 0ee0 01       		.byte	0x1
 7563 0ee1 8604     		.2byte	0x486
 7564 0ee3 8D000000 		.4byte	0x8d
 7565 0ee7 01       		.byte	0x1
 7566 0ee8 EE0E0000 		.4byte	0xeee
 7567 0eec 0C       		.uleb128 0xc
 7568 0eed 00       		.byte	0
 7569 0eee 0B       		.uleb128 0xb
 7570 0eef 01       		.byte	0x1
 7571 0ef0 1E050000 		.4byte	.LASF94
 7572 0ef4 01       		.byte	0x1
 7573 0ef5 8804     		.2byte	0x488
 7574 0ef7 8D000000 		.4byte	0x8d
 7575 0efb 01       		.byte	0x1
 7576 0efc 0C       		.uleb128 0xc
 7577 0efd 00       		.byte	0
ARM GAS  C:\Users\Brian\AppData\Local\Temp\ccPAhBxt.s 			page 160


 7578 0efe 00       		.byte	0
 7579 0eff 07       		.uleb128 0x7
 7580 0f00 01       		.byte	0x1
 7581 0f01 44080000 		.4byte	.LASF96
 7582 0f05 01       		.byte	0x1
 7583 0f06 9A04     		.2byte	0x49a
 7584 0f08 01       		.byte	0x1
 7585 0f09 00000000 		.4byte	.LFB36
 7586 0f0d 26000000 		.4byte	.LFE36
 7587 0f11 D6070000 		.4byte	.LLST36
 7588 0f15 01       		.byte	0x1
 7589 0f16 4E0F0000 		.4byte	0xf4e
 7590 0f1a 0D       		.uleb128 0xd
 7591 0f1b 3E050000 		.4byte	.LASF78
 7592 0f1f 01       		.byte	0x1
 7593 0f20 9C04     		.2byte	0x49c
 7594 0f22 9B000000 		.4byte	0x9b
 7595 0f26 02       		.byte	0x2
 7596 0f27 91       		.byte	0x91
 7597 0f28 77       		.sleb128 -9
 7598 0f29 10       		.uleb128 0x10
 7599 0f2a 01       		.byte	0x1
 7600 0f2b 2E080000 		.4byte	.LASF93
 7601 0f2f 01       		.byte	0x1
 7602 0f30 8604     		.2byte	0x486
 7603 0f32 8D000000 		.4byte	0x8d
 7604 0f36 01       		.byte	0x1
 7605 0f37 3D0F0000 		.4byte	0xf3d
 7606 0f3b 0C       		.uleb128 0xc
 7607 0f3c 00       		.byte	0
 7608 0f3d 0B       		.uleb128 0xb
 7609 0f3e 01       		.byte	0x1
 7610 0f3f 1E050000 		.4byte	.LASF94
 7611 0f43 01       		.byte	0x1
 7612 0f44 8804     		.2byte	0x488
 7613 0f46 8D000000 		.4byte	0x8d
 7614 0f4a 01       		.byte	0x1
 7615 0f4b 0C       		.uleb128 0xc
 7616 0f4c 00       		.byte	0
 7617 0f4d 00       		.byte	0
 7618 0f4e 07       		.uleb128 0x7
 7619 0f4f 01       		.byte	0x1
 7620 0f50 C6000000 		.4byte	.LASF97
 7621 0f54 01       		.byte	0x1
 7622 0f55 A504     		.2byte	0x4a5
 7623 0f57 01       		.byte	0x1
 7624 0f58 00000000 		.4byte	.LFB37
 7625 0f5c 26000000 		.4byte	.LFE37
 7626 0f60 0E080000 		.4byte	.LLST37
 7627 0f64 01       		.byte	0x1
 7628 0f65 9D0F0000 		.4byte	0xf9d
 7629 0f69 0D       		.uleb128 0xd
 7630 0f6a 3E050000 		.4byte	.LASF78
 7631 0f6e 01       		.byte	0x1
 7632 0f6f A704     		.2byte	0x4a7
 7633 0f71 9B000000 		.4byte	0x9b
 7634 0f75 02       		.byte	0x2
ARM GAS  C:\Users\Brian\AppData\Local\Temp\ccPAhBxt.s 			page 161


 7635 0f76 91       		.byte	0x91
 7636 0f77 77       		.sleb128 -9
 7637 0f78 10       		.uleb128 0x10
 7638 0f79 01       		.byte	0x1
 7639 0f7a 2E080000 		.4byte	.LASF93
 7640 0f7e 01       		.byte	0x1
 7641 0f7f 8604     		.2byte	0x486
 7642 0f81 8D000000 		.4byte	0x8d
 7643 0f85 01       		.byte	0x1
 7644 0f86 8C0F0000 		.4byte	0xf8c
 7645 0f8a 0C       		.uleb128 0xc
 7646 0f8b 00       		.byte	0
 7647 0f8c 0B       		.uleb128 0xb
 7648 0f8d 01       		.byte	0x1
 7649 0f8e 1E050000 		.4byte	.LASF94
 7650 0f92 01       		.byte	0x1
 7651 0f93 8804     		.2byte	0x488
 7652 0f95 8D000000 		.4byte	0x8d
 7653 0f99 01       		.byte	0x1
 7654 0f9a 0C       		.uleb128 0xc
 7655 0f9b 00       		.byte	0
 7656 0f9c 00       		.byte	0
 7657 0f9d 07       		.uleb128 0x7
 7658 0f9e 01       		.byte	0x1
 7659 0f9f 92060000 		.4byte	.LASF98
 7660 0fa3 01       		.byte	0x1
 7661 0fa4 B204     		.2byte	0x4b2
 7662 0fa6 01       		.byte	0x1
 7663 0fa7 00000000 		.4byte	.LFB38
 7664 0fab 26000000 		.4byte	.LFE38
 7665 0faf 46080000 		.4byte	.LLST38
 7666 0fb3 01       		.byte	0x1
 7667 0fb4 EC0F0000 		.4byte	0xfec
 7668 0fb8 0D       		.uleb128 0xd
 7669 0fb9 3E050000 		.4byte	.LASF78
 7670 0fbd 01       		.byte	0x1
 7671 0fbe B404     		.2byte	0x4b4
 7672 0fc0 9B000000 		.4byte	0x9b
 7673 0fc4 02       		.byte	0x2
 7674 0fc5 91       		.byte	0x91
 7675 0fc6 77       		.sleb128 -9
 7676 0fc7 10       		.uleb128 0x10
 7677 0fc8 01       		.byte	0x1
 7678 0fc9 2E080000 		.4byte	.LASF93
 7679 0fcd 01       		.byte	0x1
 7680 0fce 8604     		.2byte	0x486
 7681 0fd0 8D000000 		.4byte	0x8d
 7682 0fd4 01       		.byte	0x1
 7683 0fd5 DB0F0000 		.4byte	0xfdb
 7684 0fd9 0C       		.uleb128 0xc
 7685 0fda 00       		.byte	0
 7686 0fdb 0B       		.uleb128 0xb
 7687 0fdc 01       		.byte	0x1
 7688 0fdd 1E050000 		.4byte	.LASF94
 7689 0fe1 01       		.byte	0x1
 7690 0fe2 8804     		.2byte	0x488
 7691 0fe4 8D000000 		.4byte	0x8d
ARM GAS  C:\Users\Brian\AppData\Local\Temp\ccPAhBxt.s 			page 162


 7692 0fe8 01       		.byte	0x1
 7693 0fe9 0C       		.uleb128 0xc
 7694 0fea 00       		.byte	0
 7695 0feb 00       		.byte	0
 7696 0fec 07       		.uleb128 0x7
 7697 0fed 01       		.byte	0x1
 7698 0fee BF030000 		.4byte	.LASF99
 7699 0ff2 01       		.byte	0x1
 7700 0ff3 BD04     		.2byte	0x4bd
 7701 0ff5 01       		.byte	0x1
 7702 0ff6 00000000 		.4byte	.LFB39
 7703 0ffa 26000000 		.4byte	.LFE39
 7704 0ffe 7E080000 		.4byte	.LLST39
 7705 1002 01       		.byte	0x1
 7706 1003 3B100000 		.4byte	0x103b
 7707 1007 0D       		.uleb128 0xd
 7708 1008 3E050000 		.4byte	.LASF78
 7709 100c 01       		.byte	0x1
 7710 100d BF04     		.2byte	0x4bf
 7711 100f 9B000000 		.4byte	0x9b
 7712 1013 02       		.byte	0x2
 7713 1014 91       		.byte	0x91
 7714 1015 77       		.sleb128 -9
 7715 1016 10       		.uleb128 0x10
 7716 1017 01       		.byte	0x1
 7717 1018 2E080000 		.4byte	.LASF93
 7718 101c 01       		.byte	0x1
 7719 101d 8604     		.2byte	0x486
 7720 101f 8D000000 		.4byte	0x8d
 7721 1023 01       		.byte	0x1
 7722 1024 2A100000 		.4byte	0x102a
 7723 1028 0C       		.uleb128 0xc
 7724 1029 00       		.byte	0
 7725 102a 0B       		.uleb128 0xb
 7726 102b 01       		.byte	0x1
 7727 102c 1E050000 		.4byte	.LASF94
 7728 1030 01       		.byte	0x1
 7729 1031 8804     		.2byte	0x488
 7730 1033 8D000000 		.4byte	0x8d
 7731 1037 01       		.byte	0x1
 7732 1038 0C       		.uleb128 0xc
 7733 1039 00       		.byte	0
 7734 103a 00       		.byte	0
 7735 103b 17       		.uleb128 0x17
 7736 103c 01       		.byte	0x1
 7737 103d 45070000 		.4byte	.LASF101
 7738 1041 01       		.byte	0x1
 7739 1042 C904     		.2byte	0x4c9
 7740 1044 01       		.byte	0x1
 7741 1045 8B100000 		.4byte	0x108b
 7742 1049 00000000 		.4byte	.LFB40
 7743 104d 0A010000 		.4byte	.LFE40
 7744 1051 B6080000 		.4byte	.LLST40
 7745 1055 01       		.byte	0x1
 7746 1056 8B100000 		.4byte	0x108b
 7747 105a 10       		.uleb128 0x10
 7748 105b 01       		.byte	0x1
ARM GAS  C:\Users\Brian\AppData\Local\Temp\ccPAhBxt.s 			page 163


 7749 105c 7A010000 		.4byte	.LASF102
 7750 1060 01       		.byte	0x1
 7751 1061 CB04     		.2byte	0x4cb
 7752 1063 8D000000 		.4byte	0x8d
 7753 1067 01       		.byte	0x1
 7754 1068 6E100000 		.4byte	0x106e
 7755 106c 0C       		.uleb128 0xc
 7756 106d 00       		.byte	0
 7757 106e 0A       		.uleb128 0xa
 7758 106f 6900     		.ascii	"i\000"
 7759 1071 01       		.byte	0x1
 7760 1072 D604     		.2byte	0x4d6
 7761 1074 3B000000 		.4byte	0x3b
 7762 1078 02       		.byte	0x2
 7763 1079 91       		.byte	0x91
 7764 107a 77       		.sleb128 -9
 7765 107b 0A       		.uleb128 0xa
 7766 107c 76616C00 		.ascii	"val\000"
 7767 1080 01       		.byte	0x1
 7768 1081 D704     		.2byte	0x4d7
 7769 1083 3B000000 		.4byte	0x3b
 7770 1087 02       		.byte	0x2
 7771 1088 91       		.byte	0x91
 7772 1089 76       		.sleb128 -10
 7773 108a 00       		.byte	0
 7774 108b 03       		.uleb128 0x3
 7775 108c 01       		.byte	0x1
 7776 108d 02       		.byte	0x2
 7777 108e 72020000 		.4byte	.LASF103
 7778 1092 07       		.uleb128 0x7
 7779 1093 01       		.byte	0x1
 7780 1094 65040000 		.4byte	.LASF104
 7781 1098 01       		.byte	0x1
 7782 1099 FF04     		.2byte	0x4ff
 7783 109b 01       		.byte	0x1
 7784 109c 00000000 		.4byte	.LFB41
 7785 10a0 4A000000 		.4byte	.LFE41
 7786 10a4 EE080000 		.4byte	.LLST41
 7787 10a8 01       		.byte	0x1
 7788 10a9 CC100000 		.4byte	0x10cc
 7789 10ad 09       		.uleb128 0x9
 7790 10ae 72656700 		.ascii	"reg\000"
 7791 10b2 01       		.byte	0x1
 7792 10b3 FF04     		.2byte	0x4ff
 7793 10b5 5F000000 		.4byte	0x5f
 7794 10b9 02       		.byte	0x2
 7795 10ba 91       		.byte	0x91
 7796 10bb 76       		.sleb128 -10
 7797 10bc 09       		.uleb128 0x9
 7798 10bd 76616C00 		.ascii	"val\000"
 7799 10c1 01       		.byte	0x1
 7800 10c2 FF04     		.2byte	0x4ff
 7801 10c4 5F000000 		.4byte	0x5f
 7802 10c8 02       		.byte	0x2
 7803 10c9 91       		.byte	0x91
 7804 10ca 74       		.sleb128 -12
 7805 10cb 00       		.byte	0
ARM GAS  C:\Users\Brian\AppData\Local\Temp\ccPAhBxt.s 			page 164


 7806 10cc 17       		.uleb128 0x17
 7807 10cd 01       		.byte	0x1
 7808 10ce 05000000 		.4byte	.LASF105
 7809 10d2 01       		.byte	0x1
 7810 10d3 1205     		.2byte	0x512
 7811 10d5 01       		.byte	0x1
 7812 10d6 5F000000 		.4byte	0x5f
 7813 10da 00000000 		.4byte	.LFB42
 7814 10de 6C000000 		.4byte	.LFE42
 7815 10e2 26090000 		.4byte	.LLST42
 7816 10e6 01       		.byte	0x1
 7817 10e7 42110000 		.4byte	0x1142
 7818 10eb 09       		.uleb128 0x9
 7819 10ec 72656700 		.ascii	"reg\000"
 7820 10f0 01       		.byte	0x1
 7821 10f1 1205     		.2byte	0x512
 7822 10f3 5F000000 		.4byte	0x5f
 7823 10f7 02       		.byte	0x2
 7824 10f8 91       		.byte	0x91
 7825 10f9 6E       		.sleb128 -18
 7826 10fa 0D       		.uleb128 0xd
 7827 10fb 4A000000 		.4byte	.LASF106
 7828 10ff 01       		.byte	0x1
 7829 1100 1405     		.2byte	0x514
 7830 1102 5F000000 		.4byte	0x5f
 7831 1106 02       		.byte	0x2
 7832 1107 91       		.byte	0x91
 7833 1108 76       		.sleb128 -10
 7834 1109 10       		.uleb128 0x10
 7835 110a 01       		.byte	0x1
 7836 110b 97040000 		.4byte	.LASF55
 7837 110f 01       		.byte	0x1
 7838 1110 EF01     		.2byte	0x1ef
 7839 1112 8D000000 		.4byte	0x8d
 7840 1116 01       		.byte	0x1
 7841 1117 1D110000 		.4byte	0x111d
 7842 111b 0C       		.uleb128 0xc
 7843 111c 00       		.byte	0
 7844 111d 10       		.uleb128 0x10
 7845 111e 01       		.byte	0x1
 7846 111f 38010000 		.4byte	.LASF107
 7847 1123 01       		.byte	0x1
 7848 1124 1A05     		.2byte	0x51a
 7849 1126 8D000000 		.4byte	0x8d
 7850 112a 01       		.byte	0x1
 7851 112b 31110000 		.4byte	0x1131
 7852 112f 0C       		.uleb128 0xc
 7853 1130 00       		.byte	0
 7854 1131 0B       		.uleb128 0xb
 7855 1132 01       		.byte	0x1
 7856 1133 AD020000 		.4byte	.LASF108
 7857 1137 01       		.byte	0x1
 7858 1138 1D05     		.2byte	0x51d
 7859 113a 8D000000 		.4byte	0x8d
 7860 113e 01       		.byte	0x1
 7861 113f 0C       		.uleb128 0xc
 7862 1140 00       		.byte	0
ARM GAS  C:\Users\Brian\AppData\Local\Temp\ccPAhBxt.s 			page 165


 7863 1141 00       		.byte	0
 7864 1142 17       		.uleb128 0x17
 7865 1143 01       		.byte	0x1
 7866 1144 DA000000 		.4byte	.LASF109
 7867 1148 01       		.byte	0x1
 7868 1149 3205     		.2byte	0x532
 7869 114b 01       		.byte	0x1
 7870 114c 3B000000 		.4byte	0x3b
 7871 1150 00000000 		.4byte	.LFB43
 7872 1154 84000000 		.4byte	.LFE43
 7873 1158 5E090000 		.4byte	.LLST43
 7874 115c 01       		.byte	0x1
 7875 115d B8110000 		.4byte	0x11b8
 7876 1161 09       		.uleb128 0x9
 7877 1162 72656700 		.ascii	"reg\000"
 7878 1166 01       		.byte	0x1
 7879 1167 3205     		.2byte	0x532
 7880 1169 3B000000 		.4byte	0x3b
 7881 116d 02       		.byte	0x2
 7882 116e 91       		.byte	0x91
 7883 116f 6F       		.sleb128 -17
 7884 1170 0D       		.uleb128 0xd
 7885 1171 4A000000 		.4byte	.LASF106
 7886 1175 01       		.byte	0x1
 7887 1176 3505     		.2byte	0x535
 7888 1178 3B000000 		.4byte	0x3b
 7889 117c 02       		.byte	0x2
 7890 117d 91       		.byte	0x91
 7891 117e 77       		.sleb128 -9
 7892 117f 10       		.uleb128 0x10
 7893 1180 01       		.byte	0x1
 7894 1181 97040000 		.4byte	.LASF55
 7895 1185 01       		.byte	0x1
 7896 1186 EF01     		.2byte	0x1ef
 7897 1188 8D000000 		.4byte	0x8d
 7898 118c 01       		.byte	0x1
 7899 118d 93110000 		.4byte	0x1193
 7900 1191 0C       		.uleb128 0xc
 7901 1192 00       		.byte	0
 7902 1193 10       		.uleb128 0x10
 7903 1194 01       		.byte	0x1
 7904 1195 38010000 		.4byte	.LASF107
 7905 1199 01       		.byte	0x1
 7906 119a 1A05     		.2byte	0x51a
 7907 119c 8D000000 		.4byte	0x8d
 7908 11a0 01       		.byte	0x1
 7909 11a1 A7110000 		.4byte	0x11a7
 7910 11a5 0C       		.uleb128 0xc
 7911 11a6 00       		.byte	0
 7912 11a7 0B       		.uleb128 0xb
 7913 11a8 01       		.byte	0x1
 7914 11a9 AD020000 		.4byte	.LASF108
 7915 11ad 01       		.byte	0x1
 7916 11ae 1D05     		.2byte	0x51d
 7917 11b0 8D000000 		.4byte	0x8d
 7918 11b4 01       		.byte	0x1
 7919 11b5 0C       		.uleb128 0xc
ARM GAS  C:\Users\Brian\AppData\Local\Temp\ccPAhBxt.s 			page 166


 7920 11b6 00       		.byte	0
 7921 11b7 00       		.byte	0
 7922 11b8 07       		.uleb128 0x7
 7923 11b9 01       		.byte	0x1
 7924 11ba F9050000 		.4byte	.LASF110
 7925 11be 01       		.byte	0x1
 7926 11bf 5505     		.2byte	0x555
 7927 11c1 01       		.byte	0x1
 7928 11c2 00000000 		.4byte	.LFB44
 7929 11c6 B0000000 		.4byte	.LFE44
 7930 11ca 96090000 		.4byte	.LLST44
 7931 11ce 01       		.byte	0x1
 7932 11cf 17120000 		.4byte	0x1217
 7933 11d3 09       		.uleb128 0x9
 7934 11d4 7800     		.ascii	"x\000"
 7935 11d6 01       		.byte	0x1
 7936 11d7 5505     		.2byte	0x555
 7937 11d9 17120000 		.4byte	0x1217
 7938 11dd 02       		.byte	0x2
 7939 11de 91       		.byte	0x91
 7940 11df 64       		.sleb128 -28
 7941 11e0 09       		.uleb128 0x9
 7942 11e1 7900     		.ascii	"y\000"
 7943 11e3 01       		.byte	0x1
 7944 11e4 5505     		.2byte	0x555
 7945 11e6 17120000 		.4byte	0x1217
 7946 11ea 02       		.byte	0x2
 7947 11eb 91       		.byte	0x91
 7948 11ec 60       		.sleb128 -32
 7949 11ed 09       		.uleb128 0x9
 7950 11ee 7A00     		.ascii	"z\000"
 7951 11f0 01       		.byte	0x1
 7952 11f1 5505     		.2byte	0x555
 7953 11f3 1D120000 		.4byte	0x121d
 7954 11f7 02       		.byte	0x2
 7955 11f8 91       		.byte	0x91
 7956 11f9 5C       		.sleb128 -36
 7957 11fa 0D       		.uleb128 0xd
 7958 11fb 00030000 		.4byte	.LASF111
 7959 11ff 01       		.byte	0x1
 7960 1200 5705     		.2byte	0x557
 7961 1202 23120000 		.4byte	0x1223
 7962 1206 02       		.byte	0x2
 7963 1207 91       		.byte	0x91
 7964 1208 68       		.sleb128 -24
 7965 1209 0A       		.uleb128 0xa
 7966 120a 6900     		.ascii	"i\000"
 7967 120c 01       		.byte	0x1
 7968 120d 5805     		.2byte	0x558
 7969 120f 3B000000 		.4byte	0x3b
 7970 1213 02       		.byte	0x2
 7971 1214 91       		.byte	0x91
 7972 1215 6F       		.sleb128 -17
 7973 1216 00       		.byte	0
 7974 1217 05       		.uleb128 0x5
 7975 1218 04       		.byte	0x4
 7976 1219 5F000000 		.4byte	0x5f
ARM GAS  C:\Users\Brian\AppData\Local\Temp\ccPAhBxt.s 			page 167


 7977 121d 05       		.uleb128 0x5
 7978 121e 04       		.byte	0x4
 7979 121f 3B000000 		.4byte	0x3b
 7980 1223 13       		.uleb128 0x13
 7981 1224 3B000000 		.4byte	0x3b
 7982 1228 33120000 		.4byte	0x1233
 7983 122c 18       		.uleb128 0x18
 7984 122d D1000000 		.4byte	0xd1
 7985 1231 03       		.byte	0x3
 7986 1232 00       		.byte	0
 7987 1233 19       		.uleb128 0x19
 7988 1234 01       		.byte	0x1
 7989 1235 3E060000 		.4byte	.LASF112
 7990 1239 01       		.byte	0x1
 7991 123a 7305     		.2byte	0x573
 7992 123c 5F000000 		.4byte	0x5f
 7993 1240 00000000 		.4byte	.LFB45
 7994 1244 38000000 		.4byte	.LFE45
 7995 1248 CE090000 		.4byte	.LLST45
 7996 124c 01       		.byte	0x1
 7997 124d 5F120000 		.4byte	0x125f
 7998 1251 0A       		.uleb128 0xa
 7999 1252 7600     		.ascii	"v\000"
 8000 1254 01       		.byte	0x1
 8001 1255 7505     		.2byte	0x575
 8002 1257 5F000000 		.4byte	0x5f
 8003 125b 02       		.byte	0x2
 8004 125c 91       		.byte	0x91
 8005 125d 76       		.sleb128 -10
 8006 125e 00       		.byte	0
 8007 125f 1A       		.uleb128 0x1a
 8008 1260 01       		.byte	0x1
 8009 1261 D8040000 		.4byte	.LASF114
 8010 1265 01       		.byte	0x1
 8011 1266 7E05     		.2byte	0x57e
 8012 1268 01       		.byte	0x1
 8013 1269 00000000 		.4byte	.LFB46
 8014 126d 3A000000 		.4byte	.LFE46
 8015 1271 060A0000 		.4byte	.LLST46
 8016 1275 01       		.byte	0x1
 8017 1276 17       		.uleb128 0x17
 8018 1277 01       		.byte	0x1
 8019 1278 7E060000 		.4byte	.LASF115
 8020 127c 01       		.byte	0x1
 8021 127d 8B05     		.2byte	0x58b
 8022 127f 01       		.byte	0x1
 8023 1280 8B100000 		.4byte	0x108b
 8024 1284 00000000 		.4byte	.LFB47
 8025 1288 30000000 		.4byte	.LFE47
 8026 128c 320A0000 		.4byte	.LLST47
 8027 1290 01       		.byte	0x1
 8028 1291 B4120000 		.4byte	0x12b4
 8029 1295 0D       		.uleb128 0xd
 8030 1296 35030000 		.4byte	.LASF116
 8031 129a 01       		.byte	0x1
 8032 129b 8D05     		.2byte	0x58d
 8033 129d 3B000000 		.4byte	0x3b
ARM GAS  C:\Users\Brian\AppData\Local\Temp\ccPAhBxt.s 			page 168


 8034 12a1 02       		.byte	0x2
 8035 12a2 91       		.byte	0x91
 8036 12a3 77       		.sleb128 -9
 8037 12a4 0D       		.uleb128 0xd
 8038 12a5 23010000 		.4byte	.LASF117
 8039 12a9 01       		.byte	0x1
 8040 12aa 8E05     		.2byte	0x58e
 8041 12ac 3B000000 		.4byte	0x3b
 8042 12b0 02       		.byte	0x2
 8043 12b1 91       		.byte	0x91
 8044 12b2 76       		.sleb128 -10
 8045 12b3 00       		.byte	0
 8046 12b4 1B       		.uleb128 0x1b
 8047 12b5 01       		.byte	0x1
 8048 12b6 E9010000 		.4byte	.LASF118
 8049 12ba 01       		.byte	0x1
 8050 12bb 9805     		.2byte	0x598
 8051 12bd 01       		.byte	0x1
 8052 12be 8B100000 		.4byte	0x108b
 8053 12c2 00000000 		.4byte	.LFB48
 8054 12c6 20000000 		.4byte	.LFE48
 8055 12ca 6A0A0000 		.4byte	.LLST48
 8056 12ce 01       		.byte	0x1
 8057 12cf 1B       		.uleb128 0x1b
 8058 12d0 01       		.byte	0x1
 8059 12d1 10070000 		.4byte	.LASF119
 8060 12d5 01       		.byte	0x1
 8061 12d6 A305     		.2byte	0x5a3
 8062 12d8 01       		.byte	0x1
 8063 12d9 3B000000 		.4byte	0x3b
 8064 12dd 00000000 		.4byte	.LFB49
 8065 12e1 12000000 		.4byte	.LFE49
 8066 12e5 960A0000 		.4byte	.LLST49
 8067 12e9 01       		.byte	0x1
 8068 12ea 15       		.uleb128 0x15
 8069 12eb 01       		.byte	0x1
 8070 12ec 20000000 		.4byte	.LASF120
 8071 12f0 01       		.byte	0x1
 8072 12f1 AA05     		.2byte	0x5aa
 8073 12f3 01       		.byte	0x1
 8074 12f4 00000000 		.4byte	.LFB50
 8075 12f8 20000000 		.4byte	.LFE50
 8076 12fc C20A0000 		.4byte	.LLST50
 8077 1300 01       		.byte	0x1
 8078 1301 2D130000 		.4byte	0x132d
 8079 1305 09       		.uleb128 0x9
 8080 1306 6100     		.ascii	"a\000"
 8081 1308 01       		.byte	0x1
 8082 1309 AA05     		.2byte	0x5aa
 8083 130b 2D130000 		.4byte	0x132d
 8084 130f 02       		.byte	0x2
 8085 1310 91       		.byte	0x91
 8086 1311 6C       		.sleb128 -20
 8087 1312 09       		.uleb128 0x9
 8088 1313 6200     		.ascii	"b\000"
 8089 1315 01       		.byte	0x1
 8090 1316 AA05     		.2byte	0x5aa
ARM GAS  C:\Users\Brian\AppData\Local\Temp\ccPAhBxt.s 			page 169


 8091 1318 2D130000 		.4byte	0x132d
 8092 131c 02       		.byte	0x2
 8093 131d 91       		.byte	0x91
 8094 131e 68       		.sleb128 -24
 8095 131f 0A       		.uleb128 0xa
 8096 1320 6300     		.ascii	"c\000"
 8097 1322 01       		.byte	0x1
 8098 1323 AC05     		.2byte	0x5ac
 8099 1325 2D130000 		.4byte	0x132d
 8100 1329 02       		.byte	0x2
 8101 132a 91       		.byte	0x91
 8102 132b 74       		.sleb128 -12
 8103 132c 00       		.byte	0
 8104 132d 05       		.uleb128 0x5
 8105 132e 04       		.byte	0x4
 8106 132f 4D000000 		.4byte	0x4d
 8107 1333 1C       		.uleb128 0x1c
 8108 1334 93010000 		.4byte	.LASF121
 8109 1338 04       		.byte	0x4
 8110 1339 6D       		.byte	0x6d
 8111 133a 4D000000 		.4byte	0x4d
 8112 133e 01       		.byte	0x1
 8113 133f 05       		.byte	0x5
 8114 1340 03       		.byte	0x3
 8115 1341 00000000 		.4byte	cursor_x
 8116 1345 1C       		.uleb128 0x1c
 8117 1346 DB070000 		.4byte	.LASF122
 8118 134a 04       		.byte	0x4
 8119 134b 6E       		.byte	0x6e
 8120 134c 4D000000 		.4byte	0x4d
 8121 1350 01       		.byte	0x1
 8122 1351 05       		.byte	0x5
 8123 1352 03       		.byte	0x3
 8124 1353 00000000 		.4byte	cursor_y
 8125 1357 1C       		.uleb128 0x1c
 8126 1358 F1070000 		.4byte	.LASF123
 8127 135c 04       		.byte	0x4
 8128 135d 6F       		.byte	0x6f
 8129 135e 5F000000 		.4byte	0x5f
 8130 1362 01       		.byte	0x1
 8131 1363 05       		.byte	0x5
 8132 1364 03       		.byte	0x3
 8133 1365 00000000 		.4byte	textcolor
 8134 1369 1C       		.uleb128 0x1c
 8135 136a 22080000 		.4byte	.LASF124
 8136 136e 04       		.byte	0x4
 8137 136f 70       		.byte	0x70
 8138 1370 5F000000 		.4byte	0x5f
 8139 1374 01       		.byte	0x1
 8140 1375 05       		.byte	0x5
 8141 1376 03       		.byte	0x3
 8142 1377 00000000 		.4byte	textbgcolor
 8143 137b 1C       		.uleb128 0x1c
 8144 137c B6010000 		.4byte	.LASF125
 8145 1380 04       		.byte	0x4
 8146 1381 71       		.byte	0x71
 8147 1382 3B000000 		.4byte	0x3b
ARM GAS  C:\Users\Brian\AppData\Local\Temp\ccPAhBxt.s 			page 170


 8148 1386 01       		.byte	0x1
 8149 1387 05       		.byte	0x5
 8150 1388 03       		.byte	0x3
 8151 1389 00000000 		.4byte	textsize
 8152 138d 1C       		.uleb128 0x1c
 8153 138e 2F010000 		.4byte	.LASF126
 8154 1392 04       		.byte	0x4
 8155 1393 72       		.byte	0x72
 8156 1394 3B000000 		.4byte	0x3b
 8157 1398 01       		.byte	0x1
 8158 1399 05       		.byte	0x5
 8159 139a 03       		.byte	0x3
 8160 139b 00000000 		.4byte	rotation
 8161 139f 1C       		.uleb128 0x1c
 8162 13a0 0E060000 		.4byte	.LASF127
 8163 13a4 04       		.byte	0x4
 8164 13a5 73       		.byte	0x73
 8165 13a6 3B000000 		.4byte	0x3b
 8166 13aa 01       		.byte	0x1
 8167 13ab 05       		.byte	0x5
 8168 13ac 03       		.byte	0x3
 8169 13ad 00000000 		.4byte	wrap
 8170 13b1 1C       		.uleb128 0x1c
 8171 13b2 6C050000 		.4byte	.LASF128
 8172 13b6 04       		.byte	0x4
 8173 13b7 74       		.byte	0x74
 8174 13b8 8D000000 		.4byte	0x8d
 8175 13bc 01       		.byte	0x1
 8176 13bd 05       		.byte	0x5
 8177 13be 03       		.byte	0x3
 8178 13bf 00000000 		.4byte	_width
 8179 13c3 1C       		.uleb128 0x1c
 8180 13c4 DB030000 		.4byte	.LASF129
 8181 13c8 04       		.byte	0x4
 8182 13c9 75       		.byte	0x75
 8183 13ca 8D000000 		.4byte	0x8d
 8184 13ce 01       		.byte	0x1
 8185 13cf 05       		.byte	0x5
 8186 13d0 03       		.byte	0x3
 8187 13d1 00000000 		.4byte	_height
 8188 13d5 13       		.uleb128 0x13
 8189 13d6 CA000000 		.4byte	0xca
 8190 13da EB130000 		.4byte	0x13eb
 8191 13de 18       		.uleb128 0x18
 8192 13df D1000000 		.4byte	0xd1
 8193 13e3 7F       		.byte	0x7f
 8194 13e4 18       		.uleb128 0x18
 8195 13e5 D1000000 		.4byte	0xd1
 8196 13e9 05       		.byte	0x5
 8197 13ea 00       		.byte	0
 8198 13eb 1C       		.uleb128 0x1c
 8199 13ec 66050000 		.4byte	.LASF130
 8200 13f0 01       		.byte	0x1
 8201 13f1 20       		.byte	0x20
 8202 13f2 FD130000 		.4byte	0x13fd
 8203 13f6 01       		.byte	0x1
 8204 13f7 05       		.byte	0x5
ARM GAS  C:\Users\Brian\AppData\Local\Temp\ccPAhBxt.s 			page 171


 8205 13f8 03       		.byte	0x3
 8206 13f9 00000000 		.4byte	fontA
 8207 13fd 11       		.uleb128 0x11
 8208 13fe D5130000 		.4byte	0x13d5
 8209 1402 00       		.byte	0
 8210              		.section	.debug_abbrev,"",%progbits
 8211              	.Ldebug_abbrev0:
 8212 0000 01       		.uleb128 0x1
 8213 0001 11       		.uleb128 0x11
 8214 0002 01       		.byte	0x1
 8215 0003 25       		.uleb128 0x25
 8216 0004 0E       		.uleb128 0xe
 8217 0005 13       		.uleb128 0x13
 8218 0006 0B       		.uleb128 0xb
 8219 0007 03       		.uleb128 0x3
 8220 0008 0E       		.uleb128 0xe
 8221 0009 1B       		.uleb128 0x1b
 8222 000a 0E       		.uleb128 0xe
 8223 000b 55       		.uleb128 0x55
 8224 000c 06       		.uleb128 0x6
 8225 000d 11       		.uleb128 0x11
 8226 000e 01       		.uleb128 0x1
 8227 000f 52       		.uleb128 0x52
 8228 0010 01       		.uleb128 0x1
 8229 0011 10       		.uleb128 0x10
 8230 0012 06       		.uleb128 0x6
 8231 0013 00       		.byte	0
 8232 0014 00       		.byte	0
 8233 0015 02       		.uleb128 0x2
 8234 0016 16       		.uleb128 0x16
 8235 0017 00       		.byte	0
 8236 0018 03       		.uleb128 0x3
 8237 0019 0E       		.uleb128 0xe
 8238 001a 3A       		.uleb128 0x3a
 8239 001b 0B       		.uleb128 0xb
 8240 001c 3B       		.uleb128 0x3b
 8241 001d 0B       		.uleb128 0xb
 8242 001e 49       		.uleb128 0x49
 8243 001f 13       		.uleb128 0x13
 8244 0020 00       		.byte	0
 8245 0021 00       		.byte	0
 8246 0022 03       		.uleb128 0x3
 8247 0023 24       		.uleb128 0x24
 8248 0024 00       		.byte	0
 8249 0025 0B       		.uleb128 0xb
 8250 0026 0B       		.uleb128 0xb
 8251 0027 3E       		.uleb128 0x3e
 8252 0028 0B       		.uleb128 0xb
 8253 0029 03       		.uleb128 0x3
 8254 002a 0E       		.uleb128 0xe
 8255 002b 00       		.byte	0
 8256 002c 00       		.byte	0
 8257 002d 04       		.uleb128 0x4
 8258 002e 24       		.uleb128 0x24
 8259 002f 00       		.byte	0
 8260 0030 0B       		.uleb128 0xb
 8261 0031 0B       		.uleb128 0xb
ARM GAS  C:\Users\Brian\AppData\Local\Temp\ccPAhBxt.s 			page 172


 8262 0032 3E       		.uleb128 0x3e
 8263 0033 0B       		.uleb128 0xb
 8264 0034 03       		.uleb128 0x3
 8265 0035 08       		.uleb128 0x8
 8266 0036 00       		.byte	0
 8267 0037 00       		.byte	0
 8268 0038 05       		.uleb128 0x5
 8269 0039 0F       		.uleb128 0xf
 8270 003a 00       		.byte	0
 8271 003b 0B       		.uleb128 0xb
 8272 003c 0B       		.uleb128 0xb
 8273 003d 49       		.uleb128 0x49
 8274 003e 13       		.uleb128 0x13
 8275 003f 00       		.byte	0
 8276 0040 00       		.byte	0
 8277 0041 06       		.uleb128 0x6
 8278 0042 2E       		.uleb128 0x2e
 8279 0043 00       		.byte	0
 8280 0044 3F       		.uleb128 0x3f
 8281 0045 0C       		.uleb128 0xc
 8282 0046 03       		.uleb128 0x3
 8283 0047 0E       		.uleb128 0xe
 8284 0048 3A       		.uleb128 0x3a
 8285 0049 0B       		.uleb128 0xb
 8286 004a 3B       		.uleb128 0x3b
 8287 004b 0B       		.uleb128 0xb
 8288 004c 27       		.uleb128 0x27
 8289 004d 0C       		.uleb128 0xc
 8290 004e 11       		.uleb128 0x11
 8291 004f 01       		.uleb128 0x1
 8292 0050 12       		.uleb128 0x12
 8293 0051 01       		.uleb128 0x1
 8294 0052 40       		.uleb128 0x40
 8295 0053 06       		.uleb128 0x6
 8296 0054 9642     		.uleb128 0x2116
 8297 0056 0C       		.uleb128 0xc
 8298 0057 00       		.byte	0
 8299 0058 00       		.byte	0
 8300 0059 07       		.uleb128 0x7
 8301 005a 2E       		.uleb128 0x2e
 8302 005b 01       		.byte	0x1
 8303 005c 3F       		.uleb128 0x3f
 8304 005d 0C       		.uleb128 0xc
 8305 005e 03       		.uleb128 0x3
 8306 005f 0E       		.uleb128 0xe
 8307 0060 3A       		.uleb128 0x3a
 8308 0061 0B       		.uleb128 0xb
 8309 0062 3B       		.uleb128 0x3b
 8310 0063 05       		.uleb128 0x5
 8311 0064 27       		.uleb128 0x27
 8312 0065 0C       		.uleb128 0xc
 8313 0066 11       		.uleb128 0x11
 8314 0067 01       		.uleb128 0x1
 8315 0068 12       		.uleb128 0x12
 8316 0069 01       		.uleb128 0x1
 8317 006a 40       		.uleb128 0x40
 8318 006b 06       		.uleb128 0x6
ARM GAS  C:\Users\Brian\AppData\Local\Temp\ccPAhBxt.s 			page 173


 8319 006c 9642     		.uleb128 0x2116
 8320 006e 0C       		.uleb128 0xc
 8321 006f 01       		.uleb128 0x1
 8322 0070 13       		.uleb128 0x13
 8323 0071 00       		.byte	0
 8324 0072 00       		.byte	0
 8325 0073 08       		.uleb128 0x8
 8326 0074 05       		.uleb128 0x5
 8327 0075 00       		.byte	0
 8328 0076 03       		.uleb128 0x3
 8329 0077 0E       		.uleb128 0xe
 8330 0078 3A       		.uleb128 0x3a
 8331 0079 0B       		.uleb128 0xb
 8332 007a 3B       		.uleb128 0x3b
 8333 007b 05       		.uleb128 0x5
 8334 007c 49       		.uleb128 0x49
 8335 007d 13       		.uleb128 0x13
 8336 007e 02       		.uleb128 0x2
 8337 007f 0A       		.uleb128 0xa
 8338 0080 00       		.byte	0
 8339 0081 00       		.byte	0
 8340 0082 09       		.uleb128 0x9
 8341 0083 05       		.uleb128 0x5
 8342 0084 00       		.byte	0
 8343 0085 03       		.uleb128 0x3
 8344 0086 08       		.uleb128 0x8
 8345 0087 3A       		.uleb128 0x3a
 8346 0088 0B       		.uleb128 0xb
 8347 0089 3B       		.uleb128 0x3b
 8348 008a 05       		.uleb128 0x5
 8349 008b 49       		.uleb128 0x49
 8350 008c 13       		.uleb128 0x13
 8351 008d 02       		.uleb128 0x2
 8352 008e 0A       		.uleb128 0xa
 8353 008f 00       		.byte	0
 8354 0090 00       		.byte	0
 8355 0091 0A       		.uleb128 0xa
 8356 0092 34       		.uleb128 0x34
 8357 0093 00       		.byte	0
 8358 0094 03       		.uleb128 0x3
 8359 0095 08       		.uleb128 0x8
 8360 0096 3A       		.uleb128 0x3a
 8361 0097 0B       		.uleb128 0xb
 8362 0098 3B       		.uleb128 0x3b
 8363 0099 05       		.uleb128 0x5
 8364 009a 49       		.uleb128 0x49
 8365 009b 13       		.uleb128 0x13
 8366 009c 02       		.uleb128 0x2
 8367 009d 0A       		.uleb128 0xa
 8368 009e 00       		.byte	0
 8369 009f 00       		.byte	0
 8370 00a0 0B       		.uleb128 0xb
 8371 00a1 2E       		.uleb128 0x2e
 8372 00a2 01       		.byte	0x1
 8373 00a3 3F       		.uleb128 0x3f
 8374 00a4 0C       		.uleb128 0xc
 8375 00a5 03       		.uleb128 0x3
ARM GAS  C:\Users\Brian\AppData\Local\Temp\ccPAhBxt.s 			page 174


 8376 00a6 0E       		.uleb128 0xe
 8377 00a7 3A       		.uleb128 0x3a
 8378 00a8 0B       		.uleb128 0xb
 8379 00a9 3B       		.uleb128 0x3b
 8380 00aa 05       		.uleb128 0x5
 8381 00ab 49       		.uleb128 0x49
 8382 00ac 13       		.uleb128 0x13
 8383 00ad 3C       		.uleb128 0x3c
 8384 00ae 0C       		.uleb128 0xc
 8385 00af 00       		.byte	0
 8386 00b0 00       		.byte	0
 8387 00b1 0C       		.uleb128 0xc
 8388 00b2 18       		.uleb128 0x18
 8389 00b3 00       		.byte	0
 8390 00b4 00       		.byte	0
 8391 00b5 00       		.byte	0
 8392 00b6 0D       		.uleb128 0xd
 8393 00b7 34       		.uleb128 0x34
 8394 00b8 00       		.byte	0
 8395 00b9 03       		.uleb128 0x3
 8396 00ba 0E       		.uleb128 0xe
 8397 00bb 3A       		.uleb128 0x3a
 8398 00bc 0B       		.uleb128 0xb
 8399 00bd 3B       		.uleb128 0x3b
 8400 00be 05       		.uleb128 0x5
 8401 00bf 49       		.uleb128 0x49
 8402 00c0 13       		.uleb128 0x13
 8403 00c1 02       		.uleb128 0x2
 8404 00c2 0A       		.uleb128 0xa
 8405 00c3 00       		.byte	0
 8406 00c4 00       		.byte	0
 8407 00c5 0E       		.uleb128 0xe
 8408 00c6 0B       		.uleb128 0xb
 8409 00c7 01       		.byte	0x1
 8410 00c8 11       		.uleb128 0x11
 8411 00c9 01       		.uleb128 0x1
 8412 00ca 12       		.uleb128 0x12
 8413 00cb 01       		.uleb128 0x1
 8414 00cc 00       		.byte	0
 8415 00cd 00       		.byte	0
 8416 00ce 0F       		.uleb128 0xf
 8417 00cf 0B       		.uleb128 0xb
 8418 00d0 01       		.byte	0x1
 8419 00d1 11       		.uleb128 0x11
 8420 00d2 01       		.uleb128 0x1
 8421 00d3 12       		.uleb128 0x12
 8422 00d4 01       		.uleb128 0x1
 8423 00d5 01       		.uleb128 0x1
 8424 00d6 13       		.uleb128 0x13
 8425 00d7 00       		.byte	0
 8426 00d8 00       		.byte	0
 8427 00d9 10       		.uleb128 0x10
 8428 00da 2E       		.uleb128 0x2e
 8429 00db 01       		.byte	0x1
 8430 00dc 3F       		.uleb128 0x3f
 8431 00dd 0C       		.uleb128 0xc
 8432 00de 03       		.uleb128 0x3
ARM GAS  C:\Users\Brian\AppData\Local\Temp\ccPAhBxt.s 			page 175


 8433 00df 0E       		.uleb128 0xe
 8434 00e0 3A       		.uleb128 0x3a
 8435 00e1 0B       		.uleb128 0xb
 8436 00e2 3B       		.uleb128 0x3b
 8437 00e3 05       		.uleb128 0x5
 8438 00e4 49       		.uleb128 0x49
 8439 00e5 13       		.uleb128 0x13
 8440 00e6 3C       		.uleb128 0x3c
 8441 00e7 0C       		.uleb128 0xc
 8442 00e8 01       		.uleb128 0x1
 8443 00e9 13       		.uleb128 0x13
 8444 00ea 00       		.byte	0
 8445 00eb 00       		.byte	0
 8446 00ec 11       		.uleb128 0x11
 8447 00ed 26       		.uleb128 0x26
 8448 00ee 00       		.byte	0
 8449 00ef 49       		.uleb128 0x49
 8450 00f0 13       		.uleb128 0x13
 8451 00f1 00       		.byte	0
 8452 00f2 00       		.byte	0
 8453 00f3 12       		.uleb128 0x12
 8454 00f4 34       		.uleb128 0x34
 8455 00f5 00       		.byte	0
 8456 00f6 03       		.uleb128 0x3
 8457 00f7 0E       		.uleb128 0xe
 8458 00f8 3A       		.uleb128 0x3a
 8459 00f9 0B       		.uleb128 0xb
 8460 00fa 3B       		.uleb128 0x3b
 8461 00fb 05       		.uleb128 0x5
 8462 00fc 49       		.uleb128 0x49
 8463 00fd 13       		.uleb128 0x13
 8464 00fe 00       		.byte	0
 8465 00ff 00       		.byte	0
 8466 0100 13       		.uleb128 0x13
 8467 0101 01       		.uleb128 0x1
 8468 0102 01       		.byte	0x1
 8469 0103 49       		.uleb128 0x49
 8470 0104 13       		.uleb128 0x13
 8471 0105 01       		.uleb128 0x1
 8472 0106 13       		.uleb128 0x13
 8473 0107 00       		.byte	0
 8474 0108 00       		.byte	0
 8475 0109 14       		.uleb128 0x14
 8476 010a 21       		.uleb128 0x21
 8477 010b 00       		.byte	0
 8478 010c 49       		.uleb128 0x49
 8479 010d 13       		.uleb128 0x13
 8480 010e 2F       		.uleb128 0x2f
 8481 010f 05       		.uleb128 0x5
 8482 0110 00       		.byte	0
 8483 0111 00       		.byte	0
 8484 0112 15       		.uleb128 0x15
 8485 0113 2E       		.uleb128 0x2e
 8486 0114 01       		.byte	0x1
 8487 0115 3F       		.uleb128 0x3f
 8488 0116 0C       		.uleb128 0xc
 8489 0117 03       		.uleb128 0x3
ARM GAS  C:\Users\Brian\AppData\Local\Temp\ccPAhBxt.s 			page 176


 8490 0118 0E       		.uleb128 0xe
 8491 0119 3A       		.uleb128 0x3a
 8492 011a 0B       		.uleb128 0xb
 8493 011b 3B       		.uleb128 0x3b
 8494 011c 05       		.uleb128 0x5
 8495 011d 27       		.uleb128 0x27
 8496 011e 0C       		.uleb128 0xc
 8497 011f 11       		.uleb128 0x11
 8498 0120 01       		.uleb128 0x1
 8499 0121 12       		.uleb128 0x12
 8500 0122 01       		.uleb128 0x1
 8501 0123 40       		.uleb128 0x40
 8502 0124 06       		.uleb128 0x6
 8503 0125 9742     		.uleb128 0x2117
 8504 0127 0C       		.uleb128 0xc
 8505 0128 01       		.uleb128 0x1
 8506 0129 13       		.uleb128 0x13
 8507 012a 00       		.byte	0
 8508 012b 00       		.byte	0
 8509 012c 16       		.uleb128 0x16
 8510 012d 2E       		.uleb128 0x2e
 8511 012e 01       		.byte	0x1
 8512 012f 3F       		.uleb128 0x3f
 8513 0130 0C       		.uleb128 0xc
 8514 0131 03       		.uleb128 0x3
 8515 0132 0E       		.uleb128 0xe
 8516 0133 3A       		.uleb128 0x3a
 8517 0134 0B       		.uleb128 0xb
 8518 0135 3B       		.uleb128 0x3b
 8519 0136 05       		.uleb128 0x5
 8520 0137 27       		.uleb128 0x27
 8521 0138 0C       		.uleb128 0xc
 8522 0139 49       		.uleb128 0x49
 8523 013a 13       		.uleb128 0x13
 8524 013b 11       		.uleb128 0x11
 8525 013c 01       		.uleb128 0x1
 8526 013d 12       		.uleb128 0x12
 8527 013e 01       		.uleb128 0x1
 8528 013f 40       		.uleb128 0x40
 8529 0140 06       		.uleb128 0x6
 8530 0141 9742     		.uleb128 0x2117
 8531 0143 0C       		.uleb128 0xc
 8532 0144 01       		.uleb128 0x1
 8533 0145 13       		.uleb128 0x13
 8534 0146 00       		.byte	0
 8535 0147 00       		.byte	0
 8536 0148 17       		.uleb128 0x17
 8537 0149 2E       		.uleb128 0x2e
 8538 014a 01       		.byte	0x1
 8539 014b 3F       		.uleb128 0x3f
 8540 014c 0C       		.uleb128 0xc
 8541 014d 03       		.uleb128 0x3
 8542 014e 0E       		.uleb128 0xe
 8543 014f 3A       		.uleb128 0x3a
 8544 0150 0B       		.uleb128 0xb
 8545 0151 3B       		.uleb128 0x3b
 8546 0152 05       		.uleb128 0x5
ARM GAS  C:\Users\Brian\AppData\Local\Temp\ccPAhBxt.s 			page 177


 8547 0153 27       		.uleb128 0x27
 8548 0154 0C       		.uleb128 0xc
 8549 0155 49       		.uleb128 0x49
 8550 0156 13       		.uleb128 0x13
 8551 0157 11       		.uleb128 0x11
 8552 0158 01       		.uleb128 0x1
 8553 0159 12       		.uleb128 0x12
 8554 015a 01       		.uleb128 0x1
 8555 015b 40       		.uleb128 0x40
 8556 015c 06       		.uleb128 0x6
 8557 015d 9642     		.uleb128 0x2116
 8558 015f 0C       		.uleb128 0xc
 8559 0160 01       		.uleb128 0x1
 8560 0161 13       		.uleb128 0x13
 8561 0162 00       		.byte	0
 8562 0163 00       		.byte	0
 8563 0164 18       		.uleb128 0x18
 8564 0165 21       		.uleb128 0x21
 8565 0166 00       		.byte	0
 8566 0167 49       		.uleb128 0x49
 8567 0168 13       		.uleb128 0x13
 8568 0169 2F       		.uleb128 0x2f
 8569 016a 0B       		.uleb128 0xb
 8570 016b 00       		.byte	0
 8571 016c 00       		.byte	0
 8572 016d 19       		.uleb128 0x19
 8573 016e 2E       		.uleb128 0x2e
 8574 016f 01       		.byte	0x1
 8575 0170 3F       		.uleb128 0x3f
 8576 0171 0C       		.uleb128 0xc
 8577 0172 03       		.uleb128 0x3
 8578 0173 0E       		.uleb128 0xe
 8579 0174 3A       		.uleb128 0x3a
 8580 0175 0B       		.uleb128 0xb
 8581 0176 3B       		.uleb128 0x3b
 8582 0177 05       		.uleb128 0x5
 8583 0178 49       		.uleb128 0x49
 8584 0179 13       		.uleb128 0x13
 8585 017a 11       		.uleb128 0x11
 8586 017b 01       		.uleb128 0x1
 8587 017c 12       		.uleb128 0x12
 8588 017d 01       		.uleb128 0x1
 8589 017e 40       		.uleb128 0x40
 8590 017f 06       		.uleb128 0x6
 8591 0180 9642     		.uleb128 0x2116
 8592 0182 0C       		.uleb128 0xc
 8593 0183 01       		.uleb128 0x1
 8594 0184 13       		.uleb128 0x13
 8595 0185 00       		.byte	0
 8596 0186 00       		.byte	0
 8597 0187 1A       		.uleb128 0x1a
 8598 0188 2E       		.uleb128 0x2e
 8599 0189 00       		.byte	0
 8600 018a 3F       		.uleb128 0x3f
 8601 018b 0C       		.uleb128 0xc
 8602 018c 03       		.uleb128 0x3
 8603 018d 0E       		.uleb128 0xe
ARM GAS  C:\Users\Brian\AppData\Local\Temp\ccPAhBxt.s 			page 178


 8604 018e 3A       		.uleb128 0x3a
 8605 018f 0B       		.uleb128 0xb
 8606 0190 3B       		.uleb128 0x3b
 8607 0191 05       		.uleb128 0x5
 8608 0192 27       		.uleb128 0x27
 8609 0193 0C       		.uleb128 0xc
 8610 0194 11       		.uleb128 0x11
 8611 0195 01       		.uleb128 0x1
 8612 0196 12       		.uleb128 0x12
 8613 0197 01       		.uleb128 0x1
 8614 0198 40       		.uleb128 0x40
 8615 0199 06       		.uleb128 0x6
 8616 019a 9642     		.uleb128 0x2116
 8617 019c 0C       		.uleb128 0xc
 8618 019d 00       		.byte	0
 8619 019e 00       		.byte	0
 8620 019f 1B       		.uleb128 0x1b
 8621 01a0 2E       		.uleb128 0x2e
 8622 01a1 00       		.byte	0
 8623 01a2 3F       		.uleb128 0x3f
 8624 01a3 0C       		.uleb128 0xc
 8625 01a4 03       		.uleb128 0x3
 8626 01a5 0E       		.uleb128 0xe
 8627 01a6 3A       		.uleb128 0x3a
 8628 01a7 0B       		.uleb128 0xb
 8629 01a8 3B       		.uleb128 0x3b
 8630 01a9 05       		.uleb128 0x5
 8631 01aa 27       		.uleb128 0x27
 8632 01ab 0C       		.uleb128 0xc
 8633 01ac 49       		.uleb128 0x49
 8634 01ad 13       		.uleb128 0x13
 8635 01ae 11       		.uleb128 0x11
 8636 01af 01       		.uleb128 0x1
 8637 01b0 12       		.uleb128 0x12
 8638 01b1 01       		.uleb128 0x1
 8639 01b2 40       		.uleb128 0x40
 8640 01b3 06       		.uleb128 0x6
 8641 01b4 9642     		.uleb128 0x2116
 8642 01b6 0C       		.uleb128 0xc
 8643 01b7 00       		.byte	0
 8644 01b8 00       		.byte	0
 8645 01b9 1C       		.uleb128 0x1c
 8646 01ba 34       		.uleb128 0x34
 8647 01bb 00       		.byte	0
 8648 01bc 03       		.uleb128 0x3
 8649 01bd 0E       		.uleb128 0xe
 8650 01be 3A       		.uleb128 0x3a
 8651 01bf 0B       		.uleb128 0xb
 8652 01c0 3B       		.uleb128 0x3b
 8653 01c1 0B       		.uleb128 0xb
 8654 01c2 49       		.uleb128 0x49
 8655 01c3 13       		.uleb128 0x13
 8656 01c4 3F       		.uleb128 0x3f
 8657 01c5 0C       		.uleb128 0xc
 8658 01c6 02       		.uleb128 0x2
 8659 01c7 0A       		.uleb128 0xa
 8660 01c8 00       		.byte	0
ARM GAS  C:\Users\Brian\AppData\Local\Temp\ccPAhBxt.s 			page 179


 8661 01c9 00       		.byte	0
 8662 01ca 00       		.byte	0
 8663              		.section	.debug_loc,"",%progbits
 8664              	.Ldebug_loc0:
 8665              	.LLST0:
 8666 0000 00000000 		.4byte	.LFB0
 8667 0004 02000000 		.4byte	.LCFI0
 8668 0008 0200     		.2byte	0x2
 8669 000a 7D       		.byte	0x7d
 8670 000b 00       		.sleb128 0
 8671 000c 02000000 		.4byte	.LCFI0
 8672 0010 04000000 		.4byte	.LCFI1
 8673 0014 0200     		.2byte	0x2
 8674 0016 7D       		.byte	0x7d
 8675 0017 08       		.sleb128 8
 8676 0018 04000000 		.4byte	.LCFI1
 8677 001c 48030000 		.4byte	.LFE0
 8678 0020 0200     		.2byte	0x2
 8679 0022 77       		.byte	0x77
 8680 0023 08       		.sleb128 8
 8681 0024 00000000 		.4byte	0
 8682 0028 00000000 		.4byte	0
 8683              	.LLST1:
 8684 002c 00000000 		.4byte	.LFB1
 8685 0030 02000000 		.4byte	.LCFI2
 8686 0034 0200     		.2byte	0x2
 8687 0036 7D       		.byte	0x7d
 8688 0037 00       		.sleb128 0
 8689 0038 02000000 		.4byte	.LCFI2
 8690 003c 04000000 		.4byte	.LCFI3
 8691 0040 0200     		.2byte	0x2
 8692 0042 7D       		.byte	0x7d
 8693 0043 08       		.sleb128 8
 8694 0044 04000000 		.4byte	.LCFI3
 8695 0048 06000000 		.4byte	.LCFI4
 8696 004c 0200     		.2byte	0x2
 8697 004e 7D       		.byte	0x7d
 8698 004f 10       		.sleb128 16
 8699 0050 06000000 		.4byte	.LCFI4
 8700 0054 2E000000 		.4byte	.LFE1
 8701 0058 0200     		.2byte	0x2
 8702 005a 77       		.byte	0x77
 8703 005b 10       		.sleb128 16
 8704 005c 00000000 		.4byte	0
 8705 0060 00000000 		.4byte	0
 8706              	.LLST2:
 8707 0064 00000000 		.4byte	.LFB2
 8708 0068 02000000 		.4byte	.LCFI5
 8709 006c 0200     		.2byte	0x2
 8710 006e 7D       		.byte	0x7d
 8711 006f 00       		.sleb128 0
 8712 0070 02000000 		.4byte	.LCFI5
 8713 0074 04000000 		.4byte	.LCFI6
 8714 0078 0200     		.2byte	0x2
 8715 007a 7D       		.byte	0x7d
 8716 007b 08       		.sleb128 8
 8717 007c 04000000 		.4byte	.LCFI6
ARM GAS  C:\Users\Brian\AppData\Local\Temp\ccPAhBxt.s 			page 180


 8718 0080 06000000 		.4byte	.LCFI7
 8719 0084 0200     		.2byte	0x2
 8720 0086 7D       		.byte	0x7d
 8721 0087 10       		.sleb128 16
 8722 0088 06000000 		.4byte	.LCFI7
 8723 008c 36000000 		.4byte	.LFE2
 8724 0090 0200     		.2byte	0x2
 8725 0092 77       		.byte	0x77
 8726 0093 10       		.sleb128 16
 8727 0094 00000000 		.4byte	0
 8728 0098 00000000 		.4byte	0
 8729              	.LLST3:
 8730 009c 00000000 		.4byte	.LFB3
 8731 00a0 02000000 		.4byte	.LCFI8
 8732 00a4 0200     		.2byte	0x2
 8733 00a6 7D       		.byte	0x7d
 8734 00a7 00       		.sleb128 0
 8735 00a8 02000000 		.4byte	.LCFI8
 8736 00ac 04000000 		.4byte	.LCFI9
 8737 00b0 0200     		.2byte	0x2
 8738 00b2 7D       		.byte	0x7d
 8739 00b3 08       		.sleb128 8
 8740 00b4 04000000 		.4byte	.LCFI9
 8741 00b8 06000000 		.4byte	.LCFI10
 8742 00bc 0200     		.2byte	0x2
 8743 00be 7D       		.byte	0x7d
 8744 00bf 10       		.sleb128 16
 8745 00c0 06000000 		.4byte	.LCFI10
 8746 00c4 2E000000 		.4byte	.LFE3
 8747 00c8 0200     		.2byte	0x2
 8748 00ca 77       		.byte	0x77
 8749 00cb 10       		.sleb128 16
 8750 00cc 00000000 		.4byte	0
 8751 00d0 00000000 		.4byte	0
 8752              	.LLST4:
 8753 00d4 00000000 		.4byte	.LFB4
 8754 00d8 02000000 		.4byte	.LCFI11
 8755 00dc 0200     		.2byte	0x2
 8756 00de 7D       		.byte	0x7d
 8757 00df 00       		.sleb128 0
 8758 00e0 02000000 		.4byte	.LCFI11
 8759 00e4 04000000 		.4byte	.LCFI12
 8760 00e8 0200     		.2byte	0x2
 8761 00ea 7D       		.byte	0x7d
 8762 00eb 08       		.sleb128 8
 8763 00ec 04000000 		.4byte	.LCFI12
 8764 00f0 06000000 		.4byte	.LCFI13
 8765 00f4 0200     		.2byte	0x2
 8766 00f6 7D       		.byte	0x7d
 8767 00f7 10       		.sleb128 16
 8768 00f8 06000000 		.4byte	.LCFI13
 8769 00fc 4E000000 		.4byte	.LFE4
 8770 0100 0200     		.2byte	0x2
 8771 0102 77       		.byte	0x77
 8772 0103 10       		.sleb128 16
 8773 0104 00000000 		.4byte	0
 8774 0108 00000000 		.4byte	0
ARM GAS  C:\Users\Brian\AppData\Local\Temp\ccPAhBxt.s 			page 181


 8775              	.LLST5:
 8776 010c 00000000 		.4byte	.LFB5
 8777 0110 02000000 		.4byte	.LCFI14
 8778 0114 0200     		.2byte	0x2
 8779 0116 7D       		.byte	0x7d
 8780 0117 00       		.sleb128 0
 8781 0118 02000000 		.4byte	.LCFI14
 8782 011c 04000000 		.4byte	.LCFI15
 8783 0120 0200     		.2byte	0x2
 8784 0122 7D       		.byte	0x7d
 8785 0123 0C       		.sleb128 12
 8786 0124 04000000 		.4byte	.LCFI15
 8787 0128 06000000 		.4byte	.LCFI16
 8788 012c 0200     		.2byte	0x2
 8789 012e 7D       		.byte	0x7d
 8790 012f 20       		.sleb128 32
 8791 0130 06000000 		.4byte	.LCFI16
 8792 0134 18010000 		.4byte	.LFE5
 8793 0138 0200     		.2byte	0x2
 8794 013a 77       		.byte	0x77
 8795 013b 20       		.sleb128 32
 8796 013c 00000000 		.4byte	0
 8797 0140 00000000 		.4byte	0
 8798              	.LLST6:
 8799 0144 00000000 		.4byte	.LFB6
 8800 0148 02000000 		.4byte	.LCFI17
 8801 014c 0200     		.2byte	0x2
 8802 014e 7D       		.byte	0x7d
 8803 014f 00       		.sleb128 0
 8804 0150 02000000 		.4byte	.LCFI17
 8805 0154 04000000 		.4byte	.LCFI18
 8806 0158 0200     		.2byte	0x2
 8807 015a 7D       		.byte	0x7d
 8808 015b 08       		.sleb128 8
 8809 015c 04000000 		.4byte	.LCFI18
 8810 0160 06000000 		.4byte	.LCFI19
 8811 0164 0200     		.2byte	0x2
 8812 0166 7D       		.byte	0x7d
 8813 0167 18       		.sleb128 24
 8814 0168 06000000 		.4byte	.LCFI19
 8815 016c 3E000000 		.4byte	.LFE6
 8816 0170 0200     		.2byte	0x2
 8817 0172 77       		.byte	0x77
 8818 0173 10       		.sleb128 16
 8819 0174 00000000 		.4byte	0
 8820 0178 00000000 		.4byte	0
 8821              	.LLST7:
 8822 017c 00000000 		.4byte	.LFB7
 8823 0180 02000000 		.4byte	.LCFI20
 8824 0184 0200     		.2byte	0x2
 8825 0186 7D       		.byte	0x7d
 8826 0187 00       		.sleb128 0
 8827 0188 02000000 		.4byte	.LCFI20
 8828 018c 04000000 		.4byte	.LCFI21
 8829 0190 0200     		.2byte	0x2
 8830 0192 7D       		.byte	0x7d
 8831 0193 08       		.sleb128 8
ARM GAS  C:\Users\Brian\AppData\Local\Temp\ccPAhBxt.s 			page 182


 8832 0194 04000000 		.4byte	.LCFI21
 8833 0198 06000000 		.4byte	.LCFI22
 8834 019c 0200     		.2byte	0x2
 8835 019e 7D       		.byte	0x7d
 8836 019f 10       		.sleb128 16
 8837 01a0 06000000 		.4byte	.LCFI22
 8838 01a4 2E000000 		.4byte	.LFE7
 8839 01a8 0200     		.2byte	0x2
 8840 01aa 77       		.byte	0x77
 8841 01ab 10       		.sleb128 16
 8842 01ac 00000000 		.4byte	0
 8843 01b0 00000000 		.4byte	0
 8844              	.LLST8:
 8845 01b4 00000000 		.4byte	.LFB8
 8846 01b8 02000000 		.4byte	.LCFI23
 8847 01bc 0200     		.2byte	0x2
 8848 01be 7D       		.byte	0x7d
 8849 01bf 00       		.sleb128 0
 8850 01c0 02000000 		.4byte	.LCFI23
 8851 01c4 04000000 		.4byte	.LCFI24
 8852 01c8 0200     		.2byte	0x2
 8853 01ca 7D       		.byte	0x7d
 8854 01cb 08       		.sleb128 8
 8855 01cc 04000000 		.4byte	.LCFI24
 8856 01d0 06000000 		.4byte	.LCFI25
 8857 01d4 0200     		.2byte	0x2
 8858 01d6 7D       		.byte	0x7d
 8859 01d7 18       		.sleb128 24
 8860 01d8 06000000 		.4byte	.LCFI25
 8861 01dc 3C000000 		.4byte	.LFE8
 8862 01e0 0200     		.2byte	0x2
 8863 01e2 77       		.byte	0x77
 8864 01e3 18       		.sleb128 24
 8865 01e4 00000000 		.4byte	0
 8866 01e8 00000000 		.4byte	0
 8867              	.LLST9:
 8868 01ec 00000000 		.4byte	.LFB9
 8869 01f0 02000000 		.4byte	.LCFI26
 8870 01f4 0200     		.2byte	0x2
 8871 01f6 7D       		.byte	0x7d
 8872 01f7 00       		.sleb128 0
 8873 01f8 02000000 		.4byte	.LCFI26
 8874 01fc 04000000 		.4byte	.LCFI27
 8875 0200 0200     		.2byte	0x2
 8876 0202 7D       		.byte	0x7d
 8877 0203 08       		.sleb128 8
 8878 0204 04000000 		.4byte	.LCFI27
 8879 0208 06000000 		.4byte	.LCFI28
 8880 020c 0200     		.2byte	0x2
 8881 020e 7D       		.byte	0x7d
 8882 020f 10       		.sleb128 16
 8883 0210 06000000 		.4byte	.LCFI28
 8884 0214 26000000 		.4byte	.LFE9
 8885 0218 0200     		.2byte	0x2
 8886 021a 77       		.byte	0x77
 8887 021b 10       		.sleb128 16
 8888 021c 00000000 		.4byte	0
ARM GAS  C:\Users\Brian\AppData\Local\Temp\ccPAhBxt.s 			page 183


 8889 0220 00000000 		.4byte	0
 8890              	.LLST10:
 8891 0224 00000000 		.4byte	.LFB10
 8892 0228 02000000 		.4byte	.LCFI29
 8893 022c 0200     		.2byte	0x2
 8894 022e 7D       		.byte	0x7d
 8895 022f 00       		.sleb128 0
 8896 0230 02000000 		.4byte	.LCFI29
 8897 0234 04000000 		.4byte	.LCFI30
 8898 0238 0200     		.2byte	0x2
 8899 023a 7D       		.byte	0x7d
 8900 023b 08       		.sleb128 8
 8901 023c 04000000 		.4byte	.LCFI30
 8902 0240 06000000 		.4byte	.LCFI31
 8903 0244 0200     		.2byte	0x2
 8904 0246 7D       		.byte	0x7d
 8905 0247 10       		.sleb128 16
 8906 0248 06000000 		.4byte	.LCFI31
 8907 024c 26000000 		.4byte	.LFE10
 8908 0250 0200     		.2byte	0x2
 8909 0252 77       		.byte	0x77
 8910 0253 10       		.sleb128 16
 8911 0254 00000000 		.4byte	0
 8912 0258 00000000 		.4byte	0
 8913              	.LLST11:
 8914 025c 00000000 		.4byte	.LFB11
 8915 0260 02000000 		.4byte	.LCFI32
 8916 0264 0200     		.2byte	0x2
 8917 0266 7D       		.byte	0x7d
 8918 0267 00       		.sleb128 0
 8919 0268 02000000 		.4byte	.LCFI32
 8920 026c 04000000 		.4byte	.LCFI33
 8921 0270 0200     		.2byte	0x2
 8922 0272 7D       		.byte	0x7d
 8923 0273 08       		.sleb128 8
 8924 0274 04000000 		.4byte	.LCFI33
 8925 0278 06000000 		.4byte	.LCFI34
 8926 027c 0200     		.2byte	0x2
 8927 027e 7D       		.byte	0x7d
 8928 027f 10       		.sleb128 16
 8929 0280 06000000 		.4byte	.LCFI34
 8930 0284 1A000000 		.4byte	.LFE11
 8931 0288 0200     		.2byte	0x2
 8932 028a 77       		.byte	0x77
 8933 028b 10       		.sleb128 16
 8934 028c 00000000 		.4byte	0
 8935 0290 00000000 		.4byte	0
 8936              	.LLST12:
 8937 0294 00000000 		.4byte	.LFB12
 8938 0298 02000000 		.4byte	.LCFI35
 8939 029c 0200     		.2byte	0x2
 8940 029e 7D       		.byte	0x7d
 8941 029f 00       		.sleb128 0
 8942 02a0 02000000 		.4byte	.LCFI35
 8943 02a4 04000000 		.4byte	.LCFI36
 8944 02a8 0200     		.2byte	0x2
 8945 02aa 7D       		.byte	0x7d
ARM GAS  C:\Users\Brian\AppData\Local\Temp\ccPAhBxt.s 			page 184


 8946 02ab 08       		.sleb128 8
 8947 02ac 04000000 		.4byte	.LCFI36
 8948 02b0 06000000 		.4byte	.LCFI37
 8949 02b4 0200     		.2byte	0x2
 8950 02b6 7D       		.byte	0x7d
 8951 02b7 18       		.sleb128 24
 8952 02b8 06000000 		.4byte	.LCFI37
 8953 02bc 7A000000 		.4byte	.LFE12
 8954 02c0 0200     		.2byte	0x2
 8955 02c2 77       		.byte	0x77
 8956 02c3 18       		.sleb128 24
 8957 02c4 00000000 		.4byte	0
 8958 02c8 00000000 		.4byte	0
 8959              	.LLST13:
 8960 02cc 00000000 		.4byte	.LFB13
 8961 02d0 02000000 		.4byte	.LCFI38
 8962 02d4 0200     		.2byte	0x2
 8963 02d6 7D       		.byte	0x7d
 8964 02d7 00       		.sleb128 0
 8965 02d8 02000000 		.4byte	.LCFI38
 8966 02dc 04000000 		.4byte	.LCFI39
 8967 02e0 0200     		.2byte	0x2
 8968 02e2 7D       		.byte	0x7d
 8969 02e3 0C       		.sleb128 12
 8970 02e4 04000000 		.4byte	.LCFI39
 8971 02e8 06000000 		.4byte	.LCFI40
 8972 02ec 0200     		.2byte	0x2
 8973 02ee 7D       		.byte	0x7d
 8974 02ef 20       		.sleb128 32
 8975 02f0 06000000 		.4byte	.LCFI40
 8976 02f4 32000000 		.4byte	.LFE13
 8977 02f8 0200     		.2byte	0x2
 8978 02fa 77       		.byte	0x77
 8979 02fb 18       		.sleb128 24
 8980 02fc 00000000 		.4byte	0
 8981 0300 00000000 		.4byte	0
 8982              	.LLST14:
 8983 0304 00000000 		.4byte	.LFB14
 8984 0308 02000000 		.4byte	.LCFI41
 8985 030c 0200     		.2byte	0x2
 8986 030e 7D       		.byte	0x7d
 8987 030f 00       		.sleb128 0
 8988 0310 02000000 		.4byte	.LCFI41
 8989 0314 04000000 		.4byte	.LCFI42
 8990 0318 0200     		.2byte	0x2
 8991 031a 7D       		.byte	0x7d
 8992 031b 0C       		.sleb128 12
 8993 031c 04000000 		.4byte	.LCFI42
 8994 0320 06000000 		.4byte	.LCFI43
 8995 0324 0200     		.2byte	0x2
 8996 0326 7D       		.byte	0x7d
 8997 0327 30       		.sleb128 48
 8998 0328 06000000 		.4byte	.LCFI43
 8999 032c C8010000 		.4byte	.LFE14
 9000 0330 0200     		.2byte	0x2
 9001 0332 77       		.byte	0x77
 9002 0333 30       		.sleb128 48
ARM GAS  C:\Users\Brian\AppData\Local\Temp\ccPAhBxt.s 			page 185


 9003 0334 00000000 		.4byte	0
 9004 0338 00000000 		.4byte	0
 9005              	.LLST15:
 9006 033c 00000000 		.4byte	.LFB15
 9007 0340 02000000 		.4byte	.LCFI44
 9008 0344 0200     		.2byte	0x2
 9009 0346 7D       		.byte	0x7d
 9010 0347 00       		.sleb128 0
 9011 0348 02000000 		.4byte	.LCFI44
 9012 034c 04000000 		.4byte	.LCFI45
 9013 0350 0200     		.2byte	0x2
 9014 0352 7D       		.byte	0x7d
 9015 0353 08       		.sleb128 8
 9016 0354 04000000 		.4byte	.LCFI45
 9017 0358 06000000 		.4byte	.LCFI46
 9018 035c 0200     		.2byte	0x2
 9019 035e 7D       		.byte	0x7d
 9020 035f 10       		.sleb128 16
 9021 0360 06000000 		.4byte	.LCFI46
 9022 0364 6C000000 		.4byte	.LFE15
 9023 0368 0200     		.2byte	0x2
 9024 036a 77       		.byte	0x77
 9025 036b 10       		.sleb128 16
 9026 036c 00000000 		.4byte	0
 9027 0370 00000000 		.4byte	0
 9028              	.LLST16:
 9029 0374 00000000 		.4byte	.LFB16
 9030 0378 02000000 		.4byte	.LCFI47
 9031 037c 0200     		.2byte	0x2
 9032 037e 7D       		.byte	0x7d
 9033 037f 00       		.sleb128 0
 9034 0380 02000000 		.4byte	.LCFI47
 9035 0384 04000000 		.4byte	.LCFI48
 9036 0388 0200     		.2byte	0x2
 9037 038a 7D       		.byte	0x7d
 9038 038b 08       		.sleb128 8
 9039 038c 04000000 		.4byte	.LCFI48
 9040 0390 06000000 		.4byte	.LCFI49
 9041 0394 0200     		.2byte	0x2
 9042 0396 7D       		.byte	0x7d
 9043 0397 20       		.sleb128 32
 9044 0398 06000000 		.4byte	.LCFI49
 9045 039c CA010000 		.4byte	.LFE16
 9046 03a0 0200     		.2byte	0x2
 9047 03a2 77       		.byte	0x77
 9048 03a3 20       		.sleb128 32
 9049 03a4 00000000 		.4byte	0
 9050 03a8 00000000 		.4byte	0
 9051              	.LLST17:
 9052 03ac 00000000 		.4byte	.LFB17
 9053 03b0 02000000 		.4byte	.LCFI50
 9054 03b4 0200     		.2byte	0x2
 9055 03b6 7D       		.byte	0x7d
 9056 03b7 00       		.sleb128 0
 9057 03b8 02000000 		.4byte	.LCFI50
 9058 03bc 04000000 		.4byte	.LCFI51
 9059 03c0 0200     		.2byte	0x2
ARM GAS  C:\Users\Brian\AppData\Local\Temp\ccPAhBxt.s 			page 186


 9060 03c2 7D       		.byte	0x7d
 9061 03c3 08       		.sleb128 8
 9062 03c4 04000000 		.4byte	.LCFI51
 9063 03c8 06000000 		.4byte	.LCFI52
 9064 03cc 0200     		.2byte	0x2
 9065 03ce 7D       		.byte	0x7d
 9066 03cf 20       		.sleb128 32
 9067 03d0 06000000 		.4byte	.LCFI52
 9068 03d4 9E010000 		.4byte	.LFE17
 9069 03d8 0200     		.2byte	0x2
 9070 03da 77       		.byte	0x77
 9071 03db 20       		.sleb128 32
 9072 03dc 00000000 		.4byte	0
 9073 03e0 00000000 		.4byte	0
 9074              	.LLST18:
 9075 03e4 00000000 		.4byte	.LFB18
 9076 03e8 02000000 		.4byte	.LCFI53
 9077 03ec 0200     		.2byte	0x2
 9078 03ee 7D       		.byte	0x7d
 9079 03ef 00       		.sleb128 0
 9080 03f0 02000000 		.4byte	.LCFI53
 9081 03f4 04000000 		.4byte	.LCFI54
 9082 03f8 0200     		.2byte	0x2
 9083 03fa 7D       		.byte	0x7d
 9084 03fb 08       		.sleb128 8
 9085 03fc 04000000 		.4byte	.LCFI54
 9086 0400 06000000 		.4byte	.LCFI55
 9087 0404 0200     		.2byte	0x2
 9088 0406 7D       		.byte	0x7d
 9089 0407 18       		.sleb128 24
 9090 0408 06000000 		.4byte	.LCFI55
 9091 040c 58000000 		.4byte	.LFE18
 9092 0410 0200     		.2byte	0x2
 9093 0412 77       		.byte	0x77
 9094 0413 10       		.sleb128 16
 9095 0414 00000000 		.4byte	0
 9096 0418 00000000 		.4byte	0
 9097              	.LLST19:
 9098 041c 00000000 		.4byte	.LFB19
 9099 0420 02000000 		.4byte	.LCFI56
 9100 0424 0200     		.2byte	0x2
 9101 0426 7D       		.byte	0x7d
 9102 0427 00       		.sleb128 0
 9103 0428 02000000 		.4byte	.LCFI56
 9104 042c 04000000 		.4byte	.LCFI57
 9105 0430 0200     		.2byte	0x2
 9106 0432 7D       		.byte	0x7d
 9107 0433 08       		.sleb128 8
 9108 0434 04000000 		.4byte	.LCFI57
 9109 0438 06000000 		.4byte	.LCFI58
 9110 043c 0200     		.2byte	0x2
 9111 043e 7D       		.byte	0x7d
 9112 043f 20       		.sleb128 32
 9113 0440 06000000 		.4byte	.LCFI58
 9114 0444 4E010000 		.4byte	.LFE19
 9115 0448 0200     		.2byte	0x2
 9116 044a 77       		.byte	0x77
ARM GAS  C:\Users\Brian\AppData\Local\Temp\ccPAhBxt.s 			page 187


 9117 044b 20       		.sleb128 32
 9118 044c 00000000 		.4byte	0
 9119 0450 00000000 		.4byte	0
 9120              	.LLST20:
 9121 0454 00000000 		.4byte	.LFB20
 9122 0458 02000000 		.4byte	.LCFI59
 9123 045c 0200     		.2byte	0x2
 9124 045e 7D       		.byte	0x7d
 9125 045f 00       		.sleb128 0
 9126 0460 02000000 		.4byte	.LCFI59
 9127 0464 04000000 		.4byte	.LCFI60
 9128 0468 0200     		.2byte	0x2
 9129 046a 7D       		.byte	0x7d
 9130 046b 0C       		.sleb128 12
 9131 046c 04000000 		.4byte	.LCFI60
 9132 0470 06000000 		.4byte	.LCFI61
 9133 0474 0200     		.2byte	0x2
 9134 0476 7D       		.byte	0x7d
 9135 0477 20       		.sleb128 32
 9136 0478 06000000 		.4byte	.LCFI61
 9137 047c 5E000000 		.4byte	.LFE20
 9138 0480 0200     		.2byte	0x2
 9139 0482 77       		.byte	0x77
 9140 0483 18       		.sleb128 24
 9141 0484 00000000 		.4byte	0
 9142 0488 00000000 		.4byte	0
 9143              	.LLST21:
 9144 048c 00000000 		.4byte	.LFB21
 9145 0490 02000000 		.4byte	.LCFI62
 9146 0494 0200     		.2byte	0x2
 9147 0496 7D       		.byte	0x7d
 9148 0497 00       		.sleb128 0
 9149 0498 02000000 		.4byte	.LCFI62
 9150 049c 04000000 		.4byte	.LCFI63
 9151 04a0 0200     		.2byte	0x2
 9152 04a2 7D       		.byte	0x7d
 9153 04a3 08       		.sleb128 8
 9154 04a4 04000000 		.4byte	.LCFI63
 9155 04a8 06000000 		.4byte	.LCFI64
 9156 04ac 0200     		.2byte	0x2
 9157 04ae 7D       		.byte	0x7d
 9158 04af 28       		.sleb128 40
 9159 04b0 06000000 		.4byte	.LCFI64
 9160 04b4 06020000 		.4byte	.LFE21
 9161 04b8 0200     		.2byte	0x2
 9162 04ba 77       		.byte	0x77
 9163 04bb 28       		.sleb128 40
 9164 04bc 00000000 		.4byte	0
 9165 04c0 00000000 		.4byte	0
 9166              	.LLST22:
 9167 04c4 00000000 		.4byte	.LFB22
 9168 04c8 02000000 		.4byte	.LCFI65
 9169 04cc 0200     		.2byte	0x2
 9170 04ce 7D       		.byte	0x7d
 9171 04cf 00       		.sleb128 0
 9172 04d0 02000000 		.4byte	.LCFI65
 9173 04d4 04000000 		.4byte	.LCFI66
ARM GAS  C:\Users\Brian\AppData\Local\Temp\ccPAhBxt.s 			page 188


 9174 04d8 0200     		.2byte	0x2
 9175 04da 7D       		.byte	0x7d
 9176 04db 0C       		.sleb128 12
 9177 04dc 04000000 		.4byte	.LCFI66
 9178 04e0 06000000 		.4byte	.LCFI67
 9179 04e4 0200     		.2byte	0x2
 9180 04e6 7D       		.byte	0x7d
 9181 04e7 20       		.sleb128 32
 9182 04e8 06000000 		.4byte	.LCFI67
 9183 04ec BA010000 		.4byte	.LFE22
 9184 04f0 0200     		.2byte	0x2
 9185 04f2 77       		.byte	0x77
 9186 04f3 18       		.sleb128 24
 9187 04f4 00000000 		.4byte	0
 9188 04f8 00000000 		.4byte	0
 9189              	.LLST23:
 9190 04fc 00000000 		.4byte	.LFB23
 9191 0500 02000000 		.4byte	.LCFI68
 9192 0504 0200     		.2byte	0x2
 9193 0506 7D       		.byte	0x7d
 9194 0507 00       		.sleb128 0
 9195 0508 02000000 		.4byte	.LCFI68
 9196 050c 04000000 		.4byte	.LCFI69
 9197 0510 0200     		.2byte	0x2
 9198 0512 7D       		.byte	0x7d
 9199 0513 0C       		.sleb128 12
 9200 0514 04000000 		.4byte	.LCFI69
 9201 0518 06000000 		.4byte	.LCFI70
 9202 051c 0200     		.2byte	0x2
 9203 051e 7D       		.byte	0x7d
 9204 051f 20       		.sleb128 32
 9205 0520 06000000 		.4byte	.LCFI70
 9206 0524 F8000000 		.4byte	.LFE23
 9207 0528 0200     		.2byte	0x2
 9208 052a 77       		.byte	0x77
 9209 052b 18       		.sleb128 24
 9210 052c 00000000 		.4byte	0
 9211 0530 00000000 		.4byte	0
 9212              	.LLST24:
 9213 0534 00000000 		.4byte	.LFB24
 9214 0538 02000000 		.4byte	.LCFI71
 9215 053c 0200     		.2byte	0x2
 9216 053e 7D       		.byte	0x7d
 9217 053f 00       		.sleb128 0
 9218 0540 02000000 		.4byte	.LCFI71
 9219 0544 04000000 		.4byte	.LCFI72
 9220 0548 0200     		.2byte	0x2
 9221 054a 7D       		.byte	0x7d
 9222 054b 08       		.sleb128 8
 9223 054c 04000000 		.4byte	.LCFI72
 9224 0550 06000000 		.4byte	.LCFI73
 9225 0554 0200     		.2byte	0x2
 9226 0556 7D       		.byte	0x7d
 9227 0557 18       		.sleb128 24
 9228 0558 06000000 		.4byte	.LCFI73
 9229 055c 3E000000 		.4byte	.LFE24
 9230 0560 0200     		.2byte	0x2
ARM GAS  C:\Users\Brian\AppData\Local\Temp\ccPAhBxt.s 			page 189


 9231 0562 77       		.byte	0x77
 9232 0563 18       		.sleb128 24
 9233 0564 00000000 		.4byte	0
 9234 0568 00000000 		.4byte	0
 9235              	.LLST25:
 9236 056c 00000000 		.4byte	.LFB25
 9237 0570 02000000 		.4byte	.LCFI74
 9238 0574 0200     		.2byte	0x2
 9239 0576 7D       		.byte	0x7d
 9240 0577 00       		.sleb128 0
 9241 0578 02000000 		.4byte	.LCFI74
 9242 057c 06000000 		.4byte	.LCFI75
 9243 0580 0200     		.2byte	0x2
 9244 0582 7D       		.byte	0x7d
 9245 0583 0C       		.sleb128 12
 9246 0584 06000000 		.4byte	.LCFI75
 9247 0588 08000000 		.4byte	.LCFI76
 9248 058c 0300     		.2byte	0x3
 9249 058e 7D       		.byte	0x7d
 9250 058f B008     		.sleb128 1072
 9251 0591 08000000 		.4byte	.LCFI76
 9252 0595 6A010000 		.4byte	.LFE25
 9253 0599 0300     		.2byte	0x3
 9254 059b 77       		.byte	0x77
 9255 059c B008     		.sleb128 1072
 9256 059e 00000000 		.4byte	0
 9257 05a2 00000000 		.4byte	0
 9258              	.LLST26:
 9259 05a6 00000000 		.4byte	.LFB26
 9260 05aa 02000000 		.4byte	.LCFI77
 9261 05ae 0200     		.2byte	0x2
 9262 05b0 7D       		.byte	0x7d
 9263 05b1 00       		.sleb128 0
 9264 05b2 02000000 		.4byte	.LCFI77
 9265 05b6 04000000 		.4byte	.LCFI78
 9266 05ba 0200     		.2byte	0x2
 9267 05bc 7D       		.byte	0x7d
 9268 05bd 10       		.sleb128 16
 9269 05be 04000000 		.4byte	.LCFI78
 9270 05c2 06000000 		.4byte	.LCFI79
 9271 05c6 0200     		.2byte	0x2
 9272 05c8 7D       		.byte	0x7d
 9273 05c9 20       		.sleb128 32
 9274 05ca 06000000 		.4byte	.LCFI79
 9275 05ce FC000000 		.4byte	.LFE26
 9276 05d2 0200     		.2byte	0x2
 9277 05d4 77       		.byte	0x77
 9278 05d5 18       		.sleb128 24
 9279 05d6 00000000 		.4byte	0
 9280 05da 00000000 		.4byte	0
 9281              	.LLST27:
 9282 05de 00000000 		.4byte	.LFB27
 9283 05e2 02000000 		.4byte	.LCFI80
 9284 05e6 0200     		.2byte	0x2
 9285 05e8 7D       		.byte	0x7d
 9286 05e9 00       		.sleb128 0
 9287 05ea 02000000 		.4byte	.LCFI80
ARM GAS  C:\Users\Brian\AppData\Local\Temp\ccPAhBxt.s 			page 190


 9288 05ee 04000000 		.4byte	.LCFI81
 9289 05f2 0200     		.2byte	0x2
 9290 05f4 7D       		.byte	0x7d
 9291 05f5 0C       		.sleb128 12
 9292 05f6 04000000 		.4byte	.LCFI81
 9293 05fa 06000000 		.4byte	.LCFI82
 9294 05fe 0200     		.2byte	0x2
 9295 0600 7D       		.byte	0x7d
 9296 0601 28       		.sleb128 40
 9297 0602 06000000 		.4byte	.LCFI82
 9298 0606 38020000 		.4byte	.LFE27
 9299 060a 0200     		.2byte	0x2
 9300 060c 77       		.byte	0x77
 9301 060d 20       		.sleb128 32
 9302 060e 00000000 		.4byte	0
 9303 0612 00000000 		.4byte	0
 9304              	.LLST28:
 9305 0616 00000000 		.4byte	.LFB28
 9306 061a 02000000 		.4byte	.LCFI83
 9307 061e 0200     		.2byte	0x2
 9308 0620 7D       		.byte	0x7d
 9309 0621 00       		.sleb128 0
 9310 0622 02000000 		.4byte	.LCFI83
 9311 0626 04000000 		.4byte	.LCFI84
 9312 062a 0200     		.2byte	0x2
 9313 062c 7D       		.byte	0x7d
 9314 062d 04       		.sleb128 4
 9315 062e 04000000 		.4byte	.LCFI84
 9316 0632 06000000 		.4byte	.LCFI85
 9317 0636 0200     		.2byte	0x2
 9318 0638 7D       		.byte	0x7d
 9319 0639 10       		.sleb128 16
 9320 063a 06000000 		.4byte	.LCFI85
 9321 063e 30000000 		.4byte	.LFE28
 9322 0642 0200     		.2byte	0x2
 9323 0644 77       		.byte	0x77
 9324 0645 10       		.sleb128 16
 9325 0646 00000000 		.4byte	0
 9326 064a 00000000 		.4byte	0
 9327              	.LLST29:
 9328 064e 00000000 		.4byte	.LFB29
 9329 0652 02000000 		.4byte	.LCFI86
 9330 0656 0200     		.2byte	0x2
 9331 0658 7D       		.byte	0x7d
 9332 0659 00       		.sleb128 0
 9333 065a 02000000 		.4byte	.LCFI86
 9334 065e 04000000 		.4byte	.LCFI87
 9335 0662 0200     		.2byte	0x2
 9336 0664 7D       		.byte	0x7d
 9337 0665 04       		.sleb128 4
 9338 0666 04000000 		.4byte	.LCFI87
 9339 066a 06000000 		.4byte	.LCFI88
 9340 066e 0200     		.2byte	0x2
 9341 0670 7D       		.byte	0x7d
 9342 0671 10       		.sleb128 16
 9343 0672 06000000 		.4byte	.LCFI88
 9344 0676 2C000000 		.4byte	.LFE29
ARM GAS  C:\Users\Brian\AppData\Local\Temp\ccPAhBxt.s 			page 191


 9345 067a 0200     		.2byte	0x2
 9346 067c 77       		.byte	0x77
 9347 067d 10       		.sleb128 16
 9348 067e 00000000 		.4byte	0
 9349 0682 00000000 		.4byte	0
 9350              	.LLST30:
 9351 0686 00000000 		.4byte	.LFB30
 9352 068a 02000000 		.4byte	.LCFI89
 9353 068e 0200     		.2byte	0x2
 9354 0690 7D       		.byte	0x7d
 9355 0691 00       		.sleb128 0
 9356 0692 02000000 		.4byte	.LCFI89
 9357 0696 04000000 		.4byte	.LCFI90
 9358 069a 0200     		.2byte	0x2
 9359 069c 7D       		.byte	0x7d
 9360 069d 04       		.sleb128 4
 9361 069e 04000000 		.4byte	.LCFI90
 9362 06a2 06000000 		.4byte	.LCFI91
 9363 06a6 0200     		.2byte	0x2
 9364 06a8 7D       		.byte	0x7d
 9365 06a9 10       		.sleb128 16
 9366 06aa 06000000 		.4byte	.LCFI91
 9367 06ae 34000000 		.4byte	.LFE30
 9368 06b2 0200     		.2byte	0x2
 9369 06b4 77       		.byte	0x77
 9370 06b5 10       		.sleb128 16
 9371 06b6 00000000 		.4byte	0
 9372 06ba 00000000 		.4byte	0
 9373              	.LLST31:
 9374 06be 00000000 		.4byte	.LFB31
 9375 06c2 02000000 		.4byte	.LCFI92
 9376 06c6 0200     		.2byte	0x2
 9377 06c8 7D       		.byte	0x7d
 9378 06c9 00       		.sleb128 0
 9379 06ca 02000000 		.4byte	.LCFI92
 9380 06ce 04000000 		.4byte	.LCFI93
 9381 06d2 0200     		.2byte	0x2
 9382 06d4 7D       		.byte	0x7d
 9383 06d5 04       		.sleb128 4
 9384 06d6 04000000 		.4byte	.LCFI93
 9385 06da 06000000 		.4byte	.LCFI94
 9386 06de 0200     		.2byte	0x2
 9387 06e0 7D       		.byte	0x7d
 9388 06e1 10       		.sleb128 16
 9389 06e2 06000000 		.4byte	.LCFI94
 9390 06e6 20000000 		.4byte	.LFE31
 9391 06ea 0200     		.2byte	0x2
 9392 06ec 77       		.byte	0x77
 9393 06ed 10       		.sleb128 16
 9394 06ee 00000000 		.4byte	0
 9395 06f2 00000000 		.4byte	0
 9396              	.LLST32:
 9397 06f6 00000000 		.4byte	.LFB32
 9398 06fa 02000000 		.4byte	.LCFI95
 9399 06fe 0200     		.2byte	0x2
 9400 0700 7D       		.byte	0x7d
 9401 0701 00       		.sleb128 0
ARM GAS  C:\Users\Brian\AppData\Local\Temp\ccPAhBxt.s 			page 192


 9402 0702 02000000 		.4byte	.LCFI95
 9403 0706 04000000 		.4byte	.LCFI96
 9404 070a 0200     		.2byte	0x2
 9405 070c 7D       		.byte	0x7d
 9406 070d 04       		.sleb128 4
 9407 070e 04000000 		.4byte	.LCFI96
 9408 0712 06000000 		.4byte	.LCFI97
 9409 0716 0200     		.2byte	0x2
 9410 0718 7D       		.byte	0x7d
 9411 0719 10       		.sleb128 16
 9412 071a 06000000 		.4byte	.LCFI97
 9413 071e 48000000 		.4byte	.LFE32
 9414 0722 0200     		.2byte	0x2
 9415 0724 77       		.byte	0x77
 9416 0725 10       		.sleb128 16
 9417 0726 00000000 		.4byte	0
 9418 072a 00000000 		.4byte	0
 9419              	.LLST33:
 9420 072e 00000000 		.4byte	.LFB33
 9421 0732 02000000 		.4byte	.LCFI98
 9422 0736 0200     		.2byte	0x2
 9423 0738 7D       		.byte	0x7d
 9424 0739 00       		.sleb128 0
 9425 073a 02000000 		.4byte	.LCFI98
 9426 073e 04000000 		.4byte	.LCFI99
 9427 0742 0200     		.2byte	0x2
 9428 0744 7D       		.byte	0x7d
 9429 0745 08       		.sleb128 8
 9430 0746 04000000 		.4byte	.LCFI99
 9431 074a 06000000 		.4byte	.LCFI100
 9432 074e 0200     		.2byte	0x2
 9433 0750 7D       		.byte	0x7d
 9434 0751 10       		.sleb128 16
 9435 0752 06000000 		.4byte	.LCFI100
 9436 0756 E8000000 		.4byte	.LFE33
 9437 075a 0200     		.2byte	0x2
 9438 075c 77       		.byte	0x77
 9439 075d 10       		.sleb128 16
 9440 075e 00000000 		.4byte	0
 9441 0762 00000000 		.4byte	0
 9442              	.LLST34:
 9443 0766 00000000 		.4byte	.LFB34
 9444 076a 02000000 		.4byte	.LCFI101
 9445 076e 0200     		.2byte	0x2
 9446 0770 7D       		.byte	0x7d
 9447 0771 00       		.sleb128 0
 9448 0772 02000000 		.4byte	.LCFI101
 9449 0776 04000000 		.4byte	.LCFI102
 9450 077a 0200     		.2byte	0x2
 9451 077c 7D       		.byte	0x7d
 9452 077d 08       		.sleb128 8
 9453 077e 04000000 		.4byte	.LCFI102
 9454 0782 06000000 		.4byte	.LCFI103
 9455 0786 0200     		.2byte	0x2
 9456 0788 7D       		.byte	0x7d
 9457 0789 10       		.sleb128 16
 9458 078a 06000000 		.4byte	.LCFI103
ARM GAS  C:\Users\Brian\AppData\Local\Temp\ccPAhBxt.s 			page 193


 9459 078e 26000000 		.4byte	.LFE34
 9460 0792 0200     		.2byte	0x2
 9461 0794 77       		.byte	0x77
 9462 0795 10       		.sleb128 16
 9463 0796 00000000 		.4byte	0
 9464 079a 00000000 		.4byte	0
 9465              	.LLST35:
 9466 079e 00000000 		.4byte	.LFB35
 9467 07a2 02000000 		.4byte	.LCFI104
 9468 07a6 0200     		.2byte	0x2
 9469 07a8 7D       		.byte	0x7d
 9470 07a9 00       		.sleb128 0
 9471 07aa 02000000 		.4byte	.LCFI104
 9472 07ae 04000000 		.4byte	.LCFI105
 9473 07b2 0200     		.2byte	0x2
 9474 07b4 7D       		.byte	0x7d
 9475 07b5 08       		.sleb128 8
 9476 07b6 04000000 		.4byte	.LCFI105
 9477 07ba 06000000 		.4byte	.LCFI106
 9478 07be 0200     		.2byte	0x2
 9479 07c0 7D       		.byte	0x7d
 9480 07c1 10       		.sleb128 16
 9481 07c2 06000000 		.4byte	.LCFI106
 9482 07c6 26000000 		.4byte	.LFE35
 9483 07ca 0200     		.2byte	0x2
 9484 07cc 77       		.byte	0x77
 9485 07cd 10       		.sleb128 16
 9486 07ce 00000000 		.4byte	0
 9487 07d2 00000000 		.4byte	0
 9488              	.LLST36:
 9489 07d6 00000000 		.4byte	.LFB36
 9490 07da 02000000 		.4byte	.LCFI107
 9491 07de 0200     		.2byte	0x2
 9492 07e0 7D       		.byte	0x7d
 9493 07e1 00       		.sleb128 0
 9494 07e2 02000000 		.4byte	.LCFI107
 9495 07e6 04000000 		.4byte	.LCFI108
 9496 07ea 0200     		.2byte	0x2
 9497 07ec 7D       		.byte	0x7d
 9498 07ed 08       		.sleb128 8
 9499 07ee 04000000 		.4byte	.LCFI108
 9500 07f2 06000000 		.4byte	.LCFI109
 9501 07f6 0200     		.2byte	0x2
 9502 07f8 7D       		.byte	0x7d
 9503 07f9 10       		.sleb128 16
 9504 07fa 06000000 		.4byte	.LCFI109
 9505 07fe 26000000 		.4byte	.LFE36
 9506 0802 0200     		.2byte	0x2
 9507 0804 77       		.byte	0x77
 9508 0805 10       		.sleb128 16
 9509 0806 00000000 		.4byte	0
 9510 080a 00000000 		.4byte	0
 9511              	.LLST37:
 9512 080e 00000000 		.4byte	.LFB37
 9513 0812 02000000 		.4byte	.LCFI110
 9514 0816 0200     		.2byte	0x2
 9515 0818 7D       		.byte	0x7d
ARM GAS  C:\Users\Brian\AppData\Local\Temp\ccPAhBxt.s 			page 194


 9516 0819 00       		.sleb128 0
 9517 081a 02000000 		.4byte	.LCFI110
 9518 081e 04000000 		.4byte	.LCFI111
 9519 0822 0200     		.2byte	0x2
 9520 0824 7D       		.byte	0x7d
 9521 0825 08       		.sleb128 8
 9522 0826 04000000 		.4byte	.LCFI111
 9523 082a 06000000 		.4byte	.LCFI112
 9524 082e 0200     		.2byte	0x2
 9525 0830 7D       		.byte	0x7d
 9526 0831 10       		.sleb128 16
 9527 0832 06000000 		.4byte	.LCFI112
 9528 0836 26000000 		.4byte	.LFE37
 9529 083a 0200     		.2byte	0x2
 9530 083c 77       		.byte	0x77
 9531 083d 10       		.sleb128 16
 9532 083e 00000000 		.4byte	0
 9533 0842 00000000 		.4byte	0
 9534              	.LLST38:
 9535 0846 00000000 		.4byte	.LFB38
 9536 084a 02000000 		.4byte	.LCFI113
 9537 084e 0200     		.2byte	0x2
 9538 0850 7D       		.byte	0x7d
 9539 0851 00       		.sleb128 0
 9540 0852 02000000 		.4byte	.LCFI113
 9541 0856 04000000 		.4byte	.LCFI114
 9542 085a 0200     		.2byte	0x2
 9543 085c 7D       		.byte	0x7d
 9544 085d 08       		.sleb128 8
 9545 085e 04000000 		.4byte	.LCFI114
 9546 0862 06000000 		.4byte	.LCFI115
 9547 0866 0200     		.2byte	0x2
 9548 0868 7D       		.byte	0x7d
 9549 0869 10       		.sleb128 16
 9550 086a 06000000 		.4byte	.LCFI115
 9551 086e 26000000 		.4byte	.LFE38
 9552 0872 0200     		.2byte	0x2
 9553 0874 77       		.byte	0x77
 9554 0875 10       		.sleb128 16
 9555 0876 00000000 		.4byte	0
 9556 087a 00000000 		.4byte	0
 9557              	.LLST39:
 9558 087e 00000000 		.4byte	.LFB39
 9559 0882 02000000 		.4byte	.LCFI116
 9560 0886 0200     		.2byte	0x2
 9561 0888 7D       		.byte	0x7d
 9562 0889 00       		.sleb128 0
 9563 088a 02000000 		.4byte	.LCFI116
 9564 088e 04000000 		.4byte	.LCFI117
 9565 0892 0200     		.2byte	0x2
 9566 0894 7D       		.byte	0x7d
 9567 0895 08       		.sleb128 8
 9568 0896 04000000 		.4byte	.LCFI117
 9569 089a 06000000 		.4byte	.LCFI118
 9570 089e 0200     		.2byte	0x2
 9571 08a0 7D       		.byte	0x7d
 9572 08a1 10       		.sleb128 16
ARM GAS  C:\Users\Brian\AppData\Local\Temp\ccPAhBxt.s 			page 195


 9573 08a2 06000000 		.4byte	.LCFI118
 9574 08a6 26000000 		.4byte	.LFE39
 9575 08aa 0200     		.2byte	0x2
 9576 08ac 77       		.byte	0x77
 9577 08ad 10       		.sleb128 16
 9578 08ae 00000000 		.4byte	0
 9579 08b2 00000000 		.4byte	0
 9580              	.LLST40:
 9581 08b6 00000000 		.4byte	.LFB40
 9582 08ba 02000000 		.4byte	.LCFI119
 9583 08be 0200     		.2byte	0x2
 9584 08c0 7D       		.byte	0x7d
 9585 08c1 00       		.sleb128 0
 9586 08c2 02000000 		.4byte	.LCFI119
 9587 08c6 04000000 		.4byte	.LCFI120
 9588 08ca 0200     		.2byte	0x2
 9589 08cc 7D       		.byte	0x7d
 9590 08cd 08       		.sleb128 8
 9591 08ce 04000000 		.4byte	.LCFI120
 9592 08d2 06000000 		.4byte	.LCFI121
 9593 08d6 0200     		.2byte	0x2
 9594 08d8 7D       		.byte	0x7d
 9595 08d9 10       		.sleb128 16
 9596 08da 06000000 		.4byte	.LCFI121
 9597 08de 0A010000 		.4byte	.LFE40
 9598 08e2 0200     		.2byte	0x2
 9599 08e4 77       		.byte	0x77
 9600 08e5 10       		.sleb128 16
 9601 08e6 00000000 		.4byte	0
 9602 08ea 00000000 		.4byte	0
 9603              	.LLST41:
 9604 08ee 00000000 		.4byte	.LFB41
 9605 08f2 02000000 		.4byte	.LCFI122
 9606 08f6 0200     		.2byte	0x2
 9607 08f8 7D       		.byte	0x7d
 9608 08f9 00       		.sleb128 0
 9609 08fa 02000000 		.4byte	.LCFI122
 9610 08fe 04000000 		.4byte	.LCFI123
 9611 0902 0200     		.2byte	0x2
 9612 0904 7D       		.byte	0x7d
 9613 0905 08       		.sleb128 8
 9614 0906 04000000 		.4byte	.LCFI123
 9615 090a 06000000 		.4byte	.LCFI124
 9616 090e 0200     		.2byte	0x2
 9617 0910 7D       		.byte	0x7d
 9618 0911 10       		.sleb128 16
 9619 0912 06000000 		.4byte	.LCFI124
 9620 0916 4A000000 		.4byte	.LFE41
 9621 091a 0200     		.2byte	0x2
 9622 091c 77       		.byte	0x77
 9623 091d 10       		.sleb128 16
 9624 091e 00000000 		.4byte	0
 9625 0922 00000000 		.4byte	0
 9626              	.LLST42:
 9627 0926 00000000 		.4byte	.LFB42
 9628 092a 02000000 		.4byte	.LCFI125
 9629 092e 0200     		.2byte	0x2
ARM GAS  C:\Users\Brian\AppData\Local\Temp\ccPAhBxt.s 			page 196


 9630 0930 7D       		.byte	0x7d
 9631 0931 00       		.sleb128 0
 9632 0932 02000000 		.4byte	.LCFI125
 9633 0936 04000000 		.4byte	.LCFI126
 9634 093a 0200     		.2byte	0x2
 9635 093c 7D       		.byte	0x7d
 9636 093d 08       		.sleb128 8
 9637 093e 04000000 		.4byte	.LCFI126
 9638 0942 06000000 		.4byte	.LCFI127
 9639 0946 0200     		.2byte	0x2
 9640 0948 7D       		.byte	0x7d
 9641 0949 18       		.sleb128 24
 9642 094a 06000000 		.4byte	.LCFI127
 9643 094e 6C000000 		.4byte	.LFE42
 9644 0952 0200     		.2byte	0x2
 9645 0954 77       		.byte	0x77
 9646 0955 18       		.sleb128 24
 9647 0956 00000000 		.4byte	0
 9648 095a 00000000 		.4byte	0
 9649              	.LLST43:
 9650 095e 00000000 		.4byte	.LFB43
 9651 0962 02000000 		.4byte	.LCFI128
 9652 0966 0200     		.2byte	0x2
 9653 0968 7D       		.byte	0x7d
 9654 0969 00       		.sleb128 0
 9655 096a 02000000 		.4byte	.LCFI128
 9656 096e 04000000 		.4byte	.LCFI129
 9657 0972 0200     		.2byte	0x2
 9658 0974 7D       		.byte	0x7d
 9659 0975 08       		.sleb128 8
 9660 0976 04000000 		.4byte	.LCFI129
 9661 097a 06000000 		.4byte	.LCFI130
 9662 097e 0200     		.2byte	0x2
 9663 0980 7D       		.byte	0x7d
 9664 0981 18       		.sleb128 24
 9665 0982 06000000 		.4byte	.LCFI130
 9666 0986 84000000 		.4byte	.LFE43
 9667 098a 0200     		.2byte	0x2
 9668 098c 77       		.byte	0x77
 9669 098d 18       		.sleb128 24
 9670 098e 00000000 		.4byte	0
 9671 0992 00000000 		.4byte	0
 9672              	.LLST44:
 9673 0996 00000000 		.4byte	.LFB44
 9674 099a 02000000 		.4byte	.LCFI131
 9675 099e 0200     		.2byte	0x2
 9676 09a0 7D       		.byte	0x7d
 9677 09a1 00       		.sleb128 0
 9678 09a2 02000000 		.4byte	.LCFI131
 9679 09a6 04000000 		.4byte	.LCFI132
 9680 09aa 0200     		.2byte	0x2
 9681 09ac 7D       		.byte	0x7d
 9682 09ad 0C       		.sleb128 12
 9683 09ae 04000000 		.4byte	.LCFI132
 9684 09b2 06000000 		.4byte	.LCFI133
 9685 09b6 0200     		.2byte	0x2
 9686 09b8 7D       		.byte	0x7d
ARM GAS  C:\Users\Brian\AppData\Local\Temp\ccPAhBxt.s 			page 197


 9687 09b9 28       		.sleb128 40
 9688 09ba 06000000 		.4byte	.LCFI133
 9689 09be B0000000 		.4byte	.LFE44
 9690 09c2 0200     		.2byte	0x2
 9691 09c4 77       		.byte	0x77
 9692 09c5 28       		.sleb128 40
 9693 09c6 00000000 		.4byte	0
 9694 09ca 00000000 		.4byte	0
 9695              	.LLST45:
 9696 09ce 00000000 		.4byte	.LFB45
 9697 09d2 02000000 		.4byte	.LCFI134
 9698 09d6 0200     		.2byte	0x2
 9699 09d8 7D       		.byte	0x7d
 9700 09d9 00       		.sleb128 0
 9701 09da 02000000 		.4byte	.LCFI134
 9702 09de 04000000 		.4byte	.LCFI135
 9703 09e2 0200     		.2byte	0x2
 9704 09e4 7D       		.byte	0x7d
 9705 09e5 08       		.sleb128 8
 9706 09e6 04000000 		.4byte	.LCFI135
 9707 09ea 06000000 		.4byte	.LCFI136
 9708 09ee 0200     		.2byte	0x2
 9709 09f0 7D       		.byte	0x7d
 9710 09f1 10       		.sleb128 16
 9711 09f2 06000000 		.4byte	.LCFI136
 9712 09f6 38000000 		.4byte	.LFE45
 9713 09fa 0200     		.2byte	0x2
 9714 09fc 77       		.byte	0x77
 9715 09fd 10       		.sleb128 16
 9716 09fe 00000000 		.4byte	0
 9717 0a02 00000000 		.4byte	0
 9718              	.LLST46:
 9719 0a06 00000000 		.4byte	.LFB46
 9720 0a0a 02000000 		.4byte	.LCFI137
 9721 0a0e 0200     		.2byte	0x2
 9722 0a10 7D       		.byte	0x7d
 9723 0a11 00       		.sleb128 0
 9724 0a12 02000000 		.4byte	.LCFI137
 9725 0a16 04000000 		.4byte	.LCFI138
 9726 0a1a 0200     		.2byte	0x2
 9727 0a1c 7D       		.byte	0x7d
 9728 0a1d 08       		.sleb128 8
 9729 0a1e 04000000 		.4byte	.LCFI138
 9730 0a22 3A000000 		.4byte	.LFE46
 9731 0a26 0200     		.2byte	0x2
 9732 0a28 77       		.byte	0x77
 9733 0a29 08       		.sleb128 8
 9734 0a2a 00000000 		.4byte	0
 9735 0a2e 00000000 		.4byte	0
 9736              	.LLST47:
 9737 0a32 00000000 		.4byte	.LFB47
 9738 0a36 02000000 		.4byte	.LCFI139
 9739 0a3a 0200     		.2byte	0x2
 9740 0a3c 7D       		.byte	0x7d
 9741 0a3d 00       		.sleb128 0
 9742 0a3e 02000000 		.4byte	.LCFI139
 9743 0a42 04000000 		.4byte	.LCFI140
ARM GAS  C:\Users\Brian\AppData\Local\Temp\ccPAhBxt.s 			page 198


 9744 0a46 0200     		.2byte	0x2
 9745 0a48 7D       		.byte	0x7d
 9746 0a49 08       		.sleb128 8
 9747 0a4a 04000000 		.4byte	.LCFI140
 9748 0a4e 06000000 		.4byte	.LCFI141
 9749 0a52 0200     		.2byte	0x2
 9750 0a54 7D       		.byte	0x7d
 9751 0a55 10       		.sleb128 16
 9752 0a56 06000000 		.4byte	.LCFI141
 9753 0a5a 30000000 		.4byte	.LFE47
 9754 0a5e 0200     		.2byte	0x2
 9755 0a60 77       		.byte	0x77
 9756 0a61 10       		.sleb128 16
 9757 0a62 00000000 		.4byte	0
 9758 0a66 00000000 		.4byte	0
 9759              	.LLST48:
 9760 0a6a 00000000 		.4byte	.LFB48
 9761 0a6e 02000000 		.4byte	.LCFI142
 9762 0a72 0200     		.2byte	0x2
 9763 0a74 7D       		.byte	0x7d
 9764 0a75 00       		.sleb128 0
 9765 0a76 02000000 		.4byte	.LCFI142
 9766 0a7a 04000000 		.4byte	.LCFI143
 9767 0a7e 0200     		.2byte	0x2
 9768 0a80 7D       		.byte	0x7d
 9769 0a81 08       		.sleb128 8
 9770 0a82 04000000 		.4byte	.LCFI143
 9771 0a86 20000000 		.4byte	.LFE48
 9772 0a8a 0200     		.2byte	0x2
 9773 0a8c 77       		.byte	0x77
 9774 0a8d 08       		.sleb128 8
 9775 0a8e 00000000 		.4byte	0
 9776 0a92 00000000 		.4byte	0
 9777              	.LLST49:
 9778 0a96 00000000 		.4byte	.LFB49
 9779 0a9a 02000000 		.4byte	.LCFI144
 9780 0a9e 0200     		.2byte	0x2
 9781 0aa0 7D       		.byte	0x7d
 9782 0aa1 00       		.sleb128 0
 9783 0aa2 02000000 		.4byte	.LCFI144
 9784 0aa6 04000000 		.4byte	.LCFI145
 9785 0aaa 0200     		.2byte	0x2
 9786 0aac 7D       		.byte	0x7d
 9787 0aad 08       		.sleb128 8
 9788 0aae 04000000 		.4byte	.LCFI145
 9789 0ab2 12000000 		.4byte	.LFE49
 9790 0ab6 0200     		.2byte	0x2
 9791 0ab8 77       		.byte	0x77
 9792 0ab9 08       		.sleb128 8
 9793 0aba 00000000 		.4byte	0
 9794 0abe 00000000 		.4byte	0
 9795              	.LLST50:
 9796 0ac2 00000000 		.4byte	.LFB50
 9797 0ac6 02000000 		.4byte	.LCFI146
 9798 0aca 0200     		.2byte	0x2
 9799 0acc 7D       		.byte	0x7d
 9800 0acd 00       		.sleb128 0
ARM GAS  C:\Users\Brian\AppData\Local\Temp\ccPAhBxt.s 			page 199


 9801 0ace 02000000 		.4byte	.LCFI146
 9802 0ad2 04000000 		.4byte	.LCFI147
 9803 0ad6 0200     		.2byte	0x2
 9804 0ad8 7D       		.byte	0x7d
 9805 0ad9 04       		.sleb128 4
 9806 0ada 04000000 		.4byte	.LCFI147
 9807 0ade 06000000 		.4byte	.LCFI148
 9808 0ae2 0200     		.2byte	0x2
 9809 0ae4 7D       		.byte	0x7d
 9810 0ae5 18       		.sleb128 24
 9811 0ae6 06000000 		.4byte	.LCFI148
 9812 0aea 20000000 		.4byte	.LFE50
 9813 0aee 0200     		.2byte	0x2
 9814 0af0 77       		.byte	0x77
 9815 0af1 18       		.sleb128 24
 9816 0af2 00000000 		.4byte	0
 9817 0af6 00000000 		.4byte	0
 9818              		.section	.debug_aranges,"",%progbits
 9819 0000 AC010000 		.4byte	0x1ac
 9820 0004 0200     		.2byte	0x2
 9821 0006 00000000 		.4byte	.Ldebug_info0
 9822 000a 04       		.byte	0x4
 9823 000b 00       		.byte	0
 9824 000c 0000     		.2byte	0
 9825 000e 0000     		.2byte	0
 9826 0010 00000000 		.4byte	.LFB0
 9827 0014 48030000 		.4byte	.LFE0-.LFB0
 9828 0018 00000000 		.4byte	.LFB1
 9829 001c 2E000000 		.4byte	.LFE1-.LFB1
 9830 0020 00000000 		.4byte	.LFB2
 9831 0024 36000000 		.4byte	.LFE2-.LFB2
 9832 0028 00000000 		.4byte	.LFB3
 9833 002c 2E000000 		.4byte	.LFE3-.LFB3
 9834 0030 00000000 		.4byte	.LFB4
 9835 0034 4E000000 		.4byte	.LFE4-.LFB4
 9836 0038 00000000 		.4byte	.LFB5
 9837 003c 18010000 		.4byte	.LFE5-.LFB5
 9838 0040 00000000 		.4byte	.LFB6
 9839 0044 3E000000 		.4byte	.LFE6-.LFB6
 9840 0048 00000000 		.4byte	.LFB7
 9841 004c 2E000000 		.4byte	.LFE7-.LFB7
 9842 0050 00000000 		.4byte	.LFB8
 9843 0054 3C000000 		.4byte	.LFE8-.LFB8
 9844 0058 00000000 		.4byte	.LFB9
 9845 005c 26000000 		.4byte	.LFE9-.LFB9
 9846 0060 00000000 		.4byte	.LFB10
 9847 0064 26000000 		.4byte	.LFE10-.LFB10
 9848 0068 00000000 		.4byte	.LFB11
 9849 006c 1A000000 		.4byte	.LFE11-.LFB11
 9850 0070 00000000 		.4byte	.LFB12
 9851 0074 7A000000 		.4byte	.LFE12-.LFB12
 9852 0078 00000000 		.4byte	.LFB13
 9853 007c 32000000 		.4byte	.LFE13-.LFB13
 9854 0080 00000000 		.4byte	.LFB14
 9855 0084 C8010000 		.4byte	.LFE14-.LFB14
 9856 0088 00000000 		.4byte	.LFB15
 9857 008c 6C000000 		.4byte	.LFE15-.LFB15
ARM GAS  C:\Users\Brian\AppData\Local\Temp\ccPAhBxt.s 			page 200


 9858 0090 00000000 		.4byte	.LFB16
 9859 0094 CA010000 		.4byte	.LFE16-.LFB16
 9860 0098 00000000 		.4byte	.LFB17
 9861 009c 9E010000 		.4byte	.LFE17-.LFB17
 9862 00a0 00000000 		.4byte	.LFB18
 9863 00a4 58000000 		.4byte	.LFE18-.LFB18
 9864 00a8 00000000 		.4byte	.LFB19
 9865 00ac 4E010000 		.4byte	.LFE19-.LFB19
 9866 00b0 00000000 		.4byte	.LFB20
 9867 00b4 5E000000 		.4byte	.LFE20-.LFB20
 9868 00b8 00000000 		.4byte	.LFB21
 9869 00bc 06020000 		.4byte	.LFE21-.LFB21
 9870 00c0 00000000 		.4byte	.LFB22
 9871 00c4 BA010000 		.4byte	.LFE22-.LFB22
 9872 00c8 00000000 		.4byte	.LFB23
 9873 00cc F8000000 		.4byte	.LFE23-.LFB23
 9874 00d0 00000000 		.4byte	.LFB24
 9875 00d4 3E000000 		.4byte	.LFE24-.LFB24
 9876 00d8 00000000 		.4byte	.LFB25
 9877 00dc 6A010000 		.4byte	.LFE25-.LFB25
 9878 00e0 00000000 		.4byte	.LFB26
 9879 00e4 FC000000 		.4byte	.LFE26-.LFB26
 9880 00e8 00000000 		.4byte	.LFB27
 9881 00ec 38020000 		.4byte	.LFE27-.LFB27
 9882 00f0 00000000 		.4byte	.LFB28
 9883 00f4 30000000 		.4byte	.LFE28-.LFB28
 9884 00f8 00000000 		.4byte	.LFB29
 9885 00fc 2C000000 		.4byte	.LFE29-.LFB29
 9886 0100 00000000 		.4byte	.LFB30
 9887 0104 34000000 		.4byte	.LFE30-.LFB30
 9888 0108 00000000 		.4byte	.LFB31
 9889 010c 20000000 		.4byte	.LFE31-.LFB31
 9890 0110 00000000 		.4byte	.LFB32
 9891 0114 48000000 		.4byte	.LFE32-.LFB32
 9892 0118 00000000 		.4byte	.LFB33
 9893 011c E8000000 		.4byte	.LFE33-.LFB33
 9894 0120 00000000 		.4byte	.LFB34
 9895 0124 26000000 		.4byte	.LFE34-.LFB34
 9896 0128 00000000 		.4byte	.LFB35
 9897 012c 26000000 		.4byte	.LFE35-.LFB35
 9898 0130 00000000 		.4byte	.LFB36
 9899 0134 26000000 		.4byte	.LFE36-.LFB36
 9900 0138 00000000 		.4byte	.LFB37
 9901 013c 26000000 		.4byte	.LFE37-.LFB37
 9902 0140 00000000 		.4byte	.LFB38
 9903 0144 26000000 		.4byte	.LFE38-.LFB38
 9904 0148 00000000 		.4byte	.LFB39
 9905 014c 26000000 		.4byte	.LFE39-.LFB39
 9906 0150 00000000 		.4byte	.LFB40
 9907 0154 0A010000 		.4byte	.LFE40-.LFB40
 9908 0158 00000000 		.4byte	.LFB41
 9909 015c 4A000000 		.4byte	.LFE41-.LFB41
 9910 0160 00000000 		.4byte	.LFB42
 9911 0164 6C000000 		.4byte	.LFE42-.LFB42
 9912 0168 00000000 		.4byte	.LFB43
 9913 016c 84000000 		.4byte	.LFE43-.LFB43
 9914 0170 00000000 		.4byte	.LFB44
ARM GAS  C:\Users\Brian\AppData\Local\Temp\ccPAhBxt.s 			page 201


 9915 0174 B0000000 		.4byte	.LFE44-.LFB44
 9916 0178 00000000 		.4byte	.LFB45
 9917 017c 38000000 		.4byte	.LFE45-.LFB45
 9918 0180 00000000 		.4byte	.LFB46
 9919 0184 3A000000 		.4byte	.LFE46-.LFB46
 9920 0188 00000000 		.4byte	.LFB47
 9921 018c 30000000 		.4byte	.LFE47-.LFB47
 9922 0190 00000000 		.4byte	.LFB48
 9923 0194 20000000 		.4byte	.LFE48-.LFB48
 9924 0198 00000000 		.4byte	.LFB49
 9925 019c 12000000 		.4byte	.LFE49-.LFB49
 9926 01a0 00000000 		.4byte	.LFB50
 9927 01a4 20000000 		.4byte	.LFE50-.LFB50
 9928 01a8 00000000 		.4byte	0
 9929 01ac 00000000 		.4byte	0
 9930              		.section	.debug_ranges,"",%progbits
 9931              	.Ldebug_ranges0:
 9932 0000 00000000 		.4byte	.LFB0
 9933 0004 48030000 		.4byte	.LFE0
 9934 0008 00000000 		.4byte	.LFB1
 9935 000c 2E000000 		.4byte	.LFE1
 9936 0010 00000000 		.4byte	.LFB2
 9937 0014 36000000 		.4byte	.LFE2
 9938 0018 00000000 		.4byte	.LFB3
 9939 001c 2E000000 		.4byte	.LFE3
 9940 0020 00000000 		.4byte	.LFB4
 9941 0024 4E000000 		.4byte	.LFE4
 9942 0028 00000000 		.4byte	.LFB5
 9943 002c 18010000 		.4byte	.LFE5
 9944 0030 00000000 		.4byte	.LFB6
 9945 0034 3E000000 		.4byte	.LFE6
 9946 0038 00000000 		.4byte	.LFB7
 9947 003c 2E000000 		.4byte	.LFE7
 9948 0040 00000000 		.4byte	.LFB8
 9949 0044 3C000000 		.4byte	.LFE8
 9950 0048 00000000 		.4byte	.LFB9
 9951 004c 26000000 		.4byte	.LFE9
 9952 0050 00000000 		.4byte	.LFB10
 9953 0054 26000000 		.4byte	.LFE10
 9954 0058 00000000 		.4byte	.LFB11
 9955 005c 1A000000 		.4byte	.LFE11
 9956 0060 00000000 		.4byte	.LFB12
 9957 0064 7A000000 		.4byte	.LFE12
 9958 0068 00000000 		.4byte	.LFB13
 9959 006c 32000000 		.4byte	.LFE13
 9960 0070 00000000 		.4byte	.LFB14
 9961 0074 C8010000 		.4byte	.LFE14
 9962 0078 00000000 		.4byte	.LFB15
 9963 007c 6C000000 		.4byte	.LFE15
 9964 0080 00000000 		.4byte	.LFB16
 9965 0084 CA010000 		.4byte	.LFE16
 9966 0088 00000000 		.4byte	.LFB17
 9967 008c 9E010000 		.4byte	.LFE17
 9968 0090 00000000 		.4byte	.LFB18
 9969 0094 58000000 		.4byte	.LFE18
 9970 0098 00000000 		.4byte	.LFB19
 9971 009c 4E010000 		.4byte	.LFE19
ARM GAS  C:\Users\Brian\AppData\Local\Temp\ccPAhBxt.s 			page 202


 9972 00a0 00000000 		.4byte	.LFB20
 9973 00a4 5E000000 		.4byte	.LFE20
 9974 00a8 00000000 		.4byte	.LFB21
 9975 00ac 06020000 		.4byte	.LFE21
 9976 00b0 00000000 		.4byte	.LFB22
 9977 00b4 BA010000 		.4byte	.LFE22
 9978 00b8 00000000 		.4byte	.LFB23
 9979 00bc F8000000 		.4byte	.LFE23
 9980 00c0 00000000 		.4byte	.LFB24
 9981 00c4 3E000000 		.4byte	.LFE24
 9982 00c8 00000000 		.4byte	.LFB25
 9983 00cc 6A010000 		.4byte	.LFE25
 9984 00d0 00000000 		.4byte	.LFB26
 9985 00d4 FC000000 		.4byte	.LFE26
 9986 00d8 00000000 		.4byte	.LFB27
 9987 00dc 38020000 		.4byte	.LFE27
 9988 00e0 00000000 		.4byte	.LFB28
 9989 00e4 30000000 		.4byte	.LFE28
 9990 00e8 00000000 		.4byte	.LFB29
 9991 00ec 2C000000 		.4byte	.LFE29
 9992 00f0 00000000 		.4byte	.LFB30
 9993 00f4 34000000 		.4byte	.LFE30
 9994 00f8 00000000 		.4byte	.LFB31
 9995 00fc 20000000 		.4byte	.LFE31
 9996 0100 00000000 		.4byte	.LFB32
 9997 0104 48000000 		.4byte	.LFE32
 9998 0108 00000000 		.4byte	.LFB33
 9999 010c E8000000 		.4byte	.LFE33
 10000 0110 00000000 		.4byte	.LFB34
 10001 0114 26000000 		.4byte	.LFE34
 10002 0118 00000000 		.4byte	.LFB35
 10003 011c 26000000 		.4byte	.LFE35
 10004 0120 00000000 		.4byte	.LFB36
 10005 0124 26000000 		.4byte	.LFE36
 10006 0128 00000000 		.4byte	.LFB37
 10007 012c 26000000 		.4byte	.LFE37
 10008 0130 00000000 		.4byte	.LFB38
 10009 0134 26000000 		.4byte	.LFE38
 10010 0138 00000000 		.4byte	.LFB39
 10011 013c 26000000 		.4byte	.LFE39
 10012 0140 00000000 		.4byte	.LFB40
 10013 0144 0A010000 		.4byte	.LFE40
 10014 0148 00000000 		.4byte	.LFB41
 10015 014c 4A000000 		.4byte	.LFE41
 10016 0150 00000000 		.4byte	.LFB42
 10017 0154 6C000000 		.4byte	.LFE42
 10018 0158 00000000 		.4byte	.LFB43
 10019 015c 84000000 		.4byte	.LFE43
 10020 0160 00000000 		.4byte	.LFB44
 10021 0164 B0000000 		.4byte	.LFE44
 10022 0168 00000000 		.4byte	.LFB45
 10023 016c 38000000 		.4byte	.LFE45
 10024 0170 00000000 		.4byte	.LFB46
 10025 0174 3A000000 		.4byte	.LFE46
 10026 0178 00000000 		.4byte	.LFB47
 10027 017c 30000000 		.4byte	.LFE47
 10028 0180 00000000 		.4byte	.LFB48
ARM GAS  C:\Users\Brian\AppData\Local\Temp\ccPAhBxt.s 			page 203


 10029 0184 20000000 		.4byte	.LFE48
 10030 0188 00000000 		.4byte	.LFB49
 10031 018c 12000000 		.4byte	.LFE49
 10032 0190 00000000 		.4byte	.LFB50
 10033 0194 20000000 		.4byte	.LFE50
 10034 0198 00000000 		.4byte	0
 10035 019c 00000000 		.4byte	0
 10036              		.section	.debug_line,"",%progbits
 10037              	.Ldebug_line0:
 10038 0000 BD070000 		.section	.debug_str,"MS",%progbits,1
 10038      02000101 
 10038      00000201 
 10038      FB0E0D00 
 10038      01010101 
 10039              	.LASF63:
 10040 0000 6C617374 		.ascii	"last\000"
 10040      00
 10041              	.LASF105:
 10042 0005 54465453 		.ascii	"TFTSHIELD_1_ReadRegister16\000"
 10042      4849454C 
 10042      445F315F 
 10042      52656164 
 10042      52656769 
 10043              	.LASF120:
 10044 0020 54465453 		.ascii	"TFTSHIELD_1_swap\000"
 10044      4849454C 
 10044      445F315F 
 10044      73776170 
 10044      00
 10045              	.LASF89:
 10046 0031 54465453 		.ascii	"TFTSHIELD_1_SetTextColor\000"
 10046      4849454C 
 10046      445F315F 
 10046      53657454 
 10046      65787443 
 10047              	.LASF106:
 10048 004a 6F757470 		.ascii	"output\000"
 10048      757400
 10049              	.LASF24:
 10050 0051 54465453 		.ascii	"TFTSHIELD_1_GotoXY\000"
 10050      4849454C 
 10050      445F315F 
 10050      476F746F 
 10050      585900
 10051              	.LASF20:
 10052 0064 506F735F 		.ascii	"Pos_X\000"
 10052      5800
 10053              	.LASF21:
 10054 006a 506F735F 		.ascii	"Pos_Y\000"
 10054      5900
 10055              	.LASF64:
 10056 0070 64783031 		.ascii	"dx01\000"
 10056      00
 10057              	.LASF66:
 10058 0075 64783032 		.ascii	"dx02\000"
 10058      00
 10059              	.LASF37:
ARM GAS  C:\Users\Brian\AppData\Local\Temp\ccPAhBxt.s 			page 204


 10060 007a 54465453 		.ascii	"TFTSHIELD_1_SendData\000"
 10060      4849454C 
 10060      445F315F 
 10060      53656E64 
 10060      44617461 
 10061              	.LASF90:
 10062 008f 54465453 		.ascii	"TFTSHIELD_1_SetTextWrap\000"
 10062      4849454C 
 10062      445F315F 
 10062      53657454 
 10062      65787457 
 10063              	.LASF12:
 10064 00a7 756E7369 		.ascii	"unsigned int\000"
 10064      676E6564 
 10064      20696E74 
 10064      00
 10065              	.LASF113:
 10066 00b4 54465453 		.ascii	"TFTSHIELD_1_Start\000"
 10066      4849454C 
 10066      445F315F 
 10066      53746172 
 10066      7400
 10067              	.LASF97:
 10068 00c6 54465453 		.ascii	"TFTSHIELD_1_DC_HIGH\000"
 10068      4849454C 
 10068      445F315F 
 10068      44435F48 
 10068      49474800 
 10069              	.LASF109:
 10070 00da 54465453 		.ascii	"TFTSHIELD_1_ReadRegister8\000"
 10070      4849454C 
 10070      445F315F 
 10070      52656164 
 10070      52656769 
 10071              	.LASF68:
 10072 00f4 64783132 		.ascii	"dx12\000"
 10072      00
 10073              	.LASF23:
 10074 00f9 54465453 		.ascii	"TFTSHIELD_1_SetPixel\000"
 10074      4849454C 
 10074      445F315F 
 10074      53657450 
 10074      6978656C 
 10075              	.LASF29:
 10076 010e 54465453 		.ascii	"TFTSHIELD_1_FillRect\000"
 10076      4849454C 
 10076      445F315F 
 10076      46696C6C 
 10076      52656374 
 10077              	.LASF117:
 10078 0123 746F7563 		.ascii	"touch_final\000"
 10078      685F6669 
 10078      6E616C00 
 10079              	.LASF126:
 10080 012f 726F7461 		.ascii	"rotation\000"
 10080      74696F6E 
 10080      00
ARM GAS  C:\Users\Brian\AppData\Local\Temp\ccPAhBxt.s 			page 205


 10081              	.LASF107:
 10082 0138 54465453 		.ascii	"TFTSHIELD_1_SPIM_1_GetRxBufferSize\000"
 10082      4849454C 
 10082      445F315F 
 10082      5350494D 
 10082      5F315F47 
 10083              	.LASF0:
 10084 015b 696E7438 		.ascii	"int8_t\000"
 10084      5F7400
 10085              	.LASF15:
 10086 0162 666C6F61 		.ascii	"float\000"
 10086      7400
 10087              	.LASF83:
 10088 0168 54465453 		.ascii	"TFTSHIELD_1_Write\000"
 10088      4849454C 
 10088      445F315F 
 10088      57726974 
 10088      6500
 10089              	.LASF102:
 10090 017a 54465453 		.ascii	"TFTSHIELD_1_SPIM_1_Start\000"
 10090      4849454C 
 10090      445F315F 
 10090      5350494D 
 10090      5F315F53 
 10091              	.LASF121:
 10092 0193 63757273 		.ascii	"cursor_x\000"
 10092      6F725F78 
 10092      00
 10093              	.LASF43:
 10094 019c 696E6465 		.ascii	"index\000"
 10094      7800
 10095              	.LASF95:
 10096 01a2 54465453 		.ascii	"TFTSHIELD_1_CS_HIGH\000"
 10096      4849454C 
 10096      445F315F 
 10096      43535F48 
 10096      49474800 
 10097              	.LASF125:
 10098 01b6 74657874 		.ascii	"textsize\000"
 10098      73697A65 
 10098      00
 10099              	.LASF4:
 10100 01bf 696E7431 		.ascii	"int16_t\000"
 10100      365F7400 
 10101              	.LASF80:
 10102 01c7 6C696E65 		.ascii	"line_width\000"
 10102      5F776964 
 10102      746800
 10103              	.LASF11:
 10104 01d2 6C6F6E67 		.ascii	"long long unsigned int\000"
 10104      206C6F6E 
 10104      6720756E 
 10104      7369676E 
 10104      65642069 
 10105              	.LASF118:
 10106 01e9 54465453 		.ascii	"TFTSHIELD_1_BufferEmpty\000"
 10106      4849454C 
ARM GAS  C:\Users\Brian\AppData\Local\Temp\ccPAhBxt.s 			page 206


 10106      445F315F 
 10106      42756666 
 10106      6572456D 
 10107              	.LASF87:
 10108 0201 54465453 		.ascii	"TFTSHIELD_1_SetCursor\000"
 10108      4849454C 
 10108      445F315F 
 10108      53657443 
 10108      7572736F 
 10109              	.LASF81:
 10110 0217 73706163 		.ascii	"space_left\000"
 10110      655F6C65 
 10110      667400
 10111              	.LASF75:
 10112 0222 696E6465 		.ascii	"indexU8\000"
 10112      78553800 
 10113              	.LASF91:
 10114 022a 54465453 		.ascii	"TFTSHIELD_1_SetRotation\000"
 10114      4849454C 
 10114      445F315F 
 10114      53657452 
 10114      6F746174 
 10115              	.LASF42:
 10116 0242 4C656E67 		.ascii	"Length\000"
 10116      746800
 10117              	.LASF38:
 10118 0249 54465453 		.ascii	"TFTSHIELD_1_SendCmd\000"
 10118      4849454C 
 10118      445F315F 
 10118      53656E64 
 10118      436D6400 
 10119              	.LASF84:
 10120 025d 54465453 		.ascii	"TFTSHIELD_1_DrawChar\000"
 10120      4849454C 
 10120      445F315F 
 10120      44726177 
 10120      43686172 
 10121              	.LASF103:
 10122 0272 5F426F6F 		.ascii	"_Bool\000"
 10122      6C00
 10123              	.LASF44:
 10124 0278 54465453 		.ascii	"TFTSHIELD_1_DrawHLine\000"
 10124      4849454C 
 10124      445F315F 
 10124      44726177 
 10124      484C696E 
 10125              	.LASF46:
 10126 028e 64786162 		.ascii	"dxabs\000"
 10126      7300
 10127              	.LASF61:
 10128 0294 54465453 		.ascii	"TFTSHIELD_1DrawLine\000"
 10128      4849454C 
 10128      445F3144 
 10128      7261774C 
 10128      696E6500 
 10129              	.LASF18:
 10130 02a8 63686172 		.ascii	"char\000"
ARM GAS  C:\Users\Brian\AppData\Local\Temp\ccPAhBxt.s 			page 207


 10130      00
 10131              	.LASF108:
 10132 02ad 54465453 		.ascii	"TFTSHIELD_1_SPIM_1_ReadRxData\000"
 10132      4849454C 
 10132      445F315F 
 10132      5350494D 
 10132      5F315F52 
 10133              	.LASF53:
 10134 02cb 54465453 		.ascii	"TFTSHIELD_1_DrawCircleHelper\000"
 10134      4849454C 
 10134      445F315F 
 10134      44726177 
 10134      43697263 
 10135              	.LASF33:
 10136 02e8 53746172 		.ascii	"Start_Col\000"
 10136      745F436F 
 10136      6C00
 10137              	.LASF74:
 10138 02f2 73747269 		.ascii	"string\000"
 10138      6E6700
 10139              	.LASF14:
 10140 02f9 75696E74 		.ascii	"uint16\000"
 10140      313600
 10141              	.LASF111:
 10142 0300 64617461 		.ascii	"data\000"
 10142      00
 10143              	.LASF34:
 10144 0305 456E645F 		.ascii	"End_Col\000"
 10144      436F6C00 
 10145              	.LASF65:
 10146 030d 64793031 		.ascii	"dy01\000"
 10146      00
 10147              	.LASF67:
 10148 0312 64793032 		.ascii	"dy02\000"
 10148      00
 10149              	.LASF1:
 10150 0317 75696E74 		.ascii	"uint8_t\000"
 10150      385F7400 
 10151              	.LASF56:
 10152 031f 54465453 		.ascii	"TFTSHIELD_1_Set\000"
 10152      4849454C 
 10152      445F315F 
 10152      53657400 
 10153              	.LASF17:
 10154 032f 63686172 		.ascii	"char8\000"
 10154      3800
 10155              	.LASF116:
 10156 0335 746F7563 		.ascii	"touch\000"
 10156      6800
 10157              	.LASF132:
 10158 033b 2E5C4765 		.ascii	".\\Generated_Source\\PSoC5\\TFTSHIELD_1.c\000"
 10158      6E657261 
 10158      7465645F 
 10158      536F7572 
 10158      63655C50 
 10159              	.LASF41:
 10160 0362 54465453 		.ascii	"TFTSHIELD_1_DrawVLine\000"
ARM GAS  C:\Users\Brian\AppData\Local\Temp\ccPAhBxt.s 			page 208


 10160      4849454C 
 10160      445F315F 
 10160      44726177 
 10160      564C696E 
 10161              	.LASF70:
 10162 0378 73776170 		.ascii	"swap\000"
 10162      00
 10163              	.LASF57:
 10164 037d 54465453 		.ascii	"TFTSHIELD_1_FillCircle\000"
 10164      4849454C 
 10164      445F315F 
 10164      46696C6C 
 10164      43697263 
 10165              	.LASF40:
 10166 0394 64617461 		.ascii	"data8\000"
 10166      3800
 10167              	.LASF10:
 10168 039a 6C6F6E67 		.ascii	"long long int\000"
 10168      206C6F6E 
 10168      6720696E 
 10168      7400
 10169              	.LASF35:
 10170 03a8 54465453 		.ascii	"TFTSHIELD_1_SendData16\000"
 10170      4849454C 
 10170      445F315F 
 10170      53656E64 
 10170      44617461 
 10171              	.LASF99:
 10172 03bf 54465453 		.ascii	"TFTSHIELD_1_RT_CS_HIGH\000"
 10172      4849454C 
 10172      445F315F 
 10172      52545F43 
 10172      535F4849 
 10173              	.LASF69:
 10174 03d6 64793132 		.ascii	"dy12\000"
 10174      00
 10175              	.LASF129:
 10176 03db 5F686569 		.ascii	"_height\000"
 10176      67687400 
 10177              	.LASF48:
 10178 03e3 736C6F70 		.ascii	"slope\000"
 10178      6500
 10179              	.LASF36:
 10180 03e9 44617461 		.ascii	"Data16\000"
 10180      313600
 10181              	.LASF85:
 10182 03f0 73697A65 		.ascii	"size\000"
 10182      00
 10183              	.LASF28:
 10184 03f5 54465453 		.ascii	"TFTSHIELD_1_SetAddrWindow\000"
 10184      4849454C 
 10184      445F315F 
 10184      53657441 
 10184      64647257 
 10185              	.LASF133:
 10186 040f 433A5C55 		.ascii	"C:\\Users\\Brian\\Dropbox\\RPiSoC\\Projects\\tft_te"
 10186      73657273 
ARM GAS  C:\Users\Brian\AppData\Local\Temp\ccPAhBxt.s 			page 209


 10186      5C427269 
 10186      616E5C44 
 10186      726F7062 
 10187 043c 73742E42 		.ascii	"st.Bundle01_Rev_b - touch\\tft_test.cydsn\000"
 10187      756E646C 
 10187      6530315F 
 10187      5265765F 
 10187      62202D20 
 10188              	.LASF104:
 10189 0465 54465453 		.ascii	"TFTSHIELD_1_WriteRegister8\000"
 10189      4849454C 
 10189      445F315F 
 10189      57726974 
 10189      65526567 
 10190              	.LASF31:
 10191 0480 54465453 		.ascii	"TFTSHIELD_1_FillScreen\000"
 10191      4849454C 
 10191      445F315F 
 10191      46696C6C 
 10191      53637265 
 10192              	.LASF55:
 10193 0497 54465453 		.ascii	"TFTSHIELD_1_SPIM_1_WriteTxData\000"
 10193      4849454C 
 10193      445F315F 
 10193      5350494D 
 10193      5F315F57 
 10194              	.LASF62:
 10195 04b6 54465453 		.ascii	"TFTSHIELD_1_FillTriangle\000"
 10195      4849454C 
 10195      445F315F 
 10195      46696C6C 
 10195      54726961 
 10196              	.LASF6:
 10197 04cf 75696E74 		.ascii	"uint16_t\000"
 10197      31365F74 
 10197      00
 10198              	.LASF114:
 10199 04d8 54465453 		.ascii	"TFTSHIELD_1_ResetBuffer\000"
 10199      4849454C 
 10199      445F315F 
 10199      52657365 
 10199      74427566 
 10200              	.LASF26:
 10201 04f0 53746172 		.ascii	"Start_Page\000"
 10201      745F5061 
 10201      676500
 10202              	.LASF60:
 10203 04fb 54465453 		.ascii	"TFTSHIELD_1_DrawTriangle\000"
 10203      4849454C 
 10203      445F315F 
 10203      44726177 
 10203      54726961 
 10204              	.LASF5:
 10205 0514 73686F72 		.ascii	"short int\000"
 10205      7420696E 
 10205      7400
 10206              	.LASF94:
ARM GAS  C:\Users\Brian\AppData\Local\Temp\ccPAhBxt.s 			page 210


 10207 051e 54465453 		.ascii	"TFTSHIELD_1_CR_1_Write\000"
 10207      4849454C 
 10207      445F315F 
 10207      43525F31 
 10207      5F577269 
 10208              	.LASF8:
 10209 0535 6C6F6E67 		.ascii	"long int\000"
 10209      20696E74 
 10209      00
 10210              	.LASF78:
 10211 053e 74656D70 		.ascii	"temp\000"
 10211      00
 10212              	.LASF30:
 10213 0543 636F6C6F 		.ascii	"color\000"
 10213      7200
 10214              	.LASF79:
 10215 0549 776F7264 		.ascii	"word\000"
 10215      00
 10216              	.LASF77:
 10217 054e 54465453 		.ascii	"TFTSHIELD_1_PrintString\000"
 10217      4849454C 
 10217      445F315F 
 10217      5072696E 
 10217      74537472 
 10218              	.LASF130:
 10219 0566 666F6E74 		.ascii	"fontA\000"
 10219      4100
 10220              	.LASF128:
 10221 056c 5F776964 		.ascii	"_width\000"
 10221      746800
 10222              	.LASF72:
 10223 0573 54465453 		.ascii	"TFTSHIELD_1_FillRoundRect\000"
 10223      4849454C 
 10223      445F315F 
 10223      46696C6C 
 10223      526F756E 
 10224              	.LASF45:
 10225 058d 54465453 		.ascii	"TFTSHIELD_1_DrawLine\000"
 10225      4849454C 
 10225      445F315F 
 10225      44726177 
 10225      4C696E65 
 10226              	.LASF100:
 10227 05a2 54465453 		.ascii	"TFTSHIELD_1_Color565\000"
 10227      4849454C 
 10227      445F315F 
 10227      436F6C6F 
 10227      72353635 
 10228              	.LASF27:
 10229 05b7 456E645F 		.ascii	"End_Page\000"
 10229      50616765 
 10229      00
 10230              	.LASF19:
 10231 05c0 73697A65 		.ascii	"sizetype\000"
 10231      74797065 
 10231      00
 10232              	.LASF9:
ARM GAS  C:\Users\Brian\AppData\Local\Temp\ccPAhBxt.s 			page 211


 10233 05c9 6C6F6E67 		.ascii	"long unsigned int\000"
 10233      20756E73 
 10233      69676E65 
 10233      6420696E 
 10233      7400
 10234              	.LASF134:
 10235 05db 756E7573 		.ascii	"unused\000"
 10235      656400
 10236              	.LASF50:
 10237 05e2 54465453 		.ascii	"TFTSHIELD_1_DrawCircle\000"
 10237      4849454C 
 10237      445F315F 
 10237      44726177 
 10237      43697263 
 10238              	.LASF110:
 10239 05f9 54465453 		.ascii	"TFTSHIELD_1_ReadData\000"
 10239      4849454C 
 10239      445F315F 
 10239      52656164 
 10239      44617461 
 10240              	.LASF127:
 10241 060e 77726170 		.ascii	"wrap\000"
 10241      00
 10242              	.LASF58:
 10243 0613 54465453 		.ascii	"TFTSHIELD_1_FillCircleHelper\000"
 10243      4849454C 
 10243      445F315F 
 10243      46696C6C 
 10243      43697263 
 10244              	.LASF3:
 10245 0630 756E7369 		.ascii	"unsigned char\000"
 10245      676E6564 
 10245      20636861 
 10245      7200
 10246              	.LASF112:
 10247 063e 54465453 		.ascii	"TFTSHIELD_1_GetVersion\000"
 10247      4849454C 
 10247      445F315F 
 10247      47657456 
 10247      65727369 
 10248              	.LASF82:
 10249 0655 6C656E67 		.ascii	"length_word\000"
 10249      74685F77 
 10249      6F726400 
 10250              	.LASF86:
 10251 0661 6C696E65 		.ascii	"line\000"
 10251      00
 10252              	.LASF39:
 10253 0666 54465453 		.ascii	"TFTSHIELD_1_SPITransfer\000"
 10253      4849454C 
 10253      445F315F 
 10253      53504954 
 10253      72616E73 
 10254              	.LASF115:
 10255 067e 54465453 		.ascii	"TFTSHIELD_1_Touched\000"
 10255      4849454C 
 10255      445F315F 
ARM GAS  C:\Users\Brian\AppData\Local\Temp\ccPAhBxt.s 			page 212


 10255      546F7563 
 10255      68656400 
 10256              	.LASF98:
 10257 0692 54465453 		.ascii	"TFTSHIELD_1_RT_CS_LOW\000"
 10257      4849454C 
 10257      445F315F 
 10257      52545F43 
 10257      535F4C4F 
 10258              	.LASF71:
 10259 06a8 54465453 		.ascii	"TFTSHIELD_1_DrawRoundRect\000"
 10259      4849454C 
 10259      445F315F 
 10259      44726177 
 10259      526F756E 
 10260              	.LASF92:
 10261 06c2 54465453 		.ascii	"TFTSHIELD_1_CS_LOW\000"
 10261      4849454C 
 10261      445F315F 
 10261      43535F4C 
 10261      4F5700
 10262              	.LASF22:
 10263 06d5 436F6C6F 		.ascii	"Color\000"
 10263      7200
 10264              	.LASF54:
 10265 06db 636F726E 		.ascii	"cornername\000"
 10265      65726E61 
 10265      6D6500
 10266              	.LASF73:
 10267 06e6 54465453 		.ascii	"TFTSHIELD_1_Print\000"
 10267      4849454C 
 10267      445F315F 
 10267      5072696E 
 10267      7400
 10268              	.LASF88:
 10269 06f8 54465453 		.ascii	"TFTSHIELD_1_SetTextSize\000"
 10269      4849454C 
 10269      445F315F 
 10269      53657454 
 10269      65787453 
 10270              	.LASF119:
 10271 0710 54465453 		.ascii	"TFTSHIELD_1_BufferSize\000"
 10271      4849454C 
 10271      445F315F 
 10271      42756666 
 10271      65725369 
 10272              	.LASF51:
 10273 0727 6464465F 		.ascii	"ddF_x\000"
 10273      7800
 10274              	.LASF52:
 10275 072d 6464465F 		.ascii	"ddF_y\000"
 10275      7900
 10276              	.LASF2:
 10277 0733 7369676E 		.ascii	"signed char\000"
 10277      65642063 
 10277      68617200 
 10278              	.LASF59:
 10279 073f 64656C74 		.ascii	"delta\000"
ARM GAS  C:\Users\Brian\AppData\Local\Temp\ccPAhBxt.s 			page 213


 10279      6100
 10280              	.LASF101:
 10281 0745 54465453 		.ascii	"TFTSHIELD_1_StartTouch\000"
 10281      4849454C 
 10281      445F315F 
 10281      53746172 
 10281      74546F75 
 10282              	.LASF7:
 10283 075c 73686F72 		.ascii	"short unsigned int\000"
 10283      7420756E 
 10283      7369676E 
 10283      65642069 
 10283      6E7400
 10284              	.LASF131:
 10285 076f 474E5520 		.ascii	"GNU C 4.7.3 20130312 (release) [ARM/embedded-4_7-br"
 10285      4320342E 
 10285      372E3320 
 10285      32303133 
 10285      30333132 
 10286 07a2 616E6368 		.ascii	"anch revision 196615]\000"
 10286      20726576 
 10286      6973696F 
 10286      6E203139 
 10286      36363135 
 10287              	.LASF47:
 10288 07b8 64796162 		.ascii	"dyabs\000"
 10288      7300
 10289              	.LASF76:
 10290 07be 63757272 		.ascii	"current\000"
 10290      656E7400 
 10291              	.LASF49:
 10292 07c6 54465453 		.ascii	"TFTSHIELD_1_DrawRect\000"
 10292      4849454C 
 10292      445F315F 
 10292      44726177 
 10292      52656374 
 10293              	.LASF122:
 10294 07db 63757273 		.ascii	"cursor_y\000"
 10294      6F725F79 
 10294      00
 10295              	.LASF13:
 10296 07e4 75696E74 		.ascii	"uint8\000"
 10296      3800
 10297              	.LASF16:
 10298 07ea 646F7562 		.ascii	"double\000"
 10298      6C6500
 10299              	.LASF123:
 10300 07f1 74657874 		.ascii	"textcolor\000"
 10300      636F6C6F 
 10300      7200
 10301              	.LASF32:
 10302 07fb 54465453 		.ascii	"TFTSHIELD_1_SetCol\000"
 10302      4849454C 
 10302      445F315F 
 10302      53657443 
 10302      6F6C00
 10303              	.LASF25:
ARM GAS  C:\Users\Brian\AppData\Local\Temp\ccPAhBxt.s 			page 214


 10304 080e 54465453 		.ascii	"TFTSHIELD_1_SetPage\000"
 10304      4849454C 
 10304      445F315F 
 10304      53657450 
 10304      61676500 
 10305              	.LASF124:
 10306 0822 74657874 		.ascii	"textbgcolor\000"
 10306      6267636F 
 10306      6C6F7200 
 10307              	.LASF93:
 10308 082e 54465453 		.ascii	"TFTSHIELD_1_CR_1_Read\000"
 10308      4849454C 
 10308      445F315F 
 10308      43525F31 
 10308      5F526561 
 10309              	.LASF96:
 10310 0844 54465453 		.ascii	"TFTSHIELD_1_DC_LOW\000"
 10310      4849454C 
 10310      445F315F 
 10310      44435F4C 
 10310      4F5700
 10311              		.ident	"GCC: (GNU Tools for ARM Embedded Processors) 4.7.3 20130312 (release) [ARM/embedded-4_7-br
