ARM GAS  C:\Users\Robert\AppData\Local\Temp\ccdadQBo.s 			page 1


   1              		.syntax unified
   2              		.cpu cortex-m3
   3              		.fpu softvfp
   4              		.eabi_attribute 20, 1
   5              		.eabi_attribute 21, 1
   6              		.eabi_attribute 23, 3
   7              		.eabi_attribute 24, 1
   8              		.eabi_attribute 25, 1
   9              		.eabi_attribute 26, 1
  10              		.eabi_attribute 30, 6
  11              		.eabi_attribute 34, 1
  12              		.eabi_attribute 18, 4
  13              		.thumb
  14              		.file	"USBUART_1_std.c"
  15              		.text
  16              	.Ltext0:
  17              		.cfi_sections	.debug_frame
  18              		.section	.text.USBUART_1_HandleStandardRqst,"ax",%progbits
  19              		.align	2
  20              		.global	USBUART_1_HandleStandardRqst
  21              		.thumb
  22              		.thumb_func
  23              		.type	USBUART_1_HandleStandardRqst, %function
  24              	USBUART_1_HandleStandardRqst:
  25              	.LFB0:
  26              		.file 1 ".\\Generated_Source\\PSoC5\\USBUART_1_std.c"
   1:.\Generated_Source\PSoC5/USBUART_1_std.c **** /*******************************************************************************
   2:.\Generated_Source\PSoC5/USBUART_1_std.c **** * File Name: USBUART_1_std.c
   3:.\Generated_Source\PSoC5/USBUART_1_std.c **** * Version 2.70
   4:.\Generated_Source\PSoC5/USBUART_1_std.c **** *
   5:.\Generated_Source\PSoC5/USBUART_1_std.c **** * Description:
   6:.\Generated_Source\PSoC5/USBUART_1_std.c **** *  USB Standard request handler.
   7:.\Generated_Source\PSoC5/USBUART_1_std.c **** *
   8:.\Generated_Source\PSoC5/USBUART_1_std.c **** * Note:
   9:.\Generated_Source\PSoC5/USBUART_1_std.c **** *
  10:.\Generated_Source\PSoC5/USBUART_1_std.c **** ********************************************************************************
  11:.\Generated_Source\PSoC5/USBUART_1_std.c **** * Copyright 2008-2013, Cypress Semiconductor Corporation.  All rights reserved.
  12:.\Generated_Source\PSoC5/USBUART_1_std.c **** * You may use this file only in accordance with the license, terms, conditions,
  13:.\Generated_Source\PSoC5/USBUART_1_std.c **** * disclaimers, and limitations in the end user license agreement accompanying
  14:.\Generated_Source\PSoC5/USBUART_1_std.c **** * the software package with which this file was provided.
  15:.\Generated_Source\PSoC5/USBUART_1_std.c **** *******************************************************************************/
  16:.\Generated_Source\PSoC5/USBUART_1_std.c **** 
  17:.\Generated_Source\PSoC5/USBUART_1_std.c **** #include "USBUART_1.h"
  18:.\Generated_Source\PSoC5/USBUART_1_std.c **** #include "USBUART_1_cdc.h"
  19:.\Generated_Source\PSoC5/USBUART_1_std.c **** #include "USBUART_1_pvt.h"
  20:.\Generated_Source\PSoC5/USBUART_1_std.c **** #if defined(USBUART_1_ENABLE_MIDI_STREAMING)
  21:.\Generated_Source\PSoC5/USBUART_1_std.c ****     #include "USBUART_1_midi.h"
  22:.\Generated_Source\PSoC5/USBUART_1_std.c **** #endif /*  USBUART_1_ENABLE_MIDI_STREAMING*/
  23:.\Generated_Source\PSoC5/USBUART_1_std.c **** 
  24:.\Generated_Source\PSoC5/USBUART_1_std.c **** 
  25:.\Generated_Source\PSoC5/USBUART_1_std.c **** /***************************************
  26:.\Generated_Source\PSoC5/USBUART_1_std.c **** *   Static data allocation
  27:.\Generated_Source\PSoC5/USBUART_1_std.c **** ***************************************/
  28:.\Generated_Source\PSoC5/USBUART_1_std.c **** 
  29:.\Generated_Source\PSoC5/USBUART_1_std.c **** #if defined(USBUART_1_ENABLE_FWSN_STRING)
  30:.\Generated_Source\PSoC5/USBUART_1_std.c ****     static volatile uint8 *USBUART_1_fwSerialNumberStringDescriptor;
  31:.\Generated_Source\PSoC5/USBUART_1_std.c ****     static volatile uint8 USBUART_1_snStringConfirm = USBUART_1_FALSE;
ARM GAS  C:\Users\Robert\AppData\Local\Temp\ccdadQBo.s 			page 2


  32:.\Generated_Source\PSoC5/USBUART_1_std.c **** #endif  /* USBUART_1_ENABLE_FWSN_STRING */
  33:.\Generated_Source\PSoC5/USBUART_1_std.c **** 
  34:.\Generated_Source\PSoC5/USBUART_1_std.c **** #if defined(USBUART_1_ENABLE_FWSN_STRING)
  35:.\Generated_Source\PSoC5/USBUART_1_std.c **** 
  36:.\Generated_Source\PSoC5/USBUART_1_std.c ****     /*******************************************************************************
  37:.\Generated_Source\PSoC5/USBUART_1_std.c ****     * Function Name: USBUART_1_SerialNumString
  38:.\Generated_Source\PSoC5/USBUART_1_std.c ****     ********************************************************************************
  39:.\Generated_Source\PSoC5/USBUART_1_std.c ****     *
  40:.\Generated_Source\PSoC5/USBUART_1_std.c ****     * Summary:
  41:.\Generated_Source\PSoC5/USBUART_1_std.c ****     *  Application firmware may supply the source of the USB device descriptors
  42:.\Generated_Source\PSoC5/USBUART_1_std.c ****     *  serial number string during runtime.
  43:.\Generated_Source\PSoC5/USBUART_1_std.c ****     *
  44:.\Generated_Source\PSoC5/USBUART_1_std.c ****     * Parameters:
  45:.\Generated_Source\PSoC5/USBUART_1_std.c ****     *  snString:  pointer to string.
  46:.\Generated_Source\PSoC5/USBUART_1_std.c ****     *
  47:.\Generated_Source\PSoC5/USBUART_1_std.c ****     * Return:
  48:.\Generated_Source\PSoC5/USBUART_1_std.c ****     *  None.
  49:.\Generated_Source\PSoC5/USBUART_1_std.c ****     *
  50:.\Generated_Source\PSoC5/USBUART_1_std.c ****     * Reentrant:
  51:.\Generated_Source\PSoC5/USBUART_1_std.c ****     *  No.
  52:.\Generated_Source\PSoC5/USBUART_1_std.c ****     *
  53:.\Generated_Source\PSoC5/USBUART_1_std.c ****     *******************************************************************************/
  54:.\Generated_Source\PSoC5/USBUART_1_std.c ****     void  USBUART_1_SerialNumString(uint8 snString[]) 
  55:.\Generated_Source\PSoC5/USBUART_1_std.c ****     {
  56:.\Generated_Source\PSoC5/USBUART_1_std.c ****         USBUART_1_snStringConfirm = USBUART_1_FALSE;
  57:.\Generated_Source\PSoC5/USBUART_1_std.c ****         if(snString != NULL)
  58:.\Generated_Source\PSoC5/USBUART_1_std.c ****         {
  59:.\Generated_Source\PSoC5/USBUART_1_std.c ****             /* Check descriptor validation */
  60:.\Generated_Source\PSoC5/USBUART_1_std.c ****             if( (snString[0u] > 1u ) && (snString[1u] == USBUART_1_DESCR_STRING) )
  61:.\Generated_Source\PSoC5/USBUART_1_std.c ****             {
  62:.\Generated_Source\PSoC5/USBUART_1_std.c ****                 USBUART_1_fwSerialNumberStringDescriptor = snString;
  63:.\Generated_Source\PSoC5/USBUART_1_std.c ****                 USBUART_1_snStringConfirm = USBUART_1_TRUE;
  64:.\Generated_Source\PSoC5/USBUART_1_std.c ****             }
  65:.\Generated_Source\PSoC5/USBUART_1_std.c ****         }
  66:.\Generated_Source\PSoC5/USBUART_1_std.c ****     }
  67:.\Generated_Source\PSoC5/USBUART_1_std.c **** 
  68:.\Generated_Source\PSoC5/USBUART_1_std.c **** #endif  /* USBUART_1_ENABLE_FWSN_STRING */
  69:.\Generated_Source\PSoC5/USBUART_1_std.c **** 
  70:.\Generated_Source\PSoC5/USBUART_1_std.c **** 
  71:.\Generated_Source\PSoC5/USBUART_1_std.c **** /*******************************************************************************
  72:.\Generated_Source\PSoC5/USBUART_1_std.c **** * Function Name: USBUART_1_HandleStandardRqst
  73:.\Generated_Source\PSoC5/USBUART_1_std.c **** ********************************************************************************
  74:.\Generated_Source\PSoC5/USBUART_1_std.c **** *
  75:.\Generated_Source\PSoC5/USBUART_1_std.c **** * Summary:
  76:.\Generated_Source\PSoC5/USBUART_1_std.c **** *  This Routine dispatches standard requests
  77:.\Generated_Source\PSoC5/USBUART_1_std.c **** *
  78:.\Generated_Source\PSoC5/USBUART_1_std.c **** * Parameters:
  79:.\Generated_Source\PSoC5/USBUART_1_std.c **** *  None.
  80:.\Generated_Source\PSoC5/USBUART_1_std.c **** *
  81:.\Generated_Source\PSoC5/USBUART_1_std.c **** * Return:
  82:.\Generated_Source\PSoC5/USBUART_1_std.c **** *  TRUE if request handled.
  83:.\Generated_Source\PSoC5/USBUART_1_std.c **** *
  84:.\Generated_Source\PSoC5/USBUART_1_std.c **** * Reentrant:
  85:.\Generated_Source\PSoC5/USBUART_1_std.c **** *  No.
  86:.\Generated_Source\PSoC5/USBUART_1_std.c **** *
  87:.\Generated_Source\PSoC5/USBUART_1_std.c **** *******************************************************************************/
  88:.\Generated_Source\PSoC5/USBUART_1_std.c **** uint8 USBUART_1_HandleStandardRqst(void) 
ARM GAS  C:\Users\Robert\AppData\Local\Temp\ccdadQBo.s 			page 3


  89:.\Generated_Source\PSoC5/USBUART_1_std.c **** {
  27              		.loc 1 89 0
  28              		.cfi_startproc
  29              		@ args = 0, pretend = 0, frame = 24
  30              		@ frame_needed = 1, uses_anonymous_args = 0
  31 0000 80B5     		push	{r7, lr}
  32              	.LCFI0:
  33              		.cfi_def_cfa_offset 8
  34              		.cfi_offset 7, -8
  35              		.cfi_offset 14, -4
  36 0002 86B0     		sub	sp, sp, #24
  37              	.LCFI1:
  38              		.cfi_def_cfa_offset 32
  39 0004 00AF     		add	r7, sp, #0
  40              	.LCFI2:
  41              		.cfi_def_cfa_register 7
  90:.\Generated_Source\PSoC5/USBUART_1_std.c ****     uint8 requestHandled = USBUART_1_FALSE;
  42              		.loc 1 90 0
  43 0006 4FF00003 		mov	r3, #0
  44 000a FB75     		strb	r3, [r7, #23]
  91:.\Generated_Source\PSoC5/USBUART_1_std.c ****     uint8 interfaceNumber;
  92:.\Generated_Source\PSoC5/USBUART_1_std.c ****     uint8 configurationN;
  93:.\Generated_Source\PSoC5/USBUART_1_std.c ****     #if defined(USBUART_1_ENABLE_STRINGS)
  94:.\Generated_Source\PSoC5/USBUART_1_std.c ****         volatile uint8 *pStr = 0u;
  45              		.loc 1 94 0
  46 000c 4FF00003 		mov	r3, #0
  47 0010 3B61     		str	r3, [r7, #16]
  95:.\Generated_Source\PSoC5/USBUART_1_std.c ****         #if defined(USBUART_1_ENABLE_DESCRIPTOR_STRINGS)
  96:.\Generated_Source\PSoC5/USBUART_1_std.c ****             uint8 nStr;
  97:.\Generated_Source\PSoC5/USBUART_1_std.c ****             uint8 descrLength;
  98:.\Generated_Source\PSoC5/USBUART_1_std.c ****         #endif /* USBUART_1_ENABLE_DESCRIPTOR_STRINGS */
  99:.\Generated_Source\PSoC5/USBUART_1_std.c ****     #endif /* USBUART_1_ENABLE_STRINGS */
 100:.\Generated_Source\PSoC5/USBUART_1_std.c ****     static volatile uint8 USBUART_1_tBuffer[USBUART_1_STATUS_LENGTH_MAX];
 101:.\Generated_Source\PSoC5/USBUART_1_std.c ****     const T_USBUART_1_LUT CYCODE *pTmp;
 102:.\Generated_Source\PSoC5/USBUART_1_std.c ****     USBUART_1_currentTD.count = 0u;
  48              		.loc 1 102 0
  49 0012 40F20003 		movw	r3, #:lower16:USBUART_1_currentTD
  50 0016 C0F20003 		movt	r3, #:upper16:USBUART_1_currentTD
  51 001a 4FF00002 		mov	r2, #0
  52 001e 1A80     		strh	r2, [r3, #0]	@ movhi
 103:.\Generated_Source\PSoC5/USBUART_1_std.c **** 
 104:.\Generated_Source\PSoC5/USBUART_1_std.c ****     if ((CY_GET_REG8(USBUART_1_bmRequestType) & USBUART_1_RQST_DIR_MASK) == USBUART_1_RQST_DIR_D2H)
  53              		.loc 1 104 0
  54 0020 4FF4C043 		mov	r3, #24576
  55 0024 C4F20003 		movt	r3, 16384
  56 0028 1B78     		ldrb	r3, [r3, #0]
  57 002a DBB2     		uxtb	r3, r3
  58 002c DBB2     		uxtb	r3, r3
  59 002e 5BB2     		sxtb	r3, r3
  60 0030 002B     		cmp	r3, #0
  61 0032 80F29481 		bge	.L2
 105:.\Generated_Source\PSoC5/USBUART_1_std.c ****     {
 106:.\Generated_Source\PSoC5/USBUART_1_std.c ****         /* Control Read */
 107:.\Generated_Source\PSoC5/USBUART_1_std.c ****         switch (CY_GET_REG8(USBUART_1_bRequest))
  62              		.loc 1 107 0
  63 0036 46F20103 		movw	r3, #24577
  64 003a C4F20003 		movt	r3, 16384
ARM GAS  C:\Users\Robert\AppData\Local\Temp\ccdadQBo.s 			page 4


  65 003e 1B78     		ldrb	r3, [r3, #0]
  66 0040 DBB2     		uxtb	r3, r3
  67 0042 0A2B     		cmp	r3, #10
  68 0044 00F2F782 		bhi	.L57
  69 0048 01A2     		adr	r2, .L8
  70 004a 52F823F0 		ldr	pc, [r2, r3, lsl #2]
  71 004e 00BF     		.align	2
  72              	.L8:
  73 0050 23020000 		.word	.L4+1
  74 0054 37060000 		.word	.L57+1
  75 0058 37060000 		.word	.L57+1
  76 005c 37060000 		.word	.L57+1
  77 0060 37060000 		.word	.L57+1
  78 0064 37060000 		.word	.L57+1
  79 0068 7D000000 		.word	.L5+1
  80 006c 37060000 		.word	.L57+1
  81 0070 F9020000 		.word	.L6+1
  82 0074 37060000 		.word	.L57+1
  83 0078 23030000 		.word	.L7+1
  84              	.L5:
 108:.\Generated_Source\PSoC5/USBUART_1_std.c ****         {
 109:.\Generated_Source\PSoC5/USBUART_1_std.c ****             case USBUART_1_GET_DESCRIPTOR:
 110:.\Generated_Source\PSoC5/USBUART_1_std.c ****                 if (CY_GET_REG8(USBUART_1_wValueHi) == USBUART_1_DESCR_DEVICE)
  85              		.loc 1 110 0
  86 007c 46F20303 		movw	r3, #24579
  87 0080 C4F20003 		movt	r3, 16384
  88 0084 1B78     		ldrb	r3, [r3, #0]
  89 0086 DBB2     		uxtb	r3, r3
  90 0088 012B     		cmp	r3, #1
  91 008a 15D1     		bne	.L9
 111:.\Generated_Source\PSoC5/USBUART_1_std.c ****                 {
 112:.\Generated_Source\PSoC5/USBUART_1_std.c ****                     pTmp = USBUART_1_GetDeviceTablePtr();
  92              		.loc 1 112 0
  93 008c FFF7FEFF 		bl	USBUART_1_GetDeviceTablePtr
  94 0090 B860     		str	r0, [r7, #8]
 113:.\Generated_Source\PSoC5/USBUART_1_std.c ****                     USBUART_1_currentTD.pData = (volatile uint8 *)pTmp->p_list;
  95              		.loc 1 113 0
  96 0092 BB68     		ldr	r3, [r7, #8]
  97 0094 5A68     		ldr	r2, [r3, #4]
  98 0096 40F20003 		movw	r3, #:lower16:USBUART_1_currentTD
  99 009a C0F20003 		movt	r3, #:upper16:USBUART_1_currentTD
 100 009e 5A60     		str	r2, [r3, #4]
 114:.\Generated_Source\PSoC5/USBUART_1_std.c ****                     USBUART_1_currentTD.count = USBUART_1_DEVICE_DESCR_LENGTH;
 101              		.loc 1 114 0
 102 00a0 40F20003 		movw	r3, #:lower16:USBUART_1_currentTD
 103 00a4 C0F20003 		movt	r3, #:upper16:USBUART_1_currentTD
 104 00a8 4FF01202 		mov	r2, #18
 105 00ac 1A80     		strh	r2, [r3, #0]	@ movhi
 115:.\Generated_Source\PSoC5/USBUART_1_std.c ****                     requestHandled  = USBUART_1_InitControlRead();
 106              		.loc 1 115 0
 107 00ae FFF7FEFF 		bl	USBUART_1_InitControlRead
 108 00b2 0346     		mov	r3, r0
 109 00b4 FB75     		strb	r3, [r7, #23]
 116:.\Generated_Source\PSoC5/USBUART_1_std.c ****                 }
 117:.\Generated_Source\PSoC5/USBUART_1_std.c ****                 else if (CY_GET_REG8(USBUART_1_wValueHi) == USBUART_1_DESCR_CONFIG)
 118:.\Generated_Source\PSoC5/USBUART_1_std.c ****                 {
 119:.\Generated_Source\PSoC5/USBUART_1_std.c ****                     pTmp = USBUART_1_GetConfigTablePtr(CY_GET_REG8(USBUART_1_wValueLo));
ARM GAS  C:\Users\Robert\AppData\Local\Temp\ccdadQBo.s 			page 5


 120:.\Generated_Source\PSoC5/USBUART_1_std.c ****                     if( pTmp != NULL )  /* Verify that requested descriptor exists */
 121:.\Generated_Source\PSoC5/USBUART_1_std.c ****                     {
 122:.\Generated_Source\PSoC5/USBUART_1_std.c ****                         USBUART_1_currentTD.pData = (volatile uint8 *)pTmp->p_list;
 123:.\Generated_Source\PSoC5/USBUART_1_std.c ****                         USBUART_1_currentTD.count = ((uint16)(USBUART_1_currentTD.pData)[ \
 124:.\Generated_Source\PSoC5/USBUART_1_std.c ****                                           USBUART_1_CONFIG_DESCR_TOTAL_LENGTH_HI] << 8u) | \
 125:.\Generated_Source\PSoC5/USBUART_1_std.c ****                                          (USBUART_1_currentTD.pData)[USBUART_1_CONFIG_DESCR_TOTAL_L
 126:.\Generated_Source\PSoC5/USBUART_1_std.c ****                         requestHandled  = USBUART_1_InitControlRead();
 127:.\Generated_Source\PSoC5/USBUART_1_std.c ****                     }
 128:.\Generated_Source\PSoC5/USBUART_1_std.c ****                 }
 129:.\Generated_Source\PSoC5/USBUART_1_std.c ****                 #if defined(USBUART_1_ENABLE_STRINGS)
 130:.\Generated_Source\PSoC5/USBUART_1_std.c ****                 else if (CY_GET_REG8(USBUART_1_wValueHi) == USBUART_1_DESCR_STRING)
 131:.\Generated_Source\PSoC5/USBUART_1_std.c ****                 {
 132:.\Generated_Source\PSoC5/USBUART_1_std.c ****                     /* Descriptor Strings*/
 133:.\Generated_Source\PSoC5/USBUART_1_std.c ****                     #if defined(USBUART_1_ENABLE_DESCRIPTOR_STRINGS)
 134:.\Generated_Source\PSoC5/USBUART_1_std.c ****                         nStr = 0u;
 135:.\Generated_Source\PSoC5/USBUART_1_std.c ****                         pStr = (volatile uint8 *)&USBUART_1_STRING_DESCRIPTORS[0u];
 136:.\Generated_Source\PSoC5/USBUART_1_std.c ****                         while ( (CY_GET_REG8(USBUART_1_wValueLo) > nStr) && (*pStr != 0u) )
 137:.\Generated_Source\PSoC5/USBUART_1_std.c ****                         {
 138:.\Generated_Source\PSoC5/USBUART_1_std.c ****                             /* Read descriptor length from 1st byte */
 139:.\Generated_Source\PSoC5/USBUART_1_std.c ****                             descrLength = *pStr;
 140:.\Generated_Source\PSoC5/USBUART_1_std.c ****                             /* Move to next string descriptor */
 141:.\Generated_Source\PSoC5/USBUART_1_std.c ****                             pStr = &pStr[descrLength];
 142:.\Generated_Source\PSoC5/USBUART_1_std.c ****                             nStr++;
 143:.\Generated_Source\PSoC5/USBUART_1_std.c ****                         }
 144:.\Generated_Source\PSoC5/USBUART_1_std.c ****                     #endif /*  USBUART_1_ENABLE_DESCRIPTOR_STRINGS */
 145:.\Generated_Source\PSoC5/USBUART_1_std.c ****                     /* Microsoft OS String*/
 146:.\Generated_Source\PSoC5/USBUART_1_std.c ****                     #if defined(USBUART_1_ENABLE_MSOS_STRING)
 147:.\Generated_Source\PSoC5/USBUART_1_std.c ****                         if( CY_GET_REG8(USBUART_1_wValueLo) == USBUART_1_STRING_MSOS )
 148:.\Generated_Source\PSoC5/USBUART_1_std.c ****                         {
 149:.\Generated_Source\PSoC5/USBUART_1_std.c ****                             pStr = (volatile uint8 *)&USBUART_1_MSOS_DESCRIPTOR[0u];
 150:.\Generated_Source\PSoC5/USBUART_1_std.c ****                         }
 151:.\Generated_Source\PSoC5/USBUART_1_std.c ****                     #endif /*  USBUART_1_ENABLE_MSOS_STRING*/
 152:.\Generated_Source\PSoC5/USBUART_1_std.c ****                     /* SN string */
 153:.\Generated_Source\PSoC5/USBUART_1_std.c ****                     #if defined(USBUART_1_ENABLE_SN_STRING)
 154:.\Generated_Source\PSoC5/USBUART_1_std.c ****                         if( (CY_GET_REG8(USBUART_1_wValueLo) != 0u) &&
 155:.\Generated_Source\PSoC5/USBUART_1_std.c ****                             (CY_GET_REG8(USBUART_1_wValueLo) ==
 156:.\Generated_Source\PSoC5/USBUART_1_std.c ****                             USBUART_1_DEVICE0_DESCR[USBUART_1_DEVICE_DESCR_SN_SHIFT]) )
 157:.\Generated_Source\PSoC5/USBUART_1_std.c ****                         {
 158:.\Generated_Source\PSoC5/USBUART_1_std.c ****                             
 159:.\Generated_Source\PSoC5/USBUART_1_std.c ****                             #if defined(USBUART_1_ENABLE_IDSN_STRING)
 160:.\Generated_Source\PSoC5/USBUART_1_std.c ****                                 /* Read DIE ID and generate string descriptor in RAM */
 161:.\Generated_Source\PSoC5/USBUART_1_std.c ****                                 USBUART_1_ReadDieID(USBUART_1_idSerialNumberStringDescriptor);
 162:.\Generated_Source\PSoC5/USBUART_1_std.c ****                                 pStr = USBUART_1_idSerialNumberStringDescriptor;
 163:.\Generated_Source\PSoC5/USBUART_1_std.c ****                             #elif defined(USBUART_1_ENABLE_FWSN_STRING)
 164:.\Generated_Source\PSoC5/USBUART_1_std.c ****                                 if(USBUART_1_snStringConfirm != USBUART_1_FALSE)
 165:.\Generated_Source\PSoC5/USBUART_1_std.c ****                                 {
 166:.\Generated_Source\PSoC5/USBUART_1_std.c ****                                     pStr = USBUART_1_fwSerialNumberStringDescriptor;
 167:.\Generated_Source\PSoC5/USBUART_1_std.c ****                                 }
 168:.\Generated_Source\PSoC5/USBUART_1_std.c ****                                 else
 169:.\Generated_Source\PSoC5/USBUART_1_std.c ****                                 {
 170:.\Generated_Source\PSoC5/USBUART_1_std.c ****                                     pStr = (volatile uint8 *)&USBUART_1_SN_STRING_DESCRIPTOR[0u];
 171:.\Generated_Source\PSoC5/USBUART_1_std.c ****                                 }
 172:.\Generated_Source\PSoC5/USBUART_1_std.c ****                             #else
 173:.\Generated_Source\PSoC5/USBUART_1_std.c ****                                 pStr = (volatile uint8 *)&USBUART_1_SN_STRING_DESCRIPTOR[0u];
 174:.\Generated_Source\PSoC5/USBUART_1_std.c ****                             #endif  /* defined(USBUART_1_ENABLE_IDSN_STRING) */
 175:.\Generated_Source\PSoC5/USBUART_1_std.c ****                         }
 176:.\Generated_Source\PSoC5/USBUART_1_std.c ****                     #endif    /*  USBUART_1_ENABLE_SN_STRING */
ARM GAS  C:\Users\Robert\AppData\Local\Temp\ccdadQBo.s 			page 6


 177:.\Generated_Source\PSoC5/USBUART_1_std.c ****                     if (*pStr != 0u)
 178:.\Generated_Source\PSoC5/USBUART_1_std.c ****                     {
 179:.\Generated_Source\PSoC5/USBUART_1_std.c ****                         USBUART_1_currentTD.count = *pStr;
 180:.\Generated_Source\PSoC5/USBUART_1_std.c ****                         USBUART_1_currentTD.pData = pStr;
 181:.\Generated_Source\PSoC5/USBUART_1_std.c ****                         requestHandled  = USBUART_1_InitControlRead();
 182:.\Generated_Source\PSoC5/USBUART_1_std.c ****                     }
 183:.\Generated_Source\PSoC5/USBUART_1_std.c ****                 }
 184:.\Generated_Source\PSoC5/USBUART_1_std.c ****                 #endif /*  USBUART_1_ENABLE_STRINGS */
 185:.\Generated_Source\PSoC5/USBUART_1_std.c ****                 else
 186:.\Generated_Source\PSoC5/USBUART_1_std.c ****                 {
 187:.\Generated_Source\PSoC5/USBUART_1_std.c ****                     requestHandled = USBUART_1_DispatchClassRqst();
 188:.\Generated_Source\PSoC5/USBUART_1_std.c ****                 }
 189:.\Generated_Source\PSoC5/USBUART_1_std.c ****                 break;
 110              		.loc 1 189 0
 111 00b6 C0E2     		b	.L58
 112              	.L9:
 117:.\Generated_Source\PSoC5/USBUART_1_std.c ****                 else if (CY_GET_REG8(USBUART_1_wValueHi) == USBUART_1_DESCR_CONFIG)
 113              		.loc 1 117 0
 114 00b8 46F20303 		movw	r3, #24579
 115 00bc C4F20003 		movt	r3, 16384
 116 00c0 1B78     		ldrb	r3, [r3, #0]
 117 00c2 DBB2     		uxtb	r3, r3
 118 00c4 022B     		cmp	r3, #2
 119 00c6 36D1     		bne	.L11
 119:.\Generated_Source\PSoC5/USBUART_1_std.c ****                     pTmp = USBUART_1_GetConfigTablePtr(CY_GET_REG8(USBUART_1_wValueLo));
 120              		.loc 1 119 0
 121 00c8 46F20203 		movw	r3, #24578
 122 00cc C4F20003 		movt	r3, 16384
 123 00d0 1B78     		ldrb	r3, [r3, #0]
 124 00d2 DBB2     		uxtb	r3, r3
 125 00d4 1846     		mov	r0, r3
 126 00d6 FFF7FEFF 		bl	USBUART_1_GetConfigTablePtr
 127 00da B860     		str	r0, [r7, #8]
 120:.\Generated_Source\PSoC5/USBUART_1_std.c ****                     if( pTmp != NULL )  /* Verify that requested descriptor exists */
 128              		.loc 1 120 0
 129 00dc BB68     		ldr	r3, [r7, #8]
 130 00de 002B     		cmp	r3, #0
 131 00e0 00F0AB82 		beq	.L58
 122:.\Generated_Source\PSoC5/USBUART_1_std.c ****                         USBUART_1_currentTD.pData = (volatile uint8 *)pTmp->p_list;
 132              		.loc 1 122 0
 133 00e4 BB68     		ldr	r3, [r7, #8]
 134 00e6 5A68     		ldr	r2, [r3, #4]
 135 00e8 40F20003 		movw	r3, #:lower16:USBUART_1_currentTD
 136 00ec C0F20003 		movt	r3, #:upper16:USBUART_1_currentTD
 137 00f0 5A60     		str	r2, [r3, #4]
 123:.\Generated_Source\PSoC5/USBUART_1_std.c ****                         USBUART_1_currentTD.count = ((uint16)(USBUART_1_currentTD.pData)[ \
 138              		.loc 1 123 0
 139 00f2 40F20003 		movw	r3, #:lower16:USBUART_1_currentTD
 140 00f6 C0F20003 		movt	r3, #:upper16:USBUART_1_currentTD
 141 00fa 5B68     		ldr	r3, [r3, #4]
 142 00fc 03F10303 		add	r3, r3, #3
 143 0100 1B78     		ldrb	r3, [r3, #0]
 144 0102 DBB2     		uxtb	r3, r3
 124:.\Generated_Source\PSoC5/USBUART_1_std.c ****                                           USBUART_1_CONFIG_DESCR_TOTAL_LENGTH_HI] << 8u) | \
 145              		.loc 1 124 0
 146 0104 4FEA0323 		lsl	r3, r3, #8
 123:.\Generated_Source\PSoC5/USBUART_1_std.c ****                         USBUART_1_currentTD.count = ((uint16)(USBUART_1_currentTD.pData)[ \
ARM GAS  C:\Users\Robert\AppData\Local\Temp\ccdadQBo.s 			page 7


 147              		.loc 1 123 0
 148 0108 9AB2     		uxth	r2, r3
 125:.\Generated_Source\PSoC5/USBUART_1_std.c ****                                          (USBUART_1_currentTD.pData)[USBUART_1_CONFIG_DESCR_TOTAL_L
 149              		.loc 1 125 0
 150 010a 40F20003 		movw	r3, #:lower16:USBUART_1_currentTD
 151 010e C0F20003 		movt	r3, #:upper16:USBUART_1_currentTD
 152 0112 5B68     		ldr	r3, [r3, #4]
 153 0114 03F10203 		add	r3, r3, #2
 154 0118 1B78     		ldrb	r3, [r3, #0]
 155 011a DBB2     		uxtb	r3, r3
 123:.\Generated_Source\PSoC5/USBUART_1_std.c ****                         USBUART_1_currentTD.count = ((uint16)(USBUART_1_currentTD.pData)[ \
 156              		.loc 1 123 0
 157 011c 1343     		orrs	r3, r3, r2
 158 011e 9BB2     		uxth	r3, r3
 159 0120 9AB2     		uxth	r2, r3
 160 0122 40F20003 		movw	r3, #:lower16:USBUART_1_currentTD
 161 0126 C0F20003 		movt	r3, #:upper16:USBUART_1_currentTD
 162 012a 1A80     		strh	r2, [r3, #0]	@ movhi
 126:.\Generated_Source\PSoC5/USBUART_1_std.c ****                         requestHandled  = USBUART_1_InitControlRead();
 163              		.loc 1 126 0
 164 012c FFF7FEFF 		bl	USBUART_1_InitControlRead
 165 0130 0346     		mov	r3, r0
 166 0132 FB75     		strb	r3, [r7, #23]
 167              		.loc 1 189 0
 168 0134 81E2     		b	.L58
 169              	.L11:
 130:.\Generated_Source\PSoC5/USBUART_1_std.c ****                 else if (CY_GET_REG8(USBUART_1_wValueHi) == USBUART_1_DESCR_STRING)
 170              		.loc 1 130 0
 171 0136 46F20303 		movw	r3, #24579
 172 013a C4F20003 		movt	r3, 16384
 173 013e 1B78     		ldrb	r3, [r3, #0]
 174 0140 DBB2     		uxtb	r3, r3
 175 0142 032B     		cmp	r3, #3
 176 0144 68D1     		bne	.L12
 134:.\Generated_Source\PSoC5/USBUART_1_std.c ****                         nStr = 0u;
 177              		.loc 1 134 0
 178 0146 4FF00003 		mov	r3, #0
 179 014a FB73     		strb	r3, [r7, #15]
 135:.\Generated_Source\PSoC5/USBUART_1_std.c ****                         pStr = (volatile uint8 *)&USBUART_1_STRING_DESCRIPTORS[0u];
 180              		.loc 1 135 0
 181 014c 40F20003 		movw	r3, #:lower16:USBUART_1_STRING_DESCRIPTORS
 182 0150 C0F20003 		movt	r3, #:upper16:USBUART_1_STRING_DESCRIPTORS
 183 0154 3B61     		str	r3, [r7, #16]
 136:.\Generated_Source\PSoC5/USBUART_1_std.c ****                         while ( (CY_GET_REG8(USBUART_1_wValueLo) > nStr) && (*pStr != 0u) )
 184              		.loc 1 136 0
 185 0156 0AE0     		b	.L13
 186              	.L15:
 139:.\Generated_Source\PSoC5/USBUART_1_std.c ****                             descrLength = *pStr;
 187              		.loc 1 139 0
 188 0158 3B69     		ldr	r3, [r7, #16]
 189 015a 1B78     		ldrb	r3, [r3, #0]
 190 015c FB71     		strb	r3, [r7, #7]
 141:.\Generated_Source\PSoC5/USBUART_1_std.c ****                             pStr = &pStr[descrLength];
 191              		.loc 1 141 0
 192 015e FB79     		ldrb	r3, [r7, #7]	@ zero_extendqisi2
 193 0160 3A69     		ldr	r2, [r7, #16]
 194 0162 D318     		adds	r3, r2, r3
ARM GAS  C:\Users\Robert\AppData\Local\Temp\ccdadQBo.s 			page 8


 195 0164 3B61     		str	r3, [r7, #16]
 142:.\Generated_Source\PSoC5/USBUART_1_std.c ****                             nStr++;
 196              		.loc 1 142 0
 197 0166 FB7B     		ldrb	r3, [r7, #15]
 198 0168 03F10103 		add	r3, r3, #1
 199 016c FB73     		strb	r3, [r7, #15]
 200              	.L13:
 136:.\Generated_Source\PSoC5/USBUART_1_std.c ****                         while ( (CY_GET_REG8(USBUART_1_wValueLo) > nStr) && (*pStr != 0u) )
 201              		.loc 1 136 0 discriminator 1
 202 016e 46F20203 		movw	r3, #24578
 203 0172 C4F20003 		movt	r3, 16384
 204 0176 1B78     		ldrb	r3, [r3, #0]
 205 0178 DBB2     		uxtb	r3, r3
 206 017a FA7B     		ldrb	r2, [r7, #15]	@ zero_extendqisi2
 207 017c 9A42     		cmp	r2, r3
 208 017e 04D2     		bcs	.L14
 136:.\Generated_Source\PSoC5/USBUART_1_std.c ****                         while ( (CY_GET_REG8(USBUART_1_wValueLo) > nStr) && (*pStr != 0u) )
 209              		.loc 1 136 0 is_stmt 0 discriminator 2
 210 0180 3B69     		ldr	r3, [r7, #16]
 211 0182 1B78     		ldrb	r3, [r3, #0]
 212 0184 DBB2     		uxtb	r3, r3
 213 0186 002B     		cmp	r3, #0
 214 0188 E6D1     		bne	.L15
 215              	.L14:
 147:.\Generated_Source\PSoC5/USBUART_1_std.c ****                         if( CY_GET_REG8(USBUART_1_wValueLo) == USBUART_1_STRING_MSOS )
 216              		.loc 1 147 0 is_stmt 1
 217 018a 46F20203 		movw	r3, #24578
 218 018e C4F20003 		movt	r3, 16384
 219 0192 1B78     		ldrb	r3, [r3, #0]
 220 0194 DBB2     		uxtb	r3, r3
 221 0196 EE2B     		cmp	r3, #238
 222 0198 04D1     		bne	.L16
 149:.\Generated_Source\PSoC5/USBUART_1_std.c ****                             pStr = (volatile uint8 *)&USBUART_1_MSOS_DESCRIPTOR[0u];
 223              		.loc 1 149 0
 224 019a 40F20003 		movw	r3, #:lower16:USBUART_1_MSOS_DESCRIPTOR
 225 019e C0F20003 		movt	r3, #:upper16:USBUART_1_MSOS_DESCRIPTOR
 226 01a2 3B61     		str	r3, [r7, #16]
 227              	.L16:
 154:.\Generated_Source\PSoC5/USBUART_1_std.c ****                         if( (CY_GET_REG8(USBUART_1_wValueLo) != 0u) &&
 228              		.loc 1 154 0
 229 01a4 46F20203 		movw	r3, #24578
 230 01a8 C4F20003 		movt	r3, 16384
 231 01ac 1B78     		ldrb	r3, [r3, #0]
 232 01ae DBB2     		uxtb	r3, r3
 233 01b0 002B     		cmp	r3, #0
 234 01b2 17D0     		beq	.L17
 155:.\Generated_Source\PSoC5/USBUART_1_std.c ****                             (CY_GET_REG8(USBUART_1_wValueLo) ==
 235              		.loc 1 155 0 discriminator 1
 236 01b4 46F20203 		movw	r3, #24578
 237 01b8 C4F20003 		movt	r3, 16384
 238 01bc 1B78     		ldrb	r3, [r3, #0]
 239 01be DAB2     		uxtb	r2, r3
 156:.\Generated_Source\PSoC5/USBUART_1_std.c ****                             USBUART_1_DEVICE0_DESCR[USBUART_1_DEVICE_DESCR_SN_SHIFT]) )
 240              		.loc 1 156 0 discriminator 1
 241 01c0 40F20003 		movw	r3, #:lower16:USBUART_1_DEVICE0_DESCR
 242 01c4 C0F20003 		movt	r3, #:upper16:USBUART_1_DEVICE0_DESCR
 243 01c8 1B7C     		ldrb	r3, [r3, #16]	@ zero_extendqisi2
ARM GAS  C:\Users\Robert\AppData\Local\Temp\ccdadQBo.s 			page 9


 154:.\Generated_Source\PSoC5/USBUART_1_std.c ****                         if( (CY_GET_REG8(USBUART_1_wValueLo) != 0u) &&
 244              		.loc 1 154 0 discriminator 1
 245 01ca 9A42     		cmp	r2, r3
 246 01cc 0AD1     		bne	.L17
 161:.\Generated_Source\PSoC5/USBUART_1_std.c ****                                 USBUART_1_ReadDieID(USBUART_1_idSerialNumberStringDescriptor);
 247              		.loc 1 161 0
 248 01ce 40F20000 		movw	r0, #:lower16:USBUART_1_idSerialNumberStringDescriptor
 249 01d2 C0F20000 		movt	r0, #:upper16:USBUART_1_idSerialNumberStringDescriptor
 250 01d6 FFF7FEFF 		bl	USBUART_1_ReadDieID
 162:.\Generated_Source\PSoC5/USBUART_1_std.c ****                                 pStr = USBUART_1_idSerialNumberStringDescriptor;
 251              		.loc 1 162 0
 252 01da 40F20003 		movw	r3, #:lower16:USBUART_1_idSerialNumberStringDescriptor
 253 01de C0F20003 		movt	r3, #:upper16:USBUART_1_idSerialNumberStringDescriptor
 254 01e2 3B61     		str	r3, [r7, #16]
 255              	.L17:
 177:.\Generated_Source\PSoC5/USBUART_1_std.c ****                     if (*pStr != 0u)
 256              		.loc 1 177 0
 257 01e4 3B69     		ldr	r3, [r7, #16]
 258 01e6 1B78     		ldrb	r3, [r3, #0]
 259 01e8 DBB2     		uxtb	r3, r3
 260 01ea 002B     		cmp	r3, #0
 261 01ec 00F02582 		beq	.L58
 179:.\Generated_Source\PSoC5/USBUART_1_std.c ****                         USBUART_1_currentTD.count = *pStr;
 262              		.loc 1 179 0
 263 01f0 3B69     		ldr	r3, [r7, #16]
 264 01f2 1B78     		ldrb	r3, [r3, #0]
 265 01f4 DBB2     		uxtb	r3, r3
 266 01f6 1A46     		mov	r2, r3
 267 01f8 40F20003 		movw	r3, #:lower16:USBUART_1_currentTD
 268 01fc C0F20003 		movt	r3, #:upper16:USBUART_1_currentTD
 269 0200 1A80     		strh	r2, [r3, #0]	@ movhi
 180:.\Generated_Source\PSoC5/USBUART_1_std.c ****                         USBUART_1_currentTD.pData = pStr;
 270              		.loc 1 180 0
 271 0202 40F20003 		movw	r3, #:lower16:USBUART_1_currentTD
 272 0206 C0F20003 		movt	r3, #:upper16:USBUART_1_currentTD
 273 020a 3A69     		ldr	r2, [r7, #16]
 274 020c 5A60     		str	r2, [r3, #4]
 181:.\Generated_Source\PSoC5/USBUART_1_std.c ****                         requestHandled  = USBUART_1_InitControlRead();
 275              		.loc 1 181 0
 276 020e FFF7FEFF 		bl	USBUART_1_InitControlRead
 277 0212 0346     		mov	r3, r0
 278 0214 FB75     		strb	r3, [r7, #23]
 279              		.loc 1 189 0
 280 0216 10E2     		b	.L58
 281              	.L12:
 187:.\Generated_Source\PSoC5/USBUART_1_std.c ****                     requestHandled = USBUART_1_DispatchClassRqst();
 282              		.loc 1 187 0
 283 0218 FFF7FEFF 		bl	USBUART_1_DispatchClassRqst
 284 021c 0346     		mov	r3, r0
 285 021e FB75     		strb	r3, [r7, #23]
 286              		.loc 1 189 0
 287 0220 0BE2     		b	.L58
 288              	.L4:
 190:.\Generated_Source\PSoC5/USBUART_1_std.c ****             case USBUART_1_GET_STATUS:
 191:.\Generated_Source\PSoC5/USBUART_1_std.c ****                 switch ((CY_GET_REG8(USBUART_1_bmRequestType) & USBUART_1_RQST_RCPT_MASK))
 289              		.loc 1 191 0
 290 0222 4FF4C043 		mov	r3, #24576
ARM GAS  C:\Users\Robert\AppData\Local\Temp\ccdadQBo.s 			page 10


 291 0226 C4F20003 		movt	r3, 16384
 292 022a 1B78     		ldrb	r3, [r3, #0]
 293 022c DBB2     		uxtb	r3, r3
 294 022e 03F00303 		and	r3, r3, #3
 295 0232 002B     		cmp	r3, #0
 296 0234 37D0     		beq	.L20
 297 0236 022B     		cmp	r3, #2
 298 0238 5CD1     		bne	.L54
 299              	.L21:
 192:.\Generated_Source\PSoC5/USBUART_1_std.c ****                 {
 193:.\Generated_Source\PSoC5/USBUART_1_std.c ****                     case USBUART_1_RQST_RCPT_EP:
 194:.\Generated_Source\PSoC5/USBUART_1_std.c ****                         USBUART_1_currentTD.count = USBUART_1_EP_STATUS_LENGTH;
 300              		.loc 1 194 0
 301 023a 40F20003 		movw	r3, #:lower16:USBUART_1_currentTD
 302 023e C0F20003 		movt	r3, #:upper16:USBUART_1_currentTD
 303 0242 4FF00202 		mov	r2, #2
 304 0246 1A80     		strh	r2, [r3, #0]	@ movhi
 195:.\Generated_Source\PSoC5/USBUART_1_std.c ****                         USBUART_1_tBuffer[0u] = USBUART_1_EP[ \
 196:.\Generated_Source\PSoC5/USBUART_1_std.c ****                                         CY_GET_REG8(USBUART_1_wIndexLo) & USBUART_1_DIR_UNUSED].hwE
 305              		.loc 1 196 0
 306 0248 46F20403 		movw	r3, #24580
 307 024c C4F20003 		movt	r3, 16384
 308 0250 1B78     		ldrb	r3, [r3, #0]
 309 0252 DBB2     		uxtb	r3, r3
 310 0254 03F07F01 		and	r1, r3, #127
 311 0258 40F20002 		movw	r2, #:lower16:USBUART_1_EP
 312 025c C0F20002 		movt	r2, #:upper16:USBUART_1_EP
 313 0260 0B46     		mov	r3, r1
 314 0262 4FEA4303 		lsl	r3, r3, #1
 315 0266 5B18     		adds	r3, r3, r1
 316 0268 4FEA8303 		lsl	r3, r3, #2
 317 026c D318     		adds	r3, r2, r3
 318 026e 9B78     		ldrb	r3, [r3, #2]
 319 0270 DAB2     		uxtb	r2, r3
 195:.\Generated_Source\PSoC5/USBUART_1_std.c ****                         USBUART_1_tBuffer[0u] = USBUART_1_EP[ \
 320              		.loc 1 195 0
 321 0272 40F20003 		movw	r3, #:lower16:USBUART_1_tBuffer.4988
 322 0276 C0F20003 		movt	r3, #:upper16:USBUART_1_tBuffer.4988
 323 027a 1A70     		strb	r2, [r3, #0]
 197:.\Generated_Source\PSoC5/USBUART_1_std.c ****                         USBUART_1_tBuffer[1u] = 0u;
 324              		.loc 1 197 0
 325 027c 40F20003 		movw	r3, #:lower16:USBUART_1_tBuffer.4988
 326 0280 C0F20003 		movt	r3, #:upper16:USBUART_1_tBuffer.4988
 327 0284 4FF00002 		mov	r2, #0
 328 0288 5A70     		strb	r2, [r3, #1]
 198:.\Generated_Source\PSoC5/USBUART_1_std.c ****                         USBUART_1_currentTD.pData = &USBUART_1_tBuffer[0u];
 329              		.loc 1 198 0
 330 028a 40F20003 		movw	r3, #:lower16:USBUART_1_currentTD
 331 028e C0F20003 		movt	r3, #:upper16:USBUART_1_currentTD
 332 0292 40F20002 		movw	r2, #:lower16:USBUART_1_tBuffer.4988
 333 0296 C0F20002 		movt	r2, #:upper16:USBUART_1_tBuffer.4988
 334 029a 5A60     		str	r2, [r3, #4]
 199:.\Generated_Source\PSoC5/USBUART_1_std.c ****                         requestHandled  = USBUART_1_InitControlRead();
 335              		.loc 1 199 0
 336 029c FFF7FEFF 		bl	USBUART_1_InitControlRead
 337 02a0 0346     		mov	r3, r0
 338 02a2 FB75     		strb	r3, [r7, #23]
ARM GAS  C:\Users\Robert\AppData\Local\Temp\ccdadQBo.s 			page 11


 200:.\Generated_Source\PSoC5/USBUART_1_std.c ****                         break;
 339              		.loc 1 200 0
 340 02a4 27E0     		b	.L22
 341              	.L20:
 201:.\Generated_Source\PSoC5/USBUART_1_std.c ****                     case USBUART_1_RQST_RCPT_DEV:
 202:.\Generated_Source\PSoC5/USBUART_1_std.c ****                         USBUART_1_currentTD.count = USBUART_1_DEVICE_STATUS_LENGTH;
 342              		.loc 1 202 0
 343 02a6 40F20003 		movw	r3, #:lower16:USBUART_1_currentTD
 344 02aa C0F20003 		movt	r3, #:upper16:USBUART_1_currentTD
 345 02ae 4FF00202 		mov	r2, #2
 346 02b2 1A80     		strh	r2, [r3, #0]	@ movhi
 203:.\Generated_Source\PSoC5/USBUART_1_std.c ****                         USBUART_1_tBuffer[0u] = USBUART_1_deviceStatus;
 347              		.loc 1 203 0
 348 02b4 40F20003 		movw	r3, #:lower16:USBUART_1_deviceStatus
 349 02b8 C0F20003 		movt	r3, #:upper16:USBUART_1_deviceStatus
 350 02bc 1B78     		ldrb	r3, [r3, #0]
 351 02be DAB2     		uxtb	r2, r3
 352 02c0 40F20003 		movw	r3, #:lower16:USBUART_1_tBuffer.4988
 353 02c4 C0F20003 		movt	r3, #:upper16:USBUART_1_tBuffer.4988
 354 02c8 1A70     		strb	r2, [r3, #0]
 204:.\Generated_Source\PSoC5/USBUART_1_std.c ****                         USBUART_1_tBuffer[1u] = 0u;
 355              		.loc 1 204 0
 356 02ca 40F20003 		movw	r3, #:lower16:USBUART_1_tBuffer.4988
 357 02ce C0F20003 		movt	r3, #:upper16:USBUART_1_tBuffer.4988
 358 02d2 4FF00002 		mov	r2, #0
 359 02d6 5A70     		strb	r2, [r3, #1]
 205:.\Generated_Source\PSoC5/USBUART_1_std.c ****                         USBUART_1_currentTD.pData = &USBUART_1_tBuffer[0u];
 360              		.loc 1 205 0
 361 02d8 40F20003 		movw	r3, #:lower16:USBUART_1_currentTD
 362 02dc C0F20003 		movt	r3, #:upper16:USBUART_1_currentTD
 363 02e0 40F20002 		movw	r2, #:lower16:USBUART_1_tBuffer.4988
 364 02e4 C0F20002 		movt	r2, #:upper16:USBUART_1_tBuffer.4988
 365 02e8 5A60     		str	r2, [r3, #4]
 206:.\Generated_Source\PSoC5/USBUART_1_std.c ****                         requestHandled  = USBUART_1_InitControlRead();
 366              		.loc 1 206 0
 367 02ea FFF7FEFF 		bl	USBUART_1_InitControlRead
 368 02ee 0346     		mov	r3, r0
 369 02f0 FB75     		strb	r3, [r7, #23]
 207:.\Generated_Source\PSoC5/USBUART_1_std.c ****                         break;
 370              		.loc 1 207 0
 371 02f2 00E0     		b	.L22
 372              	.L54:
 208:.\Generated_Source\PSoC5/USBUART_1_std.c ****                     default:    /* requestHandled is initialized as FALSE by default */
 209:.\Generated_Source\PSoC5/USBUART_1_std.c ****                         break;
 373              		.loc 1 209 0
 374 02f4 00BF     		nop
 375              	.L22:
 210:.\Generated_Source\PSoC5/USBUART_1_std.c ****                 }
 211:.\Generated_Source\PSoC5/USBUART_1_std.c ****                 break;
 376              		.loc 1 211 0
 377 02f6 A7E1     		b	.L23
 378              	.L6:
 212:.\Generated_Source\PSoC5/USBUART_1_std.c ****             case USBUART_1_GET_CONFIGURATION:
 213:.\Generated_Source\PSoC5/USBUART_1_std.c ****                 USBUART_1_currentTD.count = 1u;
 379              		.loc 1 213 0
 380 02f8 40F20003 		movw	r3, #:lower16:USBUART_1_currentTD
 381 02fc C0F20003 		movt	r3, #:upper16:USBUART_1_currentTD
ARM GAS  C:\Users\Robert\AppData\Local\Temp\ccdadQBo.s 			page 12


 382 0300 4FF00102 		mov	r2, #1
 383 0304 1A80     		strh	r2, [r3, #0]	@ movhi
 214:.\Generated_Source\PSoC5/USBUART_1_std.c ****                 USBUART_1_currentTD.pData = (volatile uint8 *)&USBUART_1_configuration;
 384              		.loc 1 214 0
 385 0306 40F20003 		movw	r3, #:lower16:USBUART_1_currentTD
 386 030a C0F20003 		movt	r3, #:upper16:USBUART_1_currentTD
 387 030e 40F20002 		movw	r2, #:lower16:USBUART_1_configuration
 388 0312 C0F20002 		movt	r2, #:upper16:USBUART_1_configuration
 389 0316 5A60     		str	r2, [r3, #4]
 215:.\Generated_Source\PSoC5/USBUART_1_std.c ****                 requestHandled  = USBUART_1_InitControlRead();
 390              		.loc 1 215 0
 391 0318 FFF7FEFF 		bl	USBUART_1_InitControlRead
 392 031c 0346     		mov	r3, r0
 393 031e FB75     		strb	r3, [r7, #23]
 216:.\Generated_Source\PSoC5/USBUART_1_std.c ****                 break;
 394              		.loc 1 216 0
 395 0320 92E1     		b	.L23
 396              	.L7:
 217:.\Generated_Source\PSoC5/USBUART_1_std.c ****             case USBUART_1_GET_INTERFACE:
 218:.\Generated_Source\PSoC5/USBUART_1_std.c ****                 USBUART_1_currentTD.count = 1u;
 397              		.loc 1 218 0
 398 0322 40F20003 		movw	r3, #:lower16:USBUART_1_currentTD
 399 0326 C0F20003 		movt	r3, #:upper16:USBUART_1_currentTD
 400 032a 4FF00102 		mov	r2, #1
 401 032e 1A80     		strh	r2, [r3, #0]	@ movhi
 219:.\Generated_Source\PSoC5/USBUART_1_std.c ****                 USBUART_1_currentTD.pData = (volatile uint8 *)&USBUART_1_interfaceSetting[ \
 220:.\Generated_Source\PSoC5/USBUART_1_std.c ****                                                                             CY_GET_REG8(USBUART_1_w
 402              		.loc 1 220 0
 403 0330 46F20403 		movw	r3, #24580
 404 0334 C4F20003 		movt	r3, 16384
 405 0338 1B78     		ldrb	r3, [r3, #0]
 406 033a DBB2     		uxtb	r3, r3
 219:.\Generated_Source\PSoC5/USBUART_1_std.c ****                 USBUART_1_currentTD.pData = (volatile uint8 *)&USBUART_1_interfaceSetting[ \
 407              		.loc 1 219 0
 408 033c 1A46     		mov	r2, r3
 409 033e 40F20003 		movw	r3, #:lower16:USBUART_1_interfaceSetting
 410 0342 C0F20003 		movt	r3, #:upper16:USBUART_1_interfaceSetting
 411 0346 D218     		adds	r2, r2, r3
 412 0348 40F20003 		movw	r3, #:lower16:USBUART_1_currentTD
 413 034c C0F20003 		movt	r3, #:upper16:USBUART_1_currentTD
 414 0350 5A60     		str	r2, [r3, #4]
 221:.\Generated_Source\PSoC5/USBUART_1_std.c ****                 requestHandled  = USBUART_1_InitControlRead();
 415              		.loc 1 221 0
 416 0352 FFF7FEFF 		bl	USBUART_1_InitControlRead
 417 0356 0346     		mov	r3, r0
 418 0358 FB75     		strb	r3, [r7, #23]
 222:.\Generated_Source\PSoC5/USBUART_1_std.c ****                 break;
 419              		.loc 1 222 0
 420 035a 00BF     		nop
 421 035c 74E1     		b	.L23
 422              	.L2:
 223:.\Generated_Source\PSoC5/USBUART_1_std.c ****             default: /* requestHandled is initialized as FALSE by default */
 224:.\Generated_Source\PSoC5/USBUART_1_std.c ****                 break;
 225:.\Generated_Source\PSoC5/USBUART_1_std.c ****         }
 226:.\Generated_Source\PSoC5/USBUART_1_std.c ****     }
 227:.\Generated_Source\PSoC5/USBUART_1_std.c ****     else {
 228:.\Generated_Source\PSoC5/USBUART_1_std.c ****         /* Control Write */
ARM GAS  C:\Users\Robert\AppData\Local\Temp\ccdadQBo.s 			page 13


 229:.\Generated_Source\PSoC5/USBUART_1_std.c ****         switch (CY_GET_REG8(USBUART_1_bRequest))
 423              		.loc 1 229 0
 424 035e 46F20103 		movw	r3, #24577
 425 0362 C4F20003 		movt	r3, 16384
 426 0366 1B78     		ldrb	r3, [r3, #0]
 427 0368 DBB2     		uxtb	r3, r3
 428 036a 03F1FF33 		add	r3, r3, #-1
 429 036e 0A2B     		cmp	r3, #10
 430 0370 00F26581 		bhi	.L59
 431 0374 01A2     		adr	r2, .L30
 432 0376 52F823F0 		ldr	pc, [r2, r3, lsl #2]
 433 037a 00BF     		.align	2
 434              	.L30:
 435 037c 97040000 		.word	.L25+1
 436 0380 3F060000 		.word	.L59+1
 437 0384 67050000 		.word	.L26+1
 438 0388 3F060000 		.word	.L59+1
 439 038c A9030000 		.word	.L27+1
 440 0390 3F060000 		.word	.L59+1
 441 0394 3F060000 		.word	.L59+1
 442 0398 3F060000 		.word	.L59+1
 443 039c C9030000 		.word	.L28+1
 444 03a0 3F060000 		.word	.L59+1
 445 03a4 3D040000 		.word	.L29+1
 446              	.L27:
 230:.\Generated_Source\PSoC5/USBUART_1_std.c ****         {
 231:.\Generated_Source\PSoC5/USBUART_1_std.c ****             case USBUART_1_SET_ADDRESS:
 232:.\Generated_Source\PSoC5/USBUART_1_std.c ****                 USBUART_1_deviceAddress = CY_GET_REG8(USBUART_1_wValueLo);
 447              		.loc 1 232 0
 448 03a8 46F20203 		movw	r3, #24578
 449 03ac C4F20003 		movt	r3, 16384
 450 03b0 1B78     		ldrb	r3, [r3, #0]
 451 03b2 DAB2     		uxtb	r2, r3
 452 03b4 40F20003 		movw	r3, #:lower16:USBUART_1_deviceAddress
 453 03b8 C0F20003 		movt	r3, #:upper16:USBUART_1_deviceAddress
 454 03bc 1A70     		strb	r2, [r3, #0]
 233:.\Generated_Source\PSoC5/USBUART_1_std.c ****                 requestHandled = USBUART_1_InitNoDataControlTransfer();
 455              		.loc 1 233 0
 456 03be FFF7FEFF 		bl	USBUART_1_InitNoDataControlTransfer
 457 03c2 0346     		mov	r3, r0
 458 03c4 FB75     		strb	r3, [r7, #23]
 234:.\Generated_Source\PSoC5/USBUART_1_std.c ****                 break;
 459              		.loc 1 234 0
 460 03c6 3FE1     		b	.L23
 461              	.L28:
 235:.\Generated_Source\PSoC5/USBUART_1_std.c ****             case USBUART_1_SET_CONFIGURATION:
 236:.\Generated_Source\PSoC5/USBUART_1_std.c ****                 configurationN = CY_GET_REG8(USBUART_1_wValueLo);
 462              		.loc 1 236 0
 463 03c8 46F20203 		movw	r3, #24578
 464 03cc C4F20003 		movt	r3, 16384
 465 03d0 1B78     		ldrb	r3, [r3, #0]
 466 03d2 BB71     		strb	r3, [r7, #6]
 237:.\Generated_Source\PSoC5/USBUART_1_std.c ****                 if(configurationN > 0)
 467              		.loc 1 237 0
 468 03d4 BB79     		ldrb	r3, [r7, #6]	@ zero_extendqisi2
 469 03d6 002B     		cmp	r3, #0
 470 03d8 07D0     		beq	.L31
ARM GAS  C:\Users\Robert\AppData\Local\Temp\ccdadQBo.s 			page 14


 238:.\Generated_Source\PSoC5/USBUART_1_std.c ****                 {   /* Verify that configuration descriptor exists */
 239:.\Generated_Source\PSoC5/USBUART_1_std.c ****                     pTmp = USBUART_1_GetConfigTablePtr(configurationN - 1u);
 471              		.loc 1 239 0
 472 03da BB79     		ldrb	r3, [r7, #6]
 473 03dc 03F1FF33 		add	r3, r3, #-1
 474 03e0 DBB2     		uxtb	r3, r3
 475 03e2 1846     		mov	r0, r3
 476 03e4 FFF7FEFF 		bl	USBUART_1_GetConfigTablePtr
 477 03e8 B860     		str	r0, [r7, #8]
 478              	.L31:
 240:.\Generated_Source\PSoC5/USBUART_1_std.c ****                 }
 241:.\Generated_Source\PSoC5/USBUART_1_std.c ****                 /* Responds with a Request Error when configuration number is invalid */
 242:.\Generated_Source\PSoC5/USBUART_1_std.c ****                 if (((configurationN > 0) && (pTmp != NULL)) || (configurationN == 0u))
 479              		.loc 1 242 0
 480 03ea BB79     		ldrb	r3, [r7, #6]	@ zero_extendqisi2
 481 03ec 002B     		cmp	r3, #0
 482 03ee 02D0     		beq	.L32
 483              		.loc 1 242 0 is_stmt 0 discriminator 1
 484 03f0 BB68     		ldr	r3, [r7, #8]
 485 03f2 002B     		cmp	r3, #0
 486 03f4 03D1     		bne	.L33
 487              	.L32:
 488              		.loc 1 242 0 discriminator 2
 489 03f6 BB79     		ldrb	r3, [r7, #6]	@ zero_extendqisi2
 490 03f8 002B     		cmp	r3, #0
 491 03fa 40F02281 		bne	.L60
 492              	.L33:
 243:.\Generated_Source\PSoC5/USBUART_1_std.c ****                 {
 244:.\Generated_Source\PSoC5/USBUART_1_std.c ****                     /* Set new configuration if it has been changed */
 245:.\Generated_Source\PSoC5/USBUART_1_std.c ****                     if(configurationN != USBUART_1_configuration)        
 493              		.loc 1 245 0 is_stmt 1
 494 03fe 40F20003 		movw	r3, #:lower16:USBUART_1_configuration
 495 0402 C0F20003 		movt	r3, #:upper16:USBUART_1_configuration
 496 0406 1B78     		ldrb	r3, [r3, #0]
 497 0408 DBB2     		uxtb	r3, r3
 498 040a BA79     		ldrb	r2, [r7, #6]	@ zero_extendqisi2
 499 040c 9A42     		cmp	r2, r3
 500 040e 10D0     		beq	.L35
 246:.\Generated_Source\PSoC5/USBUART_1_std.c ****                     {
 247:.\Generated_Source\PSoC5/USBUART_1_std.c ****                         USBUART_1_configuration = configurationN;
 501              		.loc 1 247 0
 502 0410 40F20003 		movw	r3, #:lower16:USBUART_1_configuration
 503 0414 C0F20003 		movt	r3, #:upper16:USBUART_1_configuration
 504 0418 BA79     		ldrb	r2, [r7, #6]
 505 041a 1A70     		strb	r2, [r3, #0]
 248:.\Generated_Source\PSoC5/USBUART_1_std.c ****                         USBUART_1_configurationChanged = USBUART_1_TRUE;
 506              		.loc 1 248 0
 507 041c 40F20003 		movw	r3, #:lower16:USBUART_1_configurationChanged
 508 0420 C0F20003 		movt	r3, #:upper16:USBUART_1_configurationChanged
 509 0424 4FF00102 		mov	r2, #1
 510 0428 1A70     		strb	r2, [r3, #0]
 249:.\Generated_Source\PSoC5/USBUART_1_std.c ****                         USBUART_1_Config(USBUART_1_TRUE);
 511              		.loc 1 249 0
 512 042a 4FF00100 		mov	r0, #1
 513 042e FFF7FEFF 		bl	USBUART_1_Config
 514              	.L35:
 250:.\Generated_Source\PSoC5/USBUART_1_std.c ****                     }
ARM GAS  C:\Users\Robert\AppData\Local\Temp\ccdadQBo.s 			page 15


 251:.\Generated_Source\PSoC5/USBUART_1_std.c ****                     requestHandled = USBUART_1_InitNoDataControlTransfer();
 515              		.loc 1 251 0
 516 0432 FFF7FEFF 		bl	USBUART_1_InitNoDataControlTransfer
 517 0436 0346     		mov	r3, r0
 518 0438 FB75     		strb	r3, [r7, #23]
 252:.\Generated_Source\PSoC5/USBUART_1_std.c ****                 }
 253:.\Generated_Source\PSoC5/USBUART_1_std.c ****                 break;
 519              		.loc 1 253 0
 520 043a 02E1     		b	.L60
 521              	.L29:
 254:.\Generated_Source\PSoC5/USBUART_1_std.c ****             case USBUART_1_SET_INTERFACE:
 255:.\Generated_Source\PSoC5/USBUART_1_std.c ****                 if (USBUART_1_ValidateAlternateSetting() != 0u)
 522              		.loc 1 255 0
 523 043c FFF7FEFF 		bl	USBUART_1_ValidateAlternateSetting
 524 0440 0346     		mov	r3, r0
 525 0442 002B     		cmp	r3, #0
 526 0444 00F0FF80 		beq	.L61
 256:.\Generated_Source\PSoC5/USBUART_1_std.c ****                 {
 257:.\Generated_Source\PSoC5/USBUART_1_std.c ****                     interfaceNumber = CY_GET_REG8(USBUART_1_wIndexLo);
 527              		.loc 1 257 0
 528 0448 46F20403 		movw	r3, #24580
 529 044c C4F20003 		movt	r3, 16384
 530 0450 1B78     		ldrb	r3, [r3, #0]
 531 0452 7B71     		strb	r3, [r7, #5]
 258:.\Generated_Source\PSoC5/USBUART_1_std.c ****                     USBUART_1_interfaceNumber = interfaceNumber;
 532              		.loc 1 258 0
 533 0454 40F20003 		movw	r3, #:lower16:USBUART_1_interfaceNumber
 534 0458 C0F20003 		movt	r3, #:upper16:USBUART_1_interfaceNumber
 535 045c 7A79     		ldrb	r2, [r7, #5]
 536 045e 1A70     		strb	r2, [r3, #0]
 259:.\Generated_Source\PSoC5/USBUART_1_std.c ****                     USBUART_1_configurationChanged = USBUART_1_TRUE;
 537              		.loc 1 259 0
 538 0460 40F20003 		movw	r3, #:lower16:USBUART_1_configurationChanged
 539 0464 C0F20003 		movt	r3, #:upper16:USBUART_1_configurationChanged
 540 0468 4FF00102 		mov	r2, #1
 541 046c 1A70     		strb	r2, [r3, #0]
 260:.\Generated_Source\PSoC5/USBUART_1_std.c ****                     #if ((USBUART_1_EP_MA == USBUART_1__MA_DYNAMIC) && \
 261:.\Generated_Source\PSoC5/USBUART_1_std.c ****                          (USBUART_1_EP_MM == USBUART_1__EP_MANUAL) )
 262:.\Generated_Source\PSoC5/USBUART_1_std.c ****                         USBUART_1_Config(USBUART_1_FALSE);
 263:.\Generated_Source\PSoC5/USBUART_1_std.c ****                     #else
 264:.\Generated_Source\PSoC5/USBUART_1_std.c ****                         USBUART_1_ConfigAltChanged();
 542              		.loc 1 264 0
 543 046e FFF7FEFF 		bl	USBUART_1_ConfigAltChanged
 265:.\Generated_Source\PSoC5/USBUART_1_std.c ****                     #endif /*  (USBUART_1_EP_MA == USBUART_1__MA_DYNAMIC) */
 266:.\Generated_Source\PSoC5/USBUART_1_std.c ****                     /* Update handled Alt setting changes status */
 267:.\Generated_Source\PSoC5/USBUART_1_std.c ****                     USBUART_1_interfaceSetting_last[interfaceNumber] =
 544              		.loc 1 267 0
 545 0472 7A79     		ldrb	r2, [r7, #5]	@ zero_extendqisi2
 268:.\Generated_Source\PSoC5/USBUART_1_std.c ****                          USBUART_1_interfaceSetting[interfaceNumber];
 546              		.loc 1 268 0
 547 0474 7979     		ldrb	r1, [r7, #5]	@ zero_extendqisi2
 548 0476 40F20003 		movw	r3, #:lower16:USBUART_1_interfaceSetting
 549 047a C0F20003 		movt	r3, #:upper16:USBUART_1_interfaceSetting
 550 047e 5B5C     		ldrb	r3, [r3, r1]
 551 0480 D9B2     		uxtb	r1, r3
 267:.\Generated_Source\PSoC5/USBUART_1_std.c ****                     USBUART_1_interfaceSetting_last[interfaceNumber] =
 552              		.loc 1 267 0
ARM GAS  C:\Users\Robert\AppData\Local\Temp\ccdadQBo.s 			page 16


 553 0482 40F20003 		movw	r3, #:lower16:USBUART_1_interfaceSetting_last
 554 0486 C0F20003 		movt	r3, #:upper16:USBUART_1_interfaceSetting_last
 555 048a 9954     		strb	r1, [r3, r2]
 269:.\Generated_Source\PSoC5/USBUART_1_std.c ****                     requestHandled = USBUART_1_InitNoDataControlTransfer();
 556              		.loc 1 269 0
 557 048c FFF7FEFF 		bl	USBUART_1_InitNoDataControlTransfer
 558 0490 0346     		mov	r3, r0
 559 0492 FB75     		strb	r3, [r7, #23]
 270:.\Generated_Source\PSoC5/USBUART_1_std.c ****                 }
 271:.\Generated_Source\PSoC5/USBUART_1_std.c ****                 break;
 560              		.loc 1 271 0
 561 0494 D7E0     		b	.L61
 562              	.L25:
 272:.\Generated_Source\PSoC5/USBUART_1_std.c ****             case USBUART_1_CLEAR_FEATURE:
 273:.\Generated_Source\PSoC5/USBUART_1_std.c ****                 switch (CY_GET_REG8(USBUART_1_bmRequestType) & USBUART_1_RQST_RCPT_MASK)
 563              		.loc 1 273 0
 564 0496 4FF4C043 		mov	r3, #24576
 565 049a C4F20003 		movt	r3, 16384
 566 049e 1B78     		ldrb	r3, [r3, #0]
 567 04a0 DBB2     		uxtb	r3, r3
 568 04a2 03F00303 		and	r3, r3, #3
 569 04a6 012B     		cmp	r3, #1
 570 04a8 2BD0     		beq	.L39
 571 04aa 012B     		cmp	r3, #1
 572 04ac 0ED3     		bcc	.L38
 573 04ae 022B     		cmp	r3, #2
 574 04b0 52D1     		bne	.L55
 575              	.L40:
 274:.\Generated_Source\PSoC5/USBUART_1_std.c ****                 {
 275:.\Generated_Source\PSoC5/USBUART_1_std.c ****                     case USBUART_1_RQST_RCPT_EP:
 276:.\Generated_Source\PSoC5/USBUART_1_std.c ****                         if (CY_GET_REG8(USBUART_1_wValueLo) == USBUART_1_ENDPOINT_HALT)
 576              		.loc 1 276 0
 577 04b2 46F20203 		movw	r3, #24578
 578 04b6 C4F20003 		movt	r3, 16384
 579 04ba 1B78     		ldrb	r3, [r3, #0]
 580 04bc DBB2     		uxtb	r3, r3
 581 04be 002B     		cmp	r3, #0
 582 04c0 4BD1     		bne	.L62
 277:.\Generated_Source\PSoC5/USBUART_1_std.c ****                         {
 278:.\Generated_Source\PSoC5/USBUART_1_std.c ****                             requestHandled = USBUART_1_ClearEndpointHalt();
 583              		.loc 1 278 0
 584 04c2 FFF7FEFF 		bl	USBUART_1_ClearEndpointHalt
 585 04c6 0346     		mov	r3, r0
 586 04c8 FB75     		strb	r3, [r7, #23]
 279:.\Generated_Source\PSoC5/USBUART_1_std.c ****                         }
 280:.\Generated_Source\PSoC5/USBUART_1_std.c ****                         break;
 587              		.loc 1 280 0
 588 04ca 46E0     		b	.L62
 589              	.L38:
 281:.\Generated_Source\PSoC5/USBUART_1_std.c ****                     case USBUART_1_RQST_RCPT_DEV:
 282:.\Generated_Source\PSoC5/USBUART_1_std.c ****                         /* Clear device REMOTE_WAKEUP */
 283:.\Generated_Source\PSoC5/USBUART_1_std.c ****                         if (CY_GET_REG8(USBUART_1_wValueLo) == USBUART_1_DEVICE_REMOTE_WAKEUP)
 590              		.loc 1 283 0
 591 04cc 46F20203 		movw	r3, #24578
 592 04d0 C4F20003 		movt	r3, 16384
 593 04d4 1B78     		ldrb	r3, [r3, #0]
 594 04d6 DBB2     		uxtb	r3, r3
ARM GAS  C:\Users\Robert\AppData\Local\Temp\ccdadQBo.s 			page 17


 595 04d8 012B     		cmp	r3, #1
 596 04da 40D1     		bne	.L63
 284:.\Generated_Source\PSoC5/USBUART_1_std.c ****                         {
 285:.\Generated_Source\PSoC5/USBUART_1_std.c ****                             USBUART_1_deviceStatus &= (uint8)~USBUART_1_DEVICE_STATUS_REMOTE_WAKEUP
 597              		.loc 1 285 0
 598 04dc 40F20003 		movw	r3, #:lower16:USBUART_1_deviceStatus
 599 04e0 C0F20003 		movt	r3, #:upper16:USBUART_1_deviceStatus
 600 04e4 1B78     		ldrb	r3, [r3, #0]
 601 04e6 DBB2     		uxtb	r3, r3
 602 04e8 23F00203 		bic	r3, r3, #2
 603 04ec DAB2     		uxtb	r2, r3
 604 04ee 40F20003 		movw	r3, #:lower16:USBUART_1_deviceStatus
 605 04f2 C0F20003 		movt	r3, #:upper16:USBUART_1_deviceStatus
 606 04f6 1A70     		strb	r2, [r3, #0]
 286:.\Generated_Source\PSoC5/USBUART_1_std.c ****                             requestHandled = USBUART_1_InitNoDataControlTransfer();
 607              		.loc 1 286 0
 608 04f8 FFF7FEFF 		bl	USBUART_1_InitNoDataControlTransfer
 609 04fc 0346     		mov	r3, r0
 610 04fe FB75     		strb	r3, [r7, #23]
 287:.\Generated_Source\PSoC5/USBUART_1_std.c ****                         }
 288:.\Generated_Source\PSoC5/USBUART_1_std.c ****                         break;
 611              		.loc 1 288 0
 612 0500 2DE0     		b	.L63
 613              	.L39:
 289:.\Generated_Source\PSoC5/USBUART_1_std.c ****                     case USBUART_1_RQST_RCPT_IFC:
 290:.\Generated_Source\PSoC5/USBUART_1_std.c ****                         /* Validate interfaceNumber */
 291:.\Generated_Source\PSoC5/USBUART_1_std.c ****                         if (CY_GET_REG8(USBUART_1_wIndexLo) < USBUART_1_MAX_INTERFACES_NUMBER)
 614              		.loc 1 291 0
 615 0502 46F20403 		movw	r3, #24580
 616 0506 C4F20003 		movt	r3, 16384
 617 050a 1B78     		ldrb	r3, [r3, #0]
 618 050c DBB2     		uxtb	r3, r3
 619 050e 012B     		cmp	r3, #1
 620 0510 27D8     		bhi	.L64
 292:.\Generated_Source\PSoC5/USBUART_1_std.c ****                         {
 293:.\Generated_Source\PSoC5/USBUART_1_std.c ****                             USBUART_1_interfaceStatus[CY_GET_REG8(USBUART_1_wIndexLo)] &=
 621              		.loc 1 293 0
 622 0512 46F20403 		movw	r3, #24580
 623 0516 C4F20003 		movt	r3, 16384
 624 051a 1B78     		ldrb	r3, [r3, #0]
 625 051c DBB2     		uxtb	r3, r3
 626 051e 1A46     		mov	r2, r3
 627 0520 1946     		mov	r1, r3
 628 0522 40F20003 		movw	r3, #:lower16:USBUART_1_interfaceStatus
 629 0526 C0F20003 		movt	r3, #:upper16:USBUART_1_interfaceStatus
 630 052a 5B5C     		ldrb	r3, [r3, r1]
 631 052c D9B2     		uxtb	r1, r3
 294:.\Generated_Source\PSoC5/USBUART_1_std.c ****                                                                 (uint8)~(CY_GET_REG8(USBUART_1_wVal
 632              		.loc 1 294 0
 633 052e 46F20203 		movw	r3, #24578
 634 0532 C4F20003 		movt	r3, 16384
 635 0536 1B78     		ldrb	r3, [r3, #0]
 636 0538 DBB2     		uxtb	r3, r3
 637 053a 6FEA0303 		mvn	r3, r3
 638 053e DBB2     		uxtb	r3, r3
 293:.\Generated_Source\PSoC5/USBUART_1_std.c ****                             USBUART_1_interfaceStatus[CY_GET_REG8(USBUART_1_wIndexLo)] &=
 639              		.loc 1 293 0
ARM GAS  C:\Users\Robert\AppData\Local\Temp\ccdadQBo.s 			page 18


 640 0540 0B40     		ands	r3, r3, r1
 641 0542 D9B2     		uxtb	r1, r3
 642 0544 40F20003 		movw	r3, #:lower16:USBUART_1_interfaceStatus
 643 0548 C0F20003 		movt	r3, #:upper16:USBUART_1_interfaceStatus
 644 054c 9954     		strb	r1, [r3, r2]
 295:.\Generated_Source\PSoC5/USBUART_1_std.c ****                             requestHandled = USBUART_1_InitNoDataControlTransfer();
 645              		.loc 1 295 0
 646 054e FFF7FEFF 		bl	USBUART_1_InitNoDataControlTransfer
 647 0552 0346     		mov	r3, r0
 648 0554 FB75     		strb	r3, [r7, #23]
 296:.\Generated_Source\PSoC5/USBUART_1_std.c ****                         }
 297:.\Generated_Source\PSoC5/USBUART_1_std.c ****                         break;
 649              		.loc 1 297 0
 650 0556 04E0     		b	.L64
 651              	.L55:
 298:.\Generated_Source\PSoC5/USBUART_1_std.c ****                     default:    /* requestHandled is initialized as FALSE by default */
 299:.\Generated_Source\PSoC5/USBUART_1_std.c ****                         break;
 652              		.loc 1 299 0
 653 0558 04E0     		b	.L42
 654              	.L62:
 280:.\Generated_Source\PSoC5/USBUART_1_std.c ****                         break;
 655              		.loc 1 280 0
 656 055a 00BF     		nop
 657 055c 02E0     		b	.L42
 658              	.L63:
 288:.\Generated_Source\PSoC5/USBUART_1_std.c ****                         break;
 659              		.loc 1 288 0
 660 055e 00BF     		nop
 661 0560 00E0     		b	.L42
 662              	.L64:
 297:.\Generated_Source\PSoC5/USBUART_1_std.c ****                         break;
 663              		.loc 1 297 0
 664 0562 00BF     		nop
 665              	.L42:
 300:.\Generated_Source\PSoC5/USBUART_1_std.c ****                 }
 301:.\Generated_Source\PSoC5/USBUART_1_std.c ****                 break;
 666              		.loc 1 301 0
 667 0564 70E0     		b	.L23
 668              	.L26:
 302:.\Generated_Source\PSoC5/USBUART_1_std.c ****             case USBUART_1_SET_FEATURE:
 303:.\Generated_Source\PSoC5/USBUART_1_std.c ****                 switch (CY_GET_REG8(USBUART_1_bmRequestType) & USBUART_1_RQST_RCPT_MASK)
 669              		.loc 1 303 0
 670 0566 4FF4C043 		mov	r3, #24576
 671 056a C4F20003 		movt	r3, 16384
 672 056e 1B78     		ldrb	r3, [r3, #0]
 673 0570 DBB2     		uxtb	r3, r3
 674 0572 03F00303 		and	r3, r3, #3
 675 0576 012B     		cmp	r3, #1
 676 0578 2BD0     		beq	.L47
 677 057a 012B     		cmp	r3, #1
 678 057c 0ED3     		bcc	.L46
 679 057e 022B     		cmp	r3, #2
 680 0580 52D1     		bne	.L56
 681              	.L48:
 304:.\Generated_Source\PSoC5/USBUART_1_std.c ****                 {
 305:.\Generated_Source\PSoC5/USBUART_1_std.c ****                     case USBUART_1_RQST_RCPT_EP:
 306:.\Generated_Source\PSoC5/USBUART_1_std.c ****                         if (CY_GET_REG8(USBUART_1_wValueLo) == USBUART_1_ENDPOINT_HALT)
ARM GAS  C:\Users\Robert\AppData\Local\Temp\ccdadQBo.s 			page 19


 682              		.loc 1 306 0
 683 0582 46F20203 		movw	r3, #24578
 684 0586 C4F20003 		movt	r3, 16384
 685 058a 1B78     		ldrb	r3, [r3, #0]
 686 058c DBB2     		uxtb	r3, r3
 687 058e 002B     		cmp	r3, #0
 688 0590 4BD1     		bne	.L65
 307:.\Generated_Source\PSoC5/USBUART_1_std.c ****                         {
 308:.\Generated_Source\PSoC5/USBUART_1_std.c ****                             requestHandled = USBUART_1_SetEndpointHalt();
 689              		.loc 1 308 0
 690 0592 FFF7FEFF 		bl	USBUART_1_SetEndpointHalt
 691 0596 0346     		mov	r3, r0
 692 0598 FB75     		strb	r3, [r7, #23]
 309:.\Generated_Source\PSoC5/USBUART_1_std.c ****                         }
 310:.\Generated_Source\PSoC5/USBUART_1_std.c ****                         break;
 693              		.loc 1 310 0
 694 059a 46E0     		b	.L65
 695              	.L46:
 311:.\Generated_Source\PSoC5/USBUART_1_std.c ****                     case USBUART_1_RQST_RCPT_DEV:
 312:.\Generated_Source\PSoC5/USBUART_1_std.c ****                         /* Set device REMOTE_WAKEUP */
 313:.\Generated_Source\PSoC5/USBUART_1_std.c ****                         if (CY_GET_REG8(USBUART_1_wValueLo) == USBUART_1_DEVICE_REMOTE_WAKEUP)
 696              		.loc 1 313 0
 697 059c 46F20203 		movw	r3, #24578
 698 05a0 C4F20003 		movt	r3, 16384
 699 05a4 1B78     		ldrb	r3, [r3, #0]
 700 05a6 DBB2     		uxtb	r3, r3
 701 05a8 012B     		cmp	r3, #1
 702 05aa 40D1     		bne	.L66
 314:.\Generated_Source\PSoC5/USBUART_1_std.c ****                         {
 315:.\Generated_Source\PSoC5/USBUART_1_std.c ****                             USBUART_1_deviceStatus |= USBUART_1_DEVICE_STATUS_REMOTE_WAKEUP;
 703              		.loc 1 315 0
 704 05ac 40F20003 		movw	r3, #:lower16:USBUART_1_deviceStatus
 705 05b0 C0F20003 		movt	r3, #:upper16:USBUART_1_deviceStatus
 706 05b4 1B78     		ldrb	r3, [r3, #0]
 707 05b6 DBB2     		uxtb	r3, r3
 708 05b8 43F00203 		orr	r3, r3, #2
 709 05bc DAB2     		uxtb	r2, r3
 710 05be 40F20003 		movw	r3, #:lower16:USBUART_1_deviceStatus
 711 05c2 C0F20003 		movt	r3, #:upper16:USBUART_1_deviceStatus
 712 05c6 1A70     		strb	r2, [r3, #0]
 316:.\Generated_Source\PSoC5/USBUART_1_std.c ****                             requestHandled = USBUART_1_InitNoDataControlTransfer();
 713              		.loc 1 316 0
 714 05c8 FFF7FEFF 		bl	USBUART_1_InitNoDataControlTransfer
 715 05cc 0346     		mov	r3, r0
 716 05ce FB75     		strb	r3, [r7, #23]
 317:.\Generated_Source\PSoC5/USBUART_1_std.c ****                         }
 318:.\Generated_Source\PSoC5/USBUART_1_std.c ****                         break;
 717              		.loc 1 318 0
 718 05d0 2DE0     		b	.L66
 719              	.L47:
 319:.\Generated_Source\PSoC5/USBUART_1_std.c ****                     case USBUART_1_RQST_RCPT_IFC:
 320:.\Generated_Source\PSoC5/USBUART_1_std.c ****                         /* Validate interfaceNumber */
 321:.\Generated_Source\PSoC5/USBUART_1_std.c ****                         if (CY_GET_REG8(USBUART_1_wIndexLo) < USBUART_1_MAX_INTERFACES_NUMBER)
 720              		.loc 1 321 0
 721 05d2 46F20403 		movw	r3, #24580
 722 05d6 C4F20003 		movt	r3, 16384
 723 05da 1B78     		ldrb	r3, [r3, #0]
ARM GAS  C:\Users\Robert\AppData\Local\Temp\ccdadQBo.s 			page 20


 724 05dc DBB2     		uxtb	r3, r3
 725 05de 012B     		cmp	r3, #1
 726 05e0 27D8     		bhi	.L67
 322:.\Generated_Source\PSoC5/USBUART_1_std.c ****                         {
 323:.\Generated_Source\PSoC5/USBUART_1_std.c ****                             USBUART_1_interfaceStatus[CY_GET_REG8(USBUART_1_wIndexLo)] &=
 727              		.loc 1 323 0
 728 05e2 46F20403 		movw	r3, #24580
 729 05e6 C4F20003 		movt	r3, 16384
 730 05ea 1B78     		ldrb	r3, [r3, #0]
 731 05ec DBB2     		uxtb	r3, r3
 732 05ee 1A46     		mov	r2, r3
 733 05f0 1946     		mov	r1, r3
 734 05f2 40F20003 		movw	r3, #:lower16:USBUART_1_interfaceStatus
 735 05f6 C0F20003 		movt	r3, #:upper16:USBUART_1_interfaceStatus
 736 05fa 5B5C     		ldrb	r3, [r3, r1]
 737 05fc D9B2     		uxtb	r1, r3
 324:.\Generated_Source\PSoC5/USBUART_1_std.c ****                                                                 (uint8)~(CY_GET_REG8(USBUART_1_wVal
 738              		.loc 1 324 0
 739 05fe 46F20203 		movw	r3, #24578
 740 0602 C4F20003 		movt	r3, 16384
 741 0606 1B78     		ldrb	r3, [r3, #0]
 742 0608 DBB2     		uxtb	r3, r3
 743 060a 6FEA0303 		mvn	r3, r3
 744 060e DBB2     		uxtb	r3, r3
 323:.\Generated_Source\PSoC5/USBUART_1_std.c ****                             USBUART_1_interfaceStatus[CY_GET_REG8(USBUART_1_wIndexLo)] &=
 745              		.loc 1 323 0
 746 0610 0B40     		ands	r3, r3, r1
 747 0612 D9B2     		uxtb	r1, r3
 748 0614 40F20003 		movw	r3, #:lower16:USBUART_1_interfaceStatus
 749 0618 C0F20003 		movt	r3, #:upper16:USBUART_1_interfaceStatus
 750 061c 9954     		strb	r1, [r3, r2]
 325:.\Generated_Source\PSoC5/USBUART_1_std.c ****                             requestHandled = USBUART_1_InitNoDataControlTransfer();
 751              		.loc 1 325 0
 752 061e FFF7FEFF 		bl	USBUART_1_InitNoDataControlTransfer
 753 0622 0346     		mov	r3, r0
 754 0624 FB75     		strb	r3, [r7, #23]
 326:.\Generated_Source\PSoC5/USBUART_1_std.c ****                         }
 327:.\Generated_Source\PSoC5/USBUART_1_std.c ****                         break;
 755              		.loc 1 327 0
 756 0626 04E0     		b	.L67
 757              	.L56:
 328:.\Generated_Source\PSoC5/USBUART_1_std.c ****                     default:    /* requestHandled is initialized as FALSE by default */
 329:.\Generated_Source\PSoC5/USBUART_1_std.c ****                         break;
 758              		.loc 1 329 0
 759 0628 04E0     		b	.L50
 760              	.L65:
 310:.\Generated_Source\PSoC5/USBUART_1_std.c ****                         break;
 761              		.loc 1 310 0
 762 062a 00BF     		nop
 763 062c 02E0     		b	.L50
 764              	.L66:
 318:.\Generated_Source\PSoC5/USBUART_1_std.c ****                         break;
 765              		.loc 1 318 0
 766 062e 00BF     		nop
 767 0630 00E0     		b	.L50
 768              	.L67:
 327:.\Generated_Source\PSoC5/USBUART_1_std.c ****                         break;
ARM GAS  C:\Users\Robert\AppData\Local\Temp\ccdadQBo.s 			page 21


 769              		.loc 1 327 0
 770 0632 00BF     		nop
 771              	.L50:
 330:.\Generated_Source\PSoC5/USBUART_1_std.c ****                 }
 331:.\Generated_Source\PSoC5/USBUART_1_std.c ****                 break;
 772              		.loc 1 331 0
 773 0634 08E0     		b	.L23
 774              	.L57:
 224:.\Generated_Source\PSoC5/USBUART_1_std.c ****                 break;
 775              		.loc 1 224 0
 776 0636 00BF     		nop
 777 0638 06E0     		b	.L23
 778              	.L58:
 189:.\Generated_Source\PSoC5/USBUART_1_std.c ****                 break;
 779              		.loc 1 189 0
 780 063a 00BF     		nop
 781 063c 04E0     		b	.L23
 782              	.L59:
 332:.\Generated_Source\PSoC5/USBUART_1_std.c ****             default:    /* requestHandled is initialized as FALSE by default */
 333:.\Generated_Source\PSoC5/USBUART_1_std.c ****                 break;
 783              		.loc 1 333 0
 784 063e 00BF     		nop
 785 0640 02E0     		b	.L23
 786              	.L60:
 253:.\Generated_Source\PSoC5/USBUART_1_std.c ****                 break;
 787              		.loc 1 253 0
 788 0642 00BF     		nop
 789 0644 00E0     		b	.L23
 790              	.L61:
 271:.\Generated_Source\PSoC5/USBUART_1_std.c ****                 break;
 791              		.loc 1 271 0
 792 0646 00BF     		nop
 793              	.L23:
 334:.\Generated_Source\PSoC5/USBUART_1_std.c ****         }
 335:.\Generated_Source\PSoC5/USBUART_1_std.c ****     }
 336:.\Generated_Source\PSoC5/USBUART_1_std.c ****     return(requestHandled);
 794              		.loc 1 336 0
 795 0648 FB7D     		ldrb	r3, [r7, #23]	@ zero_extendqisi2
 337:.\Generated_Source\PSoC5/USBUART_1_std.c **** }
 796              		.loc 1 337 0
 797 064a 1846     		mov	r0, r3
 798 064c 07F11807 		add	r7, r7, #24
 799 0650 BD46     		mov	sp, r7
 800 0652 80BD     		pop	{r7, pc}
 801              		.cfi_endproc
 802              	.LFE0:
 803              		.size	USBUART_1_HandleStandardRqst, .-USBUART_1_HandleStandardRqst
 804              		.section	.rodata
 805              		.align	2
 806              	.LC0:
 807 0000 30313233 		.ascii	"0123456789ABCDEF\000"
 807      34353637 
 807      38394142 
 807      43444546 
 807      00
 808 0011 000000   		.section	.text.USBUART_1_ReadDieID,"ax",%progbits
 809              		.align	2
ARM GAS  C:\Users\Robert\AppData\Local\Temp\ccdadQBo.s 			page 22


 810              		.global	USBUART_1_ReadDieID
 811              		.thumb
 812              		.thumb_func
 813              		.type	USBUART_1_ReadDieID, %function
 814              	USBUART_1_ReadDieID:
 815              	.LFB1:
 338:.\Generated_Source\PSoC5/USBUART_1_std.c **** 
 339:.\Generated_Source\PSoC5/USBUART_1_std.c **** 
 340:.\Generated_Source\PSoC5/USBUART_1_std.c **** #if defined(USBUART_1_ENABLE_IDSN_STRING)
 341:.\Generated_Source\PSoC5/USBUART_1_std.c **** 
 342:.\Generated_Source\PSoC5/USBUART_1_std.c ****     /***************************************************************************
 343:.\Generated_Source\PSoC5/USBUART_1_std.c ****     * Function Name: USBUART_1_ReadDieID
 344:.\Generated_Source\PSoC5/USBUART_1_std.c ****     ****************************************************************************
 345:.\Generated_Source\PSoC5/USBUART_1_std.c ****     *
 346:.\Generated_Source\PSoC5/USBUART_1_std.c ****     * Summary:
 347:.\Generated_Source\PSoC5/USBUART_1_std.c ****     *  This routine read Die ID and generate Serial Number string descriptor.
 348:.\Generated_Source\PSoC5/USBUART_1_std.c ****     *
 349:.\Generated_Source\PSoC5/USBUART_1_std.c ****     * Parameters:
 350:.\Generated_Source\PSoC5/USBUART_1_std.c ****     *  descr:  pointer on string descriptor.
 351:.\Generated_Source\PSoC5/USBUART_1_std.c ****     *
 352:.\Generated_Source\PSoC5/USBUART_1_std.c ****     * Return:
 353:.\Generated_Source\PSoC5/USBUART_1_std.c ****     *  None.
 354:.\Generated_Source\PSoC5/USBUART_1_std.c ****     *
 355:.\Generated_Source\PSoC5/USBUART_1_std.c ****     * Reentrant:
 356:.\Generated_Source\PSoC5/USBUART_1_std.c ****     *  No.
 357:.\Generated_Source\PSoC5/USBUART_1_std.c ****     *
 358:.\Generated_Source\PSoC5/USBUART_1_std.c ****     ***************************************************************************/
 359:.\Generated_Source\PSoC5/USBUART_1_std.c ****     void USBUART_1_ReadDieID(uint8 descr[]) 
 360:.\Generated_Source\PSoC5/USBUART_1_std.c ****     {
 816              		.loc 1 360 0
 817              		.cfi_startproc
 818              		@ args = 0, pretend = 0, frame = 32
 819              		@ frame_needed = 1, uses_anonymous_args = 0
 820              		@ link register save eliminated.
 821 0000 90B4     		push	{r4, r7}
 822              	.LCFI3:
 823              		.cfi_def_cfa_offset 8
 824              		.cfi_offset 4, -8
 825              		.cfi_offset 7, -4
 826 0002 88B0     		sub	sp, sp, #32
 827              	.LCFI4:
 828              		.cfi_def_cfa_offset 40
 829 0004 00AF     		add	r7, sp, #0
 830              	.LCFI5:
 831              		.cfi_def_cfa_register 7
 832 0006 7860     		str	r0, [r7, #4]
 361:.\Generated_Source\PSoC5/USBUART_1_std.c ****         uint8 i;
 362:.\Generated_Source\PSoC5/USBUART_1_std.c ****         uint8 j = 0u;
 833              		.loc 1 362 0
 834 0008 4FF00003 		mov	r3, #0
 835 000c BB77     		strb	r3, [r7, #30]
 363:.\Generated_Source\PSoC5/USBUART_1_std.c ****         uint8 value;
 364:.\Generated_Source\PSoC5/USBUART_1_std.c ****         const char8 CYCODE hex[16u] = "0123456789ABCDEF";
 836              		.loc 1 364 0
 837 000e 40F20003 		movw	r3, #:lower16:.LC0
 838 0012 C0F20003 		movt	r3, #:upper16:.LC0
 839 0016 07F10C04 		add	r4, r7, #12
ARM GAS  C:\Users\Robert\AppData\Local\Temp\ccdadQBo.s 			page 23


 840 001a 0FCB     		ldmia	r3, {r0, r1, r2, r3}
 841 001c 84E80F00 		stmia	r4, {r0, r1, r2, r3}
 365:.\Generated_Source\PSoC5/USBUART_1_std.c **** 
 366:.\Generated_Source\PSoC5/USBUART_1_std.c ****         /* Check descriptor validation */
 367:.\Generated_Source\PSoC5/USBUART_1_std.c ****         if( descr != NULL)
 842              		.loc 1 367 0
 843 0020 7B68     		ldr	r3, [r7, #4]
 844 0022 002B     		cmp	r3, #0
 845 0024 3AD0     		beq	.L68
 368:.\Generated_Source\PSoC5/USBUART_1_std.c ****         {
 369:.\Generated_Source\PSoC5/USBUART_1_std.c ****             descr[0u] = USBUART_1_IDSN_DESCR_LENGTH;
 846              		.loc 1 369 0
 847 0026 7B68     		ldr	r3, [r7, #4]
 848 0028 4FF02202 		mov	r2, #34
 849 002c 1A70     		strb	r2, [r3, #0]
 370:.\Generated_Source\PSoC5/USBUART_1_std.c ****             descr[1u] = USBUART_1_DESCR_STRING;
 850              		.loc 1 370 0
 851 002e 7B68     		ldr	r3, [r7, #4]
 852 0030 03F10103 		add	r3, r3, #1
 853 0034 4FF00302 		mov	r2, #3
 854 0038 1A70     		strb	r2, [r3, #0]
 371:.\Generated_Source\PSoC5/USBUART_1_std.c **** 
 372:.\Generated_Source\PSoC5/USBUART_1_std.c ****             /* fill descriptor */
 373:.\Generated_Source\PSoC5/USBUART_1_std.c ****             for(i = 2u; i < USBUART_1_IDSN_DESCR_LENGTH; i += 4u)
 855              		.loc 1 373 0
 856 003a 4FF00203 		mov	r3, #2
 857 003e FB77     		strb	r3, [r7, #31]
 858 0040 29E0     		b	.L70
 859              	.L71:
 374:.\Generated_Source\PSoC5/USBUART_1_std.c ****             {
 375:.\Generated_Source\PSoC5/USBUART_1_std.c ****                 value = CY_GET_XTND_REG8((void CYFAR *)(USBUART_1_DIE_ID + j));
 860              		.loc 1 375 0 discriminator 2
 861 0042 BB7F     		ldrb	r3, [r7, #30]	@ zero_extendqisi2
 862 0044 03F19243 		add	r3, r3, #1224736768
 863 0048 03F58073 		add	r3, r3, #256
 864 004c 1B78     		ldrb	r3, [r3, #0]
 865 004e 7B77     		strb	r3, [r7, #29]
 376:.\Generated_Source\PSoC5/USBUART_1_std.c ****                 j++;
 866              		.loc 1 376 0 discriminator 2
 867 0050 BB7F     		ldrb	r3, [r7, #30]
 868 0052 03F10103 		add	r3, r3, #1
 869 0056 BB77     		strb	r3, [r7, #30]
 377:.\Generated_Source\PSoC5/USBUART_1_std.c ****                 descr[i] = (uint8)hex[value >> 4u];
 870              		.loc 1 377 0 discriminator 2
 871 0058 FB7F     		ldrb	r3, [r7, #31]	@ zero_extendqisi2
 872 005a 7A68     		ldr	r2, [r7, #4]
 873 005c D318     		adds	r3, r2, r3
 874 005e 7A7F     		ldrb	r2, [r7, #29]	@ zero_extendqisi2
 875 0060 4FEA1212 		lsr	r2, r2, #4
 876 0064 D2B2     		uxtb	r2, r2
 877 0066 07F12001 		add	r1, r7, #32
 878 006a 8A18     		adds	r2, r1, r2
 879 006c 12F8142C 		ldrb	r2, [r2, #-20]	@ zero_extendqisi2
 880 0070 1A70     		strb	r2, [r3, #0]
 378:.\Generated_Source\PSoC5/USBUART_1_std.c ****                 descr[i + 2u] = (uint8)hex[value & 0x0Fu];
 881              		.loc 1 378 0 discriminator 2
 882 0072 FB7F     		ldrb	r3, [r7, #31]	@ zero_extendqisi2
ARM GAS  C:\Users\Robert\AppData\Local\Temp\ccdadQBo.s 			page 24


 883 0074 03F10203 		add	r3, r3, #2
 884 0078 7A68     		ldr	r2, [r7, #4]
 885 007a D318     		adds	r3, r2, r3
 886 007c 7A7F     		ldrb	r2, [r7, #29]	@ zero_extendqisi2
 887 007e 02F00F02 		and	r2, r2, #15
 888 0082 07F12001 		add	r1, r7, #32
 889 0086 8A18     		adds	r2, r1, r2
 890 0088 12F8142C 		ldrb	r2, [r2, #-20]	@ zero_extendqisi2
 891 008c 1A70     		strb	r2, [r3, #0]
 373:.\Generated_Source\PSoC5/USBUART_1_std.c ****             for(i = 2u; i < USBUART_1_IDSN_DESCR_LENGTH; i += 4u)
 892              		.loc 1 373 0 discriminator 2
 893 008e FB7F     		ldrb	r3, [r7, #31]
 894 0090 03F10403 		add	r3, r3, #4
 895 0094 FB77     		strb	r3, [r7, #31]
 896              	.L70:
 373:.\Generated_Source\PSoC5/USBUART_1_std.c ****             for(i = 2u; i < USBUART_1_IDSN_DESCR_LENGTH; i += 4u)
 897              		.loc 1 373 0 is_stmt 0 discriminator 1
 898 0096 FB7F     		ldrb	r3, [r7, #31]	@ zero_extendqisi2
 899 0098 212B     		cmp	r3, #33
 900 009a D2D9     		bls	.L71
 901              	.L68:
 379:.\Generated_Source\PSoC5/USBUART_1_std.c ****             }
 380:.\Generated_Source\PSoC5/USBUART_1_std.c ****         }
 381:.\Generated_Source\PSoC5/USBUART_1_std.c ****     }
 902              		.loc 1 381 0 is_stmt 1
 903 009c 07F12007 		add	r7, r7, #32
 904 00a0 BD46     		mov	sp, r7
 905 00a2 90BC     		pop	{r4, r7}
 906 00a4 7047     		bx	lr
 907              		.cfi_endproc
 908              	.LFE1:
 909              		.size	USBUART_1_ReadDieID, .-USBUART_1_ReadDieID
 910 00a6 00BF     		.section	.text.USBUART_1_ConfigReg,"ax",%progbits
 911              		.align	2
 912              		.global	USBUART_1_ConfigReg
 913              		.thumb
 914              		.thumb_func
 915              		.type	USBUART_1_ConfigReg, %function
 916              	USBUART_1_ConfigReg:
 917              	.LFB2:
 382:.\Generated_Source\PSoC5/USBUART_1_std.c **** 
 383:.\Generated_Source\PSoC5/USBUART_1_std.c **** #endif /*  USBUART_1_ENABLE_IDSN_STRING */
 384:.\Generated_Source\PSoC5/USBUART_1_std.c **** 
 385:.\Generated_Source\PSoC5/USBUART_1_std.c **** 
 386:.\Generated_Source\PSoC5/USBUART_1_std.c **** /*******************************************************************************
 387:.\Generated_Source\PSoC5/USBUART_1_std.c **** * Function Name: USBUART_1_ConfigReg
 388:.\Generated_Source\PSoC5/USBUART_1_std.c **** ********************************************************************************
 389:.\Generated_Source\PSoC5/USBUART_1_std.c **** *
 390:.\Generated_Source\PSoC5/USBUART_1_std.c **** * Summary:
 391:.\Generated_Source\PSoC5/USBUART_1_std.c **** *  This routine configures hardware registers from the variables.
 392:.\Generated_Source\PSoC5/USBUART_1_std.c **** *  It is called from USBUART_1_Config() function and from RestoreConfig
 393:.\Generated_Source\PSoC5/USBUART_1_std.c **** *  after Wakeup.
 394:.\Generated_Source\PSoC5/USBUART_1_std.c **** *
 395:.\Generated_Source\PSoC5/USBUART_1_std.c **** * Parameters:
 396:.\Generated_Source\PSoC5/USBUART_1_std.c **** *  None.
 397:.\Generated_Source\PSoC5/USBUART_1_std.c **** *
 398:.\Generated_Source\PSoC5/USBUART_1_std.c **** * Return:
ARM GAS  C:\Users\Robert\AppData\Local\Temp\ccdadQBo.s 			page 25


 399:.\Generated_Source\PSoC5/USBUART_1_std.c **** *  None.
 400:.\Generated_Source\PSoC5/USBUART_1_std.c **** *
 401:.\Generated_Source\PSoC5/USBUART_1_std.c **** *******************************************************************************/
 402:.\Generated_Source\PSoC5/USBUART_1_std.c **** void USBUART_1_ConfigReg(void) 
 403:.\Generated_Source\PSoC5/USBUART_1_std.c **** {
 918              		.loc 1 403 0
 919              		.cfi_startproc
 920              		@ args = 0, pretend = 0, frame = 8
 921              		@ frame_needed = 1, uses_anonymous_args = 0
 922              		@ link register save eliminated.
 923 0000 80B4     		push	{r7}
 924              	.LCFI6:
 925              		.cfi_def_cfa_offset 4
 926              		.cfi_offset 7, -4
 927 0002 83B0     		sub	sp, sp, #12
 928              	.LCFI7:
 929              		.cfi_def_cfa_offset 16
 930 0004 00AF     		add	r7, sp, #0
 931              	.LCFI8:
 932              		.cfi_def_cfa_register 7
 404:.\Generated_Source\PSoC5/USBUART_1_std.c ****     uint8 ep;
 405:.\Generated_Source\PSoC5/USBUART_1_std.c ****     uint8 i;
 406:.\Generated_Source\PSoC5/USBUART_1_std.c ****     #if(USBUART_1_EP_MM == USBUART_1__EP_DMAAUTO)
 407:.\Generated_Source\PSoC5/USBUART_1_std.c ****         uint8 epType = 0u;
 408:.\Generated_Source\PSoC5/USBUART_1_std.c ****     #endif /*  USBUART_1_EP_MM == USBUART_1__EP_DMAAUTO */
 409:.\Generated_Source\PSoC5/USBUART_1_std.c **** 
 410:.\Generated_Source\PSoC5/USBUART_1_std.c ****     /* Set the endpoint buffer addresses */
 411:.\Generated_Source\PSoC5/USBUART_1_std.c ****     ep = USBUART_1_EP1;
 933              		.loc 1 411 0
 934 0006 4FF00103 		mov	r3, #1
 935 000a FB71     		strb	r3, [r7, #7]
 412:.\Generated_Source\PSoC5/USBUART_1_std.c ****     for (i = 0u; i < 0x80u; i+= 0x10u)
 936              		.loc 1 412 0
 937 000c 4FF00003 		mov	r3, #0
 938 0010 BB71     		strb	r3, [r7, #6]
 939 0012 E5E0     		b	.L73
 940              	.L77:
 413:.\Generated_Source\PSoC5/USBUART_1_std.c ****     {
 414:.\Generated_Source\PSoC5/USBUART_1_std.c ****         CY_SET_REG8((reg8 *)(USBUART_1_ARB_EP1_CFG_IND + i), USBUART_1_ARB_EPX_CFG_DEFAULT);
 941              		.loc 1 414 0
 942 0014 BB79     		ldrb	r3, [r7, #6]	@ zero_extendqisi2
 943 0016 03F18043 		add	r3, r3, #1073741824
 944 001a 03F5C143 		add	r3, r3, #24704
 945 001e 4FF00C02 		mov	r2, #12
 946 0022 1A70     		strb	r2, [r3, #0]
 415:.\Generated_Source\PSoC5/USBUART_1_std.c ****         #if(USBUART_1_EP_MM != USBUART_1__EP_MANUAL)
 416:.\Generated_Source\PSoC5/USBUART_1_std.c ****             /* Enable all Arbiter EP Interrupts : err, buf under, buf over, dma gnt(mode2 only), in
 417:.\Generated_Source\PSoC5/USBUART_1_std.c ****             CY_SET_REG8((reg8 *)(USBUART_1_ARB_EP1_INT_EN_IND + i), USBUART_1_ARB_EPX_INT_MASK);
 418:.\Generated_Source\PSoC5/USBUART_1_std.c ****         #endif   /*  USBUART_1_EP_MM != USBUART_1__EP_MANUAL */
 419:.\Generated_Source\PSoC5/USBUART_1_std.c **** 
 420:.\Generated_Source\PSoC5/USBUART_1_std.c ****         if(USBUART_1_EP[ep].epMode != USBUART_1_MODE_DISABLE)
 947              		.loc 1 420 0
 948 0024 F979     		ldrb	r1, [r7, #7]	@ zero_extendqisi2
 949 0026 40F20002 		movw	r2, #:lower16:USBUART_1_EP
 950 002a C0F20002 		movt	r2, #:upper16:USBUART_1_EP
 951 002e 0B46     		mov	r3, r1
 952 0030 4FEA4303 		lsl	r3, r3, #1
ARM GAS  C:\Users\Robert\AppData\Local\Temp\ccdadQBo.s 			page 26


 953 0034 5B18     		adds	r3, r3, r1
 954 0036 4FEA8303 		lsl	r3, r3, #2
 955 003a D318     		adds	r3, r2, r3
 956 003c 5B79     		ldrb	r3, [r3, #5]
 957 003e DBB2     		uxtb	r3, r3
 958 0040 002B     		cmp	r3, #0
 959 0042 25D0     		beq	.L74
 421:.\Generated_Source\PSoC5/USBUART_1_std.c ****         {
 422:.\Generated_Source\PSoC5/USBUART_1_std.c ****             if((USBUART_1_EP[ep].addr & USBUART_1_DIR_IN) != 0u )
 960              		.loc 1 422 0
 961 0044 F979     		ldrb	r1, [r7, #7]	@ zero_extendqisi2
 962 0046 40F20002 		movw	r2, #:lower16:USBUART_1_EP
 963 004a C0F20002 		movt	r2, #:upper16:USBUART_1_EP
 964 004e 0B46     		mov	r3, r1
 965 0050 4FEA4303 		lsl	r3, r3, #1
 966 0054 5B18     		adds	r3, r3, r1
 967 0056 4FEA8303 		lsl	r3, r3, #2
 968 005a D318     		adds	r3, r2, r3
 969 005c 1B79     		ldrb	r3, [r3, #4]
 970 005e DBB2     		uxtb	r3, r3
 971 0060 DBB2     		uxtb	r3, r3
 972 0062 5BB2     		sxtb	r3, r3
 973 0064 002B     		cmp	r3, #0
 974 0066 09DA     		bge	.L75
 423:.\Generated_Source\PSoC5/USBUART_1_std.c ****             {
 424:.\Generated_Source\PSoC5/USBUART_1_std.c ****                 CY_SET_REG8((reg8 *)(USBUART_1_SIE_EP1_CR0_IND + i), USBUART_1_MODE_NAK_IN);
 975              		.loc 1 424 0
 976 0068 BA79     		ldrb	r2, [r7, #6]	@ zero_extendqisi2
 977 006a 46F20E03 		movw	r3, #24590
 978 006e C4F20003 		movt	r3, 16384
 979 0072 D318     		adds	r3, r2, r3
 980 0074 4FF00C02 		mov	r2, #12
 981 0078 1A70     		strb	r2, [r3, #0]
 982 007a 12E0     		b	.L76
 983              	.L75:
 425:.\Generated_Source\PSoC5/USBUART_1_std.c ****             }
 426:.\Generated_Source\PSoC5/USBUART_1_std.c ****             else
 427:.\Generated_Source\PSoC5/USBUART_1_std.c ****             {
 428:.\Generated_Source\PSoC5/USBUART_1_std.c ****                 CY_SET_REG8((reg8 *)(USBUART_1_SIE_EP1_CR0_IND + i), USBUART_1_MODE_NAK_OUT);
 984              		.loc 1 428 0
 985 007c BA79     		ldrb	r2, [r7, #6]	@ zero_extendqisi2
 986 007e 46F20E03 		movw	r3, #24590
 987 0082 C4F20003 		movt	r3, 16384
 988 0086 D318     		adds	r3, r2, r3
 989 0088 4FF00802 		mov	r2, #8
 990 008c 1A70     		strb	r2, [r3, #0]
 991 008e 08E0     		b	.L76
 992              	.L74:
 429:.\Generated_Source\PSoC5/USBUART_1_std.c ****                 /* Prepare EP type mask for automatic memory allocation */
 430:.\Generated_Source\PSoC5/USBUART_1_std.c ****                 #if(USBUART_1_EP_MM == USBUART_1__EP_DMAAUTO)
 431:.\Generated_Source\PSoC5/USBUART_1_std.c ****                     epType |= (uint8)(0x01u << (ep - USBUART_1_EP1));
 432:.\Generated_Source\PSoC5/USBUART_1_std.c ****                 #endif /*  USBUART_1_EP_MM == USBUART_1__EP_DMAAUTO */
 433:.\Generated_Source\PSoC5/USBUART_1_std.c ****             }
 434:.\Generated_Source\PSoC5/USBUART_1_std.c ****         }
 435:.\Generated_Source\PSoC5/USBUART_1_std.c ****         else
 436:.\Generated_Source\PSoC5/USBUART_1_std.c ****         {
 437:.\Generated_Source\PSoC5/USBUART_1_std.c ****             CY_SET_REG8((reg8 *)(USBUART_1_SIE_EP1_CR0_IND + i), USBUART_1_MODE_STALL_DATA_EP);
ARM GAS  C:\Users\Robert\AppData\Local\Temp\ccdadQBo.s 			page 27


 993              		.loc 1 437 0
 994 0090 BA79     		ldrb	r2, [r7, #6]	@ zero_extendqisi2
 995 0092 46F20E03 		movw	r3, #24590
 996 0096 C4F20003 		movt	r3, 16384
 997 009a D318     		adds	r3, r2, r3
 998 009c 4FF08002 		mov	r2, #128
 999 00a0 1A70     		strb	r2, [r3, #0]
 1000              	.L76:
 438:.\Generated_Source\PSoC5/USBUART_1_std.c ****         }
 439:.\Generated_Source\PSoC5/USBUART_1_std.c **** 
 440:.\Generated_Source\PSoC5/USBUART_1_std.c ****         #if(USBUART_1_EP_MM != USBUART_1__EP_DMAAUTO)
 441:.\Generated_Source\PSoC5/USBUART_1_std.c ****             CY_SET_REG8((reg8 *)(USBUART_1_SIE_EP1_CNT0_IND + i),   USBUART_1_EP[ep].bufferSize >> 
 1001              		.loc 1 441 0
 1002 00a2 BA79     		ldrb	r2, [r7, #6]	@ zero_extendqisi2
 1003 00a4 46F20C03 		movw	r3, #24588
 1004 00a8 C4F20003 		movt	r3, 16384
 1005 00ac D318     		adds	r3, r2, r3
 1006 00ae 1846     		mov	r0, r3
 1007 00b0 F979     		ldrb	r1, [r7, #7]	@ zero_extendqisi2
 1008 00b2 40F20002 		movw	r2, #:lower16:USBUART_1_EP
 1009 00b6 C0F20002 		movt	r2, #:upper16:USBUART_1_EP
 1010 00ba 0B46     		mov	r3, r1
 1011 00bc 4FEA4303 		lsl	r3, r3, #1
 1012 00c0 5B18     		adds	r3, r3, r1
 1013 00c2 4FEA8303 		lsl	r3, r3, #2
 1014 00c6 D318     		adds	r3, r2, r3
 1015 00c8 03F10803 		add	r3, r3, #8
 1016 00cc 1B88     		ldrh	r3, [r3, #0]	@ movhi
 1017 00ce 9BB2     		uxth	r3, r3
 1018 00d0 4FEA1323 		lsr	r3, r3, #8
 1019 00d4 9BB2     		uxth	r3, r3
 1020 00d6 DBB2     		uxtb	r3, r3
 1021 00d8 0370     		strb	r3, [r0, #0]
 442:.\Generated_Source\PSoC5/USBUART_1_std.c ****             CY_SET_REG8((reg8 *)(USBUART_1_SIE_EP1_CNT1_IND + i),   USBUART_1_EP[ep].bufferSize & 0
 1022              		.loc 1 442 0
 1023 00da BA79     		ldrb	r2, [r7, #6]	@ zero_extendqisi2
 1024 00dc 46F20D03 		movw	r3, #24589
 1025 00e0 C4F20003 		movt	r3, 16384
 1026 00e4 D318     		adds	r3, r2, r3
 1027 00e6 1846     		mov	r0, r3
 1028 00e8 F979     		ldrb	r1, [r7, #7]	@ zero_extendqisi2
 1029 00ea 40F20002 		movw	r2, #:lower16:USBUART_1_EP
 1030 00ee C0F20002 		movt	r2, #:upper16:USBUART_1_EP
 1031 00f2 0B46     		mov	r3, r1
 1032 00f4 4FEA4303 		lsl	r3, r3, #1
 1033 00f8 5B18     		adds	r3, r3, r1
 1034 00fa 4FEA8303 		lsl	r3, r3, #2
 1035 00fe D318     		adds	r3, r2, r3
 1036 0100 03F10803 		add	r3, r3, #8
 1037 0104 1B88     		ldrh	r3, [r3, #0]	@ movhi
 1038 0106 9BB2     		uxth	r3, r3
 1039 0108 DBB2     		uxtb	r3, r3
 1040 010a 0370     		strb	r3, [r0, #0]
 443:.\Generated_Source\PSoC5/USBUART_1_std.c **** 
 444:.\Generated_Source\PSoC5/USBUART_1_std.c ****             CY_SET_REG8((reg8 *)(USBUART_1_ARB_RW1_RA_IND + i),     USBUART_1_EP[ep].buffOffset & 0
 1041              		.loc 1 444 0
 1042 010c BA79     		ldrb	r2, [r7, #6]	@ zero_extendqisi2
ARM GAS  C:\Users\Robert\AppData\Local\Temp\ccdadQBo.s 			page 28


 1043 010e 46F28603 		movw	r3, #24710
 1044 0112 C4F20003 		movt	r3, 16384
 1045 0116 D318     		adds	r3, r2, r3
 1046 0118 1846     		mov	r0, r3
 1047 011a F979     		ldrb	r1, [r7, #7]	@ zero_extendqisi2
 1048 011c 40F20002 		movw	r2, #:lower16:USBUART_1_EP
 1049 0120 C0F20002 		movt	r2, #:upper16:USBUART_1_EP
 1050 0124 0B46     		mov	r3, r1
 1051 0126 4FEA4303 		lsl	r3, r3, #1
 1052 012a 5B18     		adds	r3, r3, r1
 1053 012c 4FEA8303 		lsl	r3, r3, #2
 1054 0130 D318     		adds	r3, r2, r3
 1055 0132 DB88     		ldrh	r3, [r3, #6]	@ movhi
 1056 0134 9BB2     		uxth	r3, r3
 1057 0136 DBB2     		uxtb	r3, r3
 1058 0138 0370     		strb	r3, [r0, #0]
 445:.\Generated_Source\PSoC5/USBUART_1_std.c ****             CY_SET_REG8((reg8 *)(USBUART_1_ARB_RW1_RA_MSB_IND + i), USBUART_1_EP[ep].buffOffset >> 
 1059              		.loc 1 445 0
 1060 013a BA79     		ldrb	r2, [r7, #6]	@ zero_extendqisi2
 1061 013c 46F28703 		movw	r3, #24711
 1062 0140 C4F20003 		movt	r3, 16384
 1063 0144 D318     		adds	r3, r2, r3
 1064 0146 1846     		mov	r0, r3
 1065 0148 F979     		ldrb	r1, [r7, #7]	@ zero_extendqisi2
 1066 014a 40F20002 		movw	r2, #:lower16:USBUART_1_EP
 1067 014e C0F20002 		movt	r2, #:upper16:USBUART_1_EP
 1068 0152 0B46     		mov	r3, r1
 1069 0154 4FEA4303 		lsl	r3, r3, #1
 1070 0158 5B18     		adds	r3, r3, r1
 1071 015a 4FEA8303 		lsl	r3, r3, #2
 1072 015e D318     		adds	r3, r2, r3
 1073 0160 DB88     		ldrh	r3, [r3, #6]	@ movhi
 1074 0162 9BB2     		uxth	r3, r3
 1075 0164 4FEA1323 		lsr	r3, r3, #8
 1076 0168 9BB2     		uxth	r3, r3
 1077 016a DBB2     		uxtb	r3, r3
 1078 016c 0370     		strb	r3, [r0, #0]
 446:.\Generated_Source\PSoC5/USBUART_1_std.c ****             CY_SET_REG8((reg8 *)(USBUART_1_ARB_RW1_WA_IND + i),     USBUART_1_EP[ep].buffOffset & 0
 1079              		.loc 1 446 0
 1080 016e BA79     		ldrb	r2, [r7, #6]	@ zero_extendqisi2
 1081 0170 46F28403 		movw	r3, #24708
 1082 0174 C4F20003 		movt	r3, 16384
 1083 0178 D318     		adds	r3, r2, r3
 1084 017a 1846     		mov	r0, r3
 1085 017c F979     		ldrb	r1, [r7, #7]	@ zero_extendqisi2
 1086 017e 40F20002 		movw	r2, #:lower16:USBUART_1_EP
 1087 0182 C0F20002 		movt	r2, #:upper16:USBUART_1_EP
 1088 0186 0B46     		mov	r3, r1
 1089 0188 4FEA4303 		lsl	r3, r3, #1
 1090 018c 5B18     		adds	r3, r3, r1
 1091 018e 4FEA8303 		lsl	r3, r3, #2
 1092 0192 D318     		adds	r3, r2, r3
 1093 0194 DB88     		ldrh	r3, [r3, #6]	@ movhi
 1094 0196 9BB2     		uxth	r3, r3
 1095 0198 DBB2     		uxtb	r3, r3
 1096 019a 0370     		strb	r3, [r0, #0]
 447:.\Generated_Source\PSoC5/USBUART_1_std.c ****             CY_SET_REG8((reg8 *)(USBUART_1_ARB_RW1_WA_MSB_IND + i), USBUART_1_EP[ep].buffOffset >> 
ARM GAS  C:\Users\Robert\AppData\Local\Temp\ccdadQBo.s 			page 29


 1097              		.loc 1 447 0
 1098 019c BA79     		ldrb	r2, [r7, #6]	@ zero_extendqisi2
 1099 019e 46F28503 		movw	r3, #24709
 1100 01a2 C4F20003 		movt	r3, 16384
 1101 01a6 D318     		adds	r3, r2, r3
 1102 01a8 1846     		mov	r0, r3
 1103 01aa F979     		ldrb	r1, [r7, #7]	@ zero_extendqisi2
 1104 01ac 40F20002 		movw	r2, #:lower16:USBUART_1_EP
 1105 01b0 C0F20002 		movt	r2, #:upper16:USBUART_1_EP
 1106 01b4 0B46     		mov	r3, r1
 1107 01b6 4FEA4303 		lsl	r3, r3, #1
 1108 01ba 5B18     		adds	r3, r3, r1
 1109 01bc 4FEA8303 		lsl	r3, r3, #2
 1110 01c0 D318     		adds	r3, r2, r3
 1111 01c2 DB88     		ldrh	r3, [r3, #6]	@ movhi
 1112 01c4 9BB2     		uxth	r3, r3
 1113 01c6 4FEA1323 		lsr	r3, r3, #8
 1114 01ca 9BB2     		uxth	r3, r3
 1115 01cc DBB2     		uxtb	r3, r3
 1116 01ce 0370     		strb	r3, [r0, #0]
 448:.\Generated_Source\PSoC5/USBUART_1_std.c ****         #endif /*  USBUART_1_EP_MM != USBUART_1__EP_DMAAUTO */
 449:.\Generated_Source\PSoC5/USBUART_1_std.c **** 
 450:.\Generated_Source\PSoC5/USBUART_1_std.c ****         ep++;
 1117              		.loc 1 450 0
 1118 01d0 FB79     		ldrb	r3, [r7, #7]
 1119 01d2 03F10103 		add	r3, r3, #1
 1120 01d6 FB71     		strb	r3, [r7, #7]
 412:.\Generated_Source\PSoC5/USBUART_1_std.c ****     for (i = 0u; i < 0x80u; i+= 0x10u)
 1121              		.loc 1 412 0
 1122 01d8 BB79     		ldrb	r3, [r7, #6]
 1123 01da 03F11003 		add	r3, r3, #16
 1124 01de BB71     		strb	r3, [r7, #6]
 1125              	.L73:
 412:.\Generated_Source\PSoC5/USBUART_1_std.c ****     for (i = 0u; i < 0x80u; i+= 0x10u)
 1126              		.loc 1 412 0 is_stmt 0 discriminator 1
 1127 01e0 BB79     		ldrb	r3, [r7, #6]	@ zero_extendqisi2
 1128 01e2 5BB2     		sxtb	r3, r3
 1129 01e4 002B     		cmp	r3, #0
 1130 01e6 BFF615AF 		bge	.L77
 451:.\Generated_Source\PSoC5/USBUART_1_std.c ****     }
 452:.\Generated_Source\PSoC5/USBUART_1_std.c **** 
 453:.\Generated_Source\PSoC5/USBUART_1_std.c ****     #if(USBUART_1_EP_MM == USBUART_1__EP_DMAAUTO)
 454:.\Generated_Source\PSoC5/USBUART_1_std.c ****          /* BUF_SIZE depend on DMA_THRESS value: 55-32 bytes  44-16 bytes 33-8 bytes 22-4 bytes 11-
 455:.\Generated_Source\PSoC5/USBUART_1_std.c ****         USBUART_1_BUF_SIZE_REG = USBUART_1_DMA_BUF_SIZE;
 456:.\Generated_Source\PSoC5/USBUART_1_std.c ****         USBUART_1_DMA_THRES_REG = USBUART_1_DMA_BYTES_PER_BURST;   /* DMA burst threshold */
 457:.\Generated_Source\PSoC5/USBUART_1_std.c ****         USBUART_1_DMA_THRES_MSB_REG = 0u;
 458:.\Generated_Source\PSoC5/USBUART_1_std.c ****         USBUART_1_EP_ACTIVE_REG = USBUART_1_ARB_INT_MASK;
 459:.\Generated_Source\PSoC5/USBUART_1_std.c ****         USBUART_1_EP_TYPE_REG = epType;
 460:.\Generated_Source\PSoC5/USBUART_1_std.c ****         /* Cfg_cmp bit set to 1 once configuration is complete. */
 461:.\Generated_Source\PSoC5/USBUART_1_std.c ****         USBUART_1_ARB_CFG_REG = USBUART_1_ARB_CFG_AUTO_DMA | USBUART_1_ARB_CFG_AUTO_MEM |
 462:.\Generated_Source\PSoC5/USBUART_1_std.c ****                                        USBUART_1_ARB_CFG_CFG_CPM;
 463:.\Generated_Source\PSoC5/USBUART_1_std.c ****         /* Cfg_cmp bit set to 0 during configuration of PFSUSB Registers. */
 464:.\Generated_Source\PSoC5/USBUART_1_std.c ****         USBUART_1_ARB_CFG_REG = USBUART_1_ARB_CFG_AUTO_DMA | USBUART_1_ARB_CFG_AUTO_MEM;
 465:.\Generated_Source\PSoC5/USBUART_1_std.c ****     #endif /*  USBUART_1_EP_MM == USBUART_1__EP_DMAAUTO */
 466:.\Generated_Source\PSoC5/USBUART_1_std.c **** 
 467:.\Generated_Source\PSoC5/USBUART_1_std.c ****     CY_SET_REG8(USBUART_1_SIE_EP_INT_EN_PTR, 0xFFu);
 1131              		.loc 1 467 0 is_stmt 1
ARM GAS  C:\Users\Robert\AppData\Local\Temp\ccdadQBo.s 			page 30


 1132 01ea 46F20A03 		movw	r3, #24586
 1133 01ee C4F20003 		movt	r3, 16384
 1134 01f2 4FF0FF02 		mov	r2, #255
 1135 01f6 1A70     		strb	r2, [r3, #0]
 468:.\Generated_Source\PSoC5/USBUART_1_std.c **** }
 1136              		.loc 1 468 0
 1137 01f8 07F10C07 		add	r7, r7, #12
 1138 01fc BD46     		mov	sp, r7
 1139 01fe 80BC     		pop	{r7}
 1140 0200 7047     		bx	lr
 1141              		.cfi_endproc
 1142              	.LFE2:
 1143              		.size	USBUART_1_ConfigReg, .-USBUART_1_ConfigReg
 1144 0202 00BF     		.section	.text.USBUART_1_Config,"ax",%progbits
 1145              		.align	2
 1146              		.global	USBUART_1_Config
 1147              		.thumb
 1148              		.thumb_func
 1149              		.type	USBUART_1_Config, %function
 1150              	USBUART_1_Config:
 1151              	.LFB3:
 469:.\Generated_Source\PSoC5/USBUART_1_std.c **** 
 470:.\Generated_Source\PSoC5/USBUART_1_std.c **** 
 471:.\Generated_Source\PSoC5/USBUART_1_std.c **** /*******************************************************************************
 472:.\Generated_Source\PSoC5/USBUART_1_std.c **** * Function Name: USBUART_1_Config
 473:.\Generated_Source\PSoC5/USBUART_1_std.c **** ********************************************************************************
 474:.\Generated_Source\PSoC5/USBUART_1_std.c **** *
 475:.\Generated_Source\PSoC5/USBUART_1_std.c **** * Summary:
 476:.\Generated_Source\PSoC5/USBUART_1_std.c **** *  This routine configures endpoints for the entire configuration by scanning
 477:.\Generated_Source\PSoC5/USBUART_1_std.c **** *  the configuration descriptor.
 478:.\Generated_Source\PSoC5/USBUART_1_std.c **** *
 479:.\Generated_Source\PSoC5/USBUART_1_std.c **** * Parameters:
 480:.\Generated_Source\PSoC5/USBUART_1_std.c **** *  clearAltSetting: It configures the bAlternateSetting 0 for each interface.
 481:.\Generated_Source\PSoC5/USBUART_1_std.c **** *
 482:.\Generated_Source\PSoC5/USBUART_1_std.c **** * Return:
 483:.\Generated_Source\PSoC5/USBUART_1_std.c **** *  None.
 484:.\Generated_Source\PSoC5/USBUART_1_std.c **** *
 485:.\Generated_Source\PSoC5/USBUART_1_std.c **** * USBUART_1_interfaceClass - Initialized class array for each interface.
 486:.\Generated_Source\PSoC5/USBUART_1_std.c **** *   It is used for handling Class specific requests depend on interface class.
 487:.\Generated_Source\PSoC5/USBUART_1_std.c **** *   Different classes in multiple Alternate settings does not supported.
 488:.\Generated_Source\PSoC5/USBUART_1_std.c **** *
 489:.\Generated_Source\PSoC5/USBUART_1_std.c **** * Reentrant:
 490:.\Generated_Source\PSoC5/USBUART_1_std.c **** *  No.
 491:.\Generated_Source\PSoC5/USBUART_1_std.c **** *
 492:.\Generated_Source\PSoC5/USBUART_1_std.c **** *******************************************************************************/
 493:.\Generated_Source\PSoC5/USBUART_1_std.c **** void USBUART_1_Config(uint8 clearAltSetting) 
 494:.\Generated_Source\PSoC5/USBUART_1_std.c **** {
 1152              		.loc 1 494 0
 1153              		.cfi_startproc
 1154              		@ args = 0, pretend = 0, frame = 32
 1155              		@ frame_needed = 1, uses_anonymous_args = 0
 1156 0000 80B5     		push	{r7, lr}
 1157              	.LCFI9:
 1158              		.cfi_def_cfa_offset 8
 1159              		.cfi_offset 7, -8
 1160              		.cfi_offset 14, -4
 1161 0002 88B0     		sub	sp, sp, #32
ARM GAS  C:\Users\Robert\AppData\Local\Temp\ccdadQBo.s 			page 31


 1162              	.LCFI10:
 1163              		.cfi_def_cfa_offset 40
 1164 0004 00AF     		add	r7, sp, #0
 1165              	.LCFI11:
 1166              		.cfi_def_cfa_register 7
 1167 0006 0346     		mov	r3, r0
 1168 0008 FB71     		strb	r3, [r7, #7]
 495:.\Generated_Source\PSoC5/USBUART_1_std.c ****     uint8 ep;
 496:.\Generated_Source\PSoC5/USBUART_1_std.c ****     uint8 cur_ep;
 497:.\Generated_Source\PSoC5/USBUART_1_std.c ****     uint8 i;
 498:.\Generated_Source\PSoC5/USBUART_1_std.c ****     uint8 epType;
 499:.\Generated_Source\PSoC5/USBUART_1_std.c ****     const uint8 *pDescr;
 500:.\Generated_Source\PSoC5/USBUART_1_std.c ****     #if(USBUART_1_EP_MM != USBUART_1__EP_DMAAUTO)
 501:.\Generated_Source\PSoC5/USBUART_1_std.c ****         uint16 buffCount = 0u;
 1169              		.loc 1 501 0
 1170 000a 4FF00003 		mov	r3, #0
 1171 000e 7B83     		strh	r3, [r7, #26]	@ movhi
 502:.\Generated_Source\PSoC5/USBUART_1_std.c ****     #endif /*  USBUART_1_EP_MM != USBUART_1__EP_DMAAUTO */
 503:.\Generated_Source\PSoC5/USBUART_1_std.c **** 
 504:.\Generated_Source\PSoC5/USBUART_1_std.c ****     const T_USBUART_1_LUT CYCODE *pTmp;
 505:.\Generated_Source\PSoC5/USBUART_1_std.c ****     const T_USBUART_1_EP_SETTINGS_BLOCK CYCODE *pEP;
 506:.\Generated_Source\PSoC5/USBUART_1_std.c **** 
 507:.\Generated_Source\PSoC5/USBUART_1_std.c ****     /* Clear all of the endpoints */
 508:.\Generated_Source\PSoC5/USBUART_1_std.c ****     for (ep = 0u; ep < USBUART_1_MAX_EP; ep++)
 1172              		.loc 1 508 0
 1173 0010 4FF00003 		mov	r3, #0
 1174 0014 FB77     		strb	r3, [r7, #31]
 1175 0016 70E0     		b	.L79
 1176              	.L80:
 509:.\Generated_Source\PSoC5/USBUART_1_std.c ****     {
 510:.\Generated_Source\PSoC5/USBUART_1_std.c ****         USBUART_1_EP[ep].attrib = 0u;
 1177              		.loc 1 510 0 discriminator 2
 1178 0018 F97F     		ldrb	r1, [r7, #31]	@ zero_extendqisi2
 1179 001a 40F20002 		movw	r2, #:lower16:USBUART_1_EP
 1180 001e C0F20002 		movt	r2, #:upper16:USBUART_1_EP
 1181 0022 0B46     		mov	r3, r1
 1182 0024 4FEA4303 		lsl	r3, r3, #1
 1183 0028 5B18     		adds	r3, r3, r1
 1184 002a 4FEA8303 		lsl	r3, r3, #2
 1185 002e D318     		adds	r3, r2, r3
 1186 0030 4FF00002 		mov	r2, #0
 1187 0034 1A70     		strb	r2, [r3, #0]
 511:.\Generated_Source\PSoC5/USBUART_1_std.c ****         USBUART_1_EP[ep].hwEpState = 0u;
 1188              		.loc 1 511 0 discriminator 2
 1189 0036 F97F     		ldrb	r1, [r7, #31]	@ zero_extendqisi2
 1190 0038 40F20002 		movw	r2, #:lower16:USBUART_1_EP
 1191 003c C0F20002 		movt	r2, #:upper16:USBUART_1_EP
 1192 0040 0B46     		mov	r3, r1
 1193 0042 4FEA4303 		lsl	r3, r3, #1
 1194 0046 5B18     		adds	r3, r3, r1
 1195 0048 4FEA8303 		lsl	r3, r3, #2
 1196 004c D318     		adds	r3, r2, r3
 1197 004e 4FF00002 		mov	r2, #0
 1198 0052 9A70     		strb	r2, [r3, #2]
 512:.\Generated_Source\PSoC5/USBUART_1_std.c ****         USBUART_1_EP[ep].apiEpState = USBUART_1_NO_EVENT_PENDING;
 1199              		.loc 1 512 0 discriminator 2
 1200 0054 F97F     		ldrb	r1, [r7, #31]	@ zero_extendqisi2
ARM GAS  C:\Users\Robert\AppData\Local\Temp\ccdadQBo.s 			page 32


 1201 0056 40F20002 		movw	r2, #:lower16:USBUART_1_EP
 1202 005a C0F20002 		movt	r2, #:upper16:USBUART_1_EP
 1203 005e 0B46     		mov	r3, r1
 1204 0060 4FEA4303 		lsl	r3, r3, #1
 1205 0064 5B18     		adds	r3, r3, r1
 1206 0066 4FEA8303 		lsl	r3, r3, #2
 1207 006a D318     		adds	r3, r2, r3
 1208 006c 4FF00002 		mov	r2, #0
 1209 0070 5A70     		strb	r2, [r3, #1]
 513:.\Generated_Source\PSoC5/USBUART_1_std.c ****         USBUART_1_EP[ep].epToggle = 0u;
 1210              		.loc 1 513 0 discriminator 2
 1211 0072 F97F     		ldrb	r1, [r7, #31]	@ zero_extendqisi2
 1212 0074 40F20002 		movw	r2, #:lower16:USBUART_1_EP
 1213 0078 C0F20002 		movt	r2, #:upper16:USBUART_1_EP
 1214 007c 0B46     		mov	r3, r1
 1215 007e 4FEA4303 		lsl	r3, r3, #1
 1216 0082 5B18     		adds	r3, r3, r1
 1217 0084 4FEA8303 		lsl	r3, r3, #2
 1218 0088 D318     		adds	r3, r2, r3
 1219 008a 4FF00002 		mov	r2, #0
 1220 008e DA70     		strb	r2, [r3, #3]
 514:.\Generated_Source\PSoC5/USBUART_1_std.c ****         USBUART_1_EP[ep].epMode = USBUART_1_MODE_DISABLE;
 1221              		.loc 1 514 0 discriminator 2
 1222 0090 F97F     		ldrb	r1, [r7, #31]	@ zero_extendqisi2
 1223 0092 40F20002 		movw	r2, #:lower16:USBUART_1_EP
 1224 0096 C0F20002 		movt	r2, #:upper16:USBUART_1_EP
 1225 009a 0B46     		mov	r3, r1
 1226 009c 4FEA4303 		lsl	r3, r3, #1
 1227 00a0 5B18     		adds	r3, r3, r1
 1228 00a2 4FEA8303 		lsl	r3, r3, #2
 1229 00a6 D318     		adds	r3, r2, r3
 1230 00a8 4FF00002 		mov	r2, #0
 1231 00ac 5A71     		strb	r2, [r3, #5]
 515:.\Generated_Source\PSoC5/USBUART_1_std.c ****         USBUART_1_EP[ep].bufferSize = 0u;
 1232              		.loc 1 515 0 discriminator 2
 1233 00ae F97F     		ldrb	r1, [r7, #31]	@ zero_extendqisi2
 1234 00b0 40F20002 		movw	r2, #:lower16:USBUART_1_EP
 1235 00b4 C0F20002 		movt	r2, #:upper16:USBUART_1_EP
 1236 00b8 0B46     		mov	r3, r1
 1237 00ba 4FEA4303 		lsl	r3, r3, #1
 1238 00be 5B18     		adds	r3, r3, r1
 1239 00c0 4FEA8303 		lsl	r3, r3, #2
 1240 00c4 D318     		adds	r3, r2, r3
 1241 00c6 03F10803 		add	r3, r3, #8
 1242 00ca 4FF00002 		mov	r2, #0
 1243 00ce 1A80     		strh	r2, [r3, #0]	@ movhi
 516:.\Generated_Source\PSoC5/USBUART_1_std.c ****         USBUART_1_EP[ep].interface = 0u;
 1244              		.loc 1 516 0 discriminator 2
 1245 00d0 F97F     		ldrb	r1, [r7, #31]	@ zero_extendqisi2
 1246 00d2 40F20002 		movw	r2, #:lower16:USBUART_1_EP
 1247 00d6 C0F20002 		movt	r2, #:upper16:USBUART_1_EP
 1248 00da 0B46     		mov	r3, r1
 1249 00dc 4FEA4303 		lsl	r3, r3, #1
 1250 00e0 5B18     		adds	r3, r3, r1
 1251 00e2 4FEA8303 		lsl	r3, r3, #2
 1252 00e6 D318     		adds	r3, r2, r3
 1253 00e8 03F10803 		add	r3, r3, #8
ARM GAS  C:\Users\Robert\AppData\Local\Temp\ccdadQBo.s 			page 33


 1254 00ec 4FF00002 		mov	r2, #0
 1255 00f0 9A70     		strb	r2, [r3, #2]
 508:.\Generated_Source\PSoC5/USBUART_1_std.c ****     for (ep = 0u; ep < USBUART_1_MAX_EP; ep++)
 1256              		.loc 1 508 0 discriminator 2
 1257 00f2 FB7F     		ldrb	r3, [r7, #31]
 1258 00f4 03F10103 		add	r3, r3, #1
 1259 00f8 FB77     		strb	r3, [r7, #31]
 1260              	.L79:
 508:.\Generated_Source\PSoC5/USBUART_1_std.c ****     for (ep = 0u; ep < USBUART_1_MAX_EP; ep++)
 1261              		.loc 1 508 0 is_stmt 0 discriminator 1
 1262 00fa FB7F     		ldrb	r3, [r7, #31]	@ zero_extendqisi2
 1263 00fc 082B     		cmp	r3, #8
 1264 00fe 8BD9     		bls	.L80
 517:.\Generated_Source\PSoC5/USBUART_1_std.c **** 
 518:.\Generated_Source\PSoC5/USBUART_1_std.c ****     }
 519:.\Generated_Source\PSoC5/USBUART_1_std.c **** 
 520:.\Generated_Source\PSoC5/USBUART_1_std.c ****     /* Clear Alternate settings for all interfaces */
 521:.\Generated_Source\PSoC5/USBUART_1_std.c ****     if(clearAltSetting != 0u)
 1265              		.loc 1 521 0 is_stmt 1
 1266 0100 FB79     		ldrb	r3, [r7, #7]	@ zero_extendqisi2
 1267 0102 002B     		cmp	r3, #0
 1268 0104 1AD0     		beq	.L81
 522:.\Generated_Source\PSoC5/USBUART_1_std.c ****     {
 523:.\Generated_Source\PSoC5/USBUART_1_std.c ****         for (i = 0u; i < USBUART_1_MAX_INTERFACES_NUMBER; i++)
 1269              		.loc 1 523 0
 1270 0106 4FF00003 		mov	r3, #0
 1271 010a 7B77     		strb	r3, [r7, #29]
 1272 010c 13E0     		b	.L82
 1273              	.L83:
 524:.\Generated_Source\PSoC5/USBUART_1_std.c ****         {
 525:.\Generated_Source\PSoC5/USBUART_1_std.c ****             USBUART_1_interfaceSetting[i] = 0x00u;
 1274              		.loc 1 525 0 discriminator 2
 1275 010e 7A7F     		ldrb	r2, [r7, #29]	@ zero_extendqisi2
 1276 0110 40F20003 		movw	r3, #:lower16:USBUART_1_interfaceSetting
 1277 0114 C0F20003 		movt	r3, #:upper16:USBUART_1_interfaceSetting
 1278 0118 4FF00001 		mov	r1, #0
 1279 011c 9954     		strb	r1, [r3, r2]
 526:.\Generated_Source\PSoC5/USBUART_1_std.c ****             USBUART_1_interfaceSetting_last[i] = 0x00u;
 1280              		.loc 1 526 0 discriminator 2
 1281 011e 7A7F     		ldrb	r2, [r7, #29]	@ zero_extendqisi2
 1282 0120 40F20003 		movw	r3, #:lower16:USBUART_1_interfaceSetting_last
 1283 0124 C0F20003 		movt	r3, #:upper16:USBUART_1_interfaceSetting_last
 1284 0128 4FF00001 		mov	r1, #0
 1285 012c 9954     		strb	r1, [r3, r2]
 523:.\Generated_Source\PSoC5/USBUART_1_std.c ****         for (i = 0u; i < USBUART_1_MAX_INTERFACES_NUMBER; i++)
 1286              		.loc 1 523 0 discriminator 2
 1287 012e 7B7F     		ldrb	r3, [r7, #29]
 1288 0130 03F10103 		add	r3, r3, #1
 1289 0134 7B77     		strb	r3, [r7, #29]
 1290              	.L82:
 523:.\Generated_Source\PSoC5/USBUART_1_std.c ****         for (i = 0u; i < USBUART_1_MAX_INTERFACES_NUMBER; i++)
 1291              		.loc 1 523 0 is_stmt 0 discriminator 1
 1292 0136 7B7F     		ldrb	r3, [r7, #29]	@ zero_extendqisi2
 1293 0138 012B     		cmp	r3, #1
 1294 013a E8D9     		bls	.L83
 1295              	.L81:
 527:.\Generated_Source\PSoC5/USBUART_1_std.c ****         }
ARM GAS  C:\Users\Robert\AppData\Local\Temp\ccdadQBo.s 			page 34


 528:.\Generated_Source\PSoC5/USBUART_1_std.c ****     }
 529:.\Generated_Source\PSoC5/USBUART_1_std.c **** 
 530:.\Generated_Source\PSoC5/USBUART_1_std.c ****     /* Init Endpoints and Device Status if configured */
 531:.\Generated_Source\PSoC5/USBUART_1_std.c ****     if(USBUART_1_configuration > 0u)
 1296              		.loc 1 531 0 is_stmt 1
 1297 013c 40F20003 		movw	r3, #:lower16:USBUART_1_configuration
 1298 0140 C0F20003 		movt	r3, #:upper16:USBUART_1_configuration
 1299 0144 1B78     		ldrb	r3, [r3, #0]
 1300 0146 DBB2     		uxtb	r3, r3
 1301 0148 002B     		cmp	r3, #0
 1302 014a 00F08E81 		beq	.L78
 532:.\Generated_Source\PSoC5/USBUART_1_std.c ****     {
 533:.\Generated_Source\PSoC5/USBUART_1_std.c ****         pTmp = USBUART_1_GetConfigTablePtr(USBUART_1_configuration - 1u);
 1303              		.loc 1 533 0
 1304 014e 40F20003 		movw	r3, #:lower16:USBUART_1_configuration
 1305 0152 C0F20003 		movt	r3, #:upper16:USBUART_1_configuration
 1306 0156 1B78     		ldrb	r3, [r3, #0]
 1307 0158 DBB2     		uxtb	r3, r3
 1308 015a 03F1FF33 		add	r3, r3, #-1
 1309 015e DBB2     		uxtb	r3, r3
 1310 0160 1846     		mov	r0, r3
 1311 0162 FFF7FEFF 		bl	USBUART_1_GetConfigTablePtr
 1312 0166 3861     		str	r0, [r7, #16]
 534:.\Generated_Source\PSoC5/USBUART_1_std.c ****         /* Set Power status for current configuration */
 535:.\Generated_Source\PSoC5/USBUART_1_std.c ****         pDescr = (const uint8 *)pTmp->p_list;
 1313              		.loc 1 535 0
 1314 0168 3B69     		ldr	r3, [r7, #16]
 1315 016a 5B68     		ldr	r3, [r3, #4]
 1316 016c FB60     		str	r3, [r7, #12]
 536:.\Generated_Source\PSoC5/USBUART_1_std.c ****         if((pDescr[USBUART_1_CONFIG_DESCR_ATTRIB] & USBUART_1_CONFIG_DESCR_ATTRIB_SELF_POWERED) != 
 1317              		.loc 1 536 0
 1318 016e FB68     		ldr	r3, [r7, #12]
 1319 0170 03F10703 		add	r3, r3, #7
 1320 0174 1B78     		ldrb	r3, [r3, #0]	@ zero_extendqisi2
 1321 0176 03F04003 		and	r3, r3, #64
 1322 017a 002B     		cmp	r3, #0
 1323 017c 0ED0     		beq	.L85
 537:.\Generated_Source\PSoC5/USBUART_1_std.c ****         {
 538:.\Generated_Source\PSoC5/USBUART_1_std.c ****             USBUART_1_deviceStatus |=  USBUART_1_DEVICE_STATUS_SELF_POWERED;
 1324              		.loc 1 538 0
 1325 017e 40F20003 		movw	r3, #:lower16:USBUART_1_deviceStatus
 1326 0182 C0F20003 		movt	r3, #:upper16:USBUART_1_deviceStatus
 1327 0186 1B78     		ldrb	r3, [r3, #0]
 1328 0188 DBB2     		uxtb	r3, r3
 1329 018a 43F00103 		orr	r3, r3, #1
 1330 018e DAB2     		uxtb	r2, r3
 1331 0190 40F20003 		movw	r3, #:lower16:USBUART_1_deviceStatus
 1332 0194 C0F20003 		movt	r3, #:upper16:USBUART_1_deviceStatus
 1333 0198 1A70     		strb	r2, [r3, #0]
 1334 019a 0DE0     		b	.L86
 1335              	.L85:
 539:.\Generated_Source\PSoC5/USBUART_1_std.c ****         }
 540:.\Generated_Source\PSoC5/USBUART_1_std.c ****         else
 541:.\Generated_Source\PSoC5/USBUART_1_std.c ****         {
 542:.\Generated_Source\PSoC5/USBUART_1_std.c ****             USBUART_1_deviceStatus &=  (uint8)~USBUART_1_DEVICE_STATUS_SELF_POWERED;
 1336              		.loc 1 542 0
 1337 019c 40F20003 		movw	r3, #:lower16:USBUART_1_deviceStatus
ARM GAS  C:\Users\Robert\AppData\Local\Temp\ccdadQBo.s 			page 35


 1338 01a0 C0F20003 		movt	r3, #:upper16:USBUART_1_deviceStatus
 1339 01a4 1B78     		ldrb	r3, [r3, #0]
 1340 01a6 DBB2     		uxtb	r3, r3
 1341 01a8 23F00103 		bic	r3, r3, #1
 1342 01ac DAB2     		uxtb	r2, r3
 1343 01ae 40F20003 		movw	r3, #:lower16:USBUART_1_deviceStatus
 1344 01b2 C0F20003 		movt	r3, #:upper16:USBUART_1_deviceStatus
 1345 01b6 1A70     		strb	r2, [r3, #0]
 1346              	.L86:
 543:.\Generated_Source\PSoC5/USBUART_1_std.c ****         }
 544:.\Generated_Source\PSoC5/USBUART_1_std.c ****         /* Move to next element */
 545:.\Generated_Source\PSoC5/USBUART_1_std.c ****         pTmp = &pTmp[1u];
 1347              		.loc 1 545 0
 1348 01b8 3B69     		ldr	r3, [r7, #16]
 1349 01ba 03F10803 		add	r3, r3, #8
 1350 01be 3B61     		str	r3, [r7, #16]
 546:.\Generated_Source\PSoC5/USBUART_1_std.c ****         ep = pTmp->c;  /* For this table, c is the number of endpoints configurations  */
 1351              		.loc 1 546 0
 1352 01c0 3B69     		ldr	r3, [r7, #16]
 1353 01c2 1B78     		ldrb	r3, [r3, #0]
 1354 01c4 FB77     		strb	r3, [r7, #31]
 547:.\Generated_Source\PSoC5/USBUART_1_std.c **** 
 548:.\Generated_Source\PSoC5/USBUART_1_std.c ****         #if ((USBUART_1_EP_MA == USBUART_1__MA_DYNAMIC) && \
 549:.\Generated_Source\PSoC5/USBUART_1_std.c ****              (USBUART_1_EP_MM == USBUART_1__EP_MANUAL) )
 550:.\Generated_Source\PSoC5/USBUART_1_std.c ****             /* Configure for dynamic EP memory allocation */
 551:.\Generated_Source\PSoC5/USBUART_1_std.c ****             /* p_list points the endpoint setting table. */
 552:.\Generated_Source\PSoC5/USBUART_1_std.c ****             pEP = (T_USBUART_1_EP_SETTINGS_BLOCK *) pTmp->p_list;
 553:.\Generated_Source\PSoC5/USBUART_1_std.c ****             for (i = 0u; i < ep; i++)
 554:.\Generated_Source\PSoC5/USBUART_1_std.c ****             {
 555:.\Generated_Source\PSoC5/USBUART_1_std.c ****                 /* Compare current Alternate setting with EP Alt */
 556:.\Generated_Source\PSoC5/USBUART_1_std.c ****                 if(USBUART_1_interfaceSetting[pEP->interface] == pEP->altSetting)
 557:.\Generated_Source\PSoC5/USBUART_1_std.c ****                 {
 558:.\Generated_Source\PSoC5/USBUART_1_std.c ****                     cur_ep = pEP->addr & USBUART_1_DIR_UNUSED;
 559:.\Generated_Source\PSoC5/USBUART_1_std.c ****                     epType = pEP->attributes & USBUART_1_EP_TYPE_MASK;
 560:.\Generated_Source\PSoC5/USBUART_1_std.c ****                     if (pEP->addr & USBUART_1_DIR_IN)
 561:.\Generated_Source\PSoC5/USBUART_1_std.c ****                     {
 562:.\Generated_Source\PSoC5/USBUART_1_std.c ****                         /* IN Endpoint */
 563:.\Generated_Source\PSoC5/USBUART_1_std.c ****                         USBUART_1_EP[cur_ep].apiEpState = USBUART_1_EVENT_PENDING;
 564:.\Generated_Source\PSoC5/USBUART_1_std.c ****                         USBUART_1_EP[cur_ep].epMode = (epType == USBUART_1_EP_TYPE_ISOC) ?
 565:.\Generated_Source\PSoC5/USBUART_1_std.c ****                                                         USBUART_1_MODE_ISO_IN : USBUART_1_MODE_ACK_
 566:.\Generated_Source\PSoC5/USBUART_1_std.c ****                         #if defined(USBUART_1_ENABLE_CDC_CLASS)
 567:.\Generated_Source\PSoC5/USBUART_1_std.c ****                             if(((pEP->bMisc == USBUART_1_CLASS_CDC_DATA) ||
 568:.\Generated_Source\PSoC5/USBUART_1_std.c ****                                 (pEP->bMisc == USBUART_1_CLASS_CDC)) &&
 569:.\Generated_Source\PSoC5/USBUART_1_std.c ****                                 (epType != USBUART_1_EP_TYPE_INT))
 570:.\Generated_Source\PSoC5/USBUART_1_std.c ****                             {
 571:.\Generated_Source\PSoC5/USBUART_1_std.c ****                                 USBUART_1_cdc_data_in_ep = cur_ep;
 572:.\Generated_Source\PSoC5/USBUART_1_std.c ****                             }
 573:.\Generated_Source\PSoC5/USBUART_1_std.c ****                         #endif  /*  USBUART_1_ENABLE_CDC_CLASS*/
 574:.\Generated_Source\PSoC5/USBUART_1_std.c ****                         #if ( defined(USBUART_1_ENABLE_MIDI_STREAMING) && \
 575:.\Generated_Source\PSoC5/USBUART_1_std.c ****                                              (USBUART_1_MIDI_IN_BUFF_SIZE > 0) )
 576:.\Generated_Source\PSoC5/USBUART_1_std.c ****                             if((pEP->bMisc == USBUART_1_CLASS_AUDIO) &&
 577:.\Generated_Source\PSoC5/USBUART_1_std.c ****                                (epType == USBUART_1_EP_TYPE_BULK))
 578:.\Generated_Source\PSoC5/USBUART_1_std.c ****                             {
 579:.\Generated_Source\PSoC5/USBUART_1_std.c ****                                 USBUART_1_midi_in_ep = cur_ep;
 580:.\Generated_Source\PSoC5/USBUART_1_std.c ****                             }
 581:.\Generated_Source\PSoC5/USBUART_1_std.c ****                         #endif  /*  USBUART_1_ENABLE_MIDI_STREAMING*/
 582:.\Generated_Source\PSoC5/USBUART_1_std.c ****                     }
ARM GAS  C:\Users\Robert\AppData\Local\Temp\ccdadQBo.s 			page 36


 583:.\Generated_Source\PSoC5/USBUART_1_std.c ****                     else
 584:.\Generated_Source\PSoC5/USBUART_1_std.c ****                     {
 585:.\Generated_Source\PSoC5/USBUART_1_std.c ****                         /* OUT Endpoint */
 586:.\Generated_Source\PSoC5/USBUART_1_std.c ****                         USBUART_1_EP[cur_ep].apiEpState = USBUART_1_NO_EVENT_PENDING;
 587:.\Generated_Source\PSoC5/USBUART_1_std.c ****                         USBUART_1_EP[cur_ep].epMode = (epType == USBUART_1_EP_TYPE_ISOC) ?
 588:.\Generated_Source\PSoC5/USBUART_1_std.c ****                                                     USBUART_1_MODE_ISO_OUT : USBUART_1_MODE_ACK_OUT
 589:.\Generated_Source\PSoC5/USBUART_1_std.c ****                         #if defined(USBUART_1_ENABLE_CDC_CLASS)
 590:.\Generated_Source\PSoC5/USBUART_1_std.c ****                             if(((pEP->bMisc == USBUART_1_CLASS_CDC_DATA) ||
 591:.\Generated_Source\PSoC5/USBUART_1_std.c ****                                 (pEP->bMisc == USBUART_1_CLASS_CDC)) &&
 592:.\Generated_Source\PSoC5/USBUART_1_std.c ****                                 (epType != USBUART_1_EP_TYPE_INT))
 593:.\Generated_Source\PSoC5/USBUART_1_std.c ****                             {
 594:.\Generated_Source\PSoC5/USBUART_1_std.c ****                                 USBUART_1_cdc_data_out_ep = cur_ep;
 595:.\Generated_Source\PSoC5/USBUART_1_std.c ****                             }
 596:.\Generated_Source\PSoC5/USBUART_1_std.c ****                         #endif  /*  USBUART_1_ENABLE_CDC_CLASS*/
 597:.\Generated_Source\PSoC5/USBUART_1_std.c ****                         #if ( defined(USBUART_1_ENABLE_MIDI_STREAMING) && \
 598:.\Generated_Source\PSoC5/USBUART_1_std.c ****                                      (USBUART_1_MIDI_OUT_BUFF_SIZE > 0) )
 599:.\Generated_Source\PSoC5/USBUART_1_std.c ****                             if((pEP->bMisc == USBUART_1_CLASS_AUDIO) &&
 600:.\Generated_Source\PSoC5/USBUART_1_std.c ****                                (epType == USBUART_1_EP_TYPE_BULK))
 601:.\Generated_Source\PSoC5/USBUART_1_std.c ****                             {
 602:.\Generated_Source\PSoC5/USBUART_1_std.c ****                                 USBUART_1_midi_out_ep = cur_ep;
 603:.\Generated_Source\PSoC5/USBUART_1_std.c ****                             }
 604:.\Generated_Source\PSoC5/USBUART_1_std.c ****                         #endif  /*  USBUART_1_ENABLE_MIDI_STREAMING*/
 605:.\Generated_Source\PSoC5/USBUART_1_std.c ****                     }
 606:.\Generated_Source\PSoC5/USBUART_1_std.c ****                     USBUART_1_EP[cur_ep].bufferSize = pEP->bufferSize;
 607:.\Generated_Source\PSoC5/USBUART_1_std.c ****                     USBUART_1_EP[cur_ep].addr = pEP->addr;
 608:.\Generated_Source\PSoC5/USBUART_1_std.c ****                     USBUART_1_EP[cur_ep].attrib = pEP->attributes;
 609:.\Generated_Source\PSoC5/USBUART_1_std.c ****                 }
 610:.\Generated_Source\PSoC5/USBUART_1_std.c ****                 pEP = &pEP[1u];
 611:.\Generated_Source\PSoC5/USBUART_1_std.c ****             }
 612:.\Generated_Source\PSoC5/USBUART_1_std.c ****         #else /* Configure for static EP memory allocation  */
 613:.\Generated_Source\PSoC5/USBUART_1_std.c ****             for (i = USBUART_1_EP1; i < USBUART_1_MAX_EP; i++)
 1355              		.loc 1 613 0
 1356 01c6 4FF00103 		mov	r3, #1
 1357 01ca 7B77     		strb	r3, [r7, #29]
 1358 01cc EBE0     		b	.L87
 1359              	.L100:
 614:.\Generated_Source\PSoC5/USBUART_1_std.c ****             {
 615:.\Generated_Source\PSoC5/USBUART_1_std.c ****                 /* p_list points the endpoint setting table. */
 616:.\Generated_Source\PSoC5/USBUART_1_std.c ****                 pEP = (const T_USBUART_1_EP_SETTINGS_BLOCK CYCODE *) pTmp->p_list;
 1360              		.loc 1 616 0
 1361 01ce 3B69     		ldr	r3, [r7, #16]
 1362 01d0 5B68     		ldr	r3, [r3, #4]
 1363 01d2 7B61     		str	r3, [r7, #20]
 617:.\Generated_Source\PSoC5/USBUART_1_std.c ****                 /* Find max length for each EP and select it (length could be different in differen
 618:.\Generated_Source\PSoC5/USBUART_1_std.c ****                 /* but other settings should be correct with regards to Interface alt Setting */
 619:.\Generated_Source\PSoC5/USBUART_1_std.c ****                 for (cur_ep = 0u; cur_ep < ep; cur_ep++)
 1364              		.loc 1 619 0
 1365 01d4 4FF00003 		mov	r3, #0
 1366 01d8 BB77     		strb	r3, [r7, #30]
 1367 01da DBE0     		b	.L88
 1368              	.L99:
 620:.\Generated_Source\PSoC5/USBUART_1_std.c ****                 {
 621:.\Generated_Source\PSoC5/USBUART_1_std.c ****                     /* EP count is equal to EP # in table and we found larger EP length than have b
 622:.\Generated_Source\PSoC5/USBUART_1_std.c ****                     if(i == (pEP->addr & USBUART_1_DIR_UNUSED))
 1369              		.loc 1 622 0
 1370 01dc 7A7F     		ldrb	r2, [r7, #29]	@ zero_extendqisi2
 1371 01de 7B69     		ldr	r3, [r7, #20]
ARM GAS  C:\Users\Robert\AppData\Local\Temp\ccdadQBo.s 			page 37


 1372 01e0 9B78     		ldrb	r3, [r3, #2]	@ zero_extendqisi2
 1373 01e2 03F07F03 		and	r3, r3, #127
 1374 01e6 9A42     		cmp	r2, r3
 1375 01e8 40F0CC80 		bne	.L89
 623:.\Generated_Source\PSoC5/USBUART_1_std.c ****                     {
 624:.\Generated_Source\PSoC5/USBUART_1_std.c ****                         if(USBUART_1_EP[i].bufferSize < pEP->bufferSize)
 1376              		.loc 1 624 0
 1377 01ec 797F     		ldrb	r1, [r7, #29]	@ zero_extendqisi2
 1378 01ee 40F20002 		movw	r2, #:lower16:USBUART_1_EP
 1379 01f2 C0F20002 		movt	r2, #:upper16:USBUART_1_EP
 1380 01f6 0B46     		mov	r3, r1
 1381 01f8 4FEA4303 		lsl	r3, r3, #1
 1382 01fc 5B18     		adds	r3, r3, r1
 1383 01fe 4FEA8303 		lsl	r3, r3, #2
 1384 0202 D318     		adds	r3, r2, r3
 1385 0204 03F10803 		add	r3, r3, #8
 1386 0208 1B88     		ldrh	r3, [r3, #0]	@ movhi
 1387 020a 9AB2     		uxth	r2, r3
 1388 020c 7B69     		ldr	r3, [r7, #20]
 1389 020e 9B88     		ldrh	r3, [r3, #4]
 1390 0210 9A42     		cmp	r2, r3
 1391 0212 11D2     		bcs	.L90
 625:.\Generated_Source\PSoC5/USBUART_1_std.c ****                         {
 626:.\Generated_Source\PSoC5/USBUART_1_std.c ****                             USBUART_1_EP[i].bufferSize = pEP->bufferSize;
 1392              		.loc 1 626 0
 1393 0214 797F     		ldrb	r1, [r7, #29]	@ zero_extendqisi2
 1394 0216 7B69     		ldr	r3, [r7, #20]
 1395 0218 9888     		ldrh	r0, [r3, #4]
 1396 021a 40F20002 		movw	r2, #:lower16:USBUART_1_EP
 1397 021e C0F20002 		movt	r2, #:upper16:USBUART_1_EP
 1398 0222 0B46     		mov	r3, r1
 1399 0224 4FEA4303 		lsl	r3, r3, #1
 1400 0228 5B18     		adds	r3, r3, r1
 1401 022a 4FEA8303 		lsl	r3, r3, #2
 1402 022e D318     		adds	r3, r2, r3
 1403 0230 03F10803 		add	r3, r3, #8
 1404 0234 0246     		mov	r2, r0	@ movhi
 1405 0236 1A80     		strh	r2, [r3, #0]	@ movhi
 1406              	.L90:
 627:.\Generated_Source\PSoC5/USBUART_1_std.c ****                         }
 628:.\Generated_Source\PSoC5/USBUART_1_std.c ****                         /* Compare current Alternate setting with EP Alt*/
 629:.\Generated_Source\PSoC5/USBUART_1_std.c ****                         if(USBUART_1_interfaceSetting[pEP->interface] == pEP->altSetting)
 1407              		.loc 1 629 0
 1408 0238 7B69     		ldr	r3, [r7, #20]
 1409 023a 1B78     		ldrb	r3, [r3, #0]	@ zero_extendqisi2
 1410 023c 1A46     		mov	r2, r3
 1411 023e 40F20003 		movw	r3, #:lower16:USBUART_1_interfaceSetting
 1412 0242 C0F20003 		movt	r3, #:upper16:USBUART_1_interfaceSetting
 1413 0246 9B5C     		ldrb	r3, [r3, r2]
 1414 0248 DAB2     		uxtb	r2, r3
 1415 024a 7B69     		ldr	r3, [r7, #20]
 1416 024c 5B78     		ldrb	r3, [r3, #1]	@ zero_extendqisi2
 1417 024e 9A42     		cmp	r2, r3
 1418 0250 40F09880 		bne	.L89
 630:.\Generated_Source\PSoC5/USBUART_1_std.c ****                         {
 631:.\Generated_Source\PSoC5/USBUART_1_std.c ****                             epType = pEP->attributes & USBUART_1_EP_TYPE_MASK;
 1419              		.loc 1 631 0
ARM GAS  C:\Users\Robert\AppData\Local\Temp\ccdadQBo.s 			page 38


 1420 0254 7B69     		ldr	r3, [r7, #20]
 1421 0256 DB78     		ldrb	r3, [r3, #3]	@ zero_extendqisi2
 1422 0258 03F00303 		and	r3, r3, #3
 1423 025c FB72     		strb	r3, [r7, #11]
 632:.\Generated_Source\PSoC5/USBUART_1_std.c ****                             if ((pEP->addr & USBUART_1_DIR_IN) != 0u)
 1424              		.loc 1 632 0
 1425 025e 7B69     		ldr	r3, [r7, #20]
 1426 0260 9B78     		ldrb	r3, [r3, #2]	@ zero_extendqisi2
 1427 0262 DBB2     		uxtb	r3, r3
 1428 0264 5BB2     		sxtb	r3, r3
 1429 0266 002B     		cmp	r3, #0
 1430 0268 36DA     		bge	.L91
 633:.\Generated_Source\PSoC5/USBUART_1_std.c ****                             {
 634:.\Generated_Source\PSoC5/USBUART_1_std.c ****                                 /* IN Endpoint */
 635:.\Generated_Source\PSoC5/USBUART_1_std.c ****                                 USBUART_1_EP[i].apiEpState = USBUART_1_EVENT_PENDING;
 1431              		.loc 1 635 0
 1432 026a 797F     		ldrb	r1, [r7, #29]	@ zero_extendqisi2
 1433 026c 40F20002 		movw	r2, #:lower16:USBUART_1_EP
 1434 0270 C0F20002 		movt	r2, #:upper16:USBUART_1_EP
 1435 0274 0B46     		mov	r3, r1
 1436 0276 4FEA4303 		lsl	r3, r3, #1
 1437 027a 5B18     		adds	r3, r3, r1
 1438 027c 4FEA8303 		lsl	r3, r3, #2
 1439 0280 D318     		adds	r3, r2, r3
 1440 0282 4FF00102 		mov	r2, #1
 1441 0286 5A70     		strb	r2, [r3, #1]
 636:.\Generated_Source\PSoC5/USBUART_1_std.c ****                                 USBUART_1_EP[i].epMode = (epType == USBUART_1_EP_TYPE_ISOC) ?
 1442              		.loc 1 636 0
 1443 0288 787F     		ldrb	r0, [r7, #29]	@ zero_extendqisi2
 1444 028a FB7A     		ldrb	r3, [r7, #11]	@ zero_extendqisi2
 1445 028c 012B     		cmp	r3, #1
 1446 028e 02D1     		bne	.L92
 1447              		.loc 1 636 0 is_stmt 0 discriminator 1
 1448 0290 4FF00701 		mov	r1, #7
 1449 0294 01E0     		b	.L93
 1450              	.L92:
 1451              		.loc 1 636 0 discriminator 2
 1452 0296 4FF00D01 		mov	r1, #13
 1453              	.L93:
 1454              		.loc 1 636 0 discriminator 3
 1455 029a 40F20002 		movw	r2, #:lower16:USBUART_1_EP
 1456 029e C0F20002 		movt	r2, #:upper16:USBUART_1_EP
 1457 02a2 0346     		mov	r3, r0
 1458 02a4 4FEA4303 		lsl	r3, r3, #1
 1459 02a8 1B18     		adds	r3, r3, r0
 1460 02aa 4FEA8303 		lsl	r3, r3, #2
 1461 02ae D318     		adds	r3, r2, r3
 1462 02b0 0A46     		mov	r2, r1
 1463 02b2 5A71     		strb	r2, [r3, #5]
 637:.\Generated_Source\PSoC5/USBUART_1_std.c ****                                                         USBUART_1_MODE_ISO_IN : USBUART_1_MODE_ACK_
 638:.\Generated_Source\PSoC5/USBUART_1_std.c ****                                 /* Find and initialize CDC IN endpoint number */
 639:.\Generated_Source\PSoC5/USBUART_1_std.c ****                                 #if defined(USBUART_1_ENABLE_CDC_CLASS)
 640:.\Generated_Source\PSoC5/USBUART_1_std.c ****                                     if(((pEP->bMisc == USBUART_1_CLASS_CDC_DATA) ||
 1464              		.loc 1 640 0 is_stmt 1 discriminator 3
 1465 02b4 7B69     		ldr	r3, [r7, #20]
 1466 02b6 9B79     		ldrb	r3, [r3, #6]	@ zero_extendqisi2
 1467 02b8 0A2B     		cmp	r3, #10
ARM GAS  C:\Users\Robert\AppData\Local\Temp\ccdadQBo.s 			page 39


 1468 02ba 03D0     		beq	.L94
 641:.\Generated_Source\PSoC5/USBUART_1_std.c ****                                         (pEP->bMisc == USBUART_1_CLASS_CDC)) &&
 1469              		.loc 1 641 0 discriminator 1
 1470 02bc 7B69     		ldr	r3, [r7, #20]
 1471 02be 9B79     		ldrb	r3, [r3, #6]	@ zero_extendqisi2
 640:.\Generated_Source\PSoC5/USBUART_1_std.c ****                                     if(((pEP->bMisc == USBUART_1_CLASS_CDC_DATA) ||
 1472              		.loc 1 640 0 discriminator 1
 1473 02c0 022B     		cmp	r3, #2
 1474 02c2 3FD1     		bne	.L95
 1475              	.L94:
 1476              		.loc 1 641 0
 1477 02c4 FB7A     		ldrb	r3, [r7, #11]	@ zero_extendqisi2
 1478 02c6 032B     		cmp	r3, #3
 1479 02c8 3CD0     		beq	.L95
 642:.\Generated_Source\PSoC5/USBUART_1_std.c ****                                         (epType != USBUART_1_EP_TYPE_INT))
 643:.\Generated_Source\PSoC5/USBUART_1_std.c ****                                     {
 644:.\Generated_Source\PSoC5/USBUART_1_std.c ****                                         USBUART_1_cdc_data_in_ep = i;
 1480              		.loc 1 644 0
 1481 02ca 40F20003 		movw	r3, #:lower16:USBUART_1_cdc_data_in_ep
 1482 02ce C0F20003 		movt	r3, #:upper16:USBUART_1_cdc_data_in_ep
 1483 02d2 7A7F     		ldrb	r2, [r7, #29]
 1484 02d4 1A70     		strb	r2, [r3, #0]
 1485 02d6 35E0     		b	.L95
 1486              	.L91:
 645:.\Generated_Source\PSoC5/USBUART_1_std.c ****                                     }
 646:.\Generated_Source\PSoC5/USBUART_1_std.c ****                                 #endif  /*  USBUART_1_ENABLE_CDC_CLASS*/
 647:.\Generated_Source\PSoC5/USBUART_1_std.c ****                                 #if ( defined(USBUART_1_ENABLE_MIDI_STREAMING) && \
 648:.\Generated_Source\PSoC5/USBUART_1_std.c ****                                              (USBUART_1_MIDI_IN_BUFF_SIZE > 0) )
 649:.\Generated_Source\PSoC5/USBUART_1_std.c ****                                     if((pEP->bMisc == USBUART_1_CLASS_AUDIO) &&
 650:.\Generated_Source\PSoC5/USBUART_1_std.c ****                                        (epType == USBUART_1_EP_TYPE_BULK))
 651:.\Generated_Source\PSoC5/USBUART_1_std.c ****                                     {
 652:.\Generated_Source\PSoC5/USBUART_1_std.c ****                                         USBUART_1_midi_in_ep = i;
 653:.\Generated_Source\PSoC5/USBUART_1_std.c ****                                     }
 654:.\Generated_Source\PSoC5/USBUART_1_std.c ****                                 #endif  /*  USBUART_1_ENABLE_MIDI_STREAMING*/
 655:.\Generated_Source\PSoC5/USBUART_1_std.c ****                             }
 656:.\Generated_Source\PSoC5/USBUART_1_std.c ****                             else
 657:.\Generated_Source\PSoC5/USBUART_1_std.c ****                             {
 658:.\Generated_Source\PSoC5/USBUART_1_std.c ****                                 /* OUT Endpoint */
 659:.\Generated_Source\PSoC5/USBUART_1_std.c ****                                 USBUART_1_EP[i].apiEpState = USBUART_1_NO_EVENT_PENDING;
 1487              		.loc 1 659 0
 1488 02d8 797F     		ldrb	r1, [r7, #29]	@ zero_extendqisi2
 1489 02da 40F20002 		movw	r2, #:lower16:USBUART_1_EP
 1490 02de C0F20002 		movt	r2, #:upper16:USBUART_1_EP
 1491 02e2 0B46     		mov	r3, r1
 1492 02e4 4FEA4303 		lsl	r3, r3, #1
 1493 02e8 5B18     		adds	r3, r3, r1
 1494 02ea 4FEA8303 		lsl	r3, r3, #2
 1495 02ee D318     		adds	r3, r2, r3
 1496 02f0 4FF00002 		mov	r2, #0
 1497 02f4 5A70     		strb	r2, [r3, #1]
 660:.\Generated_Source\PSoC5/USBUART_1_std.c ****                                 USBUART_1_EP[i].epMode = (epType == USBUART_1_EP_TYPE_ISOC) ?
 1498              		.loc 1 660 0
 1499 02f6 787F     		ldrb	r0, [r7, #29]	@ zero_extendqisi2
 1500 02f8 FB7A     		ldrb	r3, [r7, #11]	@ zero_extendqisi2
 1501 02fa 012B     		cmp	r3, #1
 1502 02fc 02D1     		bne	.L96
 1503              		.loc 1 660 0 is_stmt 0 discriminator 1
ARM GAS  C:\Users\Robert\AppData\Local\Temp\ccdadQBo.s 			page 40


 1504 02fe 4FF00501 		mov	r1, #5
 1505 0302 01E0     		b	.L97
 1506              	.L96:
 1507              		.loc 1 660 0 discriminator 2
 1508 0304 4FF00901 		mov	r1, #9
 1509              	.L97:
 1510              		.loc 1 660 0 discriminator 3
 1511 0308 40F20002 		movw	r2, #:lower16:USBUART_1_EP
 1512 030c C0F20002 		movt	r2, #:upper16:USBUART_1_EP
 1513 0310 0346     		mov	r3, r0
 1514 0312 4FEA4303 		lsl	r3, r3, #1
 1515 0316 1B18     		adds	r3, r3, r0
 1516 0318 4FEA8303 		lsl	r3, r3, #2
 1517 031c D318     		adds	r3, r2, r3
 1518 031e 0A46     		mov	r2, r1
 1519 0320 5A71     		strb	r2, [r3, #5]
 661:.\Generated_Source\PSoC5/USBUART_1_std.c ****                                                     USBUART_1_MODE_ISO_OUT : USBUART_1_MODE_ACK_OUT
 662:.\Generated_Source\PSoC5/USBUART_1_std.c ****                                 /* Find and initialize CDC IN endpoint number */
 663:.\Generated_Source\PSoC5/USBUART_1_std.c ****                                 #if defined(USBUART_1_ENABLE_CDC_CLASS)
 664:.\Generated_Source\PSoC5/USBUART_1_std.c ****                                     if(((pEP->bMisc == USBUART_1_CLASS_CDC_DATA) ||
 1520              		.loc 1 664 0 is_stmt 1 discriminator 3
 1521 0322 7B69     		ldr	r3, [r7, #20]
 1522 0324 9B79     		ldrb	r3, [r3, #6]	@ zero_extendqisi2
 1523 0326 0A2B     		cmp	r3, #10
 1524 0328 03D0     		beq	.L98
 665:.\Generated_Source\PSoC5/USBUART_1_std.c ****                                         (pEP->bMisc == USBUART_1_CLASS_CDC)) &&
 1525              		.loc 1 665 0 discriminator 1
 1526 032a 7B69     		ldr	r3, [r7, #20]
 1527 032c 9B79     		ldrb	r3, [r3, #6]	@ zero_extendqisi2
 664:.\Generated_Source\PSoC5/USBUART_1_std.c ****                                     if(((pEP->bMisc == USBUART_1_CLASS_CDC_DATA) ||
 1528              		.loc 1 664 0 discriminator 1
 1529 032e 022B     		cmp	r3, #2
 1530 0330 08D1     		bne	.L95
 1531              	.L98:
 1532              		.loc 1 665 0
 1533 0332 FB7A     		ldrb	r3, [r7, #11]	@ zero_extendqisi2
 1534 0334 032B     		cmp	r3, #3
 1535 0336 05D0     		beq	.L95
 666:.\Generated_Source\PSoC5/USBUART_1_std.c ****                                         (epType != USBUART_1_EP_TYPE_INT))
 667:.\Generated_Source\PSoC5/USBUART_1_std.c ****                                     {
 668:.\Generated_Source\PSoC5/USBUART_1_std.c ****                                         USBUART_1_cdc_data_out_ep = i;
 1536              		.loc 1 668 0
 1537 0338 40F20003 		movw	r3, #:lower16:USBUART_1_cdc_data_out_ep
 1538 033c C0F20003 		movt	r3, #:upper16:USBUART_1_cdc_data_out_ep
 1539 0340 7A7F     		ldrb	r2, [r7, #29]
 1540 0342 1A70     		strb	r2, [r3, #0]
 1541              	.L95:
 669:.\Generated_Source\PSoC5/USBUART_1_std.c ****                                     }
 670:.\Generated_Source\PSoC5/USBUART_1_std.c ****                                 #endif  /*  USBUART_1_ENABLE_CDC_CLASS*/
 671:.\Generated_Source\PSoC5/USBUART_1_std.c ****                                 #if ( defined(USBUART_1_ENABLE_MIDI_STREAMING) && \
 672:.\Generated_Source\PSoC5/USBUART_1_std.c ****                                              (USBUART_1_MIDI_OUT_BUFF_SIZE > 0) )
 673:.\Generated_Source\PSoC5/USBUART_1_std.c ****                                     if((pEP->bMisc == USBUART_1_CLASS_AUDIO) &&
 674:.\Generated_Source\PSoC5/USBUART_1_std.c ****                                        (epType == USBUART_1_EP_TYPE_BULK))
 675:.\Generated_Source\PSoC5/USBUART_1_std.c ****                                     {
 676:.\Generated_Source\PSoC5/USBUART_1_std.c ****                                         USBUART_1_midi_out_ep = i;
 677:.\Generated_Source\PSoC5/USBUART_1_std.c ****                                     }
 678:.\Generated_Source\PSoC5/USBUART_1_std.c ****                                 #endif  /*  USBUART_1_ENABLE_MIDI_STREAMING*/
ARM GAS  C:\Users\Robert\AppData\Local\Temp\ccdadQBo.s 			page 41


 679:.\Generated_Source\PSoC5/USBUART_1_std.c ****                             }
 680:.\Generated_Source\PSoC5/USBUART_1_std.c ****                             USBUART_1_EP[i].addr = pEP->addr;
 1542              		.loc 1 680 0
 1543 0344 797F     		ldrb	r1, [r7, #29]	@ zero_extendqisi2
 1544 0346 7B69     		ldr	r3, [r7, #20]
 1545 0348 9878     		ldrb	r0, [r3, #2]	@ zero_extendqisi2
 1546 034a 40F20002 		movw	r2, #:lower16:USBUART_1_EP
 1547 034e C0F20002 		movt	r2, #:upper16:USBUART_1_EP
 1548 0352 0B46     		mov	r3, r1
 1549 0354 4FEA4303 		lsl	r3, r3, #1
 1550 0358 5B18     		adds	r3, r3, r1
 1551 035a 4FEA8303 		lsl	r3, r3, #2
 1552 035e D318     		adds	r3, r2, r3
 1553 0360 0246     		mov	r2, r0
 1554 0362 1A71     		strb	r2, [r3, #4]
 681:.\Generated_Source\PSoC5/USBUART_1_std.c ****                             USBUART_1_EP[i].attrib = pEP->attributes;
 1555              		.loc 1 681 0
 1556 0364 797F     		ldrb	r1, [r7, #29]	@ zero_extendqisi2
 1557 0366 7B69     		ldr	r3, [r7, #20]
 1558 0368 D878     		ldrb	r0, [r3, #3]	@ zero_extendqisi2
 1559 036a 40F20002 		movw	r2, #:lower16:USBUART_1_EP
 1560 036e C0F20002 		movt	r2, #:upper16:USBUART_1_EP
 1561 0372 0B46     		mov	r3, r1
 1562 0374 4FEA4303 		lsl	r3, r3, #1
 1563 0378 5B18     		adds	r3, r3, r1
 1564 037a 4FEA8303 		lsl	r3, r3, #2
 1565 037e D318     		adds	r3, r2, r3
 1566 0380 0246     		mov	r2, r0
 1567 0382 1A70     		strb	r2, [r3, #0]
 1568              	.L89:
 682:.\Generated_Source\PSoC5/USBUART_1_std.c **** 
 683:.\Generated_Source\PSoC5/USBUART_1_std.c ****                             #if(USBUART_1_EP_MM == USBUART_1__EP_DMAAUTO)
 684:.\Generated_Source\PSoC5/USBUART_1_std.c ****                                 break;      /* use first EP setting in Auto memory managment */
 685:.\Generated_Source\PSoC5/USBUART_1_std.c ****                             #endif /*  USBUART_1_EP_MM == USBUART_1__EP_DMAAUTO */
 686:.\Generated_Source\PSoC5/USBUART_1_std.c ****                         }
 687:.\Generated_Source\PSoC5/USBUART_1_std.c ****                     }
 688:.\Generated_Source\PSoC5/USBUART_1_std.c ****                     pEP = &pEP[1u];
 1569              		.loc 1 688 0
 1570 0384 7B69     		ldr	r3, [r7, #20]
 1571 0386 03F10803 		add	r3, r3, #8
 1572 038a 7B61     		str	r3, [r7, #20]
 619:.\Generated_Source\PSoC5/USBUART_1_std.c ****                 for (cur_ep = 0u; cur_ep < ep; cur_ep++)
 1573              		.loc 1 619 0
 1574 038c BB7F     		ldrb	r3, [r7, #30]
 1575 038e 03F10103 		add	r3, r3, #1
 1576 0392 BB77     		strb	r3, [r7, #30]
 1577              	.L88:
 619:.\Generated_Source\PSoC5/USBUART_1_std.c ****                 for (cur_ep = 0u; cur_ep < ep; cur_ep++)
 1578              		.loc 1 619 0 is_stmt 0 discriminator 1
 1579 0394 BA7F     		ldrb	r2, [r7, #30]	@ zero_extendqisi2
 1580 0396 FB7F     		ldrb	r3, [r7, #31]	@ zero_extendqisi2
 1581 0398 9A42     		cmp	r2, r3
 1582 039a FFF41FAF 		bcc	.L99
 613:.\Generated_Source\PSoC5/USBUART_1_std.c ****             for (i = USBUART_1_EP1; i < USBUART_1_MAX_EP; i++)
 1583              		.loc 1 613 0 is_stmt 1
 1584 039e 7B7F     		ldrb	r3, [r7, #29]
 1585 03a0 03F10103 		add	r3, r3, #1
ARM GAS  C:\Users\Robert\AppData\Local\Temp\ccdadQBo.s 			page 42


 1586 03a4 7B77     		strb	r3, [r7, #29]
 1587              	.L87:
 613:.\Generated_Source\PSoC5/USBUART_1_std.c ****             for (i = USBUART_1_EP1; i < USBUART_1_MAX_EP; i++)
 1588              		.loc 1 613 0 is_stmt 0 discriminator 1
 1589 03a6 7B7F     		ldrb	r3, [r7, #29]	@ zero_extendqisi2
 1590 03a8 082B     		cmp	r3, #8
 1591 03aa 7FF610AF 		bls	.L100
 689:.\Generated_Source\PSoC5/USBUART_1_std.c ****                 }
 690:.\Generated_Source\PSoC5/USBUART_1_std.c ****             }
 691:.\Generated_Source\PSoC5/USBUART_1_std.c ****         #endif /*  (USBUART_1_EP_MA == USBUART_1__MA_DYNAMIC) */
 692:.\Generated_Source\PSoC5/USBUART_1_std.c **** 
 693:.\Generated_Source\PSoC5/USBUART_1_std.c ****         /* Init class array for each interface and interface number for each EP.
 694:.\Generated_Source\PSoC5/USBUART_1_std.c ****         *  It is used for handling Class specific requests directed to either an
 695:.\Generated_Source\PSoC5/USBUART_1_std.c ****         *  interface or the endpoint.
 696:.\Generated_Source\PSoC5/USBUART_1_std.c ****         */
 697:.\Generated_Source\PSoC5/USBUART_1_std.c ****         /* p_list points the endpoint setting table. */
 698:.\Generated_Source\PSoC5/USBUART_1_std.c ****         pEP = (const T_USBUART_1_EP_SETTINGS_BLOCK CYCODE *) pTmp->p_list;
 1592              		.loc 1 698 0 is_stmt 1
 1593 03ae 3B69     		ldr	r3, [r7, #16]
 1594 03b0 5B68     		ldr	r3, [r3, #4]
 1595 03b2 7B61     		str	r3, [r7, #20]
 699:.\Generated_Source\PSoC5/USBUART_1_std.c ****         for (i = 0u; i < ep; i++)
 1596              		.loc 1 699 0
 1597 03b4 4FF00003 		mov	r3, #0
 1598 03b8 7B77     		strb	r3, [r7, #29]
 1599 03ba 1CE0     		b	.L101
 1600              	.L102:
 700:.\Generated_Source\PSoC5/USBUART_1_std.c ****         {
 701:.\Generated_Source\PSoC5/USBUART_1_std.c ****             /* Configure interface number for each EP*/
 702:.\Generated_Source\PSoC5/USBUART_1_std.c ****             USBUART_1_EP[pEP->addr & USBUART_1_DIR_UNUSED].interface = pEP->interface;
 1601              		.loc 1 702 0 discriminator 2
 1602 03bc 7B69     		ldr	r3, [r7, #20]
 1603 03be 9B78     		ldrb	r3, [r3, #2]	@ zero_extendqisi2
 1604 03c0 03F07F01 		and	r1, r3, #127
 1605 03c4 7B69     		ldr	r3, [r7, #20]
 1606 03c6 1878     		ldrb	r0, [r3, #0]	@ zero_extendqisi2
 1607 03c8 40F20002 		movw	r2, #:lower16:USBUART_1_EP
 1608 03cc C0F20002 		movt	r2, #:upper16:USBUART_1_EP
 1609 03d0 0B46     		mov	r3, r1
 1610 03d2 4FEA4303 		lsl	r3, r3, #1
 1611 03d6 5B18     		adds	r3, r3, r1
 1612 03d8 4FEA8303 		lsl	r3, r3, #2
 1613 03dc D318     		adds	r3, r2, r3
 1614 03de 03F10803 		add	r3, r3, #8
 1615 03e2 0246     		mov	r2, r0
 1616 03e4 9A70     		strb	r2, [r3, #2]
 703:.\Generated_Source\PSoC5/USBUART_1_std.c ****             pEP = &pEP[1u];
 1617              		.loc 1 703 0 discriminator 2
 1618 03e6 7B69     		ldr	r3, [r7, #20]
 1619 03e8 03F10803 		add	r3, r3, #8
 1620 03ec 7B61     		str	r3, [r7, #20]
 699:.\Generated_Source\PSoC5/USBUART_1_std.c ****         for (i = 0u; i < ep; i++)
 1621              		.loc 1 699 0 discriminator 2
 1622 03ee 7B7F     		ldrb	r3, [r7, #29]
 1623 03f0 03F10103 		add	r3, r3, #1
 1624 03f4 7B77     		strb	r3, [r7, #29]
 1625              	.L101:
ARM GAS  C:\Users\Robert\AppData\Local\Temp\ccdadQBo.s 			page 43


 699:.\Generated_Source\PSoC5/USBUART_1_std.c ****         for (i = 0u; i < ep; i++)
 1626              		.loc 1 699 0 is_stmt 0 discriminator 1
 1627 03f6 7A7F     		ldrb	r2, [r7, #29]	@ zero_extendqisi2
 1628 03f8 FB7F     		ldrb	r3, [r7, #31]	@ zero_extendqisi2
 1629 03fa 9A42     		cmp	r2, r3
 1630 03fc DED3     		bcc	.L102
 704:.\Generated_Source\PSoC5/USBUART_1_std.c ****         }
 705:.\Generated_Source\PSoC5/USBUART_1_std.c ****         /* Init pointer on interface class table*/
 706:.\Generated_Source\PSoC5/USBUART_1_std.c ****         USBUART_1_interfaceClass = USBUART_1_GetInterfaceClassTablePtr();
 1631              		.loc 1 706 0 is_stmt 1
 1632 03fe FFF7FEFF 		bl	USBUART_1_GetInterfaceClassTablePtr
 1633 0402 0246     		mov	r2, r0
 1634 0404 40F20003 		movw	r3, #:lower16:USBUART_1_interfaceClass
 1635 0408 C0F20003 		movt	r3, #:upper16:USBUART_1_interfaceClass
 1636 040c 1A60     		str	r2, [r3, #0]
 707:.\Generated_Source\PSoC5/USBUART_1_std.c ****         /* Set the endpoint buffer addresses */
 708:.\Generated_Source\PSoC5/USBUART_1_std.c **** 
 709:.\Generated_Source\PSoC5/USBUART_1_std.c ****         #if(USBUART_1_EP_MM != USBUART_1__EP_DMAAUTO)
 710:.\Generated_Source\PSoC5/USBUART_1_std.c ****             for (ep = USBUART_1_EP1; ep < USBUART_1_MAX_EP; ep++)
 1637              		.loc 1 710 0
 1638 040e 4FF00103 		mov	r3, #1
 1639 0412 FB77     		strb	r3, [r7, #31]
 1640 0414 24E0     		b	.L103
 1641              	.L104:
 711:.\Generated_Source\PSoC5/USBUART_1_std.c ****             {
 712:.\Generated_Source\PSoC5/USBUART_1_std.c ****                 USBUART_1_EP[ep].buffOffset = buffCount;
 1642              		.loc 1 712 0 discriminator 2
 1643 0416 F97F     		ldrb	r1, [r7, #31]	@ zero_extendqisi2
 1644 0418 40F20002 		movw	r2, #:lower16:USBUART_1_EP
 1645 041c C0F20002 		movt	r2, #:upper16:USBUART_1_EP
 1646 0420 0B46     		mov	r3, r1
 1647 0422 4FEA4303 		lsl	r3, r3, #1
 1648 0426 5B18     		adds	r3, r3, r1
 1649 0428 4FEA8303 		lsl	r3, r3, #2
 1650 042c D318     		adds	r3, r2, r3
 1651 042e 7A8B     		ldrh	r2, [r7, #26]	@ movhi
 1652 0430 DA80     		strh	r2, [r3, #6]	@ movhi
 713:.\Generated_Source\PSoC5/USBUART_1_std.c ****                  buffCount += USBUART_1_EP[ep].bufferSize;
 1653              		.loc 1 713 0 discriminator 2
 1654 0432 F97F     		ldrb	r1, [r7, #31]	@ zero_extendqisi2
 1655 0434 40F20002 		movw	r2, #:lower16:USBUART_1_EP
 1656 0438 C0F20002 		movt	r2, #:upper16:USBUART_1_EP
 1657 043c 0B46     		mov	r3, r1
 1658 043e 4FEA4303 		lsl	r3, r3, #1
 1659 0442 5B18     		adds	r3, r3, r1
 1660 0444 4FEA8303 		lsl	r3, r3, #2
 1661 0448 D318     		adds	r3, r2, r3
 1662 044a 03F10803 		add	r3, r3, #8
 1663 044e 1B88     		ldrh	r3, [r3, #0]	@ movhi
 1664 0450 9AB2     		uxth	r2, r3
 1665 0452 7B8B     		ldrh	r3, [r7, #26]	@ movhi
 1666 0454 D318     		adds	r3, r2, r3
 1667 0456 7B83     		strh	r3, [r7, #26]	@ movhi
 710:.\Generated_Source\PSoC5/USBUART_1_std.c ****             for (ep = USBUART_1_EP1; ep < USBUART_1_MAX_EP; ep++)
 1668              		.loc 1 710 0 discriminator 2
 1669 0458 FB7F     		ldrb	r3, [r7, #31]
 1670 045a 03F10103 		add	r3, r3, #1
ARM GAS  C:\Users\Robert\AppData\Local\Temp\ccdadQBo.s 			page 44


 1671 045e FB77     		strb	r3, [r7, #31]
 1672              	.L103:
 710:.\Generated_Source\PSoC5/USBUART_1_std.c ****             for (ep = USBUART_1_EP1; ep < USBUART_1_MAX_EP; ep++)
 1673              		.loc 1 710 0 is_stmt 0 discriminator 1
 1674 0460 FB7F     		ldrb	r3, [r7, #31]	@ zero_extendqisi2
 1675 0462 082B     		cmp	r3, #8
 1676 0464 D7D9     		bls	.L104
 714:.\Generated_Source\PSoC5/USBUART_1_std.c ****             }
 715:.\Generated_Source\PSoC5/USBUART_1_std.c ****         #endif /*  USBUART_1_EP_MM != USBUART_1__EP_DMAAUTO */
 716:.\Generated_Source\PSoC5/USBUART_1_std.c **** 
 717:.\Generated_Source\PSoC5/USBUART_1_std.c ****         /* Configure hardware registers */
 718:.\Generated_Source\PSoC5/USBUART_1_std.c ****         USBUART_1_ConfigReg();
 1677              		.loc 1 718 0 is_stmt 1
 1678 0466 FFF7FEFF 		bl	USBUART_1_ConfigReg
 1679              	.L78:
 719:.\Generated_Source\PSoC5/USBUART_1_std.c ****     } /* USBUART_1_configuration > 0 */
 720:.\Generated_Source\PSoC5/USBUART_1_std.c **** }
 1680              		.loc 1 720 0
 1681 046a 07F12007 		add	r7, r7, #32
 1682 046e BD46     		mov	sp, r7
 1683 0470 80BD     		pop	{r7, pc}
 1684              		.cfi_endproc
 1685              	.LFE3:
 1686              		.size	USBUART_1_Config, .-USBUART_1_Config
 1687 0472 00BF     		.section	.text.USBUART_1_ConfigAltChanged,"ax",%progbits
 1688              		.align	2
 1689              		.global	USBUART_1_ConfigAltChanged
 1690              		.thumb
 1691              		.thumb_func
 1692              		.type	USBUART_1_ConfigAltChanged, %function
 1693              	USBUART_1_ConfigAltChanged:
 1694              	.LFB4:
 721:.\Generated_Source\PSoC5/USBUART_1_std.c **** 
 722:.\Generated_Source\PSoC5/USBUART_1_std.c **** 
 723:.\Generated_Source\PSoC5/USBUART_1_std.c **** /*******************************************************************************
 724:.\Generated_Source\PSoC5/USBUART_1_std.c **** * Function Name: USBUART_1_ConfigAltChanged
 725:.\Generated_Source\PSoC5/USBUART_1_std.c **** ********************************************************************************
 726:.\Generated_Source\PSoC5/USBUART_1_std.c **** *
 727:.\Generated_Source\PSoC5/USBUART_1_std.c **** * Summary:
 728:.\Generated_Source\PSoC5/USBUART_1_std.c **** *  This routine update configuration for the required endpoints only.
 729:.\Generated_Source\PSoC5/USBUART_1_std.c **** *  It is called after SET_INTERFACE request when Static memory allocation used.
 730:.\Generated_Source\PSoC5/USBUART_1_std.c **** *
 731:.\Generated_Source\PSoC5/USBUART_1_std.c **** * Parameters:
 732:.\Generated_Source\PSoC5/USBUART_1_std.c **** *  None.
 733:.\Generated_Source\PSoC5/USBUART_1_std.c **** *
 734:.\Generated_Source\PSoC5/USBUART_1_std.c **** * Return:
 735:.\Generated_Source\PSoC5/USBUART_1_std.c **** *  None.
 736:.\Generated_Source\PSoC5/USBUART_1_std.c **** *
 737:.\Generated_Source\PSoC5/USBUART_1_std.c **** * Reentrant:
 738:.\Generated_Source\PSoC5/USBUART_1_std.c **** *  No.
 739:.\Generated_Source\PSoC5/USBUART_1_std.c **** *
 740:.\Generated_Source\PSoC5/USBUART_1_std.c **** *******************************************************************************/
 741:.\Generated_Source\PSoC5/USBUART_1_std.c **** void USBUART_1_ConfigAltChanged(void) 
 742:.\Generated_Source\PSoC5/USBUART_1_std.c **** {
 1695              		.loc 1 742 0
 1696              		.cfi_startproc
 1697              		@ args = 0, pretend = 0, frame = 16
ARM GAS  C:\Users\Robert\AppData\Local\Temp\ccdadQBo.s 			page 45


 1698              		@ frame_needed = 1, uses_anonymous_args = 0
 1699 0000 80B5     		push	{r7, lr}
 1700              	.LCFI12:
 1701              		.cfi_def_cfa_offset 8
 1702              		.cfi_offset 7, -8
 1703              		.cfi_offset 14, -4
 1704 0002 84B0     		sub	sp, sp, #16
 1705              	.LCFI13:
 1706              		.cfi_def_cfa_offset 24
 1707 0004 00AF     		add	r7, sp, #0
 1708              	.LCFI14:
 1709              		.cfi_def_cfa_register 7
 743:.\Generated_Source\PSoC5/USBUART_1_std.c ****     uint8 ep;
 744:.\Generated_Source\PSoC5/USBUART_1_std.c ****     uint8 cur_ep;
 745:.\Generated_Source\PSoC5/USBUART_1_std.c ****     uint8 i;
 746:.\Generated_Source\PSoC5/USBUART_1_std.c ****     uint8 epType;
 747:.\Generated_Source\PSoC5/USBUART_1_std.c ****     uint8 ri;
 748:.\Generated_Source\PSoC5/USBUART_1_std.c **** 
 749:.\Generated_Source\PSoC5/USBUART_1_std.c ****     const T_USBUART_1_LUT CYCODE *pTmp;
 750:.\Generated_Source\PSoC5/USBUART_1_std.c ****     const T_USBUART_1_EP_SETTINGS_BLOCK CYCODE *pEP;
 751:.\Generated_Source\PSoC5/USBUART_1_std.c **** 
 752:.\Generated_Source\PSoC5/USBUART_1_std.c **** 
 753:.\Generated_Source\PSoC5/USBUART_1_std.c ****     /* Init Endpoints and Device Status if configured */
 754:.\Generated_Source\PSoC5/USBUART_1_std.c ****     if(USBUART_1_configuration > 0u)
 1710              		.loc 1 754 0
 1711 0006 40F20003 		movw	r3, #:lower16:USBUART_1_configuration
 1712 000a C0F20003 		movt	r3, #:upper16:USBUART_1_configuration
 1713 000e 1B78     		ldrb	r3, [r3, #0]
 1714 0010 DBB2     		uxtb	r3, r3
 1715 0012 002B     		cmp	r3, #0
 1716 0014 00F09981 		beq	.L105
 755:.\Generated_Source\PSoC5/USBUART_1_std.c ****     {
 756:.\Generated_Source\PSoC5/USBUART_1_std.c ****         pTmp = USBUART_1_GetConfigTablePtr(USBUART_1_configuration - 1u);
 1717              		.loc 1 756 0
 1718 0018 40F20003 		movw	r3, #:lower16:USBUART_1_configuration
 1719 001c C0F20003 		movt	r3, #:upper16:USBUART_1_configuration
 1720 0020 1B78     		ldrb	r3, [r3, #0]
 1721 0022 DBB2     		uxtb	r3, r3
 1722 0024 03F1FF33 		add	r3, r3, #-1
 1723 0028 DBB2     		uxtb	r3, r3
 1724 002a 1846     		mov	r0, r3
 1725 002c FFF7FEFF 		bl	USBUART_1_GetConfigTablePtr
 1726 0030 7860     		str	r0, [r7, #4]
 757:.\Generated_Source\PSoC5/USBUART_1_std.c ****         pTmp = &pTmp[1u];
 1727              		.loc 1 757 0
 1728 0032 7B68     		ldr	r3, [r7, #4]
 1729 0034 03F10803 		add	r3, r3, #8
 1730 0038 7B60     		str	r3, [r7, #4]
 758:.\Generated_Source\PSoC5/USBUART_1_std.c ****         ep = pTmp->c;  /* For this table, c is the number of endpoints configurations  */
 1731              		.loc 1 758 0
 1732 003a 7B68     		ldr	r3, [r7, #4]
 1733 003c 1B78     		ldrb	r3, [r3, #0]
 1734 003e FB70     		strb	r3, [r7, #3]
 759:.\Generated_Source\PSoC5/USBUART_1_std.c **** 
 760:.\Generated_Source\PSoC5/USBUART_1_std.c ****         /* Do not touch EP which doesn't need reconfiguration */
 761:.\Generated_Source\PSoC5/USBUART_1_std.c ****         /* When Alt setting changed, the only required endpoints need to be reconfigured */
 762:.\Generated_Source\PSoC5/USBUART_1_std.c ****         /* p_list points the endpoint setting table. */
ARM GAS  C:\Users\Robert\AppData\Local\Temp\ccdadQBo.s 			page 46


 763:.\Generated_Source\PSoC5/USBUART_1_std.c ****         pEP = (const T_USBUART_1_EP_SETTINGS_BLOCK CYCODE *) pTmp->p_list;
 1735              		.loc 1 763 0
 1736 0040 7B68     		ldr	r3, [r7, #4]
 1737 0042 5B68     		ldr	r3, [r3, #4]
 1738 0044 BB60     		str	r3, [r7, #8]
 764:.\Generated_Source\PSoC5/USBUART_1_std.c ****         for (i = 0u; i < ep; i++)
 1739              		.loc 1 764 0
 1740 0046 4FF00003 		mov	r3, #0
 1741 004a FB73     		strb	r3, [r7, #15]
 1742 004c 78E1     		b	.L107
 1743              	.L115:
 765:.\Generated_Source\PSoC5/USBUART_1_std.c ****         {
 766:.\Generated_Source\PSoC5/USBUART_1_std.c ****             /*If Alt setting changed and new is same with EP Alt */
 767:.\Generated_Source\PSoC5/USBUART_1_std.c ****             if((USBUART_1_interfaceSetting[pEP->interface] !=
 1744              		.loc 1 767 0
 1745 004e BB68     		ldr	r3, [r7, #8]
 1746 0050 1B78     		ldrb	r3, [r3, #0]	@ zero_extendqisi2
 1747 0052 1A46     		mov	r2, r3
 1748 0054 40F20003 		movw	r3, #:lower16:USBUART_1_interfaceSetting
 1749 0058 C0F20003 		movt	r3, #:upper16:USBUART_1_interfaceSetting
 1750 005c 9B5C     		ldrb	r3, [r3, r2]
 1751 005e DAB2     		uxtb	r2, r3
 768:.\Generated_Source\PSoC5/USBUART_1_std.c ****                 USBUART_1_interfaceSetting_last[pEP->interface] ) &&
 1752              		.loc 1 768 0
 1753 0060 BB68     		ldr	r3, [r7, #8]
 1754 0062 1B78     		ldrb	r3, [r3, #0]	@ zero_extendqisi2
 1755 0064 1946     		mov	r1, r3
 1756 0066 40F20003 		movw	r3, #:lower16:USBUART_1_interfaceSetting_last
 1757 006a C0F20003 		movt	r3, #:upper16:USBUART_1_interfaceSetting_last
 1758 006e 5B5C     		ldrb	r3, [r3, r1]
 1759 0070 DBB2     		uxtb	r3, r3
 767:.\Generated_Source\PSoC5/USBUART_1_std.c ****             if((USBUART_1_interfaceSetting[pEP->interface] !=
 1760              		.loc 1 767 0
 1761 0072 9A42     		cmp	r2, r3
 1762 0074 00F05C81 		beq	.L108
 769:.\Generated_Source\PSoC5/USBUART_1_std.c ****                (USBUART_1_interfaceSetting[pEP->interface] == pEP->altSetting) &&
 1763              		.loc 1 769 0
 1764 0078 BB68     		ldr	r3, [r7, #8]
 1765 007a 1B78     		ldrb	r3, [r3, #0]	@ zero_extendqisi2
 1766 007c 1A46     		mov	r2, r3
 1767 007e 40F20003 		movw	r3, #:lower16:USBUART_1_interfaceSetting
 1768 0082 C0F20003 		movt	r3, #:upper16:USBUART_1_interfaceSetting
 1769 0086 9B5C     		ldrb	r3, [r3, r2]
 1770 0088 DAB2     		uxtb	r2, r3
 1771 008a BB68     		ldr	r3, [r7, #8]
 1772 008c 5B78     		ldrb	r3, [r3, #1]	@ zero_extendqisi2
 768:.\Generated_Source\PSoC5/USBUART_1_std.c ****                 USBUART_1_interfaceSetting_last[pEP->interface] ) &&
 1773              		.loc 1 768 0
 1774 008e 9A42     		cmp	r2, r3
 1775 0090 40F04E81 		bne	.L108
 770:.\Generated_Source\PSoC5/USBUART_1_std.c ****                (pEP->interface == CY_GET_REG8(USBUART_1_wIndexLo)))
 1776              		.loc 1 770 0
 1777 0094 BB68     		ldr	r3, [r7, #8]
 1778 0096 1A78     		ldrb	r2, [r3, #0]	@ zero_extendqisi2
 1779 0098 46F20403 		movw	r3, #24580
 1780 009c C4F20003 		movt	r3, 16384
 1781 00a0 1B78     		ldrb	r3, [r3, #0]
ARM GAS  C:\Users\Robert\AppData\Local\Temp\ccdadQBo.s 			page 47


 1782 00a2 DBB2     		uxtb	r3, r3
 769:.\Generated_Source\PSoC5/USBUART_1_std.c ****                (USBUART_1_interfaceSetting[pEP->interface] == pEP->altSetting) &&
 1783              		.loc 1 769 0
 1784 00a4 9A42     		cmp	r2, r3
 1785 00a6 40F04381 		bne	.L108
 771:.\Generated_Source\PSoC5/USBUART_1_std.c ****             {
 772:.\Generated_Source\PSoC5/USBUART_1_std.c ****                 cur_ep = pEP->addr & USBUART_1_DIR_UNUSED;
 1786              		.loc 1 772 0
 1787 00aa BB68     		ldr	r3, [r7, #8]
 1788 00ac 9B78     		ldrb	r3, [r3, #2]	@ zero_extendqisi2
 1789 00ae 03F07F03 		and	r3, r3, #127
 1790 00b2 BB70     		strb	r3, [r7, #2]
 773:.\Generated_Source\PSoC5/USBUART_1_std.c ****                 ri = ((cur_ep - USBUART_1_EP1) << USBUART_1_EPX_CNTX_ADDR_SHIFT);
 1791              		.loc 1 773 0
 1792 00b4 BB78     		ldrb	r3, [r7, #2]
 1793 00b6 03F1FF33 		add	r3, r3, #-1
 1794 00ba DBB2     		uxtb	r3, r3
 1795 00bc 4FEA0313 		lsl	r3, r3, #4
 1796 00c0 7B70     		strb	r3, [r7, #1]
 774:.\Generated_Source\PSoC5/USBUART_1_std.c ****                 epType = pEP->attributes & USBUART_1_EP_TYPE_MASK;
 1797              		.loc 1 774 0
 1798 00c2 BB68     		ldr	r3, [r7, #8]
 1799 00c4 DB78     		ldrb	r3, [r3, #3]	@ zero_extendqisi2
 1800 00c6 03F00303 		and	r3, r3, #3
 1801 00ca 3B70     		strb	r3, [r7, #0]
 775:.\Generated_Source\PSoC5/USBUART_1_std.c ****                 if ((pEP->addr & USBUART_1_DIR_IN) != 0u)
 1802              		.loc 1 775 0
 1803 00cc BB68     		ldr	r3, [r7, #8]
 1804 00ce 9B78     		ldrb	r3, [r3, #2]	@ zero_extendqisi2
 1805 00d0 DBB2     		uxtb	r3, r3
 1806 00d2 5BB2     		sxtb	r3, r3
 1807 00d4 002B     		cmp	r3, #0
 1808 00d6 25DA     		bge	.L109
 776:.\Generated_Source\PSoC5/USBUART_1_std.c ****                 {
 777:.\Generated_Source\PSoC5/USBUART_1_std.c ****                     /* IN Endpoint */
 778:.\Generated_Source\PSoC5/USBUART_1_std.c ****                     USBUART_1_EP[cur_ep].apiEpState = USBUART_1_EVENT_PENDING;
 1809              		.loc 1 778 0
 1810 00d8 B978     		ldrb	r1, [r7, #2]	@ zero_extendqisi2
 1811 00da 40F20002 		movw	r2, #:lower16:USBUART_1_EP
 1812 00de C0F20002 		movt	r2, #:upper16:USBUART_1_EP
 1813 00e2 0B46     		mov	r3, r1
 1814 00e4 4FEA4303 		lsl	r3, r3, #1
 1815 00e8 5B18     		adds	r3, r3, r1
 1816 00ea 4FEA8303 		lsl	r3, r3, #2
 1817 00ee D318     		adds	r3, r2, r3
 1818 00f0 4FF00102 		mov	r2, #1
 1819 00f4 5A70     		strb	r2, [r3, #1]
 779:.\Generated_Source\PSoC5/USBUART_1_std.c ****                     USBUART_1_EP[cur_ep].epMode = (epType == USBUART_1_EP_TYPE_ISOC) ?
 1820              		.loc 1 779 0
 1821 00f6 B878     		ldrb	r0, [r7, #2]	@ zero_extendqisi2
 1822 00f8 3B78     		ldrb	r3, [r7, #0]	@ zero_extendqisi2
 1823 00fa 012B     		cmp	r3, #1
 1824 00fc 02D1     		bne	.L110
 1825              		.loc 1 779 0 is_stmt 0 discriminator 1
 1826 00fe 4FF00701 		mov	r1, #7
 1827 0102 01E0     		b	.L111
 1828              	.L110:
ARM GAS  C:\Users\Robert\AppData\Local\Temp\ccdadQBo.s 			page 48


 1829              		.loc 1 779 0 discriminator 2
 1830 0104 4FF00D01 		mov	r1, #13
 1831              	.L111:
 1832              		.loc 1 779 0 discriminator 3
 1833 0108 40F20002 		movw	r2, #:lower16:USBUART_1_EP
 1834 010c C0F20002 		movt	r2, #:upper16:USBUART_1_EP
 1835 0110 0346     		mov	r3, r0
 1836 0112 4FEA4303 		lsl	r3, r3, #1
 1837 0116 1B18     		adds	r3, r3, r0
 1838 0118 4FEA8303 		lsl	r3, r3, #2
 1839 011c D318     		adds	r3, r2, r3
 1840 011e 0A46     		mov	r2, r1
 1841 0120 5A71     		strb	r2, [r3, #5]
 1842 0122 24E0     		b	.L112
 1843              	.L109:
 780:.\Generated_Source\PSoC5/USBUART_1_std.c ****                                                 USBUART_1_MODE_ISO_IN : USBUART_1_MODE_ACK_IN;
 781:.\Generated_Source\PSoC5/USBUART_1_std.c ****                 }
 782:.\Generated_Source\PSoC5/USBUART_1_std.c ****                 else
 783:.\Generated_Source\PSoC5/USBUART_1_std.c ****                 {
 784:.\Generated_Source\PSoC5/USBUART_1_std.c ****                     /* OUT Endpoint */
 785:.\Generated_Source\PSoC5/USBUART_1_std.c ****                     USBUART_1_EP[cur_ep].apiEpState = USBUART_1_NO_EVENT_PENDING;
 1844              		.loc 1 785 0 is_stmt 1
 1845 0124 B978     		ldrb	r1, [r7, #2]	@ zero_extendqisi2
 1846 0126 40F20002 		movw	r2, #:lower16:USBUART_1_EP
 1847 012a C0F20002 		movt	r2, #:upper16:USBUART_1_EP
 1848 012e 0B46     		mov	r3, r1
 1849 0130 4FEA4303 		lsl	r3, r3, #1
 1850 0134 5B18     		adds	r3, r3, r1
 1851 0136 4FEA8303 		lsl	r3, r3, #2
 1852 013a D318     		adds	r3, r2, r3
 1853 013c 4FF00002 		mov	r2, #0
 1854 0140 5A70     		strb	r2, [r3, #1]
 786:.\Generated_Source\PSoC5/USBUART_1_std.c ****                     USBUART_1_EP[cur_ep].epMode = (epType == USBUART_1_EP_TYPE_ISOC) ?
 1855              		.loc 1 786 0
 1856 0142 B878     		ldrb	r0, [r7, #2]	@ zero_extendqisi2
 1857 0144 3B78     		ldrb	r3, [r7, #0]	@ zero_extendqisi2
 1858 0146 012B     		cmp	r3, #1
 1859 0148 02D1     		bne	.L113
 1860              		.loc 1 786 0 is_stmt 0 discriminator 1
 1861 014a 4FF00501 		mov	r1, #5
 1862 014e 01E0     		b	.L114
 1863              	.L113:
 1864              		.loc 1 786 0 discriminator 2
 1865 0150 4FF00901 		mov	r1, #9
 1866              	.L114:
 1867              		.loc 1 786 0 discriminator 3
 1868 0154 40F20002 		movw	r2, #:lower16:USBUART_1_EP
 1869 0158 C0F20002 		movt	r2, #:upper16:USBUART_1_EP
 1870 015c 0346     		mov	r3, r0
 1871 015e 4FEA4303 		lsl	r3, r3, #1
 1872 0162 1B18     		adds	r3, r3, r0
 1873 0164 4FEA8303 		lsl	r3, r3, #2
 1874 0168 D318     		adds	r3, r2, r3
 1875 016a 0A46     		mov	r2, r1
 1876 016c 5A71     		strb	r2, [r3, #5]
 1877              	.L112:
 787:.\Generated_Source\PSoC5/USBUART_1_std.c ****                                                 USBUART_1_MODE_ISO_OUT : USBUART_1_MODE_ACK_OUT;
ARM GAS  C:\Users\Robert\AppData\Local\Temp\ccdadQBo.s 			page 49


 788:.\Generated_Source\PSoC5/USBUART_1_std.c ****                 }
 789:.\Generated_Source\PSoC5/USBUART_1_std.c ****                  /* Change the SIE mode for the selected EP to NAK ALL */
 790:.\Generated_Source\PSoC5/USBUART_1_std.c ****                  CY_SET_REG8((reg8 *)(USBUART_1_SIE_EP1_CR0_IND + ri), USBUART_1_MODE_NAK_IN_OUT);
 1878              		.loc 1 790 0 is_stmt 1
 1879 016e 7A78     		ldrb	r2, [r7, #1]	@ zero_extendqisi2
 1880 0170 46F20E03 		movw	r3, #24590
 1881 0174 C4F20003 		movt	r3, 16384
 1882 0178 D318     		adds	r3, r2, r3
 1883 017a 4FF00102 		mov	r2, #1
 1884 017e 1A70     		strb	r2, [r3, #0]
 791:.\Generated_Source\PSoC5/USBUART_1_std.c ****                 USBUART_1_EP[cur_ep].bufferSize = pEP->bufferSize;
 1885              		.loc 1 791 0
 1886 0180 B978     		ldrb	r1, [r7, #2]	@ zero_extendqisi2
 1887 0182 BB68     		ldr	r3, [r7, #8]
 1888 0184 9888     		ldrh	r0, [r3, #4]
 1889 0186 40F20002 		movw	r2, #:lower16:USBUART_1_EP
 1890 018a C0F20002 		movt	r2, #:upper16:USBUART_1_EP
 1891 018e 0B46     		mov	r3, r1
 1892 0190 4FEA4303 		lsl	r3, r3, #1
 1893 0194 5B18     		adds	r3, r3, r1
 1894 0196 4FEA8303 		lsl	r3, r3, #2
 1895 019a D318     		adds	r3, r2, r3
 1896 019c 03F10803 		add	r3, r3, #8
 1897 01a0 0246     		mov	r2, r0	@ movhi
 1898 01a2 1A80     		strh	r2, [r3, #0]	@ movhi
 792:.\Generated_Source\PSoC5/USBUART_1_std.c ****                 USBUART_1_EP[cur_ep].addr = pEP->addr;
 1899              		.loc 1 792 0
 1900 01a4 B978     		ldrb	r1, [r7, #2]	@ zero_extendqisi2
 1901 01a6 BB68     		ldr	r3, [r7, #8]
 1902 01a8 9878     		ldrb	r0, [r3, #2]	@ zero_extendqisi2
 1903 01aa 40F20002 		movw	r2, #:lower16:USBUART_1_EP
 1904 01ae C0F20002 		movt	r2, #:upper16:USBUART_1_EP
 1905 01b2 0B46     		mov	r3, r1
 1906 01b4 4FEA4303 		lsl	r3, r3, #1
 1907 01b8 5B18     		adds	r3, r3, r1
 1908 01ba 4FEA8303 		lsl	r3, r3, #2
 1909 01be D318     		adds	r3, r2, r3
 1910 01c0 0246     		mov	r2, r0
 1911 01c2 1A71     		strb	r2, [r3, #4]
 793:.\Generated_Source\PSoC5/USBUART_1_std.c ****                 USBUART_1_EP[cur_ep].attrib = pEP->attributes;
 1912              		.loc 1 793 0
 1913 01c4 B978     		ldrb	r1, [r7, #2]	@ zero_extendqisi2
 1914 01c6 BB68     		ldr	r3, [r7, #8]
 1915 01c8 D878     		ldrb	r0, [r3, #3]	@ zero_extendqisi2
 1916 01ca 40F20002 		movw	r2, #:lower16:USBUART_1_EP
 1917 01ce C0F20002 		movt	r2, #:upper16:USBUART_1_EP
 1918 01d2 0B46     		mov	r3, r1
 1919 01d4 4FEA4303 		lsl	r3, r3, #1
 1920 01d8 5B18     		adds	r3, r3, r1
 1921 01da 4FEA8303 		lsl	r3, r3, #2
 1922 01de D318     		adds	r3, r2, r3
 1923 01e0 0246     		mov	r2, r0
 1924 01e2 1A70     		strb	r2, [r3, #0]
 794:.\Generated_Source\PSoC5/USBUART_1_std.c **** 
 795:.\Generated_Source\PSoC5/USBUART_1_std.c ****                 /* Clear the data toggle */
 796:.\Generated_Source\PSoC5/USBUART_1_std.c ****                 USBUART_1_EP[cur_ep].epToggle = 0u;
 1925              		.loc 1 796 0
ARM GAS  C:\Users\Robert\AppData\Local\Temp\ccdadQBo.s 			page 50


 1926 01e4 B978     		ldrb	r1, [r7, #2]	@ zero_extendqisi2
 1927 01e6 40F20002 		movw	r2, #:lower16:USBUART_1_EP
 1928 01ea C0F20002 		movt	r2, #:upper16:USBUART_1_EP
 1929 01ee 0B46     		mov	r3, r1
 1930 01f0 4FEA4303 		lsl	r3, r3, #1
 1931 01f4 5B18     		adds	r3, r3, r1
 1932 01f6 4FEA8303 		lsl	r3, r3, #2
 1933 01fa D318     		adds	r3, r2, r3
 1934 01fc 4FF00002 		mov	r2, #0
 1935 0200 DA70     		strb	r2, [r3, #3]
 797:.\Generated_Source\PSoC5/USBUART_1_std.c **** 
 798:.\Generated_Source\PSoC5/USBUART_1_std.c ****                 /* Dynamic reconfiguration for mode 3 transfer */
 799:.\Generated_Source\PSoC5/USBUART_1_std.c ****             #if(USBUART_1_EP_MM == USBUART_1__EP_DMAAUTO)
 800:.\Generated_Source\PSoC5/USBUART_1_std.c ****                 /* In_data_rdy for selected EP should be set to 0 */
 801:.\Generated_Source\PSoC5/USBUART_1_std.c ****                 * (reg8 *)(USBUART_1_ARB_EP1_CFG_IND + ri) &= (uint8)~USBUART_1_ARB_EPX_CFG_IN_DATA
 802:.\Generated_Source\PSoC5/USBUART_1_std.c **** 
 803:.\Generated_Source\PSoC5/USBUART_1_std.c ****                 /* write the EP number for which reconfiguration is required */
 804:.\Generated_Source\PSoC5/USBUART_1_std.c ****                 USBUART_1_DYN_RECONFIG_REG = (cur_ep - USBUART_1_EP1) <<
 805:.\Generated_Source\PSoC5/USBUART_1_std.c ****                                                     USBUART_1_DYN_RECONFIG_EP_SHIFT;
 806:.\Generated_Source\PSoC5/USBUART_1_std.c ****                 /* Set the dyn_config_en bit in dynamic reconfiguration register */
 807:.\Generated_Source\PSoC5/USBUART_1_std.c ****                 USBUART_1_DYN_RECONFIG_REG |= USBUART_1_DYN_RECONFIG_ENABLE;
 808:.\Generated_Source\PSoC5/USBUART_1_std.c ****                 /* wait for the dyn_config_rdy bit to set by the block,
 809:.\Generated_Source\PSoC5/USBUART_1_std.c ****                 *  this bit will be set to 1 when block is ready for reconfiguration.
 810:.\Generated_Source\PSoC5/USBUART_1_std.c ****                 */
 811:.\Generated_Source\PSoC5/USBUART_1_std.c ****                 while((USBUART_1_DYN_RECONFIG_REG & USBUART_1_DYN_RECONFIG_RDY_STS) == 0u)
 812:.\Generated_Source\PSoC5/USBUART_1_std.c ****                 {
 813:.\Generated_Source\PSoC5/USBUART_1_std.c ****                     ;
 814:.\Generated_Source\PSoC5/USBUART_1_std.c ****                 }
 815:.\Generated_Source\PSoC5/USBUART_1_std.c ****                 /* Once dyn_config_rdy bit is set, FW can change the EP configuration. */
 816:.\Generated_Source\PSoC5/USBUART_1_std.c ****                 /* Change EP Type with new direction */
 817:.\Generated_Source\PSoC5/USBUART_1_std.c ****                 if((pEP->addr & USBUART_1_DIR_IN) == 0u)
 818:.\Generated_Source\PSoC5/USBUART_1_std.c ****                 {
 819:.\Generated_Source\PSoC5/USBUART_1_std.c ****                     USBUART_1_EP_TYPE_REG |= (uint8)(0x01u << (cur_ep - USBUART_1_EP1));
 820:.\Generated_Source\PSoC5/USBUART_1_std.c ****                 }
 821:.\Generated_Source\PSoC5/USBUART_1_std.c ****                 else
 822:.\Generated_Source\PSoC5/USBUART_1_std.c ****                 {
 823:.\Generated_Source\PSoC5/USBUART_1_std.c ****                     USBUART_1_EP_TYPE_REG &= (uint8)~(uint8)(0x01u << (cur_ep - USBUART_1_EP1));
 824:.\Generated_Source\PSoC5/USBUART_1_std.c ****                 }
 825:.\Generated_Source\PSoC5/USBUART_1_std.c ****                 /* dynamic reconfiguration enable bit cleared, pointers and control/status
 826:.\Generated_Source\PSoC5/USBUART_1_std.c ****                 *  signals for the selected EP is cleared/re-initialized on negative edge
 827:.\Generated_Source\PSoC5/USBUART_1_std.c ****                 *  of dynamic reconfiguration enable bit).
 828:.\Generated_Source\PSoC5/USBUART_1_std.c ****                 */
 829:.\Generated_Source\PSoC5/USBUART_1_std.c ****                 USBUART_1_DYN_RECONFIG_REG &= (uint8)~USBUART_1_DYN_RECONFIG_ENABLE;
 830:.\Generated_Source\PSoC5/USBUART_1_std.c ****                 /* The main loop has to re-enable DMA and OUT endpoint*/
 831:.\Generated_Source\PSoC5/USBUART_1_std.c ****             #else
 832:.\Generated_Source\PSoC5/USBUART_1_std.c ****                 CY_SET_REG8((reg8 *)(USBUART_1_SIE_EP1_CNT0_IND + ri),
 1936              		.loc 1 832 0
 1937 0202 7A78     		ldrb	r2, [r7, #1]	@ zero_extendqisi2
 1938 0204 46F20C03 		movw	r3, #24588
 1939 0208 C4F20003 		movt	r3, 16384
 1940 020c D318     		adds	r3, r2, r3
 1941 020e 1846     		mov	r0, r3
 1942 0210 B978     		ldrb	r1, [r7, #2]	@ zero_extendqisi2
 1943 0212 40F20002 		movw	r2, #:lower16:USBUART_1_EP
 1944 0216 C0F20002 		movt	r2, #:upper16:USBUART_1_EP
 1945 021a 0B46     		mov	r3, r1
 1946 021c 4FEA4303 		lsl	r3, r3, #1
ARM GAS  C:\Users\Robert\AppData\Local\Temp\ccdadQBo.s 			page 51


 1947 0220 5B18     		adds	r3, r3, r1
 1948 0222 4FEA8303 		lsl	r3, r3, #2
 1949 0226 D318     		adds	r3, r2, r3
 1950 0228 03F10803 		add	r3, r3, #8
 1951 022c 1B88     		ldrh	r3, [r3, #0]	@ movhi
 1952 022e 9BB2     		uxth	r3, r3
 1953 0230 4FEA1323 		lsr	r3, r3, #8
 1954 0234 9BB2     		uxth	r3, r3
 1955 0236 DBB2     		uxtb	r3, r3
 1956 0238 0370     		strb	r3, [r0, #0]
 833:.\Generated_Source\PSoC5/USBUART_1_std.c ****                                                                 USBUART_1_EP[cur_ep].bufferSize >> 
 834:.\Generated_Source\PSoC5/USBUART_1_std.c ****                 CY_SET_REG8((reg8 *)(USBUART_1_SIE_EP1_CNT1_IND + ri),
 1957              		.loc 1 834 0
 1958 023a 7A78     		ldrb	r2, [r7, #1]	@ zero_extendqisi2
 1959 023c 46F20D03 		movw	r3, #24589
 1960 0240 C4F20003 		movt	r3, 16384
 1961 0244 D318     		adds	r3, r2, r3
 1962 0246 1846     		mov	r0, r3
 1963 0248 B978     		ldrb	r1, [r7, #2]	@ zero_extendqisi2
 1964 024a 40F20002 		movw	r2, #:lower16:USBUART_1_EP
 1965 024e C0F20002 		movt	r2, #:upper16:USBUART_1_EP
 1966 0252 0B46     		mov	r3, r1
 1967 0254 4FEA4303 		lsl	r3, r3, #1
 1968 0258 5B18     		adds	r3, r3, r1
 1969 025a 4FEA8303 		lsl	r3, r3, #2
 1970 025e D318     		adds	r3, r2, r3
 1971 0260 03F10803 		add	r3, r3, #8
 1972 0264 1B88     		ldrh	r3, [r3, #0]	@ movhi
 1973 0266 9BB2     		uxth	r3, r3
 1974 0268 DBB2     		uxtb	r3, r3
 1975 026a 0370     		strb	r3, [r0, #0]
 835:.\Generated_Source\PSoC5/USBUART_1_std.c ****                                                                 USBUART_1_EP[cur_ep].bufferSize & 0
 836:.\Generated_Source\PSoC5/USBUART_1_std.c ****                 CY_SET_REG8((reg8 *)(USBUART_1_ARB_RW1_RA_IND + ri),
 1976              		.loc 1 836 0
 1977 026c 7A78     		ldrb	r2, [r7, #1]	@ zero_extendqisi2
 1978 026e 46F28603 		movw	r3, #24710
 1979 0272 C4F20003 		movt	r3, 16384
 1980 0276 D318     		adds	r3, r2, r3
 1981 0278 1846     		mov	r0, r3
 1982 027a B978     		ldrb	r1, [r7, #2]	@ zero_extendqisi2
 1983 027c 40F20002 		movw	r2, #:lower16:USBUART_1_EP
 1984 0280 C0F20002 		movt	r2, #:upper16:USBUART_1_EP
 1985 0284 0B46     		mov	r3, r1
 1986 0286 4FEA4303 		lsl	r3, r3, #1
 1987 028a 5B18     		adds	r3, r3, r1
 1988 028c 4FEA8303 		lsl	r3, r3, #2
 1989 0290 D318     		adds	r3, r2, r3
 1990 0292 DB88     		ldrh	r3, [r3, #6]	@ movhi
 1991 0294 9BB2     		uxth	r3, r3
 1992 0296 DBB2     		uxtb	r3, r3
 1993 0298 0370     		strb	r3, [r0, #0]
 837:.\Generated_Source\PSoC5/USBUART_1_std.c ****                                                                 USBUART_1_EP[cur_ep].buffOffset & 0
 838:.\Generated_Source\PSoC5/USBUART_1_std.c ****                 CY_SET_REG8((reg8 *)(USBUART_1_ARB_RW1_RA_MSB_IND + ri),
 1994              		.loc 1 838 0
 1995 029a 7A78     		ldrb	r2, [r7, #1]	@ zero_extendqisi2
 1996 029c 46F28703 		movw	r3, #24711
 1997 02a0 C4F20003 		movt	r3, 16384
ARM GAS  C:\Users\Robert\AppData\Local\Temp\ccdadQBo.s 			page 52


 1998 02a4 D318     		adds	r3, r2, r3
 1999 02a6 1846     		mov	r0, r3
 2000 02a8 B978     		ldrb	r1, [r7, #2]	@ zero_extendqisi2
 2001 02aa 40F20002 		movw	r2, #:lower16:USBUART_1_EP
 2002 02ae C0F20002 		movt	r2, #:upper16:USBUART_1_EP
 2003 02b2 0B46     		mov	r3, r1
 2004 02b4 4FEA4303 		lsl	r3, r3, #1
 2005 02b8 5B18     		adds	r3, r3, r1
 2006 02ba 4FEA8303 		lsl	r3, r3, #2
 2007 02be D318     		adds	r3, r2, r3
 2008 02c0 DB88     		ldrh	r3, [r3, #6]	@ movhi
 2009 02c2 9BB2     		uxth	r3, r3
 2010 02c4 4FEA1323 		lsr	r3, r3, #8
 2011 02c8 9BB2     		uxth	r3, r3
 2012 02ca DBB2     		uxtb	r3, r3
 2013 02cc 0370     		strb	r3, [r0, #0]
 839:.\Generated_Source\PSoC5/USBUART_1_std.c ****                                                                 USBUART_1_EP[cur_ep].buffOffset >> 
 840:.\Generated_Source\PSoC5/USBUART_1_std.c ****                 CY_SET_REG8((reg8 *)(USBUART_1_ARB_RW1_WA_IND + ri),
 2014              		.loc 1 840 0
 2015 02ce 7A78     		ldrb	r2, [r7, #1]	@ zero_extendqisi2
 2016 02d0 46F28403 		movw	r3, #24708
 2017 02d4 C4F20003 		movt	r3, 16384
 2018 02d8 D318     		adds	r3, r2, r3
 2019 02da 1846     		mov	r0, r3
 2020 02dc B978     		ldrb	r1, [r7, #2]	@ zero_extendqisi2
 2021 02de 40F20002 		movw	r2, #:lower16:USBUART_1_EP
 2022 02e2 C0F20002 		movt	r2, #:upper16:USBUART_1_EP
 2023 02e6 0B46     		mov	r3, r1
 2024 02e8 4FEA4303 		lsl	r3, r3, #1
 2025 02ec 5B18     		adds	r3, r3, r1
 2026 02ee 4FEA8303 		lsl	r3, r3, #2
 2027 02f2 D318     		adds	r3, r2, r3
 2028 02f4 DB88     		ldrh	r3, [r3, #6]	@ movhi
 2029 02f6 9BB2     		uxth	r3, r3
 2030 02f8 DBB2     		uxtb	r3, r3
 2031 02fa 0370     		strb	r3, [r0, #0]
 841:.\Generated_Source\PSoC5/USBUART_1_std.c ****                                                                 USBUART_1_EP[cur_ep].buffOffset & 0
 842:.\Generated_Source\PSoC5/USBUART_1_std.c ****                 CY_SET_REG8((reg8 *)(USBUART_1_ARB_RW1_WA_MSB_IND + ri),
 2032              		.loc 1 842 0
 2033 02fc 7A78     		ldrb	r2, [r7, #1]	@ zero_extendqisi2
 2034 02fe 46F28503 		movw	r3, #24709
 2035 0302 C4F20003 		movt	r3, 16384
 2036 0306 D318     		adds	r3, r2, r3
 2037 0308 1846     		mov	r0, r3
 2038 030a B978     		ldrb	r1, [r7, #2]	@ zero_extendqisi2
 2039 030c 40F20002 		movw	r2, #:lower16:USBUART_1_EP
 2040 0310 C0F20002 		movt	r2, #:upper16:USBUART_1_EP
 2041 0314 0B46     		mov	r3, r1
 2042 0316 4FEA4303 		lsl	r3, r3, #1
 2043 031a 5B18     		adds	r3, r3, r1
 2044 031c 4FEA8303 		lsl	r3, r3, #2
 2045 0320 D318     		adds	r3, r2, r3
 2046 0322 DB88     		ldrh	r3, [r3, #6]	@ movhi
 2047 0324 9BB2     		uxth	r3, r3
 2048 0326 4FEA1323 		lsr	r3, r3, #8
 2049 032a 9BB2     		uxth	r3, r3
 2050 032c DBB2     		uxtb	r3, r3
ARM GAS  C:\Users\Robert\AppData\Local\Temp\ccdadQBo.s 			page 53


 2051 032e 0370     		strb	r3, [r0, #0]
 2052              	.L108:
 843:.\Generated_Source\PSoC5/USBUART_1_std.c ****                                                                 USBUART_1_EP[cur_ep].buffOffset >> 
 844:.\Generated_Source\PSoC5/USBUART_1_std.c ****             #endif /*  USBUART_1_EP_MM == USBUART_1__EP_DMAAUTO */
 845:.\Generated_Source\PSoC5/USBUART_1_std.c ****             }
 846:.\Generated_Source\PSoC5/USBUART_1_std.c ****             /* Get next EP element */
 847:.\Generated_Source\PSoC5/USBUART_1_std.c ****             pEP = &pEP[1u];
 2053              		.loc 1 847 0
 2054 0330 BB68     		ldr	r3, [r7, #8]
 2055 0332 03F10803 		add	r3, r3, #8
 2056 0336 BB60     		str	r3, [r7, #8]
 764:.\Generated_Source\PSoC5/USBUART_1_std.c ****         for (i = 0u; i < ep; i++)
 2057              		.loc 1 764 0
 2058 0338 FB7B     		ldrb	r3, [r7, #15]
 2059 033a 03F10103 		add	r3, r3, #1
 2060 033e FB73     		strb	r3, [r7, #15]
 2061              	.L107:
 764:.\Generated_Source\PSoC5/USBUART_1_std.c ****         for (i = 0u; i < ep; i++)
 2062              		.loc 1 764 0 is_stmt 0 discriminator 1
 2063 0340 FA7B     		ldrb	r2, [r7, #15]	@ zero_extendqisi2
 2064 0342 FB78     		ldrb	r3, [r7, #3]	@ zero_extendqisi2
 2065 0344 9A42     		cmp	r2, r3
 2066 0346 FFF482AE 		bcc	.L115
 2067              	.L105:
 848:.\Generated_Source\PSoC5/USBUART_1_std.c ****         }
 849:.\Generated_Source\PSoC5/USBUART_1_std.c ****     }   /* USBUART_1_configuration > 0 */
 850:.\Generated_Source\PSoC5/USBUART_1_std.c **** }
 2068              		.loc 1 850 0 is_stmt 1
 2069 034a 07F11007 		add	r7, r7, #16
 2070 034e BD46     		mov	sp, r7
 2071 0350 80BD     		pop	{r7, pc}
 2072              		.cfi_endproc
 2073              	.LFE4:
 2074              		.size	USBUART_1_ConfigAltChanged, .-USBUART_1_ConfigAltChanged
 2075 0352 00BF     		.section	.text.USBUART_1_GetConfigTablePtr,"ax",%progbits
 2076              		.align	2
 2077              		.global	USBUART_1_GetConfigTablePtr
 2078              		.thumb
 2079              		.thumb_func
 2080              		.type	USBUART_1_GetConfigTablePtr, %function
 2081              	USBUART_1_GetConfigTablePtr:
 2082              	.LFB5:
 851:.\Generated_Source\PSoC5/USBUART_1_std.c **** 
 852:.\Generated_Source\PSoC5/USBUART_1_std.c **** 
 853:.\Generated_Source\PSoC5/USBUART_1_std.c **** /*******************************************************************************
 854:.\Generated_Source\PSoC5/USBUART_1_std.c **** * Function Name: USBUART_1_GetConfigTablePtr
 855:.\Generated_Source\PSoC5/USBUART_1_std.c **** ********************************************************************************
 856:.\Generated_Source\PSoC5/USBUART_1_std.c **** *
 857:.\Generated_Source\PSoC5/USBUART_1_std.c **** * Summary:
 858:.\Generated_Source\PSoC5/USBUART_1_std.c **** *  This routine returns a pointer a configuration table entry
 859:.\Generated_Source\PSoC5/USBUART_1_std.c **** *
 860:.\Generated_Source\PSoC5/USBUART_1_std.c **** * Parameters:
 861:.\Generated_Source\PSoC5/USBUART_1_std.c **** *  confIndex:  Configuration Index
 862:.\Generated_Source\PSoC5/USBUART_1_std.c **** *
 863:.\Generated_Source\PSoC5/USBUART_1_std.c **** * Return:
 864:.\Generated_Source\PSoC5/USBUART_1_std.c **** *  Device Descriptor pointer or NULL when descriptor isn't exists.
 865:.\Generated_Source\PSoC5/USBUART_1_std.c **** *
ARM GAS  C:\Users\Robert\AppData\Local\Temp\ccdadQBo.s 			page 54


 866:.\Generated_Source\PSoC5/USBUART_1_std.c **** *******************************************************************************/
 867:.\Generated_Source\PSoC5/USBUART_1_std.c **** const T_USBUART_1_LUT CYCODE *USBUART_1_GetConfigTablePtr(uint8 confIndex)
 868:.\Generated_Source\PSoC5/USBUART_1_std.c ****                                                         
 869:.\Generated_Source\PSoC5/USBUART_1_std.c **** {
 2083              		.loc 1 869 0
 2084              		.cfi_startproc
 2085              		@ args = 0, pretend = 0, frame = 16
 2086              		@ frame_needed = 1, uses_anonymous_args = 0
 2087              		@ link register save eliminated.
 2088 0000 80B4     		push	{r7}
 2089              	.LCFI15:
 2090              		.cfi_def_cfa_offset 4
 2091              		.cfi_offset 7, -4
 2092 0002 85B0     		sub	sp, sp, #20
 2093              	.LCFI16:
 2094              		.cfi_def_cfa_offset 24
 2095 0004 00AF     		add	r7, sp, #0
 2096              	.LCFI17:
 2097              		.cfi_def_cfa_register 7
 2098 0006 0346     		mov	r3, r0
 2099 0008 FB71     		strb	r3, [r7, #7]
 870:.\Generated_Source\PSoC5/USBUART_1_std.c ****     /* Device Table */
 871:.\Generated_Source\PSoC5/USBUART_1_std.c ****     const T_USBUART_1_LUT CYCODE *pTmp;
 872:.\Generated_Source\PSoC5/USBUART_1_std.c **** 
 873:.\Generated_Source\PSoC5/USBUART_1_std.c ****     pTmp = (const T_USBUART_1_LUT CYCODE *) USBUART_1_TABLE[USBUART_1_device].p_list;
 2100              		.loc 1 873 0
 2101 000a 40F20003 		movw	r3, #:lower16:USBUART_1_device
 2102 000e C0F20003 		movt	r3, #:upper16:USBUART_1_device
 2103 0012 1B78     		ldrb	r3, [r3, #0]
 2104 0014 DBB2     		uxtb	r3, r3
 2105 0016 40F20002 		movw	r2, #:lower16:USBUART_1_TABLE
 2106 001a C0F20002 		movt	r2, #:upper16:USBUART_1_TABLE
 2107 001e 4FEAC303 		lsl	r3, r3, #3
 2108 0022 D318     		adds	r3, r2, r3
 2109 0024 5B68     		ldr	r3, [r3, #4]
 2110 0026 FB60     		str	r3, [r7, #12]
 874:.\Generated_Source\PSoC5/USBUART_1_std.c **** 
 875:.\Generated_Source\PSoC5/USBUART_1_std.c ****     /* The first entry points to the Device Descriptor,
 876:.\Generated_Source\PSoC5/USBUART_1_std.c ****     *  the rest configuration entries.
 877:.\Generated_Source\PSoC5/USBUART_1_std.c ****     *  Set pointer to the first Configuration Descriptor
 878:.\Generated_Source\PSoC5/USBUART_1_std.c ****     */
 879:.\Generated_Source\PSoC5/USBUART_1_std.c ****     pTmp = &pTmp[1u];
 2111              		.loc 1 879 0
 2112 0028 FB68     		ldr	r3, [r7, #12]
 2113 002a 03F10803 		add	r3, r3, #8
 2114 002e FB60     		str	r3, [r7, #12]
 880:.\Generated_Source\PSoC5/USBUART_1_std.c ****     /* For this table, c is the number of configuration descriptors  */
 881:.\Generated_Source\PSoC5/USBUART_1_std.c ****     if(confIndex >= pTmp->c)   /* Verify that required configuration descriptor exists */
 2115              		.loc 1 881 0
 2116 0030 FB68     		ldr	r3, [r7, #12]
 2117 0032 1B78     		ldrb	r3, [r3, #0]	@ zero_extendqisi2
 2118 0034 FA79     		ldrb	r2, [r7, #7]	@ zero_extendqisi2
 2119 0036 9A42     		cmp	r2, r3
 2120 0038 03D3     		bcc	.L117
 882:.\Generated_Source\PSoC5/USBUART_1_std.c ****     {
 883:.\Generated_Source\PSoC5/USBUART_1_std.c ****         pTmp = (const T_USBUART_1_LUT CYCODE *) NULL;
 2121              		.loc 1 883 0
ARM GAS  C:\Users\Robert\AppData\Local\Temp\ccdadQBo.s 			page 55


 2122 003a 4FF00003 		mov	r3, #0
 2123 003e FB60     		str	r3, [r7, #12]
 2124 0040 06E0     		b	.L118
 2125              	.L117:
 884:.\Generated_Source\PSoC5/USBUART_1_std.c ****     }
 885:.\Generated_Source\PSoC5/USBUART_1_std.c ****     else
 886:.\Generated_Source\PSoC5/USBUART_1_std.c ****     {
 887:.\Generated_Source\PSoC5/USBUART_1_std.c ****         pTmp = (const T_USBUART_1_LUT CYCODE *) pTmp[confIndex].p_list;
 2126              		.loc 1 887 0
 2127 0042 FB79     		ldrb	r3, [r7, #7]	@ zero_extendqisi2
 2128 0044 4FEAC303 		lsl	r3, r3, #3
 2129 0048 FA68     		ldr	r2, [r7, #12]
 2130 004a D318     		adds	r3, r2, r3
 2131 004c 5B68     		ldr	r3, [r3, #4]
 2132 004e FB60     		str	r3, [r7, #12]
 2133              	.L118:
 888:.\Generated_Source\PSoC5/USBUART_1_std.c ****     }
 889:.\Generated_Source\PSoC5/USBUART_1_std.c ****     
 890:.\Generated_Source\PSoC5/USBUART_1_std.c ****     return( pTmp );
 2134              		.loc 1 890 0
 2135 0050 FB68     		ldr	r3, [r7, #12]
 891:.\Generated_Source\PSoC5/USBUART_1_std.c **** }
 2136              		.loc 1 891 0
 2137 0052 1846     		mov	r0, r3
 2138 0054 07F11407 		add	r7, r7, #20
 2139 0058 BD46     		mov	sp, r7
 2140 005a 80BC     		pop	{r7}
 2141 005c 7047     		bx	lr
 2142              		.cfi_endproc
 2143              	.LFE5:
 2144              		.size	USBUART_1_GetConfigTablePtr, .-USBUART_1_GetConfigTablePtr
 2145 005e 00BF     		.section	.text.USBUART_1_GetDeviceTablePtr,"ax",%progbits
 2146              		.align	2
 2147              		.global	USBUART_1_GetDeviceTablePtr
 2148              		.thumb
 2149              		.thumb_func
 2150              		.type	USBUART_1_GetDeviceTablePtr, %function
 2151              	USBUART_1_GetDeviceTablePtr:
 2152              	.LFB6:
 892:.\Generated_Source\PSoC5/USBUART_1_std.c **** 
 893:.\Generated_Source\PSoC5/USBUART_1_std.c **** 
 894:.\Generated_Source\PSoC5/USBUART_1_std.c **** /*******************************************************************************
 895:.\Generated_Source\PSoC5/USBUART_1_std.c **** * Function Name: USBUART_1_GetDeviceTablePtr
 896:.\Generated_Source\PSoC5/USBUART_1_std.c **** ********************************************************************************
 897:.\Generated_Source\PSoC5/USBUART_1_std.c **** *
 898:.\Generated_Source\PSoC5/USBUART_1_std.c **** * Summary:
 899:.\Generated_Source\PSoC5/USBUART_1_std.c **** *  This routine returns a pointer to the Device table
 900:.\Generated_Source\PSoC5/USBUART_1_std.c **** *
 901:.\Generated_Source\PSoC5/USBUART_1_std.c **** * Parameters:
 902:.\Generated_Source\PSoC5/USBUART_1_std.c **** *  None.
 903:.\Generated_Source\PSoC5/USBUART_1_std.c **** *
 904:.\Generated_Source\PSoC5/USBUART_1_std.c **** * Return:
 905:.\Generated_Source\PSoC5/USBUART_1_std.c **** *  Device Table pointer
 906:.\Generated_Source\PSoC5/USBUART_1_std.c **** *
 907:.\Generated_Source\PSoC5/USBUART_1_std.c **** *******************************************************************************/
 908:.\Generated_Source\PSoC5/USBUART_1_std.c **** const T_USBUART_1_LUT CYCODE *USBUART_1_GetDeviceTablePtr(void)
 909:.\Generated_Source\PSoC5/USBUART_1_std.c ****                                                             
ARM GAS  C:\Users\Robert\AppData\Local\Temp\ccdadQBo.s 			page 56


 910:.\Generated_Source\PSoC5/USBUART_1_std.c **** {
 2153              		.loc 1 910 0
 2154              		.cfi_startproc
 2155              		@ args = 0, pretend = 0, frame = 0
 2156              		@ frame_needed = 1, uses_anonymous_args = 0
 2157              		@ link register save eliminated.
 2158 0000 80B4     		push	{r7}
 2159              	.LCFI18:
 2160              		.cfi_def_cfa_offset 4
 2161              		.cfi_offset 7, -4
 2162 0002 00AF     		add	r7, sp, #0
 2163              	.LCFI19:
 2164              		.cfi_def_cfa_register 7
 911:.\Generated_Source\PSoC5/USBUART_1_std.c ****     /* Device Table */
 912:.\Generated_Source\PSoC5/USBUART_1_std.c ****     return( (const T_USBUART_1_LUT CYCODE *) USBUART_1_TABLE[USBUART_1_device].p_list );
 2165              		.loc 1 912 0
 2166 0004 40F20003 		movw	r3, #:lower16:USBUART_1_device
 2167 0008 C0F20003 		movt	r3, #:upper16:USBUART_1_device
 2168 000c 1B78     		ldrb	r3, [r3, #0]
 2169 000e DBB2     		uxtb	r3, r3
 2170 0010 40F20002 		movw	r2, #:lower16:USBUART_1_TABLE
 2171 0014 C0F20002 		movt	r2, #:upper16:USBUART_1_TABLE
 2172 0018 4FEAC303 		lsl	r3, r3, #3
 2173 001c D318     		adds	r3, r2, r3
 2174 001e 5B68     		ldr	r3, [r3, #4]
 913:.\Generated_Source\PSoC5/USBUART_1_std.c **** }
 2175              		.loc 1 913 0
 2176 0020 1846     		mov	r0, r3
 2177 0022 BD46     		mov	sp, r7
 2178 0024 80BC     		pop	{r7}
 2179 0026 7047     		bx	lr
 2180              		.cfi_endproc
 2181              	.LFE6:
 2182              		.size	USBUART_1_GetDeviceTablePtr, .-USBUART_1_GetDeviceTablePtr
 2183              		.section	.text.USBUART_1_GetInterfaceClassTablePtr,"ax",%progbits
 2184              		.align	2
 2185              		.global	USBUART_1_GetInterfaceClassTablePtr
 2186              		.thumb
 2187              		.thumb_func
 2188              		.type	USBUART_1_GetInterfaceClassTablePtr, %function
 2189              	USBUART_1_GetInterfaceClassTablePtr:
 2190              	.LFB7:
 914:.\Generated_Source\PSoC5/USBUART_1_std.c **** 
 915:.\Generated_Source\PSoC5/USBUART_1_std.c **** 
 916:.\Generated_Source\PSoC5/USBUART_1_std.c **** /*******************************************************************************
 917:.\Generated_Source\PSoC5/USBUART_1_std.c **** * Function Name: USB_GetInterfaceClassTablePtr
 918:.\Generated_Source\PSoC5/USBUART_1_std.c **** ********************************************************************************
 919:.\Generated_Source\PSoC5/USBUART_1_std.c **** *
 920:.\Generated_Source\PSoC5/USBUART_1_std.c **** * Summary:
 921:.\Generated_Source\PSoC5/USBUART_1_std.c **** *  This routine returns Interface Class table pointer, which contains
 922:.\Generated_Source\PSoC5/USBUART_1_std.c **** *  the relation between interface number and interface class.
 923:.\Generated_Source\PSoC5/USBUART_1_std.c **** *
 924:.\Generated_Source\PSoC5/USBUART_1_std.c **** * Parameters:
 925:.\Generated_Source\PSoC5/USBUART_1_std.c **** *  None.
 926:.\Generated_Source\PSoC5/USBUART_1_std.c **** *
 927:.\Generated_Source\PSoC5/USBUART_1_std.c **** * Return:
 928:.\Generated_Source\PSoC5/USBUART_1_std.c **** *  Interface Class table pointer.
ARM GAS  C:\Users\Robert\AppData\Local\Temp\ccdadQBo.s 			page 57


 929:.\Generated_Source\PSoC5/USBUART_1_std.c **** *
 930:.\Generated_Source\PSoC5/USBUART_1_std.c **** *******************************************************************************/
 931:.\Generated_Source\PSoC5/USBUART_1_std.c **** const uint8 CYCODE *USBUART_1_GetInterfaceClassTablePtr(void)
 932:.\Generated_Source\PSoC5/USBUART_1_std.c ****                                                         
 933:.\Generated_Source\PSoC5/USBUART_1_std.c **** {
 2191              		.loc 1 933 0
 2192              		.cfi_startproc
 2193              		@ args = 0, pretend = 0, frame = 16
 2194              		@ frame_needed = 1, uses_anonymous_args = 0
 2195 0000 80B5     		push	{r7, lr}
 2196              	.LCFI20:
 2197              		.cfi_def_cfa_offset 8
 2198              		.cfi_offset 7, -8
 2199              		.cfi_offset 14, -4
 2200 0002 84B0     		sub	sp, sp, #16
 2201              	.LCFI21:
 2202              		.cfi_def_cfa_offset 24
 2203 0004 00AF     		add	r7, sp, #0
 2204              	.LCFI22:
 2205              		.cfi_def_cfa_register 7
 934:.\Generated_Source\PSoC5/USBUART_1_std.c ****     const T_USBUART_1_LUT CYCODE *pTmp;
 935:.\Generated_Source\PSoC5/USBUART_1_std.c ****     const uint8 CYCODE *pInterfaceClass;
 936:.\Generated_Source\PSoC5/USBUART_1_std.c ****     uint8 currentInterfacesNum;
 937:.\Generated_Source\PSoC5/USBUART_1_std.c **** 
 938:.\Generated_Source\PSoC5/USBUART_1_std.c ****     pTmp = USBUART_1_GetConfigTablePtr(USBUART_1_configuration - 1u);
 2206              		.loc 1 938 0
 2207 0006 40F20003 		movw	r3, #:lower16:USBUART_1_configuration
 2208 000a C0F20003 		movt	r3, #:upper16:USBUART_1_configuration
 2209 000e 1B78     		ldrb	r3, [r3, #0]
 2210 0010 DBB2     		uxtb	r3, r3
 2211 0012 03F1FF33 		add	r3, r3, #-1
 2212 0016 DBB2     		uxtb	r3, r3
 2213 0018 1846     		mov	r0, r3
 2214 001a FFF7FEFF 		bl	USBUART_1_GetConfigTablePtr
 2215 001e B860     		str	r0, [r7, #8]
 939:.\Generated_Source\PSoC5/USBUART_1_std.c ****     if( pTmp != NULL )
 2216              		.loc 1 939 0
 2217 0020 BB68     		ldr	r3, [r7, #8]
 2218 0022 002B     		cmp	r3, #0
 2219 0024 0FD0     		beq	.L123
 940:.\Generated_Source\PSoC5/USBUART_1_std.c ****     {
 941:.\Generated_Source\PSoC5/USBUART_1_std.c ****         currentInterfacesNum  = ((const uint8 *) pTmp->p_list)[USBUART_1_CONFIG_DESCR_NUM_INTERFACE
 2220              		.loc 1 941 0
 2221 0026 BB68     		ldr	r3, [r7, #8]
 2222 0028 5B68     		ldr	r3, [r3, #4]
 2223 002a 1B79     		ldrb	r3, [r3, #4]
 2224 002c FB71     		strb	r3, [r7, #7]
 942:.\Generated_Source\PSoC5/USBUART_1_std.c ****         /* Third entry in the LUT starts the Interface Table pointers */
 943:.\Generated_Source\PSoC5/USBUART_1_std.c ****         /* The INTERFACE_CLASS table is located after all interfaces */
 944:.\Generated_Source\PSoC5/USBUART_1_std.c ****         pTmp = &pTmp[currentInterfacesNum + 2u];
 2225              		.loc 1 944 0
 2226 002e FB79     		ldrb	r3, [r7, #7]	@ zero_extendqisi2
 2227 0030 03F10203 		add	r3, r3, #2
 2228 0034 4FEAC303 		lsl	r3, r3, #3
 2229 0038 BA68     		ldr	r2, [r7, #8]
 2230 003a D318     		adds	r3, r2, r3
 2231 003c BB60     		str	r3, [r7, #8]
ARM GAS  C:\Users\Robert\AppData\Local\Temp\ccdadQBo.s 			page 58


 945:.\Generated_Source\PSoC5/USBUART_1_std.c ****         pInterfaceClass = (const uint8 CYCODE *) pTmp->p_list;
 2232              		.loc 1 945 0
 2233 003e BB68     		ldr	r3, [r7, #8]
 2234 0040 5B68     		ldr	r3, [r3, #4]
 2235 0042 FB60     		str	r3, [r7, #12]
 2236 0044 02E0     		b	.L124
 2237              	.L123:
 946:.\Generated_Source\PSoC5/USBUART_1_std.c ****     }
 947:.\Generated_Source\PSoC5/USBUART_1_std.c ****     else
 948:.\Generated_Source\PSoC5/USBUART_1_std.c ****     {
 949:.\Generated_Source\PSoC5/USBUART_1_std.c ****         pInterfaceClass = (const uint8 CYCODE *) NULL;
 2238              		.loc 1 949 0
 2239 0046 4FF00003 		mov	r3, #0
 2240 004a FB60     		str	r3, [r7, #12]
 2241              	.L124:
 950:.\Generated_Source\PSoC5/USBUART_1_std.c ****     }
 951:.\Generated_Source\PSoC5/USBUART_1_std.c ****     
 952:.\Generated_Source\PSoC5/USBUART_1_std.c ****     return( pInterfaceClass );
 2242              		.loc 1 952 0
 2243 004c FB68     		ldr	r3, [r7, #12]
 953:.\Generated_Source\PSoC5/USBUART_1_std.c **** }
 2244              		.loc 1 953 0
 2245 004e 1846     		mov	r0, r3
 2246 0050 07F11007 		add	r7, r7, #16
 2247 0054 BD46     		mov	sp, r7
 2248 0056 80BD     		pop	{r7, pc}
 2249              		.cfi_endproc
 2250              	.LFE7:
 2251              		.size	USBUART_1_GetInterfaceClassTablePtr, .-USBUART_1_GetInterfaceClassTablePtr
 2252              		.section	.text.USBUART_1_TerminateEP,"ax",%progbits
 2253              		.align	2
 2254              		.global	USBUART_1_TerminateEP
 2255              		.thumb
 2256              		.thumb_func
 2257              		.type	USBUART_1_TerminateEP, %function
 2258              	USBUART_1_TerminateEP:
 2259              	.LFB8:
 954:.\Generated_Source\PSoC5/USBUART_1_std.c **** 
 955:.\Generated_Source\PSoC5/USBUART_1_std.c **** 
 956:.\Generated_Source\PSoC5/USBUART_1_std.c **** /*******************************************************************************
 957:.\Generated_Source\PSoC5/USBUART_1_std.c **** * Function Name: USBUART_1_TerminateEP
 958:.\Generated_Source\PSoC5/USBUART_1_std.c **** ********************************************************************************
 959:.\Generated_Source\PSoC5/USBUART_1_std.c **** *
 960:.\Generated_Source\PSoC5/USBUART_1_std.c **** * Summary:
 961:.\Generated_Source\PSoC5/USBUART_1_std.c **** *  This function terminates the specified USBFS endpoint.
 962:.\Generated_Source\PSoC5/USBUART_1_std.c **** *  This function should be used before endpoint reconfiguration.
 963:.\Generated_Source\PSoC5/USBUART_1_std.c **** *
 964:.\Generated_Source\PSoC5/USBUART_1_std.c **** * Parameters:
 965:.\Generated_Source\PSoC5/USBUART_1_std.c **** *  Endpoint number.
 966:.\Generated_Source\PSoC5/USBUART_1_std.c **** *
 967:.\Generated_Source\PSoC5/USBUART_1_std.c **** * Return:
 968:.\Generated_Source\PSoC5/USBUART_1_std.c **** *  None.
 969:.\Generated_Source\PSoC5/USBUART_1_std.c **** *
 970:.\Generated_Source\PSoC5/USBUART_1_std.c **** * Reentrant:
 971:.\Generated_Source\PSoC5/USBUART_1_std.c **** *  No.
 972:.\Generated_Source\PSoC5/USBUART_1_std.c **** *
 973:.\Generated_Source\PSoC5/USBUART_1_std.c **** *******************************************************************************/
ARM GAS  C:\Users\Robert\AppData\Local\Temp\ccdadQBo.s 			page 59


 974:.\Generated_Source\PSoC5/USBUART_1_std.c **** void USBUART_1_TerminateEP(uint8 ep) 
 975:.\Generated_Source\PSoC5/USBUART_1_std.c **** {
 2260              		.loc 1 975 0
 2261              		.cfi_startproc
 2262              		@ args = 0, pretend = 0, frame = 16
 2263              		@ frame_needed = 1, uses_anonymous_args = 0
 2264              		@ link register save eliminated.
 2265 0000 80B4     		push	{r7}
 2266              	.LCFI23:
 2267              		.cfi_def_cfa_offset 4
 2268              		.cfi_offset 7, -4
 2269 0002 85B0     		sub	sp, sp, #20
 2270              	.LCFI24:
 2271              		.cfi_def_cfa_offset 24
 2272 0004 00AF     		add	r7, sp, #0
 2273              	.LCFI25:
 2274              		.cfi_def_cfa_register 7
 2275 0006 0346     		mov	r3, r0
 2276 0008 FB71     		strb	r3, [r7, #7]
 976:.\Generated_Source\PSoC5/USBUART_1_std.c ****     uint8 ri;
 977:.\Generated_Source\PSoC5/USBUART_1_std.c **** 
 978:.\Generated_Source\PSoC5/USBUART_1_std.c ****     ep &= USBUART_1_DIR_UNUSED;
 2277              		.loc 1 978 0
 2278 000a FB79     		ldrb	r3, [r7, #7]
 2279 000c 03F07F03 		and	r3, r3, #127
 2280 0010 FB71     		strb	r3, [r7, #7]
 979:.\Generated_Source\PSoC5/USBUART_1_std.c ****     ri = ((ep - USBUART_1_EP1) << USBUART_1_EPX_CNTX_ADDR_SHIFT);
 2281              		.loc 1 979 0
 2282 0012 FB79     		ldrb	r3, [r7, #7]
 2283 0014 03F1FF33 		add	r3, r3, #-1
 2284 0018 DBB2     		uxtb	r3, r3
 2285 001a 4FEA0313 		lsl	r3, r3, #4
 2286 001e FB73     		strb	r3, [r7, #15]
 980:.\Generated_Source\PSoC5/USBUART_1_std.c **** 
 981:.\Generated_Source\PSoC5/USBUART_1_std.c ****     if ((ep > USBUART_1_EP0) && (ep < USBUART_1_MAX_EP))
 2287              		.loc 1 981 0
 2288 0020 FB79     		ldrb	r3, [r7, #7]	@ zero_extendqisi2
 2289 0022 002B     		cmp	r3, #0
 2290 0024 64D0     		beq	.L126
 2291              		.loc 1 981 0 is_stmt 0 discriminator 1
 2292 0026 FB79     		ldrb	r3, [r7, #7]	@ zero_extendqisi2
 2293 0028 082B     		cmp	r3, #8
 2294 002a 61D8     		bhi	.L126
 982:.\Generated_Source\PSoC5/USBUART_1_std.c ****     {
 983:.\Generated_Source\PSoC5/USBUART_1_std.c ****         /* Set the endpoint Halt */
 984:.\Generated_Source\PSoC5/USBUART_1_std.c ****         USBUART_1_EP[ep].hwEpState |= (USBUART_1_ENDPOINT_STATUS_HALT);
 2295              		.loc 1 984 0 is_stmt 1
 2296 002c F979     		ldrb	r1, [r7, #7]	@ zero_extendqisi2
 2297 002e F879     		ldrb	r0, [r7, #7]	@ zero_extendqisi2
 2298 0030 40F20002 		movw	r2, #:lower16:USBUART_1_EP
 2299 0034 C0F20002 		movt	r2, #:upper16:USBUART_1_EP
 2300 0038 0346     		mov	r3, r0
 2301 003a 4FEA4303 		lsl	r3, r3, #1
 2302 003e 1B18     		adds	r3, r3, r0
 2303 0040 4FEA8303 		lsl	r3, r3, #2
 2304 0044 D318     		adds	r3, r2, r3
 2305 0046 9B78     		ldrb	r3, [r3, #2]
ARM GAS  C:\Users\Robert\AppData\Local\Temp\ccdadQBo.s 			page 60


 2306 0048 DBB2     		uxtb	r3, r3
 2307 004a 43F00103 		orr	r3, r3, #1
 2308 004e D8B2     		uxtb	r0, r3
 2309 0050 40F20002 		movw	r2, #:lower16:USBUART_1_EP
 2310 0054 C0F20002 		movt	r2, #:upper16:USBUART_1_EP
 2311 0058 0B46     		mov	r3, r1
 2312 005a 4FEA4303 		lsl	r3, r3, #1
 2313 005e 5B18     		adds	r3, r3, r1
 2314 0060 4FEA8303 		lsl	r3, r3, #2
 2315 0064 D318     		adds	r3, r2, r3
 2316 0066 0246     		mov	r2, r0
 2317 0068 9A70     		strb	r2, [r3, #2]
 985:.\Generated_Source\PSoC5/USBUART_1_std.c **** 
 986:.\Generated_Source\PSoC5/USBUART_1_std.c ****         /* Clear the data toggle */
 987:.\Generated_Source\PSoC5/USBUART_1_std.c ****         USBUART_1_EP[ep].epToggle = 0u;
 2318              		.loc 1 987 0
 2319 006a F979     		ldrb	r1, [r7, #7]	@ zero_extendqisi2
 2320 006c 40F20002 		movw	r2, #:lower16:USBUART_1_EP
 2321 0070 C0F20002 		movt	r2, #:upper16:USBUART_1_EP
 2322 0074 0B46     		mov	r3, r1
 2323 0076 4FEA4303 		lsl	r3, r3, #1
 2324 007a 5B18     		adds	r3, r3, r1
 2325 007c 4FEA8303 		lsl	r3, r3, #2
 2326 0080 D318     		adds	r3, r2, r3
 2327 0082 4FF00002 		mov	r2, #0
 2328 0086 DA70     		strb	r2, [r3, #3]
 988:.\Generated_Source\PSoC5/USBUART_1_std.c ****         USBUART_1_EP[ep].apiEpState = USBUART_1_NO_EVENT_ALLOWED;
 2329              		.loc 1 988 0
 2330 0088 F979     		ldrb	r1, [r7, #7]	@ zero_extendqisi2
 2331 008a 40F20002 		movw	r2, #:lower16:USBUART_1_EP
 2332 008e C0F20002 		movt	r2, #:upper16:USBUART_1_EP
 2333 0092 0B46     		mov	r3, r1
 2334 0094 4FEA4303 		lsl	r3, r3, #1
 2335 0098 5B18     		adds	r3, r3, r1
 2336 009a 4FEA8303 		lsl	r3, r3, #2
 2337 009e D318     		adds	r3, r2, r3
 2338 00a0 4FF00202 		mov	r2, #2
 2339 00a4 5A70     		strb	r2, [r3, #1]
 989:.\Generated_Source\PSoC5/USBUART_1_std.c **** 
 990:.\Generated_Source\PSoC5/USBUART_1_std.c ****         if ((USBUART_1_EP[ep].addr & USBUART_1_DIR_IN) != 0u)
 2340              		.loc 1 990 0
 2341 00a6 F979     		ldrb	r1, [r7, #7]	@ zero_extendqisi2
 2342 00a8 40F20002 		movw	r2, #:lower16:USBUART_1_EP
 2343 00ac C0F20002 		movt	r2, #:upper16:USBUART_1_EP
 2344 00b0 0B46     		mov	r3, r1
 2345 00b2 4FEA4303 		lsl	r3, r3, #1
 2346 00b6 5B18     		adds	r3, r3, r1
 2347 00b8 4FEA8303 		lsl	r3, r3, #2
 2348 00bc D318     		adds	r3, r2, r3
 2349 00be 1B79     		ldrb	r3, [r3, #4]
 2350 00c0 DBB2     		uxtb	r3, r3
 2351 00c2 DBB2     		uxtb	r3, r3
 2352 00c4 5BB2     		sxtb	r3, r3
 2353 00c6 002B     		cmp	r3, #0
 2354 00c8 09DA     		bge	.L128
 991:.\Generated_Source\PSoC5/USBUART_1_std.c ****         {
 992:.\Generated_Source\PSoC5/USBUART_1_std.c ****             /* IN Endpoint */
ARM GAS  C:\Users\Robert\AppData\Local\Temp\ccdadQBo.s 			page 61


 993:.\Generated_Source\PSoC5/USBUART_1_std.c ****             CY_SET_REG8((reg8 *)(USBUART_1_SIE_EP1_CR0_IND + ri), USBUART_1_MODE_NAK_IN);
 2355              		.loc 1 993 0
 2356 00ca FA7B     		ldrb	r2, [r7, #15]	@ zero_extendqisi2
 2357 00cc 46F20E03 		movw	r3, #24590
 2358 00d0 C4F20003 		movt	r3, 16384
 2359 00d4 D318     		adds	r3, r2, r3
 2360 00d6 4FF00C02 		mov	r2, #12
 2361 00da 1A70     		strb	r2, [r3, #0]
 2362 00dc 08E0     		b	.L126
 2363              	.L128:
 994:.\Generated_Source\PSoC5/USBUART_1_std.c ****         }
 995:.\Generated_Source\PSoC5/USBUART_1_std.c ****         else
 996:.\Generated_Source\PSoC5/USBUART_1_std.c ****         {
 997:.\Generated_Source\PSoC5/USBUART_1_std.c ****             /* OUT Endpoint */
 998:.\Generated_Source\PSoC5/USBUART_1_std.c ****             CY_SET_REG8((reg8 *)(USBUART_1_SIE_EP1_CR0_IND + ri), USBUART_1_MODE_NAK_OUT);
 2364              		.loc 1 998 0
 2365 00de FA7B     		ldrb	r2, [r7, #15]	@ zero_extendqisi2
 2366 00e0 46F20E03 		movw	r3, #24590
 2367 00e4 C4F20003 		movt	r3, 16384
 2368 00e8 D318     		adds	r3, r2, r3
 2369 00ea 4FF00802 		mov	r2, #8
 2370 00ee 1A70     		strb	r2, [r3, #0]
 2371              	.L126:
 999:.\Generated_Source\PSoC5/USBUART_1_std.c ****         }
1000:.\Generated_Source\PSoC5/USBUART_1_std.c ****     }
1001:.\Generated_Source\PSoC5/USBUART_1_std.c **** }
 2372              		.loc 1 1001 0
 2373 00f0 07F11407 		add	r7, r7, #20
 2374 00f4 BD46     		mov	sp, r7
 2375 00f6 80BC     		pop	{r7}
 2376 00f8 7047     		bx	lr
 2377              		.cfi_endproc
 2378              	.LFE8:
 2379              		.size	USBUART_1_TerminateEP, .-USBUART_1_TerminateEP
 2380 00fa 00BF     		.section	.text.USBUART_1_SetEndpointHalt,"ax",%progbits
 2381              		.align	2
 2382              		.global	USBUART_1_SetEndpointHalt
 2383              		.thumb
 2384              		.thumb_func
 2385              		.type	USBUART_1_SetEndpointHalt, %function
 2386              	USBUART_1_SetEndpointHalt:
 2387              	.LFB9:
1002:.\Generated_Source\PSoC5/USBUART_1_std.c **** 
1003:.\Generated_Source\PSoC5/USBUART_1_std.c **** 
1004:.\Generated_Source\PSoC5/USBUART_1_std.c **** /*******************************************************************************
1005:.\Generated_Source\PSoC5/USBUART_1_std.c **** * Function Name: USBUART_1_SetEndpointHalt
1006:.\Generated_Source\PSoC5/USBUART_1_std.c **** ********************************************************************************
1007:.\Generated_Source\PSoC5/USBUART_1_std.c **** *
1008:.\Generated_Source\PSoC5/USBUART_1_std.c **** * Summary:
1009:.\Generated_Source\PSoC5/USBUART_1_std.c **** *  This routine handles set endpoint halt.
1010:.\Generated_Source\PSoC5/USBUART_1_std.c **** *
1011:.\Generated_Source\PSoC5/USBUART_1_std.c **** * Parameters:
1012:.\Generated_Source\PSoC5/USBUART_1_std.c **** *  None.
1013:.\Generated_Source\PSoC5/USBUART_1_std.c **** *
1014:.\Generated_Source\PSoC5/USBUART_1_std.c **** * Return:
1015:.\Generated_Source\PSoC5/USBUART_1_std.c **** *  requestHandled.
1016:.\Generated_Source\PSoC5/USBUART_1_std.c **** *
ARM GAS  C:\Users\Robert\AppData\Local\Temp\ccdadQBo.s 			page 62


1017:.\Generated_Source\PSoC5/USBUART_1_std.c **** * Reentrant:
1018:.\Generated_Source\PSoC5/USBUART_1_std.c **** *  No.
1019:.\Generated_Source\PSoC5/USBUART_1_std.c **** *
1020:.\Generated_Source\PSoC5/USBUART_1_std.c **** *******************************************************************************/
1021:.\Generated_Source\PSoC5/USBUART_1_std.c **** uint8 USBUART_1_SetEndpointHalt(void) 
1022:.\Generated_Source\PSoC5/USBUART_1_std.c **** {
 2388              		.loc 1 1022 0
 2389              		.cfi_startproc
 2390              		@ args = 0, pretend = 0, frame = 8
 2391              		@ frame_needed = 1, uses_anonymous_args = 0
 2392 0000 80B5     		push	{r7, lr}
 2393              	.LCFI26:
 2394              		.cfi_def_cfa_offset 8
 2395              		.cfi_offset 7, -8
 2396              		.cfi_offset 14, -4
 2397 0002 82B0     		sub	sp, sp, #8
 2398              	.LCFI27:
 2399              		.cfi_def_cfa_offset 16
 2400 0004 00AF     		add	r7, sp, #0
 2401              	.LCFI28:
 2402              		.cfi_def_cfa_register 7
1023:.\Generated_Source\PSoC5/USBUART_1_std.c ****     uint8 ep;
1024:.\Generated_Source\PSoC5/USBUART_1_std.c ****     uint8 ri;
1025:.\Generated_Source\PSoC5/USBUART_1_std.c ****     uint8 requestHandled = USBUART_1_FALSE;
 2403              		.loc 1 1025 0
 2404 0006 4FF00003 		mov	r3, #0
 2405 000a FB71     		strb	r3, [r7, #7]
1026:.\Generated_Source\PSoC5/USBUART_1_std.c **** 
1027:.\Generated_Source\PSoC5/USBUART_1_std.c ****     /* Set endpoint halt */
1028:.\Generated_Source\PSoC5/USBUART_1_std.c ****     ep = CY_GET_REG8(USBUART_1_wIndexLo) & USBUART_1_DIR_UNUSED;
 2406              		.loc 1 1028 0
 2407 000c 46F20403 		movw	r3, #24580
 2408 0010 C4F20003 		movt	r3, 16384
 2409 0014 1B78     		ldrb	r3, [r3, #0]
 2410 0016 DBB2     		uxtb	r3, r3
 2411 0018 03F07F03 		and	r3, r3, #127
 2412 001c BB71     		strb	r3, [r7, #6]
1029:.\Generated_Source\PSoC5/USBUART_1_std.c ****     ri = ((ep - USBUART_1_EP1) << USBUART_1_EPX_CNTX_ADDR_SHIFT);
 2413              		.loc 1 1029 0
 2414 001e BB79     		ldrb	r3, [r7, #6]
 2415 0020 03F1FF33 		add	r3, r3, #-1
 2416 0024 DBB2     		uxtb	r3, r3
 2417 0026 4FEA0313 		lsl	r3, r3, #4
 2418 002a 7B71     		strb	r3, [r7, #5]
1030:.\Generated_Source\PSoC5/USBUART_1_std.c **** 
1031:.\Generated_Source\PSoC5/USBUART_1_std.c ****     if ((ep > USBUART_1_EP0) && (ep < USBUART_1_MAX_EP))
 2419              		.loc 1 1031 0
 2420 002c BB79     		ldrb	r3, [r7, #6]	@ zero_extendqisi2
 2421 002e 002B     		cmp	r3, #0
 2422 0030 78D0     		beq	.L130
 2423              		.loc 1 1031 0 is_stmt 0 discriminator 1
 2424 0032 BB79     		ldrb	r3, [r7, #6]	@ zero_extendqisi2
 2425 0034 082B     		cmp	r3, #8
 2426 0036 75D8     		bhi	.L130
1032:.\Generated_Source\PSoC5/USBUART_1_std.c ****     {
1033:.\Generated_Source\PSoC5/USBUART_1_std.c ****         /* Set the endpoint Halt */
1034:.\Generated_Source\PSoC5/USBUART_1_std.c ****         USBUART_1_EP[ep].hwEpState |= (USBUART_1_ENDPOINT_STATUS_HALT);
ARM GAS  C:\Users\Robert\AppData\Local\Temp\ccdadQBo.s 			page 63


 2427              		.loc 1 1034 0 is_stmt 1
 2428 0038 B979     		ldrb	r1, [r7, #6]	@ zero_extendqisi2
 2429 003a B879     		ldrb	r0, [r7, #6]	@ zero_extendqisi2
 2430 003c 40F20002 		movw	r2, #:lower16:USBUART_1_EP
 2431 0040 C0F20002 		movt	r2, #:upper16:USBUART_1_EP
 2432 0044 0346     		mov	r3, r0
 2433 0046 4FEA4303 		lsl	r3, r3, #1
 2434 004a 1B18     		adds	r3, r3, r0
 2435 004c 4FEA8303 		lsl	r3, r3, #2
 2436 0050 D318     		adds	r3, r2, r3
 2437 0052 9B78     		ldrb	r3, [r3, #2]
 2438 0054 DBB2     		uxtb	r3, r3
 2439 0056 43F00103 		orr	r3, r3, #1
 2440 005a D8B2     		uxtb	r0, r3
 2441 005c 40F20002 		movw	r2, #:lower16:USBUART_1_EP
 2442 0060 C0F20002 		movt	r2, #:upper16:USBUART_1_EP
 2443 0064 0B46     		mov	r3, r1
 2444 0066 4FEA4303 		lsl	r3, r3, #1
 2445 006a 5B18     		adds	r3, r3, r1
 2446 006c 4FEA8303 		lsl	r3, r3, #2
 2447 0070 D318     		adds	r3, r2, r3
 2448 0072 0246     		mov	r2, r0
 2449 0074 9A70     		strb	r2, [r3, #2]
1035:.\Generated_Source\PSoC5/USBUART_1_std.c **** 
1036:.\Generated_Source\PSoC5/USBUART_1_std.c ****         /* Clear the data toggle */
1037:.\Generated_Source\PSoC5/USBUART_1_std.c ****         USBUART_1_EP[ep].epToggle = 0u;
 2450              		.loc 1 1037 0
 2451 0076 B979     		ldrb	r1, [r7, #6]	@ zero_extendqisi2
 2452 0078 40F20002 		movw	r2, #:lower16:USBUART_1_EP
 2453 007c C0F20002 		movt	r2, #:upper16:USBUART_1_EP
 2454 0080 0B46     		mov	r3, r1
 2455 0082 4FEA4303 		lsl	r3, r3, #1
 2456 0086 5B18     		adds	r3, r3, r1
 2457 0088 4FEA8303 		lsl	r3, r3, #2
 2458 008c D318     		adds	r3, r2, r3
 2459 008e 4FF00002 		mov	r2, #0
 2460 0092 DA70     		strb	r2, [r3, #3]
1038:.\Generated_Source\PSoC5/USBUART_1_std.c ****         USBUART_1_EP[ep].apiEpState |= USBUART_1_NO_EVENT_ALLOWED;
 2461              		.loc 1 1038 0
 2462 0094 B979     		ldrb	r1, [r7, #6]	@ zero_extendqisi2
 2463 0096 B879     		ldrb	r0, [r7, #6]	@ zero_extendqisi2
 2464 0098 40F20002 		movw	r2, #:lower16:USBUART_1_EP
 2465 009c C0F20002 		movt	r2, #:upper16:USBUART_1_EP
 2466 00a0 0346     		mov	r3, r0
 2467 00a2 4FEA4303 		lsl	r3, r3, #1
 2468 00a6 1B18     		adds	r3, r3, r0
 2469 00a8 4FEA8303 		lsl	r3, r3, #2
 2470 00ac D318     		adds	r3, r2, r3
 2471 00ae 5B78     		ldrb	r3, [r3, #1]
 2472 00b0 DBB2     		uxtb	r3, r3
 2473 00b2 43F00203 		orr	r3, r3, #2
 2474 00b6 D8B2     		uxtb	r0, r3
 2475 00b8 40F20002 		movw	r2, #:lower16:USBUART_1_EP
 2476 00bc C0F20002 		movt	r2, #:upper16:USBUART_1_EP
 2477 00c0 0B46     		mov	r3, r1
 2478 00c2 4FEA4303 		lsl	r3, r3, #1
 2479 00c6 5B18     		adds	r3, r3, r1
ARM GAS  C:\Users\Robert\AppData\Local\Temp\ccdadQBo.s 			page 64


 2480 00c8 4FEA8303 		lsl	r3, r3, #2
 2481 00cc D318     		adds	r3, r2, r3
 2482 00ce 0246     		mov	r2, r0
 2483 00d0 5A70     		strb	r2, [r3, #1]
1039:.\Generated_Source\PSoC5/USBUART_1_std.c **** 
1040:.\Generated_Source\PSoC5/USBUART_1_std.c ****         if ((USBUART_1_EP[ep].addr & USBUART_1_DIR_IN) != 0u)
 2484              		.loc 1 1040 0
 2485 00d2 B979     		ldrb	r1, [r7, #6]	@ zero_extendqisi2
 2486 00d4 40F20002 		movw	r2, #:lower16:USBUART_1_EP
 2487 00d8 C0F20002 		movt	r2, #:upper16:USBUART_1_EP
 2488 00dc 0B46     		mov	r3, r1
 2489 00de 4FEA4303 		lsl	r3, r3, #1
 2490 00e2 5B18     		adds	r3, r3, r1
 2491 00e4 4FEA8303 		lsl	r3, r3, #2
 2492 00e8 D318     		adds	r3, r2, r3
 2493 00ea 1B79     		ldrb	r3, [r3, #4]
 2494 00ec DBB2     		uxtb	r3, r3
 2495 00ee DBB2     		uxtb	r3, r3
 2496 00f0 5BB2     		sxtb	r3, r3
 2497 00f2 002B     		cmp	r3, #0
 2498 00f4 09DA     		bge	.L131
1041:.\Generated_Source\PSoC5/USBUART_1_std.c ****         {
1042:.\Generated_Source\PSoC5/USBUART_1_std.c ****             /* IN Endpoint */
1043:.\Generated_Source\PSoC5/USBUART_1_std.c ****             CY_SET_REG8((reg8 *)(USBUART_1_SIE_EP1_CR0_IND + ri), USBUART_1_MODE_STALL_DATA_EP |
 2499              		.loc 1 1043 0
 2500 00f6 7A79     		ldrb	r2, [r7, #5]	@ zero_extendqisi2
 2501 00f8 46F20E03 		movw	r3, #24590
 2502 00fc C4F20003 		movt	r3, 16384
 2503 0100 D318     		adds	r3, r2, r3
 2504 0102 4FF08D02 		mov	r2, #141
 2505 0106 1A70     		strb	r2, [r3, #0]
 2506 0108 08E0     		b	.L132
 2507              	.L131:
1044:.\Generated_Source\PSoC5/USBUART_1_std.c ****                                                                USBUART_1_MODE_ACK_IN);
1045:.\Generated_Source\PSoC5/USBUART_1_std.c ****         }
1046:.\Generated_Source\PSoC5/USBUART_1_std.c ****         else
1047:.\Generated_Source\PSoC5/USBUART_1_std.c ****         {
1048:.\Generated_Source\PSoC5/USBUART_1_std.c ****             /* OUT Endpoint */
1049:.\Generated_Source\PSoC5/USBUART_1_std.c ****             CY_SET_REG8((reg8 *)(USBUART_1_SIE_EP1_CR0_IND + ri), USBUART_1_MODE_STALL_DATA_EP |
 2508              		.loc 1 1049 0
 2509 010a 7A79     		ldrb	r2, [r7, #5]	@ zero_extendqisi2
 2510 010c 46F20E03 		movw	r3, #24590
 2511 0110 C4F20003 		movt	r3, 16384
 2512 0114 D318     		adds	r3, r2, r3
 2513 0116 4FF08902 		mov	r2, #137
 2514 011a 1A70     		strb	r2, [r3, #0]
 2515              	.L132:
1050:.\Generated_Source\PSoC5/USBUART_1_std.c ****                                                                USBUART_1_MODE_ACK_OUT);
1051:.\Generated_Source\PSoC5/USBUART_1_std.c ****         }
1052:.\Generated_Source\PSoC5/USBUART_1_std.c ****         requestHandled = USBUART_1_InitNoDataControlTransfer();
 2516              		.loc 1 1052 0
 2517 011c FFF7FEFF 		bl	USBUART_1_InitNoDataControlTransfer
 2518 0120 0346     		mov	r3, r0
 2519 0122 FB71     		strb	r3, [r7, #7]
 2520              	.L130:
1053:.\Generated_Source\PSoC5/USBUART_1_std.c ****     }
1054:.\Generated_Source\PSoC5/USBUART_1_std.c **** 
ARM GAS  C:\Users\Robert\AppData\Local\Temp\ccdadQBo.s 			page 65


1055:.\Generated_Source\PSoC5/USBUART_1_std.c ****     return(requestHandled);
 2521              		.loc 1 1055 0
 2522 0124 FB79     		ldrb	r3, [r7, #7]	@ zero_extendqisi2
1056:.\Generated_Source\PSoC5/USBUART_1_std.c **** }
 2523              		.loc 1 1056 0
 2524 0126 1846     		mov	r0, r3
 2525 0128 07F10807 		add	r7, r7, #8
 2526 012c BD46     		mov	sp, r7
 2527 012e 80BD     		pop	{r7, pc}
 2528              		.cfi_endproc
 2529              	.LFE9:
 2530              		.size	USBUART_1_SetEndpointHalt, .-USBUART_1_SetEndpointHalt
 2531              		.section	.text.USBUART_1_ClearEndpointHalt,"ax",%progbits
 2532              		.align	2
 2533              		.global	USBUART_1_ClearEndpointHalt
 2534              		.thumb
 2535              		.thumb_func
 2536              		.type	USBUART_1_ClearEndpointHalt, %function
 2537              	USBUART_1_ClearEndpointHalt:
 2538              	.LFB10:
1057:.\Generated_Source\PSoC5/USBUART_1_std.c **** 
1058:.\Generated_Source\PSoC5/USBUART_1_std.c **** 
1059:.\Generated_Source\PSoC5/USBUART_1_std.c **** /*******************************************************************************
1060:.\Generated_Source\PSoC5/USBUART_1_std.c **** * Function Name: USBUART_1_ClearEndpointHalt
1061:.\Generated_Source\PSoC5/USBUART_1_std.c **** ********************************************************************************
1062:.\Generated_Source\PSoC5/USBUART_1_std.c **** *
1063:.\Generated_Source\PSoC5/USBUART_1_std.c **** * Summary:
1064:.\Generated_Source\PSoC5/USBUART_1_std.c **** *  This routine handles clear endpoint halt.
1065:.\Generated_Source\PSoC5/USBUART_1_std.c **** *
1066:.\Generated_Source\PSoC5/USBUART_1_std.c **** * Parameters:
1067:.\Generated_Source\PSoC5/USBUART_1_std.c **** *  None.
1068:.\Generated_Source\PSoC5/USBUART_1_std.c **** *
1069:.\Generated_Source\PSoC5/USBUART_1_std.c **** * Return:
1070:.\Generated_Source\PSoC5/USBUART_1_std.c **** *  requestHandled.
1071:.\Generated_Source\PSoC5/USBUART_1_std.c **** *
1072:.\Generated_Source\PSoC5/USBUART_1_std.c **** * Reentrant:
1073:.\Generated_Source\PSoC5/USBUART_1_std.c **** *  No.
1074:.\Generated_Source\PSoC5/USBUART_1_std.c **** *
1075:.\Generated_Source\PSoC5/USBUART_1_std.c **** *******************************************************************************/
1076:.\Generated_Source\PSoC5/USBUART_1_std.c **** uint8 USBUART_1_ClearEndpointHalt(void) 
1077:.\Generated_Source\PSoC5/USBUART_1_std.c **** {
 2539              		.loc 1 1077 0
 2540              		.cfi_startproc
 2541              		@ args = 0, pretend = 0, frame = 8
 2542              		@ frame_needed = 1, uses_anonymous_args = 0
 2543 0000 80B5     		push	{r7, lr}
 2544              	.LCFI29:
 2545              		.cfi_def_cfa_offset 8
 2546              		.cfi_offset 7, -8
 2547              		.cfi_offset 14, -4
 2548 0002 82B0     		sub	sp, sp, #8
 2549              	.LCFI30:
 2550              		.cfi_def_cfa_offset 16
 2551 0004 00AF     		add	r7, sp, #0
 2552              	.LCFI31:
 2553              		.cfi_def_cfa_register 7
1078:.\Generated_Source\PSoC5/USBUART_1_std.c ****     uint8 ep;
ARM GAS  C:\Users\Robert\AppData\Local\Temp\ccdadQBo.s 			page 66


1079:.\Generated_Source\PSoC5/USBUART_1_std.c ****     uint8 ri;
1080:.\Generated_Source\PSoC5/USBUART_1_std.c ****     uint8 requestHandled = USBUART_1_FALSE;
 2554              		.loc 1 1080 0
 2555 0006 4FF00003 		mov	r3, #0
 2556 000a FB71     		strb	r3, [r7, #7]
1081:.\Generated_Source\PSoC5/USBUART_1_std.c **** 
1082:.\Generated_Source\PSoC5/USBUART_1_std.c ****     /* Clear endpoint halt */
1083:.\Generated_Source\PSoC5/USBUART_1_std.c ****     ep = CY_GET_REG8(USBUART_1_wIndexLo) & USBUART_1_DIR_UNUSED;
 2557              		.loc 1 1083 0
 2558 000c 46F20403 		movw	r3, #24580
 2559 0010 C4F20003 		movt	r3, 16384
 2560 0014 1B78     		ldrb	r3, [r3, #0]
 2561 0016 DBB2     		uxtb	r3, r3
 2562 0018 03F07F03 		and	r3, r3, #127
 2563 001c BB71     		strb	r3, [r7, #6]
1084:.\Generated_Source\PSoC5/USBUART_1_std.c ****     ri = ((ep - USBUART_1_EP1) << USBUART_1_EPX_CNTX_ADDR_SHIFT);
 2564              		.loc 1 1084 0
 2565 001e BB79     		ldrb	r3, [r7, #6]
 2566 0020 03F1FF33 		add	r3, r3, #-1
 2567 0024 DBB2     		uxtb	r3, r3
 2568 0026 4FEA0313 		lsl	r3, r3, #4
 2569 002a 7B71     		strb	r3, [r7, #5]
1085:.\Generated_Source\PSoC5/USBUART_1_std.c **** 
1086:.\Generated_Source\PSoC5/USBUART_1_std.c ****     if ((ep > USBUART_1_EP0) && (ep < USBUART_1_MAX_EP))
 2570              		.loc 1 1086 0
 2571 002c BB79     		ldrb	r3, [r7, #6]	@ zero_extendqisi2
 2572 002e 002B     		cmp	r3, #0
 2573 0030 00F0C180 		beq	.L135
 2574              		.loc 1 1086 0 is_stmt 0 discriminator 1
 2575 0034 BB79     		ldrb	r3, [r7, #6]	@ zero_extendqisi2
 2576 0036 082B     		cmp	r3, #8
 2577 0038 00F2BD80 		bhi	.L135
1087:.\Generated_Source\PSoC5/USBUART_1_std.c ****     {
1088:.\Generated_Source\PSoC5/USBUART_1_std.c ****         /* Clear the endpoint Halt */
1089:.\Generated_Source\PSoC5/USBUART_1_std.c ****         USBUART_1_EP[ep].hwEpState &= (uint8)~(USBUART_1_ENDPOINT_STATUS_HALT);
 2578              		.loc 1 1089 0 is_stmt 1
 2579 003c B979     		ldrb	r1, [r7, #6]	@ zero_extendqisi2
 2580 003e B879     		ldrb	r0, [r7, #6]	@ zero_extendqisi2
 2581 0040 40F20002 		movw	r2, #:lower16:USBUART_1_EP
 2582 0044 C0F20002 		movt	r2, #:upper16:USBUART_1_EP
 2583 0048 0346     		mov	r3, r0
 2584 004a 4FEA4303 		lsl	r3, r3, #1
 2585 004e 1B18     		adds	r3, r3, r0
 2586 0050 4FEA8303 		lsl	r3, r3, #2
 2587 0054 D318     		adds	r3, r2, r3
 2588 0056 9B78     		ldrb	r3, [r3, #2]
 2589 0058 DBB2     		uxtb	r3, r3
 2590 005a 23F00103 		bic	r3, r3, #1
 2591 005e D8B2     		uxtb	r0, r3
 2592 0060 40F20002 		movw	r2, #:lower16:USBUART_1_EP
 2593 0064 C0F20002 		movt	r2, #:upper16:USBUART_1_EP
 2594 0068 0B46     		mov	r3, r1
 2595 006a 4FEA4303 		lsl	r3, r3, #1
 2596 006e 5B18     		adds	r3, r3, r1
 2597 0070 4FEA8303 		lsl	r3, r3, #2
 2598 0074 D318     		adds	r3, r2, r3
 2599 0076 0246     		mov	r2, r0
ARM GAS  C:\Users\Robert\AppData\Local\Temp\ccdadQBo.s 			page 67


 2600 0078 9A70     		strb	r2, [r3, #2]
1090:.\Generated_Source\PSoC5/USBUART_1_std.c **** 
1091:.\Generated_Source\PSoC5/USBUART_1_std.c ****         /* Clear the data toggle */
1092:.\Generated_Source\PSoC5/USBUART_1_std.c ****         USBUART_1_EP[ep].epToggle = 0u;
 2601              		.loc 1 1092 0
 2602 007a B979     		ldrb	r1, [r7, #6]	@ zero_extendqisi2
 2603 007c 40F20002 		movw	r2, #:lower16:USBUART_1_EP
 2604 0080 C0F20002 		movt	r2, #:upper16:USBUART_1_EP
 2605 0084 0B46     		mov	r3, r1
 2606 0086 4FEA4303 		lsl	r3, r3, #1
 2607 008a 5B18     		adds	r3, r3, r1
 2608 008c 4FEA8303 		lsl	r3, r3, #2
 2609 0090 D318     		adds	r3, r2, r3
 2610 0092 4FF00002 		mov	r2, #0
 2611 0096 DA70     		strb	r2, [r3, #3]
1093:.\Generated_Source\PSoC5/USBUART_1_std.c ****         /* Clear toggle bit for already armed packet */
1094:.\Generated_Source\PSoC5/USBUART_1_std.c ****         CY_SET_REG8((reg8 *)(USBUART_1_SIE_EP1_CNT0_IND + ri), CY_GET_REG8(
 2612              		.loc 1 1094 0
 2613 0098 7A79     		ldrb	r2, [r7, #5]	@ zero_extendqisi2
 2614 009a 46F20C03 		movw	r3, #24588
 2615 009e C4F20003 		movt	r3, 16384
 2616 00a2 D318     		adds	r3, r2, r3
 2617 00a4 1A46     		mov	r2, r3
 2618 00a6 7979     		ldrb	r1, [r7, #5]	@ zero_extendqisi2
 2619 00a8 46F20C03 		movw	r3, #24588
 2620 00ac C4F20003 		movt	r3, 16384
 2621 00b0 CB18     		adds	r3, r1, r3
 2622 00b2 1B78     		ldrb	r3, [r3, #0]
 2623 00b4 DBB2     		uxtb	r3, r3
 2624 00b6 03F07F03 		and	r3, r3, #127
 2625 00ba DBB2     		uxtb	r3, r3
 2626 00bc 1370     		strb	r3, [r2, #0]
1095:.\Generated_Source\PSoC5/USBUART_1_std.c ****                     (reg8 *)(USBUART_1_SIE_EP1_CNT0_IND + ri)) & (uint8)~USBUART_1_EPX_CNT_DATA_TOG
1096:.\Generated_Source\PSoC5/USBUART_1_std.c ****         /* Return API State as it was defined before */
1097:.\Generated_Source\PSoC5/USBUART_1_std.c ****         USBUART_1_EP[ep].apiEpState &= (uint8)~USBUART_1_NO_EVENT_ALLOWED;
 2627              		.loc 1 1097 0
 2628 00be B979     		ldrb	r1, [r7, #6]	@ zero_extendqisi2
 2629 00c0 B879     		ldrb	r0, [r7, #6]	@ zero_extendqisi2
 2630 00c2 40F20002 		movw	r2, #:lower16:USBUART_1_EP
 2631 00c6 C0F20002 		movt	r2, #:upper16:USBUART_1_EP
 2632 00ca 0346     		mov	r3, r0
 2633 00cc 4FEA4303 		lsl	r3, r3, #1
 2634 00d0 1B18     		adds	r3, r3, r0
 2635 00d2 4FEA8303 		lsl	r3, r3, #2
 2636 00d6 D318     		adds	r3, r2, r3
 2637 00d8 5B78     		ldrb	r3, [r3, #1]
 2638 00da DBB2     		uxtb	r3, r3
 2639 00dc 23F00203 		bic	r3, r3, #2
 2640 00e0 D8B2     		uxtb	r0, r3
 2641 00e2 40F20002 		movw	r2, #:lower16:USBUART_1_EP
 2642 00e6 C0F20002 		movt	r2, #:upper16:USBUART_1_EP
 2643 00ea 0B46     		mov	r3, r1
 2644 00ec 4FEA4303 		lsl	r3, r3, #1
 2645 00f0 5B18     		adds	r3, r3, r1
 2646 00f2 4FEA8303 		lsl	r3, r3, #2
 2647 00f6 D318     		adds	r3, r2, r3
 2648 00f8 0246     		mov	r2, r0
ARM GAS  C:\Users\Robert\AppData\Local\Temp\ccdadQBo.s 			page 68


 2649 00fa 5A70     		strb	r2, [r3, #1]
1098:.\Generated_Source\PSoC5/USBUART_1_std.c **** 
1099:.\Generated_Source\PSoC5/USBUART_1_std.c ****         if ((USBUART_1_EP[ep].addr & USBUART_1_DIR_IN) != 0u)
 2650              		.loc 1 1099 0
 2651 00fc B979     		ldrb	r1, [r7, #6]	@ zero_extendqisi2
 2652 00fe 40F20002 		movw	r2, #:lower16:USBUART_1_EP
 2653 0102 C0F20002 		movt	r2, #:upper16:USBUART_1_EP
 2654 0106 0B46     		mov	r3, r1
 2655 0108 4FEA4303 		lsl	r3, r3, #1
 2656 010c 5B18     		adds	r3, r3, r1
 2657 010e 4FEA8303 		lsl	r3, r3, #2
 2658 0112 D318     		adds	r3, r2, r3
 2659 0114 1B79     		ldrb	r3, [r3, #4]
 2660 0116 DBB2     		uxtb	r3, r3
 2661 0118 DBB2     		uxtb	r3, r3
 2662 011a 5BB2     		sxtb	r3, r3
 2663 011c 002B     		cmp	r3, #0
 2664 011e 23DA     		bge	.L136
1100:.\Generated_Source\PSoC5/USBUART_1_std.c ****         {
1101:.\Generated_Source\PSoC5/USBUART_1_std.c ****             /* IN Endpoint */
1102:.\Generated_Source\PSoC5/USBUART_1_std.c ****             if(USBUART_1_EP[ep].apiEpState == USBUART_1_IN_BUFFER_EMPTY)
 2665              		.loc 1 1102 0
 2666 0120 B979     		ldrb	r1, [r7, #6]	@ zero_extendqisi2
 2667 0122 40F20002 		movw	r2, #:lower16:USBUART_1_EP
 2668 0126 C0F20002 		movt	r2, #:upper16:USBUART_1_EP
 2669 012a 0B46     		mov	r3, r1
 2670 012c 4FEA4303 		lsl	r3, r3, #1
 2671 0130 5B18     		adds	r3, r3, r1
 2672 0132 4FEA8303 		lsl	r3, r3, #2
 2673 0136 D318     		adds	r3, r2, r3
 2674 0138 5B78     		ldrb	r3, [r3, #1]
 2675 013a DBB2     		uxtb	r3, r3
 2676 013c 012B     		cmp	r3, #1
 2677 013e 09D1     		bne	.L137
1103:.\Generated_Source\PSoC5/USBUART_1_std.c ****             {       /* Wait for next packet from application */
1104:.\Generated_Source\PSoC5/USBUART_1_std.c ****                 CY_SET_REG8((reg8 *)(USBUART_1_SIE_EP1_CR0_IND + ri), USBUART_1_MODE_NAK_IN);
 2678              		.loc 1 1104 0
 2679 0140 7A79     		ldrb	r2, [r7, #5]	@ zero_extendqisi2
 2680 0142 46F20E03 		movw	r3, #24590
 2681 0146 C4F20003 		movt	r3, 16384
 2682 014a D318     		adds	r3, r2, r3
 2683 014c 4FF00C02 		mov	r2, #12
 2684 0150 1A70     		strb	r2, [r3, #0]
 2685 0152 2CE0     		b	.L138
 2686              	.L137:
1105:.\Generated_Source\PSoC5/USBUART_1_std.c ****             }
1106:.\Generated_Source\PSoC5/USBUART_1_std.c ****             else    /* Continue armed transfer */
1107:.\Generated_Source\PSoC5/USBUART_1_std.c ****             {
1108:.\Generated_Source\PSoC5/USBUART_1_std.c ****                 CY_SET_REG8((reg8 *)(USBUART_1_SIE_EP1_CR0_IND + ri), USBUART_1_MODE_ACK_IN);
 2687              		.loc 1 1108 0
 2688 0154 7A79     		ldrb	r2, [r7, #5]	@ zero_extendqisi2
 2689 0156 46F20E03 		movw	r3, #24590
 2690 015a C4F20003 		movt	r3, 16384
 2691 015e D318     		adds	r3, r2, r3
 2692 0160 4FF00D02 		mov	r2, #13
 2693 0164 1A70     		strb	r2, [r3, #0]
 2694 0166 22E0     		b	.L138
ARM GAS  C:\Users\Robert\AppData\Local\Temp\ccdadQBo.s 			page 69


 2695              	.L136:
1109:.\Generated_Source\PSoC5/USBUART_1_std.c ****             }
1110:.\Generated_Source\PSoC5/USBUART_1_std.c ****         }
1111:.\Generated_Source\PSoC5/USBUART_1_std.c ****         else
1112:.\Generated_Source\PSoC5/USBUART_1_std.c ****         {
1113:.\Generated_Source\PSoC5/USBUART_1_std.c ****             /* OUT Endpoint */
1114:.\Generated_Source\PSoC5/USBUART_1_std.c ****             if(USBUART_1_EP[ep].apiEpState == USBUART_1_OUT_BUFFER_FULL)
 2696              		.loc 1 1114 0
 2697 0168 B979     		ldrb	r1, [r7, #6]	@ zero_extendqisi2
 2698 016a 40F20002 		movw	r2, #:lower16:USBUART_1_EP
 2699 016e C0F20002 		movt	r2, #:upper16:USBUART_1_EP
 2700 0172 0B46     		mov	r3, r1
 2701 0174 4FEA4303 		lsl	r3, r3, #1
 2702 0178 5B18     		adds	r3, r3, r1
 2703 017a 4FEA8303 		lsl	r3, r3, #2
 2704 017e D318     		adds	r3, r2, r3
 2705 0180 5B78     		ldrb	r3, [r3, #1]
 2706 0182 DBB2     		uxtb	r3, r3
 2707 0184 012B     		cmp	r3, #1
 2708 0186 09D1     		bne	.L139
1115:.\Generated_Source\PSoC5/USBUART_1_std.c ****             {       /* Allow application to read full buffer */
1116:.\Generated_Source\PSoC5/USBUART_1_std.c ****                 CY_SET_REG8((reg8 *)(USBUART_1_SIE_EP1_CR0_IND + ri), USBUART_1_MODE_NAK_OUT);
 2709              		.loc 1 1116 0
 2710 0188 7A79     		ldrb	r2, [r7, #5]	@ zero_extendqisi2
 2711 018a 46F20E03 		movw	r3, #24590
 2712 018e C4F20003 		movt	r3, 16384
 2713 0192 D318     		adds	r3, r2, r3
 2714 0194 4FF00802 		mov	r2, #8
 2715 0198 1A70     		strb	r2, [r3, #0]
 2716 019a 08E0     		b	.L138
 2717              	.L139:
1117:.\Generated_Source\PSoC5/USBUART_1_std.c ****             }
1118:.\Generated_Source\PSoC5/USBUART_1_std.c ****             else    /* Mark endpoint as empty, so it will be reloaded */
1119:.\Generated_Source\PSoC5/USBUART_1_std.c ****             {
1120:.\Generated_Source\PSoC5/USBUART_1_std.c ****                 CY_SET_REG8((reg8 *)(USBUART_1_SIE_EP1_CR0_IND + ri), USBUART_1_MODE_ACK_OUT);
 2718              		.loc 1 1120 0
 2719 019c 7A79     		ldrb	r2, [r7, #5]	@ zero_extendqisi2
 2720 019e 46F20E03 		movw	r3, #24590
 2721 01a2 C4F20003 		movt	r3, 16384
 2722 01a6 D318     		adds	r3, r2, r3
 2723 01a8 4FF00902 		mov	r2, #9
 2724 01ac 1A70     		strb	r2, [r3, #0]
 2725              	.L138:
1121:.\Generated_Source\PSoC5/USBUART_1_std.c ****             }
1122:.\Generated_Source\PSoC5/USBUART_1_std.c ****         }
1123:.\Generated_Source\PSoC5/USBUART_1_std.c ****         requestHandled = USBUART_1_InitNoDataControlTransfer();
 2726              		.loc 1 1123 0
 2727 01ae FFF7FEFF 		bl	USBUART_1_InitNoDataControlTransfer
 2728 01b2 0346     		mov	r3, r0
 2729 01b4 FB71     		strb	r3, [r7, #7]
 2730              	.L135:
1124:.\Generated_Source\PSoC5/USBUART_1_std.c ****     }
1125:.\Generated_Source\PSoC5/USBUART_1_std.c **** 
1126:.\Generated_Source\PSoC5/USBUART_1_std.c ****     return(requestHandled);
 2731              		.loc 1 1126 0
 2732 01b6 FB79     		ldrb	r3, [r7, #7]	@ zero_extendqisi2
1127:.\Generated_Source\PSoC5/USBUART_1_std.c **** }
ARM GAS  C:\Users\Robert\AppData\Local\Temp\ccdadQBo.s 			page 70


 2733              		.loc 1 1127 0
 2734 01b8 1846     		mov	r0, r3
 2735 01ba 07F10807 		add	r7, r7, #8
 2736 01be BD46     		mov	sp, r7
 2737 01c0 80BD     		pop	{r7, pc}
 2738              		.cfi_endproc
 2739              	.LFE10:
 2740              		.size	USBUART_1_ClearEndpointHalt, .-USBUART_1_ClearEndpointHalt
 2741 01c2 00BF     		.section	.text.USBUART_1_ValidateAlternateSetting,"ax",%progbits
 2742              		.align	2
 2743              		.global	USBUART_1_ValidateAlternateSetting
 2744              		.thumb
 2745              		.thumb_func
 2746              		.type	USBUART_1_ValidateAlternateSetting, %function
 2747              	USBUART_1_ValidateAlternateSetting:
 2748              	.LFB11:
1128:.\Generated_Source\PSoC5/USBUART_1_std.c **** 
1129:.\Generated_Source\PSoC5/USBUART_1_std.c **** 
1130:.\Generated_Source\PSoC5/USBUART_1_std.c **** /*******************************************************************************
1131:.\Generated_Source\PSoC5/USBUART_1_std.c **** * Function Name: USBUART_1_ValidateAlternateSetting
1132:.\Generated_Source\PSoC5/USBUART_1_std.c **** ********************************************************************************
1133:.\Generated_Source\PSoC5/USBUART_1_std.c **** *
1134:.\Generated_Source\PSoC5/USBUART_1_std.c **** * Summary:
1135:.\Generated_Source\PSoC5/USBUART_1_std.c **** *  Validates (and records) a SET INTERFACE request.
1136:.\Generated_Source\PSoC5/USBUART_1_std.c **** *
1137:.\Generated_Source\PSoC5/USBUART_1_std.c **** * Parameters:
1138:.\Generated_Source\PSoC5/USBUART_1_std.c **** *  None.
1139:.\Generated_Source\PSoC5/USBUART_1_std.c **** *
1140:.\Generated_Source\PSoC5/USBUART_1_std.c **** * Return:
1141:.\Generated_Source\PSoC5/USBUART_1_std.c **** *  requestHandled.
1142:.\Generated_Source\PSoC5/USBUART_1_std.c **** *
1143:.\Generated_Source\PSoC5/USBUART_1_std.c **** * Reentrant:
1144:.\Generated_Source\PSoC5/USBUART_1_std.c **** *  No.
1145:.\Generated_Source\PSoC5/USBUART_1_std.c **** *
1146:.\Generated_Source\PSoC5/USBUART_1_std.c **** *******************************************************************************/
1147:.\Generated_Source\PSoC5/USBUART_1_std.c **** uint8 USBUART_1_ValidateAlternateSetting(void) 
1148:.\Generated_Source\PSoC5/USBUART_1_std.c **** {
 2749              		.loc 1 1148 0
 2750              		.cfi_startproc
 2751              		@ args = 0, pretend = 0, frame = 16
 2752              		@ frame_needed = 1, uses_anonymous_args = 0
 2753 0000 80B5     		push	{r7, lr}
 2754              	.LCFI32:
 2755              		.cfi_def_cfa_offset 8
 2756              		.cfi_offset 7, -8
 2757              		.cfi_offset 14, -4
 2758 0002 84B0     		sub	sp, sp, #16
 2759              	.LCFI33:
 2760              		.cfi_def_cfa_offset 24
 2761 0004 00AF     		add	r7, sp, #0
 2762              	.LCFI34:
 2763              		.cfi_def_cfa_register 7
1149:.\Generated_Source\PSoC5/USBUART_1_std.c ****     uint8 requestHandled = USBUART_1_TRUE;
 2764              		.loc 1 1149 0
 2765 0006 4FF00103 		mov	r3, #1
 2766 000a FB73     		strb	r3, [r7, #15]
1150:.\Generated_Source\PSoC5/USBUART_1_std.c ****     uint8 interfaceNum;
ARM GAS  C:\Users\Robert\AppData\Local\Temp\ccdadQBo.s 			page 71


1151:.\Generated_Source\PSoC5/USBUART_1_std.c ****     const T_USBUART_1_LUT CYCODE *pTmp;
1152:.\Generated_Source\PSoC5/USBUART_1_std.c ****     uint8 currentInterfacesNum;
1153:.\Generated_Source\PSoC5/USBUART_1_std.c **** 
1154:.\Generated_Source\PSoC5/USBUART_1_std.c ****     interfaceNum = CY_GET_REG8(USBUART_1_wIndexLo);
 2767              		.loc 1 1154 0
 2768 000c 46F20403 		movw	r3, #24580
 2769 0010 C4F20003 		movt	r3, 16384
 2770 0014 1B78     		ldrb	r3, [r3, #0]
 2771 0016 BB73     		strb	r3, [r7, #14]
1155:.\Generated_Source\PSoC5/USBUART_1_std.c ****     /* Validate interface setting, stall if invalid. */
1156:.\Generated_Source\PSoC5/USBUART_1_std.c ****     pTmp = USBUART_1_GetConfigTablePtr(USBUART_1_configuration - 1u);
 2772              		.loc 1 1156 0
 2773 0018 40F20003 		movw	r3, #:lower16:USBUART_1_configuration
 2774 001c C0F20003 		movt	r3, #:upper16:USBUART_1_configuration
 2775 0020 1B78     		ldrb	r3, [r3, #0]
 2776 0022 DBB2     		uxtb	r3, r3
 2777 0024 03F1FF33 		add	r3, r3, #-1
 2778 0028 DBB2     		uxtb	r3, r3
 2779 002a 1846     		mov	r0, r3
 2780 002c FFF7FEFF 		bl	USBUART_1_GetConfigTablePtr
 2781 0030 B860     		str	r0, [r7, #8]
1157:.\Generated_Source\PSoC5/USBUART_1_std.c ****     currentInterfacesNum  = ((const uint8 *) pTmp->p_list)[USBUART_1_CONFIG_DESCR_NUM_INTERFACES];
 2782              		.loc 1 1157 0
 2783 0032 BB68     		ldr	r3, [r7, #8]
 2784 0034 5B68     		ldr	r3, [r3, #4]
 2785 0036 1B79     		ldrb	r3, [r3, #4]
 2786 0038 FB71     		strb	r3, [r7, #7]
1158:.\Generated_Source\PSoC5/USBUART_1_std.c **** 
1159:.\Generated_Source\PSoC5/USBUART_1_std.c ****     if((interfaceNum >= currentInterfacesNum) || (interfaceNum >= USBUART_1_MAX_INTERFACES_NUMBER))
 2787              		.loc 1 1159 0
 2788 003a BA7B     		ldrb	r2, [r7, #14]	@ zero_extendqisi2
 2789 003c FB79     		ldrb	r3, [r7, #7]	@ zero_extendqisi2
 2790 003e 9A42     		cmp	r2, r3
 2791 0040 02D2     		bcs	.L142
 2792              		.loc 1 1159 0 is_stmt 0 discriminator 1
 2793 0042 BB7B     		ldrb	r3, [r7, #14]	@ zero_extendqisi2
 2794 0044 012B     		cmp	r3, #1
 2795 0046 03D9     		bls	.L143
 2796              	.L142:
1160:.\Generated_Source\PSoC5/USBUART_1_std.c ****     {   /* Wrong interface number */
1161:.\Generated_Source\PSoC5/USBUART_1_std.c ****         requestHandled = USBUART_1_FALSE;
 2797              		.loc 1 1161 0 is_stmt 1
 2798 0048 4FF00003 		mov	r3, #0
 2799 004c FB73     		strb	r3, [r7, #15]
 2800 004e 18E0     		b	.L144
 2801              	.L143:
1162:.\Generated_Source\PSoC5/USBUART_1_std.c ****     }
1163:.\Generated_Source\PSoC5/USBUART_1_std.c ****     else
1164:.\Generated_Source\PSoC5/USBUART_1_std.c ****     {
1165:.\Generated_Source\PSoC5/USBUART_1_std.c ****         /* Save current Alt setting to find out the difference in Config() function */
1166:.\Generated_Source\PSoC5/USBUART_1_std.c ****         USBUART_1_interfaceSetting_last[interfaceNum] = USBUART_1_interfaceSetting[interfaceNum];
 2802              		.loc 1 1166 0
 2803 0050 BA7B     		ldrb	r2, [r7, #14]	@ zero_extendqisi2
 2804 0052 B97B     		ldrb	r1, [r7, #14]	@ zero_extendqisi2
 2805 0054 40F20003 		movw	r3, #:lower16:USBUART_1_interfaceSetting
 2806 0058 C0F20003 		movt	r3, #:upper16:USBUART_1_interfaceSetting
 2807 005c 5B5C     		ldrb	r3, [r3, r1]
ARM GAS  C:\Users\Robert\AppData\Local\Temp\ccdadQBo.s 			page 72


 2808 005e D9B2     		uxtb	r1, r3
 2809 0060 40F20003 		movw	r3, #:lower16:USBUART_1_interfaceSetting_last
 2810 0064 C0F20003 		movt	r3, #:upper16:USBUART_1_interfaceSetting_last
 2811 0068 9954     		strb	r1, [r3, r2]
1167:.\Generated_Source\PSoC5/USBUART_1_std.c ****         USBUART_1_interfaceSetting[interfaceNum] = CY_GET_REG8(USBUART_1_wValueLo);
 2812              		.loc 1 1167 0
 2813 006a BA7B     		ldrb	r2, [r7, #14]	@ zero_extendqisi2
 2814 006c 46F20203 		movw	r3, #24578
 2815 0070 C4F20003 		movt	r3, 16384
 2816 0074 1B78     		ldrb	r3, [r3, #0]
 2817 0076 D9B2     		uxtb	r1, r3
 2818 0078 40F20003 		movw	r3, #:lower16:USBUART_1_interfaceSetting
 2819 007c C0F20003 		movt	r3, #:upper16:USBUART_1_interfaceSetting
 2820 0080 9954     		strb	r1, [r3, r2]
 2821              	.L144:
1168:.\Generated_Source\PSoC5/USBUART_1_std.c ****     }
1169:.\Generated_Source\PSoC5/USBUART_1_std.c **** 
1170:.\Generated_Source\PSoC5/USBUART_1_std.c ****     return (requestHandled);
 2822              		.loc 1 1170 0
 2823 0082 FB7B     		ldrb	r3, [r7, #15]	@ zero_extendqisi2
1171:.\Generated_Source\PSoC5/USBUART_1_std.c **** }
 2824              		.loc 1 1171 0
 2825 0084 1846     		mov	r0, r3
 2826 0086 07F11007 		add	r7, r7, #16
 2827 008a BD46     		mov	sp, r7
 2828 008c 80BD     		pop	{r7, pc}
 2829              		.cfi_endproc
 2830              	.LFE11:
 2831              		.size	USBUART_1_ValidateAlternateSetting, .-USBUART_1_ValidateAlternateSetting
 2832              		.bss
 2833              		.align	2
 2834              	USBUART_1_tBuffer.4988:
 2835 0000 0000     		.space	2
 2836 0002 0000     		.text
 2837              	.Letext0:
 2838              		.file 2 ".\\Generated_Source\\PSoC5\\cytypes.h"
 2839              		.file 3 ".\\Generated_Source\\PSoC5\\USBUART_1.h"
 2840              		.file 4 ".\\Generated_Source\\PSoC5\\USBUART_1_cdc.h"
 2841              		.file 5 ".\\Generated_Source\\PSoC5\\USBUART_1_pvt.h"
 2842              		.section	.debug_info,"",%progbits
 2843              	.Ldebug_info0:
 2844 0000 48080000 		.4byte	0x848
 2845 0004 0200     		.2byte	0x2
 2846 0006 00000000 		.4byte	.Ldebug_abbrev0
 2847 000a 04       		.byte	0x4
 2848 000b 01       		.uleb128 0x1
 2849 000c 8F040000 		.4byte	.LASF89
 2850 0010 01       		.byte	0x1
 2851 0011 7E030000 		.4byte	.LASF90
 2852 0015 8F010000 		.4byte	.LASF91
 2853 0019 00000000 		.4byte	.Ldebug_ranges0+0
 2854 001d 00000000 		.4byte	0
 2855 0021 00000000 		.4byte	0
 2856 0025 00000000 		.4byte	.Ldebug_line0
 2857 0029 02       		.uleb128 0x2
 2858 002a 01       		.byte	0x1
 2859 002b 06       		.byte	0x6
ARM GAS  C:\Users\Robert\AppData\Local\Temp\ccdadQBo.s 			page 73


 2860 002c BB000000 		.4byte	.LASF0
 2861 0030 02       		.uleb128 0x2
 2862 0031 01       		.byte	0x1
 2863 0032 08       		.byte	0x8
 2864 0033 FD040000 		.4byte	.LASF1
 2865 0037 02       		.uleb128 0x2
 2866 0038 02       		.byte	0x2
 2867 0039 05       		.byte	0x5
 2868 003a 3F050000 		.4byte	.LASF2
 2869 003e 02       		.uleb128 0x2
 2870 003f 02       		.byte	0x2
 2871 0040 07       		.byte	0x7
 2872 0041 F9020000 		.4byte	.LASF3
 2873 0045 02       		.uleb128 0x2
 2874 0046 04       		.byte	0x4
 2875 0047 05       		.byte	0x5
 2876 0048 46010000 		.4byte	.LASF4
 2877 004c 02       		.uleb128 0x2
 2878 004d 04       		.byte	0x4
 2879 004e 07       		.byte	0x7
 2880 004f 9F020000 		.4byte	.LASF5
 2881 0053 02       		.uleb128 0x2
 2882 0054 08       		.byte	0x8
 2883 0055 05       		.byte	0x5
 2884 0056 AD000000 		.4byte	.LASF6
 2885 005a 02       		.uleb128 0x2
 2886 005b 08       		.byte	0x8
 2887 005c 07       		.byte	0x7
 2888 005d 49000000 		.4byte	.LASF7
 2889 0061 03       		.uleb128 0x3
 2890 0062 04       		.byte	0x4
 2891 0063 05       		.byte	0x5
 2892 0064 696E7400 		.ascii	"int\000"
 2893 0068 02       		.uleb128 0x2
 2894 0069 04       		.byte	0x4
 2895 006a 07       		.byte	0x7
 2896 006b 72020000 		.4byte	.LASF8
 2897 006f 04       		.uleb128 0x4
 2898 0070 79010000 		.4byte	.LASF9
 2899 0074 02       		.byte	0x2
 2900 0075 5B       		.byte	0x5b
 2901 0076 30000000 		.4byte	0x30
 2902 007a 04       		.uleb128 0x4
 2903 007b 13000000 		.4byte	.LASF10
 2904 007f 02       		.byte	0x2
 2905 0080 5C       		.byte	0x5c
 2906 0081 3E000000 		.4byte	0x3e
 2907 0085 02       		.uleb128 0x2
 2908 0086 04       		.byte	0x4
 2909 0087 04       		.byte	0x4
 2910 0088 6A040000 		.4byte	.LASF11
 2911 008c 02       		.uleb128 0x2
 2912 008d 08       		.byte	0x8
 2913 008e 04       		.byte	0x4
 2914 008f 88010000 		.4byte	.LASF12
 2915 0093 04       		.uleb128 0x4
 2916 0094 E6050000 		.4byte	.LASF13
ARM GAS  C:\Users\Robert\AppData\Local\Temp\ccdadQBo.s 			page 74


 2917 0098 02       		.byte	0x2
 2918 0099 6C       		.byte	0x6c
 2919 009a 9E000000 		.4byte	0x9e
 2920 009e 02       		.uleb128 0x2
 2921 009f 01       		.byte	0x1
 2922 00a0 08       		.byte	0x8
 2923 00a1 BC050000 		.4byte	.LASF14
 2924 00a5 04       		.uleb128 0x4
 2925 00a6 D8040000 		.4byte	.LASF15
 2926 00aa 02       		.byte	0x2
 2927 00ab F0       		.byte	0xf0
 2928 00ac B0000000 		.4byte	0xb0
 2929 00b0 05       		.uleb128 0x5
 2930 00b1 6F000000 		.4byte	0x6f
 2931 00b5 02       		.uleb128 0x2
 2932 00b6 04       		.byte	0x4
 2933 00b7 07       		.byte	0x7
 2934 00b8 BD030000 		.4byte	.LASF16
 2935 00bc 06       		.uleb128 0x6
 2936 00bd 0C       		.byte	0xc
 2937 00be 03       		.byte	0x3
 2938 00bf 7D       		.byte	0x7d
 2939 00c0 43010000 		.4byte	0x143
 2940 00c4 07       		.uleb128 0x7
 2941 00c5 DC030000 		.4byte	.LASF17
 2942 00c9 03       		.byte	0x3
 2943 00ca 7F       		.byte	0x7f
 2944 00cb 6F000000 		.4byte	0x6f
 2945 00cf 02       		.byte	0x2
 2946 00d0 23       		.byte	0x23
 2947 00d1 00       		.uleb128 0
 2948 00d2 07       		.uleb128 0x7
 2949 00d3 70040000 		.4byte	.LASF18
 2950 00d7 03       		.byte	0x3
 2951 00d8 80       		.byte	0x80
 2952 00d9 6F000000 		.4byte	0x6f
 2953 00dd 02       		.byte	0x2
 2954 00de 23       		.byte	0x23
 2955 00df 01       		.uleb128 0x1
 2956 00e0 07       		.uleb128 0x7
 2957 00e1 A7030000 		.4byte	.LASF19
 2958 00e5 03       		.byte	0x3
 2959 00e6 81       		.byte	0x81
 2960 00e7 6F000000 		.4byte	0x6f
 2961 00eb 02       		.byte	0x2
 2962 00ec 23       		.byte	0x23
 2963 00ed 02       		.uleb128 0x2
 2964 00ee 07       		.uleb128 0x7
 2965 00ef 7F010000 		.4byte	.LASF20
 2966 00f3 03       		.byte	0x3
 2967 00f4 82       		.byte	0x82
 2968 00f5 6F000000 		.4byte	0x6f
 2969 00f9 02       		.byte	0x2
 2970 00fa 23       		.byte	0x23
 2971 00fb 03       		.uleb128 0x3
 2972 00fc 07       		.uleb128 0x7
 2973 00fd 60000000 		.4byte	.LASF21
ARM GAS  C:\Users\Robert\AppData\Local\Temp\ccdadQBo.s 			page 75


 2974 0101 03       		.byte	0x3
 2975 0102 83       		.byte	0x83
 2976 0103 6F000000 		.4byte	0x6f
 2977 0107 02       		.byte	0x2
 2978 0108 23       		.byte	0x23
 2979 0109 04       		.uleb128 0x4
 2980 010a 07       		.uleb128 0x7
 2981 010b 2E020000 		.4byte	.LASF22
 2982 010f 03       		.byte	0x3
 2983 0110 84       		.byte	0x84
 2984 0111 6F000000 		.4byte	0x6f
 2985 0115 02       		.byte	0x2
 2986 0116 23       		.byte	0x23
 2987 0117 05       		.uleb128 0x5
 2988 0118 07       		.uleb128 0x7
 2989 0119 DB050000 		.4byte	.LASF23
 2990 011d 03       		.byte	0x3
 2991 011e 85       		.byte	0x85
 2992 011f 7A000000 		.4byte	0x7a
 2993 0123 02       		.byte	0x2
 2994 0124 23       		.byte	0x23
 2995 0125 06       		.uleb128 0x6
 2996 0126 07       		.uleb128 0x7
 2997 0127 C1050000 		.4byte	.LASF24
 2998 012b 03       		.byte	0x3
 2999 012c 86       		.byte	0x86
 3000 012d 7A000000 		.4byte	0x7a
 3001 0131 02       		.byte	0x2
 3002 0132 23       		.byte	0x23
 3003 0133 08       		.uleb128 0x8
 3004 0134 07       		.uleb128 0x7
 3005 0135 57030000 		.4byte	.LASF25
 3006 0139 03       		.byte	0x3
 3007 013a 87       		.byte	0x87
 3008 013b 6F000000 		.4byte	0x6f
 3009 013f 02       		.byte	0x2
 3010 0140 23       		.byte	0x23
 3011 0141 0A       		.uleb128 0xa
 3012 0142 00       		.byte	0
 3013 0143 04       		.uleb128 0x4
 3014 0144 3C020000 		.4byte	.LASF26
 3015 0148 03       		.byte	0x3
 3016 0149 88       		.byte	0x88
 3017 014a BC000000 		.4byte	0xbc
 3018 014e 06       		.uleb128 0x6
 3019 014f 08       		.byte	0x8
 3020 0150 03       		.byte	0x3
 3021 0151 8A       		.byte	0x8a
 3022 0152 AB010000 		.4byte	0x1ab
 3023 0156 07       		.uleb128 0x7
 3024 0157 57030000 		.4byte	.LASF25
 3025 015b 03       		.byte	0x3
 3026 015c 8C       		.byte	0x8c
 3027 015d 6F000000 		.4byte	0x6f
 3028 0161 02       		.byte	0x2
 3029 0162 23       		.byte	0x23
 3030 0163 00       		.uleb128 0
ARM GAS  C:\Users\Robert\AppData\Local\Temp\ccdadQBo.s 			page 76


 3031 0164 07       		.uleb128 0x7
 3032 0165 93050000 		.4byte	.LASF27
 3033 0169 03       		.byte	0x3
 3034 016a 8D       		.byte	0x8d
 3035 016b 6F000000 		.4byte	0x6f
 3036 016f 02       		.byte	0x2
 3037 0170 23       		.byte	0x23
 3038 0171 01       		.uleb128 0x1
 3039 0172 07       		.uleb128 0x7
 3040 0173 60000000 		.4byte	.LASF21
 3041 0177 03       		.byte	0x3
 3042 0178 8E       		.byte	0x8e
 3043 0179 6F000000 		.4byte	0x6f
 3044 017d 02       		.byte	0x2
 3045 017e 23       		.byte	0x23
 3046 017f 02       		.uleb128 0x2
 3047 0180 07       		.uleb128 0x7
 3048 0181 65050000 		.4byte	.LASF28
 3049 0185 03       		.byte	0x3
 3050 0186 8F       		.byte	0x8f
 3051 0187 6F000000 		.4byte	0x6f
 3052 018b 02       		.byte	0x2
 3053 018c 23       		.byte	0x23
 3054 018d 03       		.uleb128 0x3
 3055 018e 07       		.uleb128 0x7
 3056 018f C1050000 		.4byte	.LASF24
 3057 0193 03       		.byte	0x3
 3058 0194 90       		.byte	0x90
 3059 0195 7A000000 		.4byte	0x7a
 3060 0199 02       		.byte	0x2
 3061 019a 23       		.byte	0x23
 3062 019b 04       		.uleb128 0x4
 3063 019c 07       		.uleb128 0x7
 3064 019d 20060000 		.4byte	.LASF29
 3065 01a1 03       		.byte	0x3
 3066 01a2 91       		.byte	0x91
 3067 01a3 6F000000 		.4byte	0x6f
 3068 01a7 02       		.byte	0x2
 3069 01a8 23       		.byte	0x23
 3070 01a9 06       		.uleb128 0x6
 3071 01aa 00       		.byte	0
 3072 01ab 04       		.uleb128 0x4
 3073 01ac 8F000000 		.4byte	.LASF30
 3074 01b0 03       		.byte	0x3
 3075 01b1 92       		.byte	0x92
 3076 01b2 4E010000 		.4byte	0x14e
 3077 01b6 06       		.uleb128 0x6
 3078 01b7 04       		.byte	0x4
 3079 01b8 03       		.byte	0x3
 3080 01b9 94       		.byte	0x94
 3081 01ba DB010000 		.4byte	0x1db
 3082 01be 07       		.uleb128 0x7
 3083 01bf 19060000 		.4byte	.LASF31
 3084 01c3 03       		.byte	0x3
 3085 01c4 96       		.byte	0x96
 3086 01c5 6F000000 		.4byte	0x6f
 3087 01c9 02       		.byte	0x2
ARM GAS  C:\Users\Robert\AppData\Local\Temp\ccdadQBo.s 			page 77


 3088 01ca 23       		.byte	0x23
 3089 01cb 00       		.uleb128 0
 3090 01cc 07       		.uleb128 0x7
 3091 01cd EC050000 		.4byte	.LASF32
 3092 01d1 03       		.byte	0x3
 3093 01d2 97       		.byte	0x97
 3094 01d3 7A000000 		.4byte	0x7a
 3095 01d7 02       		.byte	0x2
 3096 01d8 23       		.byte	0x23
 3097 01d9 02       		.uleb128 0x2
 3098 01da 00       		.byte	0
 3099 01db 04       		.uleb128 0x4
 3100 01dc 9E050000 		.4byte	.LASF33
 3101 01e0 03       		.byte	0x3
 3102 01e1 98       		.byte	0x98
 3103 01e2 B6010000 		.4byte	0x1b6
 3104 01e6 06       		.uleb128 0x6
 3105 01e7 0C       		.byte	0xc
 3106 01e8 03       		.byte	0x3
 3107 01e9 9A       		.byte	0x9a
 3108 01ea 19020000 		.4byte	0x219
 3109 01ee 07       		.uleb128 0x7
 3110 01ef 0D000000 		.4byte	.LASF34
 3111 01f3 03       		.byte	0x3
 3112 01f4 9C       		.byte	0x9c
 3113 01f5 7A000000 		.4byte	0x7a
 3114 01f9 02       		.byte	0x2
 3115 01fa 23       		.byte	0x23
 3116 01fb 00       		.uleb128 0
 3117 01fc 07       		.uleb128 0x7
 3118 01fd 16020000 		.4byte	.LASF35
 3119 0201 03       		.byte	0x3
 3120 0202 9D       		.byte	0x9d
 3121 0203 19020000 		.4byte	0x219
 3122 0207 02       		.byte	0x2
 3123 0208 23       		.byte	0x23
 3124 0209 04       		.uleb128 0x4
 3125 020a 07       		.uleb128 0x7
 3126 020b 00000000 		.4byte	.LASF36
 3127 020f 03       		.byte	0x3
 3128 0210 9E       		.byte	0x9e
 3129 0211 1F020000 		.4byte	0x21f
 3130 0215 02       		.byte	0x2
 3131 0216 23       		.byte	0x23
 3132 0217 08       		.uleb128 0x8
 3133 0218 00       		.byte	0
 3134 0219 08       		.uleb128 0x8
 3135 021a 04       		.byte	0x4
 3136 021b B0000000 		.4byte	0xb0
 3137 021f 08       		.uleb128 0x8
 3138 0220 04       		.byte	0x4
 3139 0221 DB010000 		.4byte	0x1db
 3140 0225 04       		.uleb128 0x4
 3141 0226 26060000 		.4byte	.LASF37
 3142 022a 03       		.byte	0x3
 3143 022b 9F       		.byte	0x9f
 3144 022c E6010000 		.4byte	0x1e6
ARM GAS  C:\Users\Robert\AppData\Local\Temp\ccdadQBo.s 			page 78


 3145 0230 06       		.uleb128 0x6
 3146 0231 08       		.byte	0x8
 3147 0232 03       		.byte	0x3
 3148 0233 A2       		.byte	0xa2
 3149 0234 53020000 		.4byte	0x253
 3150 0238 09       		.uleb128 0x9
 3151 0239 6300     		.ascii	"c\000"
 3152 023b 03       		.byte	0x3
 3153 023c A4       		.byte	0xa4
 3154 023d 6F000000 		.4byte	0x6f
 3155 0241 02       		.byte	0x2
 3156 0242 23       		.byte	0x23
 3157 0243 00       		.uleb128 0
 3158 0244 07       		.uleb128 0x7
 3159 0245 CB030000 		.4byte	.LASF38
 3160 0249 03       		.byte	0x3
 3161 024a A5       		.byte	0xa5
 3162 024b 53020000 		.4byte	0x253
 3163 024f 02       		.byte	0x2
 3164 0250 23       		.byte	0x23
 3165 0251 04       		.uleb128 0x4
 3166 0252 00       		.byte	0
 3167 0253 08       		.uleb128 0x8
 3168 0254 04       		.byte	0x4
 3169 0255 59020000 		.4byte	0x259
 3170 0259 0A       		.uleb128 0xa
 3171 025a 04       		.uleb128 0x4
 3172 025b 25010000 		.4byte	.LASF39
 3173 025f 03       		.byte	0x3
 3174 0260 A6       		.byte	0xa6
 3175 0261 30020000 		.4byte	0x230
 3176 0265 0B       		.uleb128 0xb
 3177 0266 01       		.byte	0x1
 3178 0267 61030000 		.4byte	.LASF59
 3179 026b 01       		.byte	0x1
 3180 026c 58       		.byte	0x58
 3181 026d 01       		.byte	0x1
 3182 026e 6F000000 		.4byte	0x6f
 3183 0272 00000000 		.4byte	.LFB0
 3184 0276 54060000 		.4byte	.LFE0
 3185 027a 00000000 		.4byte	.LLST0
 3186 027e 01       		.byte	0x1
 3187 027f F7020000 		.4byte	0x2f7
 3188 0283 0C       		.uleb128 0xc
 3189 0284 CC050000 		.4byte	.LASF40
 3190 0288 01       		.byte	0x1
 3191 0289 5A       		.byte	0x5a
 3192 028a 6F000000 		.4byte	0x6f
 3193 028e 02       		.byte	0x2
 3194 028f 91       		.byte	0x91
 3195 0290 77       		.sleb128 -9
 3196 0291 0C       		.uleb128 0xc
 3197 0292 7F000000 		.4byte	.LASF41
 3198 0296 01       		.byte	0x1
 3199 0297 5B       		.byte	0x5b
 3200 0298 6F000000 		.4byte	0x6f
 3201 029c 02       		.byte	0x2
ARM GAS  C:\Users\Robert\AppData\Local\Temp\ccdadQBo.s 			page 79


 3202 029d 91       		.byte	0x91
 3203 029e 65       		.sleb128 -27
 3204 029f 0C       		.uleb128 0xc
 3205 02a0 7B040000 		.4byte	.LASF42
 3206 02a4 01       		.byte	0x1
 3207 02a5 5C       		.byte	0x5c
 3208 02a6 6F000000 		.4byte	0x6f
 3209 02aa 02       		.byte	0x2
 3210 02ab 91       		.byte	0x91
 3211 02ac 66       		.sleb128 -26
 3212 02ad 0C       		.uleb128 0xc
 3213 02ae 8A040000 		.4byte	.LASF43
 3214 02b2 01       		.byte	0x1
 3215 02b3 5E       		.byte	0x5e
 3216 02b4 19020000 		.4byte	0x219
 3217 02b8 02       		.byte	0x2
 3218 02b9 91       		.byte	0x91
 3219 02ba 70       		.sleb128 -16
 3220 02bb 0C       		.uleb128 0xc
 3221 02bc F3050000 		.4byte	.LASF44
 3222 02c0 01       		.byte	0x1
 3223 02c1 60       		.byte	0x60
 3224 02c2 6F000000 		.4byte	0x6f
 3225 02c6 02       		.byte	0x2
 3226 02c7 91       		.byte	0x91
 3227 02c8 6F       		.sleb128 -17
 3228 02c9 0C       		.uleb128 0xc
 3229 02ca B1030000 		.4byte	.LASF45
 3230 02ce 01       		.byte	0x1
 3231 02cf 61       		.byte	0x61
 3232 02d0 6F000000 		.4byte	0x6f
 3233 02d4 02       		.byte	0x2
 3234 02d5 91       		.byte	0x91
 3235 02d6 67       		.sleb128 -25
 3236 02d7 0C       		.uleb128 0xc
 3237 02d8 1C020000 		.4byte	.LASF46
 3238 02dc 01       		.byte	0x1
 3239 02dd 64       		.byte	0x64
 3240 02de 07030000 		.4byte	0x307
 3241 02e2 05       		.byte	0x5
 3242 02e3 03       		.byte	0x3
 3243 02e4 00000000 		.4byte	USBUART_1_tBuffer.4988
 3244 02e8 0C       		.uleb128 0xc
 3245 02e9 C6030000 		.4byte	.LASF47
 3246 02ed 01       		.byte	0x1
 3247 02ee 65       		.byte	0x65
 3248 02ef 0C030000 		.4byte	0x30c
 3249 02f3 02       		.byte	0x2
 3250 02f4 91       		.byte	0x91
 3251 02f5 68       		.sleb128 -24
 3252 02f6 00       		.byte	0
 3253 02f7 0D       		.uleb128 0xd
 3254 02f8 6F000000 		.4byte	0x6f
 3255 02fc 07030000 		.4byte	0x307
 3256 0300 0E       		.uleb128 0xe
 3257 0301 B5000000 		.4byte	0xb5
 3258 0305 01       		.byte	0x1
ARM GAS  C:\Users\Robert\AppData\Local\Temp\ccdadQBo.s 			page 80


 3259 0306 00       		.byte	0
 3260 0307 05       		.uleb128 0x5
 3261 0308 F7020000 		.4byte	0x2f7
 3262 030c 08       		.uleb128 0x8
 3263 030d 04       		.byte	0x4
 3264 030e 12030000 		.4byte	0x312
 3265 0312 0F       		.uleb128 0xf
 3266 0313 5A020000 		.4byte	0x25a
 3267 0317 10       		.uleb128 0x10
 3268 0318 01       		.byte	0x1
 3269 0319 1A000000 		.4byte	.LASF49
 3270 031d 01       		.byte	0x1
 3271 031e 6701     		.2byte	0x167
 3272 0320 01       		.byte	0x1
 3273 0321 00000000 		.4byte	.LFB1
 3274 0325 A6000000 		.4byte	.LFE1
 3275 0329 38000000 		.4byte	.LLST1
 3276 032d 01       		.byte	0x1
 3277 032e 7A030000 		.4byte	0x37a
 3278 0332 11       		.uleb128 0x11
 3279 0333 F7040000 		.4byte	.LASF52
 3280 0337 01       		.byte	0x1
 3281 0338 6701     		.2byte	0x167
 3282 033a 7A030000 		.4byte	0x37a
 3283 033e 02       		.byte	0x2
 3284 033f 91       		.byte	0x91
 3285 0340 5C       		.sleb128 -36
 3286 0341 12       		.uleb128 0x12
 3287 0342 6900     		.ascii	"i\000"
 3288 0344 01       		.byte	0x1
 3289 0345 6901     		.2byte	0x169
 3290 0347 6F000000 		.4byte	0x6f
 3291 034b 02       		.byte	0x2
 3292 034c 91       		.byte	0x91
 3293 034d 77       		.sleb128 -9
 3294 034e 12       		.uleb128 0x12
 3295 034f 6A00     		.ascii	"j\000"
 3296 0351 01       		.byte	0x1
 3297 0352 6A01     		.2byte	0x16a
 3298 0354 6F000000 		.4byte	0x6f
 3299 0358 02       		.byte	0x2
 3300 0359 91       		.byte	0x91
 3301 035a 76       		.sleb128 -10
 3302 035b 13       		.uleb128 0x13
 3303 035c 55020000 		.4byte	.LASF48
 3304 0360 01       		.byte	0x1
 3305 0361 6B01     		.2byte	0x16b
 3306 0363 6F000000 		.4byte	0x6f
 3307 0367 02       		.byte	0x2
 3308 0368 91       		.byte	0x91
 3309 0369 75       		.sleb128 -11
 3310 036a 12       		.uleb128 0x12
 3311 036b 68657800 		.ascii	"hex\000"
 3312 036f 01       		.byte	0x1
 3313 0370 6C01     		.2byte	0x16c
 3314 0372 90030000 		.4byte	0x390
 3315 0376 02       		.byte	0x2
ARM GAS  C:\Users\Robert\AppData\Local\Temp\ccdadQBo.s 			page 81


 3316 0377 91       		.byte	0x91
 3317 0378 64       		.sleb128 -28
 3318 0379 00       		.byte	0
 3319 037a 08       		.uleb128 0x8
 3320 037b 04       		.byte	0x4
 3321 037c 6F000000 		.4byte	0x6f
 3322 0380 0D       		.uleb128 0xd
 3323 0381 93000000 		.4byte	0x93
 3324 0385 90030000 		.4byte	0x390
 3325 0389 0E       		.uleb128 0xe
 3326 038a B5000000 		.4byte	0xb5
 3327 038e 0F       		.byte	0xf
 3328 038f 00       		.byte	0
 3329 0390 0F       		.uleb128 0xf
 3330 0391 80030000 		.4byte	0x380
 3331 0395 10       		.uleb128 0x10
 3332 0396 01       		.byte	0x1
 3333 0397 E7010000 		.4byte	.LASF50
 3334 039b 01       		.byte	0x1
 3335 039c 9201     		.2byte	0x192
 3336 039e 01       		.byte	0x1
 3337 039f 00000000 		.4byte	.LFB2
 3338 03a3 02020000 		.4byte	.LFE2
 3339 03a7 70000000 		.4byte	.LLST2
 3340 03ab 01       		.byte	0x1
 3341 03ac CC030000 		.4byte	0x3cc
 3342 03b0 12       		.uleb128 0x12
 3343 03b1 657000   		.ascii	"ep\000"
 3344 03b4 01       		.byte	0x1
 3345 03b5 9401     		.2byte	0x194
 3346 03b7 6F000000 		.4byte	0x6f
 3347 03bb 02       		.byte	0x2
 3348 03bc 91       		.byte	0x91
 3349 03bd 77       		.sleb128 -9
 3350 03be 12       		.uleb128 0x12
 3351 03bf 6900     		.ascii	"i\000"
 3352 03c1 01       		.byte	0x1
 3353 03c2 9501     		.2byte	0x195
 3354 03c4 6F000000 		.4byte	0x6f
 3355 03c8 02       		.byte	0x2
 3356 03c9 91       		.byte	0x91
 3357 03ca 76       		.sleb128 -10
 3358 03cb 00       		.byte	0
 3359 03cc 14       		.uleb128 0x14
 3360 03cd 01       		.byte	0x1
 3361 03ce 35010000 		.4byte	.LASF51
 3362 03d2 01       		.byte	0x1
 3363 03d3 ED01     		.2byte	0x1ed
 3364 03d5 01       		.byte	0x1
 3365 03d6 00000000 		.4byte	.LFB3
 3366 03da 72040000 		.4byte	.LFE3
 3367 03de A8000000 		.4byte	.LLST3
 3368 03e2 01       		.byte	0x1
 3369 03e3 6C040000 		.4byte	0x46c
 3370 03e7 11       		.uleb128 0x11
 3371 03e8 FB000000 		.4byte	.LASF53
 3372 03ec 01       		.byte	0x1
ARM GAS  C:\Users\Robert\AppData\Local\Temp\ccdadQBo.s 			page 82


 3373 03ed ED01     		.2byte	0x1ed
 3374 03ef 6F000000 		.4byte	0x6f
 3375 03f3 02       		.byte	0x2
 3376 03f4 91       		.byte	0x91
 3377 03f5 5F       		.sleb128 -33
 3378 03f6 12       		.uleb128 0x12
 3379 03f7 657000   		.ascii	"ep\000"
 3380 03fa 01       		.byte	0x1
 3381 03fb EF01     		.2byte	0x1ef
 3382 03fd 6F000000 		.4byte	0x6f
 3383 0401 02       		.byte	0x2
 3384 0402 91       		.byte	0x91
 3385 0403 77       		.sleb128 -9
 3386 0404 13       		.uleb128 0x13
 3387 0405 F8050000 		.4byte	.LASF54
 3388 0409 01       		.byte	0x1
 3389 040a F001     		.2byte	0x1f0
 3390 040c 6F000000 		.4byte	0x6f
 3391 0410 02       		.byte	0x2
 3392 0411 91       		.byte	0x91
 3393 0412 76       		.sleb128 -10
 3394 0413 12       		.uleb128 0x12
 3395 0414 6900     		.ascii	"i\000"
 3396 0416 01       		.byte	0x1
 3397 0417 F101     		.2byte	0x1f1
 3398 0419 6F000000 		.4byte	0x6f
 3399 041d 02       		.byte	0x2
 3400 041e 91       		.byte	0x91
 3401 041f 75       		.sleb128 -11
 3402 0420 13       		.uleb128 0x13
 3403 0421 35020000 		.4byte	.LASF55
 3404 0425 01       		.byte	0x1
 3405 0426 F201     		.2byte	0x1f2
 3406 0428 6F000000 		.4byte	0x6f
 3407 042c 02       		.byte	0x2
 3408 042d 91       		.byte	0x91
 3409 042e 63       		.sleb128 -29
 3410 042f 13       		.uleb128 0x13
 3411 0430 0C030000 		.4byte	.LASF56
 3412 0434 01       		.byte	0x1
 3413 0435 F301     		.2byte	0x1f3
 3414 0437 6C040000 		.4byte	0x46c
 3415 043b 02       		.byte	0x2
 3416 043c 91       		.byte	0x91
 3417 043d 64       		.sleb128 -28
 3418 043e 13       		.uleb128 0x13
 3419 043f D2030000 		.4byte	.LASF57
 3420 0443 01       		.byte	0x1
 3421 0444 F501     		.2byte	0x1f5
 3422 0446 7A000000 		.4byte	0x7a
 3423 044a 02       		.byte	0x2
 3424 044b 91       		.byte	0x91
 3425 044c 72       		.sleb128 -14
 3426 044d 13       		.uleb128 0x13
 3427 044e C6030000 		.4byte	.LASF47
 3428 0452 01       		.byte	0x1
 3429 0453 F801     		.2byte	0x1f8
ARM GAS  C:\Users\Robert\AppData\Local\Temp\ccdadQBo.s 			page 83


 3430 0455 0C030000 		.4byte	0x30c
 3431 0459 02       		.byte	0x2
 3432 045a 91       		.byte	0x91
 3433 045b 68       		.sleb128 -24
 3434 045c 12       		.uleb128 0x12
 3435 045d 70455000 		.ascii	"pEP\000"
 3436 0461 01       		.byte	0x1
 3437 0462 F901     		.2byte	0x1f9
 3438 0464 77040000 		.4byte	0x477
 3439 0468 02       		.byte	0x2
 3440 0469 91       		.byte	0x91
 3441 046a 6C       		.sleb128 -20
 3442 046b 00       		.byte	0
 3443 046c 08       		.uleb128 0x8
 3444 046d 04       		.byte	0x4
 3445 046e 72040000 		.4byte	0x472
 3446 0472 0F       		.uleb128 0xf
 3447 0473 6F000000 		.4byte	0x6f
 3448 0477 08       		.uleb128 0x8
 3449 0478 04       		.byte	0x4
 3450 0479 7D040000 		.4byte	0x47d
 3451 047d 0F       		.uleb128 0xf
 3452 047e AB010000 		.4byte	0x1ab
 3453 0482 14       		.uleb128 0x14
 3454 0483 01       		.byte	0x1
 3455 0484 FB010000 		.4byte	.LASF58
 3456 0488 01       		.byte	0x1
 3457 0489 E502     		.2byte	0x2e5
 3458 048b 01       		.byte	0x1
 3459 048c 00000000 		.4byte	.LFB4
 3460 0490 52030000 		.4byte	.LFE4
 3461 0494 E0000000 		.4byte	.LLST4
 3462 0498 01       		.byte	0x1
 3463 0499 03050000 		.4byte	0x503
 3464 049d 12       		.uleb128 0x12
 3465 049e 657000   		.ascii	"ep\000"
 3466 04a1 01       		.byte	0x1
 3467 04a2 E702     		.2byte	0x2e7
 3468 04a4 6F000000 		.4byte	0x6f
 3469 04a8 02       		.byte	0x2
 3470 04a9 91       		.byte	0x91
 3471 04aa 6B       		.sleb128 -21
 3472 04ab 13       		.uleb128 0x13
 3473 04ac F8050000 		.4byte	.LASF54
 3474 04b0 01       		.byte	0x1
 3475 04b1 E802     		.2byte	0x2e8
 3476 04b3 6F000000 		.4byte	0x6f
 3477 04b7 02       		.byte	0x2
 3478 04b8 91       		.byte	0x91
 3479 04b9 6A       		.sleb128 -22
 3480 04ba 12       		.uleb128 0x12
 3481 04bb 6900     		.ascii	"i\000"
 3482 04bd 01       		.byte	0x1
 3483 04be E902     		.2byte	0x2e9
 3484 04c0 6F000000 		.4byte	0x6f
 3485 04c4 02       		.byte	0x2
 3486 04c5 91       		.byte	0x91
ARM GAS  C:\Users\Robert\AppData\Local\Temp\ccdadQBo.s 			page 84


 3487 04c6 77       		.sleb128 -9
 3488 04c7 13       		.uleb128 0x13
 3489 04c8 35020000 		.4byte	.LASF55
 3490 04cc 01       		.byte	0x1
 3491 04cd EA02     		.2byte	0x2ea
 3492 04cf 6F000000 		.4byte	0x6f
 3493 04d3 02       		.byte	0x2
 3494 04d4 91       		.byte	0x91
 3495 04d5 68       		.sleb128 -24
 3496 04d6 12       		.uleb128 0x12
 3497 04d7 726900   		.ascii	"ri\000"
 3498 04da 01       		.byte	0x1
 3499 04db EB02     		.2byte	0x2eb
 3500 04dd 6F000000 		.4byte	0x6f
 3501 04e1 02       		.byte	0x2
 3502 04e2 91       		.byte	0x91
 3503 04e3 69       		.sleb128 -23
 3504 04e4 13       		.uleb128 0x13
 3505 04e5 C6030000 		.4byte	.LASF47
 3506 04e9 01       		.byte	0x1
 3507 04ea ED02     		.2byte	0x2ed
 3508 04ec 0C030000 		.4byte	0x30c
 3509 04f0 02       		.byte	0x2
 3510 04f1 91       		.byte	0x91
 3511 04f2 6C       		.sleb128 -20
 3512 04f3 12       		.uleb128 0x12
 3513 04f4 70455000 		.ascii	"pEP\000"
 3514 04f8 01       		.byte	0x1
 3515 04f9 EE02     		.2byte	0x2ee
 3516 04fb 77040000 		.4byte	0x477
 3517 04ff 02       		.byte	0x2
 3518 0500 91       		.byte	0x91
 3519 0501 70       		.sleb128 -16
 3520 0502 00       		.byte	0
 3521 0503 15       		.uleb128 0x15
 3522 0504 01       		.byte	0x1
 3523 0505 DF000000 		.4byte	.LASF60
 3524 0509 01       		.byte	0x1
 3525 050a 6303     		.2byte	0x363
 3526 050c 01       		.byte	0x1
 3527 050d 0C030000 		.4byte	0x30c
 3528 0511 00000000 		.4byte	.LFB5
 3529 0515 5E000000 		.4byte	.LFE5
 3530 0519 18010000 		.4byte	.LLST5
 3531 051d 01       		.byte	0x1
 3532 051e 41050000 		.4byte	0x541
 3533 0522 11       		.uleb128 0x11
 3534 0523 3F000000 		.4byte	.LASF61
 3535 0527 01       		.byte	0x1
 3536 0528 6303     		.2byte	0x363
 3537 052a 6F000000 		.4byte	0x6f
 3538 052e 02       		.byte	0x2
 3539 052f 91       		.byte	0x91
 3540 0530 6F       		.sleb128 -17
 3541 0531 13       		.uleb128 0x13
 3542 0532 C6030000 		.4byte	.LASF47
 3543 0536 01       		.byte	0x1
ARM GAS  C:\Users\Robert\AppData\Local\Temp\ccdadQBo.s 			page 85


 3544 0537 6703     		.2byte	0x367
 3545 0539 0C030000 		.4byte	0x30c
 3546 053d 02       		.byte	0x2
 3547 053e 91       		.byte	0x91
 3548 053f 74       		.sleb128 -12
 3549 0540 00       		.byte	0
 3550 0541 16       		.uleb128 0x16
 3551 0542 01       		.byte	0x1
 3552 0543 3B030000 		.4byte	.LASF92
 3553 0547 01       		.byte	0x1
 3554 0548 8C03     		.2byte	0x38c
 3555 054a 01       		.byte	0x1
 3556 054b 0C030000 		.4byte	0x30c
 3557 054f 00000000 		.4byte	.LFB6
 3558 0553 28000000 		.4byte	.LFE6
 3559 0557 50010000 		.4byte	.LLST6
 3560 055b 01       		.byte	0x1
 3561 055c 17       		.uleb128 0x17
 3562 055d 01       		.byte	0x1
 3563 055e 24040000 		.4byte	.LASF62
 3564 0562 01       		.byte	0x1
 3565 0563 A303     		.2byte	0x3a3
 3566 0565 01       		.byte	0x1
 3567 0566 6C040000 		.4byte	0x46c
 3568 056a 00000000 		.4byte	.LFB7
 3569 056e 58000000 		.4byte	.LFE7
 3570 0572 7C010000 		.4byte	.LLST7
 3571 0576 01       		.byte	0x1
 3572 0577 A9050000 		.4byte	0x5a9
 3573 057b 13       		.uleb128 0x13
 3574 057c C6030000 		.4byte	.LASF47
 3575 0580 01       		.byte	0x1
 3576 0581 A603     		.2byte	0x3a6
 3577 0583 0C030000 		.4byte	0x30c
 3578 0587 02       		.byte	0x2
 3579 0588 91       		.byte	0x91
 3580 0589 70       		.sleb128 -16
 3581 058a 13       		.uleb128 0x13
 3582 058b 13030000 		.4byte	.LASF63
 3583 058f 01       		.byte	0x1
 3584 0590 A703     		.2byte	0x3a7
 3585 0592 6C040000 		.4byte	0x46c
 3586 0596 02       		.byte	0x2
 3587 0597 91       		.byte	0x91
 3588 0598 74       		.sleb128 -12
 3589 0599 13       		.uleb128 0x13
 3590 059a 48040000 		.4byte	.LASF64
 3591 059e 01       		.byte	0x1
 3592 059f A803     		.2byte	0x3a8
 3593 05a1 6F000000 		.4byte	0x6f
 3594 05a5 02       		.byte	0x2
 3595 05a6 91       		.byte	0x91
 3596 05a7 6F       		.sleb128 -17
 3597 05a8 00       		.byte	0
 3598 05a9 10       		.uleb128 0x10
 3599 05aa 01       		.byte	0x1
 3600 05ab 4F010000 		.4byte	.LASF65
ARM GAS  C:\Users\Robert\AppData\Local\Temp\ccdadQBo.s 			page 86


 3601 05af 01       		.byte	0x1
 3602 05b0 CE03     		.2byte	0x3ce
 3603 05b2 01       		.byte	0x1
 3604 05b3 00000000 		.4byte	.LFB8
 3605 05b7 FA000000 		.4byte	.LFE8
 3606 05bb B4010000 		.4byte	.LLST8
 3607 05bf 01       		.byte	0x1
 3608 05c0 E1050000 		.4byte	0x5e1
 3609 05c4 18       		.uleb128 0x18
 3610 05c5 657000   		.ascii	"ep\000"
 3611 05c8 01       		.byte	0x1
 3612 05c9 CE03     		.2byte	0x3ce
 3613 05cb 6F000000 		.4byte	0x6f
 3614 05cf 02       		.byte	0x2
 3615 05d0 91       		.byte	0x91
 3616 05d1 6F       		.sleb128 -17
 3617 05d2 12       		.uleb128 0x12
 3618 05d3 726900   		.ascii	"ri\000"
 3619 05d6 01       		.byte	0x1
 3620 05d7 D003     		.2byte	0x3d0
 3621 05d9 6F000000 		.4byte	0x6f
 3622 05dd 02       		.byte	0x2
 3623 05de 91       		.byte	0x91
 3624 05df 77       		.sleb128 -9
 3625 05e0 00       		.byte	0
 3626 05e1 17       		.uleb128 0x17
 3627 05e2 01       		.byte	0x1
 3628 05e3 35060000 		.4byte	.LASF66
 3629 05e7 01       		.byte	0x1
 3630 05e8 FD03     		.2byte	0x3fd
 3631 05ea 01       		.byte	0x1
 3632 05eb 6F000000 		.4byte	0x6f
 3633 05ef 00000000 		.4byte	.LFB9
 3634 05f3 30010000 		.4byte	.LFE9
 3635 05f7 EC010000 		.4byte	.LLST9
 3636 05fb 01       		.byte	0x1
 3637 05fc 2C060000 		.4byte	0x62c
 3638 0600 12       		.uleb128 0x12
 3639 0601 657000   		.ascii	"ep\000"
 3640 0604 01       		.byte	0x1
 3641 0605 FF03     		.2byte	0x3ff
 3642 0607 6F000000 		.4byte	0x6f
 3643 060b 02       		.byte	0x2
 3644 060c 91       		.byte	0x91
 3645 060d 76       		.sleb128 -10
 3646 060e 12       		.uleb128 0x12
 3647 060f 726900   		.ascii	"ri\000"
 3648 0612 01       		.byte	0x1
 3649 0613 0004     		.2byte	0x400
 3650 0615 6F000000 		.4byte	0x6f
 3651 0619 02       		.byte	0x2
 3652 061a 91       		.byte	0x91
 3653 061b 75       		.sleb128 -11
 3654 061c 13       		.uleb128 0x13
 3655 061d CC050000 		.4byte	.LASF40
 3656 0621 01       		.byte	0x1
 3657 0622 0104     		.2byte	0x401
ARM GAS  C:\Users\Robert\AppData\Local\Temp\ccdadQBo.s 			page 87


 3658 0624 6F000000 		.4byte	0x6f
 3659 0628 02       		.byte	0x2
 3660 0629 91       		.byte	0x91
 3661 062a 77       		.sleb128 -9
 3662 062b 00       		.byte	0
 3663 062c 17       		.uleb128 0x17
 3664 062d 01       		.byte	0x1
 3665 062e 49050000 		.4byte	.LASF67
 3666 0632 01       		.byte	0x1
 3667 0633 3404     		.2byte	0x434
 3668 0635 01       		.byte	0x1
 3669 0636 6F000000 		.4byte	0x6f
 3670 063a 00000000 		.4byte	.LFB10
 3671 063e C2010000 		.4byte	.LFE10
 3672 0642 24020000 		.4byte	.LLST10
 3673 0646 01       		.byte	0x1
 3674 0647 77060000 		.4byte	0x677
 3675 064b 12       		.uleb128 0x12
 3676 064c 657000   		.ascii	"ep\000"
 3677 064f 01       		.byte	0x1
 3678 0650 3604     		.2byte	0x436
 3679 0652 6F000000 		.4byte	0x6f
 3680 0656 02       		.byte	0x2
 3681 0657 91       		.byte	0x91
 3682 0658 76       		.sleb128 -10
 3683 0659 12       		.uleb128 0x12
 3684 065a 726900   		.ascii	"ri\000"
 3685 065d 01       		.byte	0x1
 3686 065e 3704     		.2byte	0x437
 3687 0660 6F000000 		.4byte	0x6f
 3688 0664 02       		.byte	0x2
 3689 0665 91       		.byte	0x91
 3690 0666 75       		.sleb128 -11
 3691 0667 13       		.uleb128 0x13
 3692 0668 CC050000 		.4byte	.LASF40
 3693 066c 01       		.byte	0x1
 3694 066d 3804     		.2byte	0x438
 3695 066f 6F000000 		.4byte	0x6f
 3696 0673 02       		.byte	0x2
 3697 0674 91       		.byte	0x91
 3698 0675 77       		.sleb128 -9
 3699 0676 00       		.byte	0
 3700 0677 17       		.uleb128 0x17
 3701 0678 01       		.byte	0x1
 3702 0679 70050000 		.4byte	.LASF68
 3703 067d 01       		.byte	0x1
 3704 067e 7B04     		.2byte	0x47b
 3705 0680 01       		.byte	0x1
 3706 0681 6F000000 		.4byte	0x6f
 3707 0685 00000000 		.4byte	.LFB11
 3708 0689 8E000000 		.4byte	.LFE11
 3709 068d 5C020000 		.4byte	.LLST11
 3710 0691 01       		.byte	0x1
 3711 0692 D3060000 		.4byte	0x6d3
 3712 0696 13       		.uleb128 0x13
 3713 0697 CC050000 		.4byte	.LASF40
 3714 069b 01       		.byte	0x1
ARM GAS  C:\Users\Robert\AppData\Local\Temp\ccdadQBo.s 			page 88


 3715 069c 7D04     		.2byte	0x47d
 3716 069e 6F000000 		.4byte	0x6f
 3717 06a2 02       		.byte	0x2
 3718 06a3 91       		.byte	0x91
 3719 06a4 77       		.sleb128 -9
 3720 06a5 13       		.uleb128 0x13
 3721 06a6 5D040000 		.4byte	.LASF69
 3722 06aa 01       		.byte	0x1
 3723 06ab 7E04     		.2byte	0x47e
 3724 06ad 6F000000 		.4byte	0x6f
 3725 06b1 02       		.byte	0x2
 3726 06b2 91       		.byte	0x91
 3727 06b3 76       		.sleb128 -10
 3728 06b4 13       		.uleb128 0x13
 3729 06b5 C6030000 		.4byte	.LASF47
 3730 06b9 01       		.byte	0x1
 3731 06ba 7F04     		.2byte	0x47f
 3732 06bc 0C030000 		.4byte	0x30c
 3733 06c0 02       		.byte	0x2
 3734 06c1 91       		.byte	0x91
 3735 06c2 70       		.sleb128 -16
 3736 06c3 13       		.uleb128 0x13
 3737 06c4 48040000 		.4byte	.LASF64
 3738 06c8 01       		.byte	0x1
 3739 06c9 8004     		.2byte	0x480
 3740 06cb 6F000000 		.4byte	0x6f
 3741 06cf 02       		.byte	0x2
 3742 06d0 91       		.byte	0x91
 3743 06d1 6F       		.sleb128 -17
 3744 06d2 00       		.byte	0
 3745 06d3 19       		.uleb128 0x19
 3746 06d4 2E000000 		.4byte	.LASF70
 3747 06d8 03       		.byte	0x3
 3748 06d9 4F02     		.2byte	0x24f
 3749 06db B0000000 		.4byte	0xb0
 3750 06df 01       		.byte	0x1
 3751 06e0 01       		.byte	0x1
 3752 06e1 19       		.uleb128 0x19
 3753 06e2 E3030000 		.4byte	.LASF71
 3754 06e6 03       		.byte	0x3
 3755 06e7 5102     		.2byte	0x251
 3756 06e9 B0000000 		.4byte	0xb0
 3757 06ed 01       		.byte	0x1
 3758 06ee 01       		.byte	0x1
 3759 06ef 19       		.uleb128 0x19
 3760 06f0 C1020000 		.4byte	.LASF72
 3761 06f4 03       		.byte	0x3
 3762 06f5 5202     		.2byte	0x252
 3763 06f7 B0000000 		.4byte	0xb0
 3764 06fb 01       		.byte	0x1
 3765 06fc 01       		.byte	0x1
 3766 06fd 19       		.uleb128 0x19
 3767 06fe 5B020000 		.4byte	.LASF73
 3768 0702 03       		.byte	0x3
 3769 0703 5302     		.2byte	0x253
 3770 0705 B0000000 		.4byte	0xb0
 3771 0709 01       		.byte	0x1
ARM GAS  C:\Users\Robert\AppData\Local\Temp\ccdadQBo.s 			page 89


 3772 070a 01       		.byte	0x1
 3773 070b 1A       		.uleb128 0x1a
 3774 070c E0020000 		.4byte	.LASF74
 3775 0710 04       		.byte	0x4
 3776 0711 59       		.byte	0x59
 3777 0712 B0000000 		.4byte	0xb0
 3778 0716 01       		.byte	0x1
 3779 0717 01       		.byte	0x1
 3780 0718 1A       		.uleb128 0x1a
 3781 0719 0B010000 		.4byte	.LASF75
 3782 071d 04       		.byte	0x4
 3783 071e 5A       		.byte	0x5a
 3784 071f B0000000 		.4byte	0xb0
 3785 0723 01       		.byte	0x1
 3786 0724 01       		.byte	0x1
 3787 0725 0D       		.uleb128 0xd
 3788 0726 6F000000 		.4byte	0x6f
 3789 072a 35070000 		.4byte	0x735
 3790 072e 0E       		.uleb128 0xe
 3791 072f B5000000 		.4byte	0xb5
 3792 0733 11       		.byte	0x11
 3793 0734 00       		.byte	0
 3794 0735 1A       		.uleb128 0x1a
 3795 0736 C7000000 		.4byte	.LASF76
 3796 073a 05       		.byte	0x5
 3797 073b 1C       		.byte	0x1c
 3798 073c 42070000 		.4byte	0x742
 3799 0740 01       		.byte	0x1
 3800 0741 01       		.byte	0x1
 3801 0742 0F       		.uleb128 0xf
 3802 0743 25070000 		.4byte	0x725
 3803 0747 0D       		.uleb128 0xd
 3804 0748 5A020000 		.4byte	0x25a
 3805 074c 57070000 		.4byte	0x757
 3806 0750 0E       		.uleb128 0xe
 3807 0751 B5000000 		.4byte	0xb5
 3808 0755 00       		.byte	0
 3809 0756 00       		.byte	0
 3810 0757 1A       		.uleb128 0x1a
 3811 0758 B1020000 		.4byte	.LASF77
 3812 075c 05       		.byte	0x5
 3813 075d 22       		.byte	0x22
 3814 075e 64070000 		.4byte	0x764
 3815 0762 01       		.byte	0x1
 3816 0763 01       		.byte	0x1
 3817 0764 0F       		.uleb128 0xf
 3818 0765 47070000 		.4byte	0x747
 3819 0769 0D       		.uleb128 0xd
 3820 076a 6F000000 		.4byte	0x6f
 3821 076e 79070000 		.4byte	0x779
 3822 0772 0E       		.uleb128 0xe
 3823 0773 B5000000 		.4byte	0xb5
 3824 0777 9E       		.byte	0x9e
 3825 0778 00       		.byte	0
 3826 0779 1A       		.uleb128 0x1a
 3827 077a 5C060000 		.4byte	.LASF78
 3828 077e 05       		.byte	0x5
ARM GAS  C:\Users\Robert\AppData\Local\Temp\ccdadQBo.s 			page 90


 3829 077f 24       		.byte	0x24
 3830 0780 86070000 		.4byte	0x786
 3831 0784 01       		.byte	0x1
 3832 0785 01       		.byte	0x1
 3833 0786 0F       		.uleb128 0xf
 3834 0787 69070000 		.4byte	0x769
 3835 078b 1A       		.uleb128 0x1a
 3836 078c 65000000 		.4byte	.LASF79
 3837 0790 05       		.byte	0x5
 3838 0791 28       		.byte	0x28
 3839 0792 98070000 		.4byte	0x798
 3840 0796 01       		.byte	0x1
 3841 0797 01       		.byte	0x1
 3842 0798 0F       		.uleb128 0xf
 3843 0799 25070000 		.4byte	0x725
 3844 079d 0D       		.uleb128 0xd
 3845 079e 6F000000 		.4byte	0x6f
 3846 07a2 AD070000 		.4byte	0x7ad
 3847 07a6 0E       		.uleb128 0xe
 3848 07a7 B5000000 		.4byte	0xb5
 3849 07ab 21       		.byte	0x21
 3850 07ac 00       		.byte	0
 3851 07ad 1A       		.uleb128 0x1a
 3852 07ae FB030000 		.4byte	.LASF80
 3853 07b2 05       		.byte	0x5
 3854 07b3 2B       		.byte	0x2b
 3855 07b4 9D070000 		.4byte	0x79d
 3856 07b8 01       		.byte	0x1
 3857 07b9 01       		.byte	0x1
 3858 07ba 1A       		.uleb128 0x1a
 3859 07bb FF050000 		.4byte	.LASF81
 3860 07bf 05       		.byte	0x5
 3861 07c0 2E       		.byte	0x2e
 3862 07c1 B0000000 		.4byte	0xb0
 3863 07c5 01       		.byte	0x1
 3864 07c6 01       		.byte	0x1
 3865 07c7 1A       		.uleb128 0x1a
 3866 07c8 0B050000 		.4byte	.LASF82
 3867 07cc 05       		.byte	0x5
 3868 07cd 2F       		.byte	0x2f
 3869 07ce D4070000 		.4byte	0x7d4
 3870 07d2 01       		.byte	0x1
 3871 07d3 01       		.byte	0x1
 3872 07d4 05       		.uleb128 0x5
 3873 07d5 F7020000 		.4byte	0x2f7
 3874 07d9 1A       		.uleb128 0x1a
 3875 07da 7F020000 		.4byte	.LASF83
 3876 07de 05       		.byte	0x5
 3877 07df 30       		.byte	0x30
 3878 07e0 E6070000 		.4byte	0x7e6
 3879 07e4 01       		.byte	0x1
 3880 07e5 01       		.byte	0x1
 3881 07e6 05       		.uleb128 0x5
 3882 07e7 F7020000 		.4byte	0x2f7
 3883 07eb 1A       		.uleb128 0x1a
 3884 07ec 23030000 		.4byte	.LASF84
 3885 07f0 05       		.byte	0x5
ARM GAS  C:\Users\Robert\AppData\Local\Temp\ccdadQBo.s 			page 91


 3886 07f1 31       		.byte	0x31
 3887 07f2 B0000000 		.4byte	0xb0
 3888 07f6 01       		.byte	0x1
 3889 07f7 01       		.byte	0x1
 3890 07f8 1A       		.uleb128 0x1a
 3891 07f9 DD040000 		.4byte	.LASF85
 3892 07fd 05       		.byte	0x5
 3893 07fe 32       		.byte	0x32
 3894 07ff 05080000 		.4byte	0x805
 3895 0803 01       		.byte	0x1
 3896 0804 01       		.byte	0x1
 3897 0805 05       		.uleb128 0x5
 3898 0806 F7020000 		.4byte	0x2f7
 3899 080a 1A       		.uleb128 0x1a
 3900 080b 26050000 		.4byte	.LASF86
 3901 080f 05       		.byte	0x5
 3902 0810 33       		.byte	0x33
 3903 0811 6C040000 		.4byte	0x46c
 3904 0815 01       		.byte	0x1
 3905 0816 01       		.byte	0x1
 3906 0817 0D       		.uleb128 0xd
 3907 0818 43010000 		.4byte	0x143
 3908 081c 27080000 		.4byte	0x827
 3909 0820 0E       		.uleb128 0xe
 3910 0821 B5000000 		.4byte	0xb5
 3911 0825 08       		.byte	0x8
 3912 0826 00       		.byte	0
 3913 0827 1A       		.uleb128 0x1a
 3914 0828 4F060000 		.4byte	.LASF87
 3915 082c 05       		.byte	0x5
 3916 082d 35       		.byte	0x35
 3917 082e 34080000 		.4byte	0x834
 3918 0832 01       		.byte	0x1
 3919 0833 01       		.byte	0x1
 3920 0834 05       		.uleb128 0x5
 3921 0835 17080000 		.4byte	0x817
 3922 0839 1A       		.uleb128 0x1a
 3923 083a 65010000 		.4byte	.LASF88
 3924 083e 05       		.byte	0x5
 3925 083f 36       		.byte	0x36
 3926 0840 46080000 		.4byte	0x846
 3927 0844 01       		.byte	0x1
 3928 0845 01       		.byte	0x1
 3929 0846 05       		.uleb128 0x5
 3930 0847 25020000 		.4byte	0x225
 3931 084b 00       		.byte	0
 3932              		.section	.debug_abbrev,"",%progbits
 3933              	.Ldebug_abbrev0:
 3934 0000 01       		.uleb128 0x1
 3935 0001 11       		.uleb128 0x11
 3936 0002 01       		.byte	0x1
 3937 0003 25       		.uleb128 0x25
 3938 0004 0E       		.uleb128 0xe
 3939 0005 13       		.uleb128 0x13
 3940 0006 0B       		.uleb128 0xb
 3941 0007 03       		.uleb128 0x3
 3942 0008 0E       		.uleb128 0xe
ARM GAS  C:\Users\Robert\AppData\Local\Temp\ccdadQBo.s 			page 92


 3943 0009 1B       		.uleb128 0x1b
 3944 000a 0E       		.uleb128 0xe
 3945 000b 55       		.uleb128 0x55
 3946 000c 06       		.uleb128 0x6
 3947 000d 11       		.uleb128 0x11
 3948 000e 01       		.uleb128 0x1
 3949 000f 52       		.uleb128 0x52
 3950 0010 01       		.uleb128 0x1
 3951 0011 10       		.uleb128 0x10
 3952 0012 06       		.uleb128 0x6
 3953 0013 00       		.byte	0
 3954 0014 00       		.byte	0
 3955 0015 02       		.uleb128 0x2
 3956 0016 24       		.uleb128 0x24
 3957 0017 00       		.byte	0
 3958 0018 0B       		.uleb128 0xb
 3959 0019 0B       		.uleb128 0xb
 3960 001a 3E       		.uleb128 0x3e
 3961 001b 0B       		.uleb128 0xb
 3962 001c 03       		.uleb128 0x3
 3963 001d 0E       		.uleb128 0xe
 3964 001e 00       		.byte	0
 3965 001f 00       		.byte	0
 3966 0020 03       		.uleb128 0x3
 3967 0021 24       		.uleb128 0x24
 3968 0022 00       		.byte	0
 3969 0023 0B       		.uleb128 0xb
 3970 0024 0B       		.uleb128 0xb
 3971 0025 3E       		.uleb128 0x3e
 3972 0026 0B       		.uleb128 0xb
 3973 0027 03       		.uleb128 0x3
 3974 0028 08       		.uleb128 0x8
 3975 0029 00       		.byte	0
 3976 002a 00       		.byte	0
 3977 002b 04       		.uleb128 0x4
 3978 002c 16       		.uleb128 0x16
 3979 002d 00       		.byte	0
 3980 002e 03       		.uleb128 0x3
 3981 002f 0E       		.uleb128 0xe
 3982 0030 3A       		.uleb128 0x3a
 3983 0031 0B       		.uleb128 0xb
 3984 0032 3B       		.uleb128 0x3b
 3985 0033 0B       		.uleb128 0xb
 3986 0034 49       		.uleb128 0x49
 3987 0035 13       		.uleb128 0x13
 3988 0036 00       		.byte	0
 3989 0037 00       		.byte	0
 3990 0038 05       		.uleb128 0x5
 3991 0039 35       		.uleb128 0x35
 3992 003a 00       		.byte	0
 3993 003b 49       		.uleb128 0x49
 3994 003c 13       		.uleb128 0x13
 3995 003d 00       		.byte	0
 3996 003e 00       		.byte	0
 3997 003f 06       		.uleb128 0x6
 3998 0040 13       		.uleb128 0x13
 3999 0041 01       		.byte	0x1
ARM GAS  C:\Users\Robert\AppData\Local\Temp\ccdadQBo.s 			page 93


 4000 0042 0B       		.uleb128 0xb
 4001 0043 0B       		.uleb128 0xb
 4002 0044 3A       		.uleb128 0x3a
 4003 0045 0B       		.uleb128 0xb
 4004 0046 3B       		.uleb128 0x3b
 4005 0047 0B       		.uleb128 0xb
 4006 0048 01       		.uleb128 0x1
 4007 0049 13       		.uleb128 0x13
 4008 004a 00       		.byte	0
 4009 004b 00       		.byte	0
 4010 004c 07       		.uleb128 0x7
 4011 004d 0D       		.uleb128 0xd
 4012 004e 00       		.byte	0
 4013 004f 03       		.uleb128 0x3
 4014 0050 0E       		.uleb128 0xe
 4015 0051 3A       		.uleb128 0x3a
 4016 0052 0B       		.uleb128 0xb
 4017 0053 3B       		.uleb128 0x3b
 4018 0054 0B       		.uleb128 0xb
 4019 0055 49       		.uleb128 0x49
 4020 0056 13       		.uleb128 0x13
 4021 0057 38       		.uleb128 0x38
 4022 0058 0A       		.uleb128 0xa
 4023 0059 00       		.byte	0
 4024 005a 00       		.byte	0
 4025 005b 08       		.uleb128 0x8
 4026 005c 0F       		.uleb128 0xf
 4027 005d 00       		.byte	0
 4028 005e 0B       		.uleb128 0xb
 4029 005f 0B       		.uleb128 0xb
 4030 0060 49       		.uleb128 0x49
 4031 0061 13       		.uleb128 0x13
 4032 0062 00       		.byte	0
 4033 0063 00       		.byte	0
 4034 0064 09       		.uleb128 0x9
 4035 0065 0D       		.uleb128 0xd
 4036 0066 00       		.byte	0
 4037 0067 03       		.uleb128 0x3
 4038 0068 08       		.uleb128 0x8
 4039 0069 3A       		.uleb128 0x3a
 4040 006a 0B       		.uleb128 0xb
 4041 006b 3B       		.uleb128 0x3b
 4042 006c 0B       		.uleb128 0xb
 4043 006d 49       		.uleb128 0x49
 4044 006e 13       		.uleb128 0x13
 4045 006f 38       		.uleb128 0x38
 4046 0070 0A       		.uleb128 0xa
 4047 0071 00       		.byte	0
 4048 0072 00       		.byte	0
 4049 0073 0A       		.uleb128 0xa
 4050 0074 26       		.uleb128 0x26
 4051 0075 00       		.byte	0
 4052 0076 00       		.byte	0
 4053 0077 00       		.byte	0
 4054 0078 0B       		.uleb128 0xb
 4055 0079 2E       		.uleb128 0x2e
 4056 007a 01       		.byte	0x1
ARM GAS  C:\Users\Robert\AppData\Local\Temp\ccdadQBo.s 			page 94


 4057 007b 3F       		.uleb128 0x3f
 4058 007c 0C       		.uleb128 0xc
 4059 007d 03       		.uleb128 0x3
 4060 007e 0E       		.uleb128 0xe
 4061 007f 3A       		.uleb128 0x3a
 4062 0080 0B       		.uleb128 0xb
 4063 0081 3B       		.uleb128 0x3b
 4064 0082 0B       		.uleb128 0xb
 4065 0083 27       		.uleb128 0x27
 4066 0084 0C       		.uleb128 0xc
 4067 0085 49       		.uleb128 0x49
 4068 0086 13       		.uleb128 0x13
 4069 0087 11       		.uleb128 0x11
 4070 0088 01       		.uleb128 0x1
 4071 0089 12       		.uleb128 0x12
 4072 008a 01       		.uleb128 0x1
 4073 008b 40       		.uleb128 0x40
 4074 008c 06       		.uleb128 0x6
 4075 008d 9642     		.uleb128 0x2116
 4076 008f 0C       		.uleb128 0xc
 4077 0090 01       		.uleb128 0x1
 4078 0091 13       		.uleb128 0x13
 4079 0092 00       		.byte	0
 4080 0093 00       		.byte	0
 4081 0094 0C       		.uleb128 0xc
 4082 0095 34       		.uleb128 0x34
 4083 0096 00       		.byte	0
 4084 0097 03       		.uleb128 0x3
 4085 0098 0E       		.uleb128 0xe
 4086 0099 3A       		.uleb128 0x3a
 4087 009a 0B       		.uleb128 0xb
 4088 009b 3B       		.uleb128 0x3b
 4089 009c 0B       		.uleb128 0xb
 4090 009d 49       		.uleb128 0x49
 4091 009e 13       		.uleb128 0x13
 4092 009f 02       		.uleb128 0x2
 4093 00a0 0A       		.uleb128 0xa
 4094 00a1 00       		.byte	0
 4095 00a2 00       		.byte	0
 4096 00a3 0D       		.uleb128 0xd
 4097 00a4 01       		.uleb128 0x1
 4098 00a5 01       		.byte	0x1
 4099 00a6 49       		.uleb128 0x49
 4100 00a7 13       		.uleb128 0x13
 4101 00a8 01       		.uleb128 0x1
 4102 00a9 13       		.uleb128 0x13
 4103 00aa 00       		.byte	0
 4104 00ab 00       		.byte	0
 4105 00ac 0E       		.uleb128 0xe
 4106 00ad 21       		.uleb128 0x21
 4107 00ae 00       		.byte	0
 4108 00af 49       		.uleb128 0x49
 4109 00b0 13       		.uleb128 0x13
 4110 00b1 2F       		.uleb128 0x2f
 4111 00b2 0B       		.uleb128 0xb
 4112 00b3 00       		.byte	0
 4113 00b4 00       		.byte	0
ARM GAS  C:\Users\Robert\AppData\Local\Temp\ccdadQBo.s 			page 95


 4114 00b5 0F       		.uleb128 0xf
 4115 00b6 26       		.uleb128 0x26
 4116 00b7 00       		.byte	0
 4117 00b8 49       		.uleb128 0x49
 4118 00b9 13       		.uleb128 0x13
 4119 00ba 00       		.byte	0
 4120 00bb 00       		.byte	0
 4121 00bc 10       		.uleb128 0x10
 4122 00bd 2E       		.uleb128 0x2e
 4123 00be 01       		.byte	0x1
 4124 00bf 3F       		.uleb128 0x3f
 4125 00c0 0C       		.uleb128 0xc
 4126 00c1 03       		.uleb128 0x3
 4127 00c2 0E       		.uleb128 0xe
 4128 00c3 3A       		.uleb128 0x3a
 4129 00c4 0B       		.uleb128 0xb
 4130 00c5 3B       		.uleb128 0x3b
 4131 00c6 05       		.uleb128 0x5
 4132 00c7 27       		.uleb128 0x27
 4133 00c8 0C       		.uleb128 0xc
 4134 00c9 11       		.uleb128 0x11
 4135 00ca 01       		.uleb128 0x1
 4136 00cb 12       		.uleb128 0x12
 4137 00cc 01       		.uleb128 0x1
 4138 00cd 40       		.uleb128 0x40
 4139 00ce 06       		.uleb128 0x6
 4140 00cf 9742     		.uleb128 0x2117
 4141 00d1 0C       		.uleb128 0xc
 4142 00d2 01       		.uleb128 0x1
 4143 00d3 13       		.uleb128 0x13
 4144 00d4 00       		.byte	0
 4145 00d5 00       		.byte	0
 4146 00d6 11       		.uleb128 0x11
 4147 00d7 05       		.uleb128 0x5
 4148 00d8 00       		.byte	0
 4149 00d9 03       		.uleb128 0x3
 4150 00da 0E       		.uleb128 0xe
 4151 00db 3A       		.uleb128 0x3a
 4152 00dc 0B       		.uleb128 0xb
 4153 00dd 3B       		.uleb128 0x3b
 4154 00de 05       		.uleb128 0x5
 4155 00df 49       		.uleb128 0x49
 4156 00e0 13       		.uleb128 0x13
 4157 00e1 02       		.uleb128 0x2
 4158 00e2 0A       		.uleb128 0xa
 4159 00e3 00       		.byte	0
 4160 00e4 00       		.byte	0
 4161 00e5 12       		.uleb128 0x12
 4162 00e6 34       		.uleb128 0x34
 4163 00e7 00       		.byte	0
 4164 00e8 03       		.uleb128 0x3
 4165 00e9 08       		.uleb128 0x8
 4166 00ea 3A       		.uleb128 0x3a
 4167 00eb 0B       		.uleb128 0xb
 4168 00ec 3B       		.uleb128 0x3b
 4169 00ed 05       		.uleb128 0x5
 4170 00ee 49       		.uleb128 0x49
ARM GAS  C:\Users\Robert\AppData\Local\Temp\ccdadQBo.s 			page 96


 4171 00ef 13       		.uleb128 0x13
 4172 00f0 02       		.uleb128 0x2
 4173 00f1 0A       		.uleb128 0xa
 4174 00f2 00       		.byte	0
 4175 00f3 00       		.byte	0
 4176 00f4 13       		.uleb128 0x13
 4177 00f5 34       		.uleb128 0x34
 4178 00f6 00       		.byte	0
 4179 00f7 03       		.uleb128 0x3
 4180 00f8 0E       		.uleb128 0xe
 4181 00f9 3A       		.uleb128 0x3a
 4182 00fa 0B       		.uleb128 0xb
 4183 00fb 3B       		.uleb128 0x3b
 4184 00fc 05       		.uleb128 0x5
 4185 00fd 49       		.uleb128 0x49
 4186 00fe 13       		.uleb128 0x13
 4187 00ff 02       		.uleb128 0x2
 4188 0100 0A       		.uleb128 0xa
 4189 0101 00       		.byte	0
 4190 0102 00       		.byte	0
 4191 0103 14       		.uleb128 0x14
 4192 0104 2E       		.uleb128 0x2e
 4193 0105 01       		.byte	0x1
 4194 0106 3F       		.uleb128 0x3f
 4195 0107 0C       		.uleb128 0xc
 4196 0108 03       		.uleb128 0x3
 4197 0109 0E       		.uleb128 0xe
 4198 010a 3A       		.uleb128 0x3a
 4199 010b 0B       		.uleb128 0xb
 4200 010c 3B       		.uleb128 0x3b
 4201 010d 05       		.uleb128 0x5
 4202 010e 27       		.uleb128 0x27
 4203 010f 0C       		.uleb128 0xc
 4204 0110 11       		.uleb128 0x11
 4205 0111 01       		.uleb128 0x1
 4206 0112 12       		.uleb128 0x12
 4207 0113 01       		.uleb128 0x1
 4208 0114 40       		.uleb128 0x40
 4209 0115 06       		.uleb128 0x6
 4210 0116 9642     		.uleb128 0x2116
 4211 0118 0C       		.uleb128 0xc
 4212 0119 01       		.uleb128 0x1
 4213 011a 13       		.uleb128 0x13
 4214 011b 00       		.byte	0
 4215 011c 00       		.byte	0
 4216 011d 15       		.uleb128 0x15
 4217 011e 2E       		.uleb128 0x2e
 4218 011f 01       		.byte	0x1
 4219 0120 3F       		.uleb128 0x3f
 4220 0121 0C       		.uleb128 0xc
 4221 0122 03       		.uleb128 0x3
 4222 0123 0E       		.uleb128 0xe
 4223 0124 3A       		.uleb128 0x3a
 4224 0125 0B       		.uleb128 0xb
 4225 0126 3B       		.uleb128 0x3b
 4226 0127 05       		.uleb128 0x5
 4227 0128 27       		.uleb128 0x27
ARM GAS  C:\Users\Robert\AppData\Local\Temp\ccdadQBo.s 			page 97


 4228 0129 0C       		.uleb128 0xc
 4229 012a 49       		.uleb128 0x49
 4230 012b 13       		.uleb128 0x13
 4231 012c 11       		.uleb128 0x11
 4232 012d 01       		.uleb128 0x1
 4233 012e 12       		.uleb128 0x12
 4234 012f 01       		.uleb128 0x1
 4235 0130 40       		.uleb128 0x40
 4236 0131 06       		.uleb128 0x6
 4237 0132 9742     		.uleb128 0x2117
 4238 0134 0C       		.uleb128 0xc
 4239 0135 01       		.uleb128 0x1
 4240 0136 13       		.uleb128 0x13
 4241 0137 00       		.byte	0
 4242 0138 00       		.byte	0
 4243 0139 16       		.uleb128 0x16
 4244 013a 2E       		.uleb128 0x2e
 4245 013b 00       		.byte	0
 4246 013c 3F       		.uleb128 0x3f
 4247 013d 0C       		.uleb128 0xc
 4248 013e 03       		.uleb128 0x3
 4249 013f 0E       		.uleb128 0xe
 4250 0140 3A       		.uleb128 0x3a
 4251 0141 0B       		.uleb128 0xb
 4252 0142 3B       		.uleb128 0x3b
 4253 0143 05       		.uleb128 0x5
 4254 0144 27       		.uleb128 0x27
 4255 0145 0C       		.uleb128 0xc
 4256 0146 49       		.uleb128 0x49
 4257 0147 13       		.uleb128 0x13
 4258 0148 11       		.uleb128 0x11
 4259 0149 01       		.uleb128 0x1
 4260 014a 12       		.uleb128 0x12
 4261 014b 01       		.uleb128 0x1
 4262 014c 40       		.uleb128 0x40
 4263 014d 06       		.uleb128 0x6
 4264 014e 9742     		.uleb128 0x2117
 4265 0150 0C       		.uleb128 0xc
 4266 0151 00       		.byte	0
 4267 0152 00       		.byte	0
 4268 0153 17       		.uleb128 0x17
 4269 0154 2E       		.uleb128 0x2e
 4270 0155 01       		.byte	0x1
 4271 0156 3F       		.uleb128 0x3f
 4272 0157 0C       		.uleb128 0xc
 4273 0158 03       		.uleb128 0x3
 4274 0159 0E       		.uleb128 0xe
 4275 015a 3A       		.uleb128 0x3a
 4276 015b 0B       		.uleb128 0xb
 4277 015c 3B       		.uleb128 0x3b
 4278 015d 05       		.uleb128 0x5
 4279 015e 27       		.uleb128 0x27
 4280 015f 0C       		.uleb128 0xc
 4281 0160 49       		.uleb128 0x49
 4282 0161 13       		.uleb128 0x13
 4283 0162 11       		.uleb128 0x11
 4284 0163 01       		.uleb128 0x1
ARM GAS  C:\Users\Robert\AppData\Local\Temp\ccdadQBo.s 			page 98


 4285 0164 12       		.uleb128 0x12
 4286 0165 01       		.uleb128 0x1
 4287 0166 40       		.uleb128 0x40
 4288 0167 06       		.uleb128 0x6
 4289 0168 9642     		.uleb128 0x2116
 4290 016a 0C       		.uleb128 0xc
 4291 016b 01       		.uleb128 0x1
 4292 016c 13       		.uleb128 0x13
 4293 016d 00       		.byte	0
 4294 016e 00       		.byte	0
 4295 016f 18       		.uleb128 0x18
 4296 0170 05       		.uleb128 0x5
 4297 0171 00       		.byte	0
 4298 0172 03       		.uleb128 0x3
 4299 0173 08       		.uleb128 0x8
 4300 0174 3A       		.uleb128 0x3a
 4301 0175 0B       		.uleb128 0xb
 4302 0176 3B       		.uleb128 0x3b
 4303 0177 05       		.uleb128 0x5
 4304 0178 49       		.uleb128 0x49
 4305 0179 13       		.uleb128 0x13
 4306 017a 02       		.uleb128 0x2
 4307 017b 0A       		.uleb128 0xa
 4308 017c 00       		.byte	0
 4309 017d 00       		.byte	0
 4310 017e 19       		.uleb128 0x19
 4311 017f 34       		.uleb128 0x34
 4312 0180 00       		.byte	0
 4313 0181 03       		.uleb128 0x3
 4314 0182 0E       		.uleb128 0xe
 4315 0183 3A       		.uleb128 0x3a
 4316 0184 0B       		.uleb128 0xb
 4317 0185 3B       		.uleb128 0x3b
 4318 0186 05       		.uleb128 0x5
 4319 0187 49       		.uleb128 0x49
 4320 0188 13       		.uleb128 0x13
 4321 0189 3F       		.uleb128 0x3f
 4322 018a 0C       		.uleb128 0xc
 4323 018b 3C       		.uleb128 0x3c
 4324 018c 0C       		.uleb128 0xc
 4325 018d 00       		.byte	0
 4326 018e 00       		.byte	0
 4327 018f 1A       		.uleb128 0x1a
 4328 0190 34       		.uleb128 0x34
 4329 0191 00       		.byte	0
 4330 0192 03       		.uleb128 0x3
 4331 0193 0E       		.uleb128 0xe
 4332 0194 3A       		.uleb128 0x3a
 4333 0195 0B       		.uleb128 0xb
 4334 0196 3B       		.uleb128 0x3b
 4335 0197 0B       		.uleb128 0xb
 4336 0198 49       		.uleb128 0x49
 4337 0199 13       		.uleb128 0x13
 4338 019a 3F       		.uleb128 0x3f
 4339 019b 0C       		.uleb128 0xc
 4340 019c 3C       		.uleb128 0x3c
 4341 019d 0C       		.uleb128 0xc
ARM GAS  C:\Users\Robert\AppData\Local\Temp\ccdadQBo.s 			page 99


 4342 019e 00       		.byte	0
 4343 019f 00       		.byte	0
 4344 01a0 00       		.byte	0
 4345              		.section	.debug_loc,"",%progbits
 4346              	.Ldebug_loc0:
 4347              	.LLST0:
 4348 0000 00000000 		.4byte	.LFB0
 4349 0004 02000000 		.4byte	.LCFI0
 4350 0008 0200     		.2byte	0x2
 4351 000a 7D       		.byte	0x7d
 4352 000b 00       		.sleb128 0
 4353 000c 02000000 		.4byte	.LCFI0
 4354 0010 04000000 		.4byte	.LCFI1
 4355 0014 0200     		.2byte	0x2
 4356 0016 7D       		.byte	0x7d
 4357 0017 08       		.sleb128 8
 4358 0018 04000000 		.4byte	.LCFI1
 4359 001c 06000000 		.4byte	.LCFI2
 4360 0020 0200     		.2byte	0x2
 4361 0022 7D       		.byte	0x7d
 4362 0023 20       		.sleb128 32
 4363 0024 06000000 		.4byte	.LCFI2
 4364 0028 54060000 		.4byte	.LFE0
 4365 002c 0200     		.2byte	0x2
 4366 002e 77       		.byte	0x77
 4367 002f 20       		.sleb128 32
 4368 0030 00000000 		.4byte	0
 4369 0034 00000000 		.4byte	0
 4370              	.LLST1:
 4371 0038 00000000 		.4byte	.LFB1
 4372 003c 02000000 		.4byte	.LCFI3
 4373 0040 0200     		.2byte	0x2
 4374 0042 7D       		.byte	0x7d
 4375 0043 00       		.sleb128 0
 4376 0044 02000000 		.4byte	.LCFI3
 4377 0048 04000000 		.4byte	.LCFI4
 4378 004c 0200     		.2byte	0x2
 4379 004e 7D       		.byte	0x7d
 4380 004f 08       		.sleb128 8
 4381 0050 04000000 		.4byte	.LCFI4
 4382 0054 06000000 		.4byte	.LCFI5
 4383 0058 0200     		.2byte	0x2
 4384 005a 7D       		.byte	0x7d
 4385 005b 28       		.sleb128 40
 4386 005c 06000000 		.4byte	.LCFI5
 4387 0060 A6000000 		.4byte	.LFE1
 4388 0064 0200     		.2byte	0x2
 4389 0066 77       		.byte	0x77
 4390 0067 28       		.sleb128 40
 4391 0068 00000000 		.4byte	0
 4392 006c 00000000 		.4byte	0
 4393              	.LLST2:
 4394 0070 00000000 		.4byte	.LFB2
 4395 0074 02000000 		.4byte	.LCFI6
 4396 0078 0200     		.2byte	0x2
 4397 007a 7D       		.byte	0x7d
 4398 007b 00       		.sleb128 0
ARM GAS  C:\Users\Robert\AppData\Local\Temp\ccdadQBo.s 			page 100


 4399 007c 02000000 		.4byte	.LCFI6
 4400 0080 04000000 		.4byte	.LCFI7
 4401 0084 0200     		.2byte	0x2
 4402 0086 7D       		.byte	0x7d
 4403 0087 04       		.sleb128 4
 4404 0088 04000000 		.4byte	.LCFI7
 4405 008c 06000000 		.4byte	.LCFI8
 4406 0090 0200     		.2byte	0x2
 4407 0092 7D       		.byte	0x7d
 4408 0093 10       		.sleb128 16
 4409 0094 06000000 		.4byte	.LCFI8
 4410 0098 02020000 		.4byte	.LFE2
 4411 009c 0200     		.2byte	0x2
 4412 009e 77       		.byte	0x77
 4413 009f 10       		.sleb128 16
 4414 00a0 00000000 		.4byte	0
 4415 00a4 00000000 		.4byte	0
 4416              	.LLST3:
 4417 00a8 00000000 		.4byte	.LFB3
 4418 00ac 02000000 		.4byte	.LCFI9
 4419 00b0 0200     		.2byte	0x2
 4420 00b2 7D       		.byte	0x7d
 4421 00b3 00       		.sleb128 0
 4422 00b4 02000000 		.4byte	.LCFI9
 4423 00b8 04000000 		.4byte	.LCFI10
 4424 00bc 0200     		.2byte	0x2
 4425 00be 7D       		.byte	0x7d
 4426 00bf 08       		.sleb128 8
 4427 00c0 04000000 		.4byte	.LCFI10
 4428 00c4 06000000 		.4byte	.LCFI11
 4429 00c8 0200     		.2byte	0x2
 4430 00ca 7D       		.byte	0x7d
 4431 00cb 28       		.sleb128 40
 4432 00cc 06000000 		.4byte	.LCFI11
 4433 00d0 72040000 		.4byte	.LFE3
 4434 00d4 0200     		.2byte	0x2
 4435 00d6 77       		.byte	0x77
 4436 00d7 28       		.sleb128 40
 4437 00d8 00000000 		.4byte	0
 4438 00dc 00000000 		.4byte	0
 4439              	.LLST4:
 4440 00e0 00000000 		.4byte	.LFB4
 4441 00e4 02000000 		.4byte	.LCFI12
 4442 00e8 0200     		.2byte	0x2
 4443 00ea 7D       		.byte	0x7d
 4444 00eb 00       		.sleb128 0
 4445 00ec 02000000 		.4byte	.LCFI12
 4446 00f0 04000000 		.4byte	.LCFI13
 4447 00f4 0200     		.2byte	0x2
 4448 00f6 7D       		.byte	0x7d
 4449 00f7 08       		.sleb128 8
 4450 00f8 04000000 		.4byte	.LCFI13
 4451 00fc 06000000 		.4byte	.LCFI14
 4452 0100 0200     		.2byte	0x2
 4453 0102 7D       		.byte	0x7d
 4454 0103 18       		.sleb128 24
 4455 0104 06000000 		.4byte	.LCFI14
ARM GAS  C:\Users\Robert\AppData\Local\Temp\ccdadQBo.s 			page 101


 4456 0108 52030000 		.4byte	.LFE4
 4457 010c 0200     		.2byte	0x2
 4458 010e 77       		.byte	0x77
 4459 010f 18       		.sleb128 24
 4460 0110 00000000 		.4byte	0
 4461 0114 00000000 		.4byte	0
 4462              	.LLST5:
 4463 0118 00000000 		.4byte	.LFB5
 4464 011c 02000000 		.4byte	.LCFI15
 4465 0120 0200     		.2byte	0x2
 4466 0122 7D       		.byte	0x7d
 4467 0123 00       		.sleb128 0
 4468 0124 02000000 		.4byte	.LCFI15
 4469 0128 04000000 		.4byte	.LCFI16
 4470 012c 0200     		.2byte	0x2
 4471 012e 7D       		.byte	0x7d
 4472 012f 04       		.sleb128 4
 4473 0130 04000000 		.4byte	.LCFI16
 4474 0134 06000000 		.4byte	.LCFI17
 4475 0138 0200     		.2byte	0x2
 4476 013a 7D       		.byte	0x7d
 4477 013b 18       		.sleb128 24
 4478 013c 06000000 		.4byte	.LCFI17
 4479 0140 5E000000 		.4byte	.LFE5
 4480 0144 0200     		.2byte	0x2
 4481 0146 77       		.byte	0x77
 4482 0147 18       		.sleb128 24
 4483 0148 00000000 		.4byte	0
 4484 014c 00000000 		.4byte	0
 4485              	.LLST6:
 4486 0150 00000000 		.4byte	.LFB6
 4487 0154 02000000 		.4byte	.LCFI18
 4488 0158 0200     		.2byte	0x2
 4489 015a 7D       		.byte	0x7d
 4490 015b 00       		.sleb128 0
 4491 015c 02000000 		.4byte	.LCFI18
 4492 0160 04000000 		.4byte	.LCFI19
 4493 0164 0200     		.2byte	0x2
 4494 0166 7D       		.byte	0x7d
 4495 0167 04       		.sleb128 4
 4496 0168 04000000 		.4byte	.LCFI19
 4497 016c 28000000 		.4byte	.LFE6
 4498 0170 0200     		.2byte	0x2
 4499 0172 77       		.byte	0x77
 4500 0173 04       		.sleb128 4
 4501 0174 00000000 		.4byte	0
 4502 0178 00000000 		.4byte	0
 4503              	.LLST7:
 4504 017c 00000000 		.4byte	.LFB7
 4505 0180 02000000 		.4byte	.LCFI20
 4506 0184 0200     		.2byte	0x2
 4507 0186 7D       		.byte	0x7d
 4508 0187 00       		.sleb128 0
 4509 0188 02000000 		.4byte	.LCFI20
 4510 018c 04000000 		.4byte	.LCFI21
 4511 0190 0200     		.2byte	0x2
 4512 0192 7D       		.byte	0x7d
ARM GAS  C:\Users\Robert\AppData\Local\Temp\ccdadQBo.s 			page 102


 4513 0193 08       		.sleb128 8
 4514 0194 04000000 		.4byte	.LCFI21
 4515 0198 06000000 		.4byte	.LCFI22
 4516 019c 0200     		.2byte	0x2
 4517 019e 7D       		.byte	0x7d
 4518 019f 18       		.sleb128 24
 4519 01a0 06000000 		.4byte	.LCFI22
 4520 01a4 58000000 		.4byte	.LFE7
 4521 01a8 0200     		.2byte	0x2
 4522 01aa 77       		.byte	0x77
 4523 01ab 18       		.sleb128 24
 4524 01ac 00000000 		.4byte	0
 4525 01b0 00000000 		.4byte	0
 4526              	.LLST8:
 4527 01b4 00000000 		.4byte	.LFB8
 4528 01b8 02000000 		.4byte	.LCFI23
 4529 01bc 0200     		.2byte	0x2
 4530 01be 7D       		.byte	0x7d
 4531 01bf 00       		.sleb128 0
 4532 01c0 02000000 		.4byte	.LCFI23
 4533 01c4 04000000 		.4byte	.LCFI24
 4534 01c8 0200     		.2byte	0x2
 4535 01ca 7D       		.byte	0x7d
 4536 01cb 04       		.sleb128 4
 4537 01cc 04000000 		.4byte	.LCFI24
 4538 01d0 06000000 		.4byte	.LCFI25
 4539 01d4 0200     		.2byte	0x2
 4540 01d6 7D       		.byte	0x7d
 4541 01d7 18       		.sleb128 24
 4542 01d8 06000000 		.4byte	.LCFI25
 4543 01dc FA000000 		.4byte	.LFE8
 4544 01e0 0200     		.2byte	0x2
 4545 01e2 77       		.byte	0x77
 4546 01e3 18       		.sleb128 24
 4547 01e4 00000000 		.4byte	0
 4548 01e8 00000000 		.4byte	0
 4549              	.LLST9:
 4550 01ec 00000000 		.4byte	.LFB9
 4551 01f0 02000000 		.4byte	.LCFI26
 4552 01f4 0200     		.2byte	0x2
 4553 01f6 7D       		.byte	0x7d
 4554 01f7 00       		.sleb128 0
 4555 01f8 02000000 		.4byte	.LCFI26
 4556 01fc 04000000 		.4byte	.LCFI27
 4557 0200 0200     		.2byte	0x2
 4558 0202 7D       		.byte	0x7d
 4559 0203 08       		.sleb128 8
 4560 0204 04000000 		.4byte	.LCFI27
 4561 0208 06000000 		.4byte	.LCFI28
 4562 020c 0200     		.2byte	0x2
 4563 020e 7D       		.byte	0x7d
 4564 020f 10       		.sleb128 16
 4565 0210 06000000 		.4byte	.LCFI28
 4566 0214 30010000 		.4byte	.LFE9
 4567 0218 0200     		.2byte	0x2
 4568 021a 77       		.byte	0x77
 4569 021b 10       		.sleb128 16
ARM GAS  C:\Users\Robert\AppData\Local\Temp\ccdadQBo.s 			page 103


 4570 021c 00000000 		.4byte	0
 4571 0220 00000000 		.4byte	0
 4572              	.LLST10:
 4573 0224 00000000 		.4byte	.LFB10
 4574 0228 02000000 		.4byte	.LCFI29
 4575 022c 0200     		.2byte	0x2
 4576 022e 7D       		.byte	0x7d
 4577 022f 00       		.sleb128 0
 4578 0230 02000000 		.4byte	.LCFI29
 4579 0234 04000000 		.4byte	.LCFI30
 4580 0238 0200     		.2byte	0x2
 4581 023a 7D       		.byte	0x7d
 4582 023b 08       		.sleb128 8
 4583 023c 04000000 		.4byte	.LCFI30
 4584 0240 06000000 		.4byte	.LCFI31
 4585 0244 0200     		.2byte	0x2
 4586 0246 7D       		.byte	0x7d
 4587 0247 10       		.sleb128 16
 4588 0248 06000000 		.4byte	.LCFI31
 4589 024c C2010000 		.4byte	.LFE10
 4590 0250 0200     		.2byte	0x2
 4591 0252 77       		.byte	0x77
 4592 0253 10       		.sleb128 16
 4593 0254 00000000 		.4byte	0
 4594 0258 00000000 		.4byte	0
 4595              	.LLST11:
 4596 025c 00000000 		.4byte	.LFB11
 4597 0260 02000000 		.4byte	.LCFI32
 4598 0264 0200     		.2byte	0x2
 4599 0266 7D       		.byte	0x7d
 4600 0267 00       		.sleb128 0
 4601 0268 02000000 		.4byte	.LCFI32
 4602 026c 04000000 		.4byte	.LCFI33
 4603 0270 0200     		.2byte	0x2
 4604 0272 7D       		.byte	0x7d
 4605 0273 08       		.sleb128 8
 4606 0274 04000000 		.4byte	.LCFI33
 4607 0278 06000000 		.4byte	.LCFI34
 4608 027c 0200     		.2byte	0x2
 4609 027e 7D       		.byte	0x7d
 4610 027f 18       		.sleb128 24
 4611 0280 06000000 		.4byte	.LCFI34
 4612 0284 8E000000 		.4byte	.LFE11
 4613 0288 0200     		.2byte	0x2
 4614 028a 77       		.byte	0x77
 4615 028b 18       		.sleb128 24
 4616 028c 00000000 		.4byte	0
 4617 0290 00000000 		.4byte	0
 4618              		.section	.debug_aranges,"",%progbits
 4619 0000 74000000 		.4byte	0x74
 4620 0004 0200     		.2byte	0x2
 4621 0006 00000000 		.4byte	.Ldebug_info0
 4622 000a 04       		.byte	0x4
 4623 000b 00       		.byte	0
 4624 000c 0000     		.2byte	0
 4625 000e 0000     		.2byte	0
 4626 0010 00000000 		.4byte	.LFB0
ARM GAS  C:\Users\Robert\AppData\Local\Temp\ccdadQBo.s 			page 104


 4627 0014 54060000 		.4byte	.LFE0-.LFB0
 4628 0018 00000000 		.4byte	.LFB1
 4629 001c A6000000 		.4byte	.LFE1-.LFB1
 4630 0020 00000000 		.4byte	.LFB2
 4631 0024 02020000 		.4byte	.LFE2-.LFB2
 4632 0028 00000000 		.4byte	.LFB3
 4633 002c 72040000 		.4byte	.LFE3-.LFB3
 4634 0030 00000000 		.4byte	.LFB4
 4635 0034 52030000 		.4byte	.LFE4-.LFB4
 4636 0038 00000000 		.4byte	.LFB5
 4637 003c 5E000000 		.4byte	.LFE5-.LFB5
 4638 0040 00000000 		.4byte	.LFB6
 4639 0044 28000000 		.4byte	.LFE6-.LFB6
 4640 0048 00000000 		.4byte	.LFB7
 4641 004c 58000000 		.4byte	.LFE7-.LFB7
 4642 0050 00000000 		.4byte	.LFB8
 4643 0054 FA000000 		.4byte	.LFE8-.LFB8
 4644 0058 00000000 		.4byte	.LFB9
 4645 005c 30010000 		.4byte	.LFE9-.LFB9
 4646 0060 00000000 		.4byte	.LFB10
 4647 0064 C2010000 		.4byte	.LFE10-.LFB10
 4648 0068 00000000 		.4byte	.LFB11
 4649 006c 8E000000 		.4byte	.LFE11-.LFB11
 4650 0070 00000000 		.4byte	0
 4651 0074 00000000 		.4byte	0
 4652              		.section	.debug_ranges,"",%progbits
 4653              	.Ldebug_ranges0:
 4654 0000 00000000 		.4byte	.LFB0
 4655 0004 54060000 		.4byte	.LFE0
 4656 0008 00000000 		.4byte	.LFB1
 4657 000c A6000000 		.4byte	.LFE1
 4658 0010 00000000 		.4byte	.LFB2
 4659 0014 02020000 		.4byte	.LFE2
 4660 0018 00000000 		.4byte	.LFB3
 4661 001c 72040000 		.4byte	.LFE3
 4662 0020 00000000 		.4byte	.LFB4
 4663 0024 52030000 		.4byte	.LFE4
 4664 0028 00000000 		.4byte	.LFB5
 4665 002c 5E000000 		.4byte	.LFE5
 4666 0030 00000000 		.4byte	.LFB6
 4667 0034 28000000 		.4byte	.LFE6
 4668 0038 00000000 		.4byte	.LFB7
 4669 003c 58000000 		.4byte	.LFE7
 4670 0040 00000000 		.4byte	.LFB8
 4671 0044 FA000000 		.4byte	.LFE8
 4672 0048 00000000 		.4byte	.LFB9
 4673 004c 30010000 		.4byte	.LFE9
 4674 0050 00000000 		.4byte	.LFB10
 4675 0054 C2010000 		.4byte	.LFE10
 4676 0058 00000000 		.4byte	.LFB11
 4677 005c 8E000000 		.4byte	.LFE11
 4678 0060 00000000 		.4byte	0
 4679 0064 00000000 		.4byte	0
 4680              		.section	.debug_line,"",%progbits
 4681              	.Ldebug_line0:
 4682 0000 35040000 		.section	.debug_str,"MS",%progbits,1
 4682      02008100 
ARM GAS  C:\Users\Robert\AppData\Local\Temp\ccdadQBo.s 			page 105


 4682      00000201 
 4682      FB0E0D00 
 4682      01010101 
 4683              	.LASF36:
 4684 0000 70537461 		.ascii	"pStatusBlock\000"
 4684      74757342 
 4684      6C6F636B 
 4684      00
 4685              	.LASF34:
 4686 000d 636F756E 		.ascii	"count\000"
 4686      7400
 4687              	.LASF10:
 4688 0013 75696E74 		.ascii	"uint16\000"
 4688      313600
 4689              	.LASF49:
 4690 001a 55534255 		.ascii	"USBUART_1_ReadDieID\000"
 4690      4152545F 
 4690      315F5265 
 4690      61644469 
 4690      65494400 
 4691              	.LASF70:
 4692 002e 55534255 		.ascii	"USBUART_1_device\000"
 4692      4152545F 
 4692      315F6465 
 4692      76696365 
 4692      00
 4693              	.LASF61:
 4694 003f 636F6E66 		.ascii	"confIndex\000"
 4694      496E6465 
 4694      7800
 4695              	.LASF7:
 4696 0049 6C6F6E67 		.ascii	"long long unsigned int\000"
 4696      206C6F6E 
 4696      6720756E 
 4696      7369676E 
 4696      65642069 
 4697              	.LASF21:
 4698 0060 61646472 		.ascii	"addr\000"
 4698      00
 4699              	.LASF79:
 4700 0065 55534255 		.ascii	"USBUART_1_MSOS_DESCRIPTOR\000"
 4700      4152545F 
 4700      315F4D53 
 4700      4F535F44 
 4700      45534352 
 4701              	.LASF41:
 4702 007f 696E7465 		.ascii	"interfaceNumber\000"
 4702      72666163 
 4702      654E756D 
 4702      62657200 
 4703              	.LASF30:
 4704 008f 545F5553 		.ascii	"T_USBUART_1_EP_SETTINGS_BLOCK\000"
 4704      42554152 
 4704      545F315F 
 4704      45505F53 
 4704      45545449 
 4705              	.LASF6:
ARM GAS  C:\Users\Robert\AppData\Local\Temp\ccdadQBo.s 			page 106


 4706 00ad 6C6F6E67 		.ascii	"long long int\000"
 4706      206C6F6E 
 4706      6720696E 
 4706      7400
 4707              	.LASF0:
 4708 00bb 7369676E 		.ascii	"signed char\000"
 4708      65642063 
 4708      68617200 
 4709              	.LASF76:
 4710 00c7 55534255 		.ascii	"USBUART_1_DEVICE0_DESCR\000"
 4710      4152545F 
 4710      315F4445 
 4710      56494345 
 4710      305F4445 
 4711              	.LASF60:
 4712 00df 55534255 		.ascii	"USBUART_1_GetConfigTablePtr\000"
 4712      4152545F 
 4712      315F4765 
 4712      74436F6E 
 4712      66696754 
 4713              	.LASF53:
 4714 00fb 636C6561 		.ascii	"clearAltSetting\000"
 4714      72416C74 
 4714      53657474 
 4714      696E6700 
 4715              	.LASF75:
 4716 010b 55534255 		.ascii	"USBUART_1_cdc_data_out_ep\000"
 4716      4152545F 
 4716      315F6364 
 4716      635F6461 
 4716      74615F6F 
 4717              	.LASF39:
 4718 0125 545F5553 		.ascii	"T_USBUART_1_LUT\000"
 4718      42554152 
 4718      545F315F 
 4718      4C555400 
 4719              	.LASF51:
 4720 0135 55534255 		.ascii	"USBUART_1_Config\000"
 4720      4152545F 
 4720      315F436F 
 4720      6E666967 
 4720      00
 4721              	.LASF4:
 4722 0146 6C6F6E67 		.ascii	"long int\000"
 4722      20696E74 
 4722      00
 4723              	.LASF65:
 4724 014f 55534255 		.ascii	"USBUART_1_TerminateEP\000"
 4724      4152545F 
 4724      315F5465 
 4724      726D696E 
 4724      61746545 
 4725              	.LASF88:
 4726 0165 55534255 		.ascii	"USBUART_1_currentTD\000"
 4726      4152545F 
 4726      315F6375 
 4726      7272656E 
ARM GAS  C:\Users\Robert\AppData\Local\Temp\ccdadQBo.s 			page 107


 4726      74544400 
 4727              	.LASF9:
 4728 0179 75696E74 		.ascii	"uint8\000"
 4728      3800
 4729              	.LASF20:
 4730 017f 6570546F 		.ascii	"epToggle\000"
 4730      67676C65 
 4730      00
 4731              	.LASF12:
 4732 0188 646F7562 		.ascii	"double\000"
 4732      6C6500
 4733              	.LASF91:
 4734 018f 433A5C55 		.ascii	"C:\\Users\\Robert\\Dropbox\\Classes\\capstone\\tft_"
 4734      73657273 
 4734      5C526F62 
 4734      6572745C 
 4734      44726F70 
 4735 01bc 74657374 		.ascii	"test.Bundle01_Rev_b - touch\\tft_test.cydsn\000"
 4735      2E42756E 
 4735      646C6530 
 4735      315F5265 
 4735      765F6220 
 4736              	.LASF50:
 4737 01e7 55534255 		.ascii	"USBUART_1_ConfigReg\000"
 4737      4152545F 
 4737      315F436F 
 4737      6E666967 
 4737      52656700 
 4738              	.LASF58:
 4739 01fb 55534255 		.ascii	"USBUART_1_ConfigAltChanged\000"
 4739      4152545F 
 4739      315F436F 
 4739      6E666967 
 4739      416C7443 
 4740              	.LASF35:
 4741 0216 70446174 		.ascii	"pData\000"
 4741      6100
 4742              	.LASF46:
 4743 021c 55534255 		.ascii	"USBUART_1_tBuffer\000"
 4743      4152545F 
 4743      315F7442 
 4743      75666665 
 4743      7200
 4744              	.LASF22:
 4745 022e 65704D6F 		.ascii	"epMode\000"
 4745      646500
 4746              	.LASF55:
 4747 0235 65705479 		.ascii	"epType\000"
 4747      706500
 4748              	.LASF26:
 4749 023c 545F5553 		.ascii	"T_USBUART_1_EP_CTL_BLOCK\000"
 4749      42554152 
 4749      545F315F 
 4749      45505F43 
 4749      544C5F42 
 4750              	.LASF48:
 4751 0255 76616C75 		.ascii	"value\000"
ARM GAS  C:\Users\Robert\AppData\Local\Temp\ccdadQBo.s 			page 108


 4751      6500
 4752              	.LASF73:
 4753 025b 55534255 		.ascii	"USBUART_1_deviceStatus\000"
 4753      4152545F 
 4753      315F6465 
 4753      76696365 
 4753      53746174 
 4754              	.LASF8:
 4755 0272 756E7369 		.ascii	"unsigned int\000"
 4755      676E6564 
 4755      20696E74 
 4755      00
 4756              	.LASF83:
 4757 027f 55534255 		.ascii	"USBUART_1_interfaceSetting_last\000"
 4757      4152545F 
 4757      315F696E 
 4757      74657266 
 4757      61636553 
 4758              	.LASF5:
 4759 029f 6C6F6E67 		.ascii	"long unsigned int\000"
 4759      20756E73 
 4759      69676E65 
 4759      6420696E 
 4759      7400
 4760              	.LASF77:
 4761 02b1 55534255 		.ascii	"USBUART_1_TABLE\000"
 4761      4152545F 
 4761      315F5441 
 4761      424C4500 
 4762              	.LASF72:
 4763 02c1 55534255 		.ascii	"USBUART_1_configurationChanged\000"
 4763      4152545F 
 4763      315F636F 
 4763      6E666967 
 4763      75726174 
 4764              	.LASF74:
 4765 02e0 55534255 		.ascii	"USBUART_1_cdc_data_in_ep\000"
 4765      4152545F 
 4765      315F6364 
 4765      635F6461 
 4765      74615F69 
 4766              	.LASF3:
 4767 02f9 73686F72 		.ascii	"short unsigned int\000"
 4767      7420756E 
 4767      7369676E 
 4767      65642069 
 4767      6E7400
 4768              	.LASF56:
 4769 030c 70446573 		.ascii	"pDescr\000"
 4769      637200
 4770              	.LASF63:
 4771 0313 70496E74 		.ascii	"pInterfaceClass\000"
 4771      65726661 
 4771      6365436C 
 4771      61737300 
 4772              	.LASF84:
 4773 0323 55534255 		.ascii	"USBUART_1_deviceAddress\000"
ARM GAS  C:\Users\Robert\AppData\Local\Temp\ccdadQBo.s 			page 109


 4773      4152545F 
 4773      315F6465 
 4773      76696365 
 4773      41646472 
 4774              	.LASF92:
 4775 033b 55534255 		.ascii	"USBUART_1_GetDeviceTablePtr\000"
 4775      4152545F 
 4775      315F4765 
 4775      74446576 
 4775      69636554 
 4776              	.LASF25:
 4777 0357 696E7465 		.ascii	"interface\000"
 4777      72666163 
 4777      6500
 4778              	.LASF59:
 4779 0361 55534255 		.ascii	"USBUART_1_HandleStandardRqst\000"
 4779      4152545F 
 4779      315F4861 
 4779      6E646C65 
 4779      5374616E 
 4780              	.LASF90:
 4781 037e 2E5C4765 		.ascii	".\\Generated_Source\\PSoC5\\USBUART_1_std.c\000"
 4781      6E657261 
 4781      7465645F 
 4781      536F7572 
 4781      63655C50 
 4782              	.LASF19:
 4783 03a7 68774570 		.ascii	"hwEpState\000"
 4783      53746174 
 4783      6500
 4784              	.LASF45:
 4785 03b1 64657363 		.ascii	"descrLength\000"
 4785      724C656E 
 4785      67746800 
 4786              	.LASF16:
 4787 03bd 73697A65 		.ascii	"sizetype\000"
 4787      74797065 
 4787      00
 4788              	.LASF47:
 4789 03c6 70546D70 		.ascii	"pTmp\000"
 4789      00
 4790              	.LASF38:
 4791 03cb 705F6C69 		.ascii	"p_list\000"
 4791      737400
 4792              	.LASF57:
 4793 03d2 62756666 		.ascii	"buffCount\000"
 4793      436F756E 
 4793      7400
 4794              	.LASF17:
 4795 03dc 61747472 		.ascii	"attrib\000"
 4795      696200
 4796              	.LASF71:
 4797 03e3 55534255 		.ascii	"USBUART_1_configuration\000"
 4797      4152545F 
 4797      315F636F 
 4797      6E666967 
 4797      75726174 
ARM GAS  C:\Users\Robert\AppData\Local\Temp\ccdadQBo.s 			page 110


 4798              	.LASF80:
 4799 03fb 55534255 		.ascii	"USBUART_1_idSerialNumberStringDescriptor\000"
 4799      4152545F 
 4799      315F6964 
 4799      53657269 
 4799      616C4E75 
 4800              	.LASF62:
 4801 0424 55534255 		.ascii	"USBUART_1_GetInterfaceClassTablePtr\000"
 4801      4152545F 
 4801      315F4765 
 4801      74496E74 
 4801      65726661 
 4802              	.LASF64:
 4803 0448 63757272 		.ascii	"currentInterfacesNum\000"
 4803      656E7449 
 4803      6E746572 
 4803      66616365 
 4803      734E756D 
 4804              	.LASF69:
 4805 045d 696E7465 		.ascii	"interfaceNum\000"
 4805      72666163 
 4805      654E756D 
 4805      00
 4806              	.LASF11:
 4807 046a 666C6F61 		.ascii	"float\000"
 4807      7400
 4808              	.LASF18:
 4809 0470 61706945 		.ascii	"apiEpState\000"
 4809      70537461 
 4809      746500
 4810              	.LASF42:
 4811 047b 636F6E66 		.ascii	"configurationN\000"
 4811      69677572 
 4811      6174696F 
 4811      6E4E00
 4812              	.LASF43:
 4813 048a 70537472 		.ascii	"pStr\000"
 4813      00
 4814              	.LASF89:
 4815 048f 474E5520 		.ascii	"GNU C 4.7.3 20130312 (release) [ARM/embedded-4_7-br"
 4815      4320342E 
 4815      372E3320 
 4815      32303133 
 4815      30333132 
 4816 04c2 616E6368 		.ascii	"anch revision 196615]\000"
 4816      20726576 
 4816      6973696F 
 4816      6E203139 
 4816      36363135 
 4817              	.LASF15:
 4818 04d8 72656738 		.ascii	"reg8\000"
 4818      00
 4819              	.LASF85:
 4820 04dd 55534255 		.ascii	"USBUART_1_interfaceStatus\000"
 4820      4152545F 
 4820      315F696E 
 4820      74657266 
ARM GAS  C:\Users\Robert\AppData\Local\Temp\ccdadQBo.s 			page 111


 4820      61636553 
 4821              	.LASF52:
 4822 04f7 64657363 		.ascii	"descr\000"
 4822      7200
 4823              	.LASF1:
 4824 04fd 756E7369 		.ascii	"unsigned char\000"
 4824      676E6564 
 4824      20636861 
 4824      7200
 4825              	.LASF82:
 4826 050b 55534255 		.ascii	"USBUART_1_interfaceSetting\000"
 4826      4152545F 
 4826      315F696E 
 4826      74657266 
 4826      61636553 
 4827              	.LASF86:
 4828 0526 55534255 		.ascii	"USBUART_1_interfaceClass\000"
 4828      4152545F 
 4828      315F696E 
 4828      74657266 
 4828      61636543 
 4829              	.LASF2:
 4830 053f 73686F72 		.ascii	"short int\000"
 4830      7420696E 
 4830      7400
 4831              	.LASF67:
 4832 0549 55534255 		.ascii	"USBUART_1_ClearEndpointHalt\000"
 4832      4152545F 
 4832      315F436C 
 4832      65617245 
 4832      6E64706F 
 4833              	.LASF28:
 4834 0565 61747472 		.ascii	"attributes\000"
 4834      69627574 
 4834      657300
 4835              	.LASF68:
 4836 0570 55534255 		.ascii	"USBUART_1_ValidateAlternateSetting\000"
 4836      4152545F 
 4836      315F5661 
 4836      6C696461 
 4836      7465416C 
 4837              	.LASF27:
 4838 0593 616C7453 		.ascii	"altSetting\000"
 4838      65747469 
 4838      6E6700
 4839              	.LASF33:
 4840 059e 545F5553 		.ascii	"T_USBUART_1_XFER_STATUS_BLOCK\000"
 4840      42554152 
 4840      545F315F 
 4840      58464552 
 4840      5F535441 
 4841              	.LASF14:
 4842 05bc 63686172 		.ascii	"char\000"
 4842      00
 4843              	.LASF24:
 4844 05c1 62756666 		.ascii	"bufferSize\000"
 4844      65725369 
ARM GAS  C:\Users\Robert\AppData\Local\Temp\ccdadQBo.s 			page 112


 4844      7A6500
 4845              	.LASF40:
 4846 05cc 72657175 		.ascii	"requestHandled\000"
 4846      65737448 
 4846      616E646C 
 4846      656400
 4847              	.LASF23:
 4848 05db 62756666 		.ascii	"buffOffset\000"
 4848      4F666673 
 4848      657400
 4849              	.LASF13:
 4850 05e6 63686172 		.ascii	"char8\000"
 4850      3800
 4851              	.LASF32:
 4852 05ec 6C656E67 		.ascii	"length\000"
 4852      746800
 4853              	.LASF44:
 4854 05f3 6E537472 		.ascii	"nStr\000"
 4854      00
 4855              	.LASF54:
 4856 05f8 6375725F 		.ascii	"cur_ep\000"
 4856      657000
 4857              	.LASF81:
 4858 05ff 55534255 		.ascii	"USBUART_1_interfaceNumber\000"
 4858      4152545F 
 4858      315F696E 
 4858      74657266 
 4858      6163654E 
 4859              	.LASF31:
 4860 0619 73746174 		.ascii	"status\000"
 4860      757300
 4861              	.LASF29:
 4862 0620 624D6973 		.ascii	"bMisc\000"
 4862      6300
 4863              	.LASF37:
 4864 0626 545F5553 		.ascii	"T_USBUART_1_TD\000"
 4864      42554152 
 4864      545F315F 
 4864      544400
 4865              	.LASF66:
 4866 0635 55534255 		.ascii	"USBUART_1_SetEndpointHalt\000"
 4866      4152545F 
 4866      315F5365 
 4866      74456E64 
 4866      706F696E 
 4867              	.LASF87:
 4868 064f 55534255 		.ascii	"USBUART_1_EP\000"
 4868      4152545F 
 4868      315F4550 
 4868      00
 4869              	.LASF78:
 4870 065c 55534255 		.ascii	"USBUART_1_STRING_DESCRIPTORS\000"
 4870      4152545F 
 4870      315F5354 
 4870      52494E47 
 4870      5F444553 
 4871              		.ident	"GCC: (GNU Tools for ARM Embedded Processors) 4.7.3 20130312 (release) [ARM/embedded-4_7-br
ARM GAS  C:\Users\Robert\AppData\Local\Temp\ccdadQBo.s 			page 113


