ARM GAS  C:\Users\Robert\AppData\Local\Temp\ccNv74yg.s 			page 1


   1              		.syntax unified
   2              		.cpu cortex-m3
   3              		.fpu softvfp
   4              		.eabi_attribute 20, 1
   5              		.eabi_attribute 21, 1
   6              		.eabi_attribute 23, 3
   7              		.eabi_attribute 24, 1
   8              		.eabi_attribute 25, 1
   9              		.eabi_attribute 26, 1
  10              		.eabi_attribute 30, 6
  11              		.eabi_attribute 34, 1
  12              		.eabi_attribute 18, 4
  13              		.thumb
  14              		.file	"USBUART_1_cdc.c"
  15              		.text
  16              	.Ltext0:
  17              		.cfi_sections	.debug_frame
  18              		.global	USBUART_1_lineCoding
  19              		.data
  20              		.align	2
  21              		.type	USBUART_1_lineCoding, %object
  22              		.size	USBUART_1_lineCoding, 7
  23              	USBUART_1_lineCoding:
  24 0000 00       		.byte	0
  25 0001 C2       		.byte	-62
  26 0002 01       		.byte	1
  27 0003 00       		.byte	0
  28 0004 00       		.byte	0
  29 0005 00       		.byte	0
  30 0006 08       		.byte	8
  31              		.comm	USBUART_1_lineChanged,1,1
  32              		.comm	USBUART_1_lineControlBitmap,2,2
  33              		.comm	USBUART_1_cdc_data_in_ep,1,1
  34              		.comm	USBUART_1_cdc_data_out_ep,1,1
  35 0007 00       		.section	.text.USBUART_1_DispatchCDCClassRqst,"ax",%progbits
  36              		.align	2
  37              		.global	USBUART_1_DispatchCDCClassRqst
  38              		.thumb
  39              		.thumb_func
  40              		.type	USBUART_1_DispatchCDCClassRqst, %function
  41              	USBUART_1_DispatchCDCClassRqst:
  42              	.LFB0:
  43              		.file 1 ".\\Generated_Source\\PSoC5\\USBUART_1_cdc.c"
   1:.\Generated_Source\PSoC5/USBUART_1_cdc.c **** /*******************************************************************************
   2:.\Generated_Source\PSoC5/USBUART_1_cdc.c **** * File Name: USBUART_1_cdc.c
   3:.\Generated_Source\PSoC5/USBUART_1_cdc.c **** * Version 2.70
   4:.\Generated_Source\PSoC5/USBUART_1_cdc.c **** *
   5:.\Generated_Source\PSoC5/USBUART_1_cdc.c **** * Description:
   6:.\Generated_Source\PSoC5/USBUART_1_cdc.c **** *  USB CDC class request handler.
   7:.\Generated_Source\PSoC5/USBUART_1_cdc.c **** *
   8:.\Generated_Source\PSoC5/USBUART_1_cdc.c **** * Related Document:
   9:.\Generated_Source\PSoC5/USBUART_1_cdc.c **** *  Universal Serial Bus Class Definitions for Communication Devices Version 1.1
  10:.\Generated_Source\PSoC5/USBUART_1_cdc.c **** *
  11:.\Generated_Source\PSoC5/USBUART_1_cdc.c **** ********************************************************************************
  12:.\Generated_Source\PSoC5/USBUART_1_cdc.c **** * Copyright 2012-2013, Cypress Semiconductor Corporation.  All rights reserved.
  13:.\Generated_Source\PSoC5/USBUART_1_cdc.c **** * You may use this file only in accordance with the license, terms, conditions,
  14:.\Generated_Source\PSoC5/USBUART_1_cdc.c **** * disclaimers, and limitations in the end user license agreement accompanying
ARM GAS  C:\Users\Robert\AppData\Local\Temp\ccNv74yg.s 			page 2


  15:.\Generated_Source\PSoC5/USBUART_1_cdc.c **** * the software package with which this file was provided.
  16:.\Generated_Source\PSoC5/USBUART_1_cdc.c **** *******************************************************************************/
  17:.\Generated_Source\PSoC5/USBUART_1_cdc.c **** 
  18:.\Generated_Source\PSoC5/USBUART_1_cdc.c **** #include "USBUART_1.h"
  19:.\Generated_Source\PSoC5/USBUART_1_cdc.c **** 
  20:.\Generated_Source\PSoC5/USBUART_1_cdc.c **** #if defined(USBUART_1_ENABLE_CDC_CLASS)
  21:.\Generated_Source\PSoC5/USBUART_1_cdc.c **** 
  22:.\Generated_Source\PSoC5/USBUART_1_cdc.c **** #include "USBUART_1_cdc.h"
  23:.\Generated_Source\PSoC5/USBUART_1_cdc.c **** #include "USBUART_1_pvt.h"
  24:.\Generated_Source\PSoC5/USBUART_1_cdc.c **** 
  25:.\Generated_Source\PSoC5/USBUART_1_cdc.c **** 
  26:.\Generated_Source\PSoC5/USBUART_1_cdc.c **** /***************************************
  27:.\Generated_Source\PSoC5/USBUART_1_cdc.c **** *    CDC Variables
  28:.\Generated_Source\PSoC5/USBUART_1_cdc.c **** ***************************************/
  29:.\Generated_Source\PSoC5/USBUART_1_cdc.c **** 
  30:.\Generated_Source\PSoC5/USBUART_1_cdc.c **** volatile uint8 USBUART_1_lineCoding[USBUART_1_LINE_CODING_SIZE] =
  31:.\Generated_Source\PSoC5/USBUART_1_cdc.c **** {
  32:.\Generated_Source\PSoC5/USBUART_1_cdc.c ****     0x00u, 0xC2u, 0x01u, 0x00u,     /* Data terminal rate 115200 */
  33:.\Generated_Source\PSoC5/USBUART_1_cdc.c ****     0x00u,                          /* 1 Stop bit */
  34:.\Generated_Source\PSoC5/USBUART_1_cdc.c ****     0x00u,                          /* None parity */
  35:.\Generated_Source\PSoC5/USBUART_1_cdc.c ****     0x08u                           /* 8 data bits */
  36:.\Generated_Source\PSoC5/USBUART_1_cdc.c **** };
  37:.\Generated_Source\PSoC5/USBUART_1_cdc.c **** volatile uint8 USBUART_1_lineChanged;
  38:.\Generated_Source\PSoC5/USBUART_1_cdc.c **** volatile uint16 USBUART_1_lineControlBitmap;
  39:.\Generated_Source\PSoC5/USBUART_1_cdc.c **** volatile uint8 USBUART_1_cdc_data_in_ep;
  40:.\Generated_Source\PSoC5/USBUART_1_cdc.c **** volatile uint8 USBUART_1_cdc_data_out_ep;
  41:.\Generated_Source\PSoC5/USBUART_1_cdc.c **** 
  42:.\Generated_Source\PSoC5/USBUART_1_cdc.c **** 
  43:.\Generated_Source\PSoC5/USBUART_1_cdc.c **** /***************************************
  44:.\Generated_Source\PSoC5/USBUART_1_cdc.c **** *     Static Function Prototypes
  45:.\Generated_Source\PSoC5/USBUART_1_cdc.c **** ***************************************/
  46:.\Generated_Source\PSoC5/USBUART_1_cdc.c **** #if (USBUART_1_ENABLE_CDC_CLASS_API != 0u)
  47:.\Generated_Source\PSoC5/USBUART_1_cdc.c ****     static uint16 USBUART_1_StrLen(const char8 string[]) ;
  48:.\Generated_Source\PSoC5/USBUART_1_cdc.c **** #endif /* (USBUART_1_ENABLE_CDC_CLASS_API != 0u) */
  49:.\Generated_Source\PSoC5/USBUART_1_cdc.c **** 
  50:.\Generated_Source\PSoC5/USBUART_1_cdc.c **** 
  51:.\Generated_Source\PSoC5/USBUART_1_cdc.c **** /***************************************
  52:.\Generated_Source\PSoC5/USBUART_1_cdc.c **** * Custom Declarations
  53:.\Generated_Source\PSoC5/USBUART_1_cdc.c **** ***************************************/
  54:.\Generated_Source\PSoC5/USBUART_1_cdc.c **** 
  55:.\Generated_Source\PSoC5/USBUART_1_cdc.c **** /* `#START CDC_CUSTOM_DECLARATIONS` Place your declaration here */
  56:.\Generated_Source\PSoC5/USBUART_1_cdc.c **** 
  57:.\Generated_Source\PSoC5/USBUART_1_cdc.c **** /* `#END` */
  58:.\Generated_Source\PSoC5/USBUART_1_cdc.c **** 
  59:.\Generated_Source\PSoC5/USBUART_1_cdc.c **** 
  60:.\Generated_Source\PSoC5/USBUART_1_cdc.c **** /*******************************************************************************
  61:.\Generated_Source\PSoC5/USBUART_1_cdc.c **** * Function Name: USBUART_1_DispatchCDCClassRqst
  62:.\Generated_Source\PSoC5/USBUART_1_cdc.c **** ********************************************************************************
  63:.\Generated_Source\PSoC5/USBUART_1_cdc.c **** *
  64:.\Generated_Source\PSoC5/USBUART_1_cdc.c **** * Summary:
  65:.\Generated_Source\PSoC5/USBUART_1_cdc.c **** *  This routine dispatches CDC class requests.
  66:.\Generated_Source\PSoC5/USBUART_1_cdc.c **** *
  67:.\Generated_Source\PSoC5/USBUART_1_cdc.c **** * Parameters:
  68:.\Generated_Source\PSoC5/USBUART_1_cdc.c **** *  None.
  69:.\Generated_Source\PSoC5/USBUART_1_cdc.c **** *
  70:.\Generated_Source\PSoC5/USBUART_1_cdc.c **** * Return:
  71:.\Generated_Source\PSoC5/USBUART_1_cdc.c **** *  requestHandled
ARM GAS  C:\Users\Robert\AppData\Local\Temp\ccNv74yg.s 			page 3


  72:.\Generated_Source\PSoC5/USBUART_1_cdc.c **** *
  73:.\Generated_Source\PSoC5/USBUART_1_cdc.c **** * Global variables:
  74:.\Generated_Source\PSoC5/USBUART_1_cdc.c **** *   USBUART_1_lineCoding: Contains the current line coding structure.
  75:.\Generated_Source\PSoC5/USBUART_1_cdc.c **** *     It is set by the Host using SET_LINE_CODING request and returned to the
  76:.\Generated_Source\PSoC5/USBUART_1_cdc.c **** *     user code by the USBFS_GetDTERate(), USBFS_GetCharFormat(),
  77:.\Generated_Source\PSoC5/USBUART_1_cdc.c **** *     USBFS_GetParityType(), USBFS_GetDataBits() APIs.
  78:.\Generated_Source\PSoC5/USBUART_1_cdc.c **** *   USBUART_1_lineControlBitmap: Contains the current control signal
  79:.\Generated_Source\PSoC5/USBUART_1_cdc.c **** *     bitmap. It is set by the Host using SET_CONTROL_LINE request and returned
  80:.\Generated_Source\PSoC5/USBUART_1_cdc.c **** *     to the user code by the USBFS_GetLineControl() API.
  81:.\Generated_Source\PSoC5/USBUART_1_cdc.c **** *   USBUART_1_lineChanged: This variable is used as a flag for the
  82:.\Generated_Source\PSoC5/USBUART_1_cdc.c **** *     USBFS_IsLineChanged() API, to be aware that Host has been sent request
  83:.\Generated_Source\PSoC5/USBUART_1_cdc.c **** *     for changing Line Coding or Control Bitmap.
  84:.\Generated_Source\PSoC5/USBUART_1_cdc.c **** *
  85:.\Generated_Source\PSoC5/USBUART_1_cdc.c **** * Reentrant:
  86:.\Generated_Source\PSoC5/USBUART_1_cdc.c **** *  No.
  87:.\Generated_Source\PSoC5/USBUART_1_cdc.c **** *
  88:.\Generated_Source\PSoC5/USBUART_1_cdc.c **** *******************************************************************************/
  89:.\Generated_Source\PSoC5/USBUART_1_cdc.c **** uint8 USBUART_1_DispatchCDCClassRqst(void) 
  90:.\Generated_Source\PSoC5/USBUART_1_cdc.c **** {
  44              		.loc 1 90 0
  45              		.cfi_startproc
  46              		@ args = 0, pretend = 0, frame = 8
  47              		@ frame_needed = 1, uses_anonymous_args = 0
  48 0000 80B5     		push	{r7, lr}
  49              	.LCFI0:
  50              		.cfi_def_cfa_offset 8
  51              		.cfi_offset 7, -8
  52              		.cfi_offset 14, -4
  53 0002 82B0     		sub	sp, sp, #8
  54              	.LCFI1:
  55              		.cfi_def_cfa_offset 16
  56 0004 00AF     		add	r7, sp, #0
  57              	.LCFI2:
  58              		.cfi_def_cfa_register 7
  91:.\Generated_Source\PSoC5/USBUART_1_cdc.c ****     uint8 requestHandled = USBUART_1_FALSE;
  59              		.loc 1 91 0
  60 0006 4FF00003 		mov	r3, #0
  61 000a FB71     		strb	r3, [r7, #7]
  92:.\Generated_Source\PSoC5/USBUART_1_cdc.c **** 
  93:.\Generated_Source\PSoC5/USBUART_1_cdc.c ****     if ((CY_GET_REG8(USBUART_1_bmRequestType) & USBUART_1_RQST_DIR_MASK) == USBUART_1_RQST_DIR_D2H)
  62              		.loc 1 93 0
  63 000c 4FF4C043 		mov	r3, #24576
  64 0010 C4F20003 		movt	r3, 16384
  65 0014 1B78     		ldrb	r3, [r3, #0]
  66 0016 DBB2     		uxtb	r3, r3
  67 0018 DBB2     		uxtb	r3, r3
  68 001a 5BB2     		sxtb	r3, r3
  69 001c 002B     		cmp	r3, #0
  70 001e 1EDA     		bge	.L2
  94:.\Generated_Source\PSoC5/USBUART_1_cdc.c ****     {   /* Control Read */
  95:.\Generated_Source\PSoC5/USBUART_1_cdc.c ****         switch (CY_GET_REG8(USBUART_1_bRequest))
  71              		.loc 1 95 0
  72 0020 46F20103 		movw	r3, #24577
  73 0024 C4F20003 		movt	r3, 16384
  74 0028 1B78     		ldrb	r3, [r3, #0]
  75 002a DBB2     		uxtb	r3, r3
  76 002c 212B     		cmp	r3, #33
ARM GAS  C:\Users\Robert\AppData\Local\Temp\ccNv74yg.s 			page 4


  77 002e 15D1     		bne	.L12
  78              	.L4:
  96:.\Generated_Source\PSoC5/USBUART_1_cdc.c ****         {
  97:.\Generated_Source\PSoC5/USBUART_1_cdc.c ****             case USBUART_1_CDC_GET_LINE_CODING:
  98:.\Generated_Source\PSoC5/USBUART_1_cdc.c ****                 USBUART_1_currentTD.count = USBUART_1_LINE_CODING_SIZE;
  79              		.loc 1 98 0
  80 0030 40F20003 		movw	r3, #:lower16:USBUART_1_currentTD
  81 0034 C0F20003 		movt	r3, #:upper16:USBUART_1_currentTD
  82 0038 4FF00702 		mov	r2, #7
  83 003c 1A80     		strh	r2, [r3, #0]	@ movhi
  99:.\Generated_Source\PSoC5/USBUART_1_cdc.c ****                 USBUART_1_currentTD.pData = USBUART_1_lineCoding;
  84              		.loc 1 99 0
  85 003e 40F20003 		movw	r3, #:lower16:USBUART_1_currentTD
  86 0042 C0F20003 		movt	r3, #:upper16:USBUART_1_currentTD
  87 0046 40F20002 		movw	r2, #:lower16:USBUART_1_lineCoding
  88 004a C0F20002 		movt	r2, #:upper16:USBUART_1_lineCoding
  89 004e 5A60     		str	r2, [r3, #4]
 100:.\Generated_Source\PSoC5/USBUART_1_cdc.c ****                 requestHandled  = USBUART_1_InitControlRead();
  90              		.loc 1 100 0
  91 0050 FFF7FEFF 		bl	USBUART_1_InitControlRead
  92 0054 0346     		mov	r3, r0
  93 0056 FB71     		strb	r3, [r7, #7]
 101:.\Generated_Source\PSoC5/USBUART_1_cdc.c ****                 break;
  94              		.loc 1 101 0
  95 0058 00BF     		nop
  96 005a 58E0     		b	.L6
  97              	.L12:
 102:.\Generated_Source\PSoC5/USBUART_1_cdc.c **** 
 103:.\Generated_Source\PSoC5/USBUART_1_cdc.c ****             /* `#START CDC_READ_REQUESTS` Place other request handler here */
 104:.\Generated_Source\PSoC5/USBUART_1_cdc.c **** 
 105:.\Generated_Source\PSoC5/USBUART_1_cdc.c ****             /* `#END` */
 106:.\Generated_Source\PSoC5/USBUART_1_cdc.c **** 
 107:.\Generated_Source\PSoC5/USBUART_1_cdc.c ****             default:    /* requestHandled is initialized as FALSE by default */
 108:.\Generated_Source\PSoC5/USBUART_1_cdc.c ****                 break;
  98              		.loc 1 108 0
  99 005c 57E0     		b	.L6
 100              	.L2:
 109:.\Generated_Source\PSoC5/USBUART_1_cdc.c ****         }
 110:.\Generated_Source\PSoC5/USBUART_1_cdc.c ****     }
 111:.\Generated_Source\PSoC5/USBUART_1_cdc.c ****     else if ((CY_GET_REG8(USBUART_1_bmRequestType) & USBUART_1_RQST_DIR_MASK) == \
 101              		.loc 1 111 0
 102 005e 4FF4C043 		mov	r3, #24576
 103 0062 C4F20003 		movt	r3, 16384
 104 0066 1B78     		ldrb	r3, [r3, #0]
 105 0068 DBB2     		uxtb	r3, r3
 106 006a DBB2     		uxtb	r3, r3
 107 006c 5BB2     		sxtb	r3, r3
 108 006e 002B     		cmp	r3, #0
 109 0070 4DDB     		blt	.L6
 112:.\Generated_Source\PSoC5/USBUART_1_cdc.c ****                                                                             USBUART_1_RQST_DIR_H2D)
 113:.\Generated_Source\PSoC5/USBUART_1_cdc.c ****     {   /* Control Write */
 114:.\Generated_Source\PSoC5/USBUART_1_cdc.c ****         switch (CY_GET_REG8(USBUART_1_bRequest))
 110              		.loc 1 114 0
 111 0072 46F20103 		movw	r3, #24577
 112 0076 C4F20003 		movt	r3, 16384
 113 007a 1B78     		ldrb	r3, [r3, #0]
 114 007c DBB2     		uxtb	r3, r3
ARM GAS  C:\Users\Robert\AppData\Local\Temp\ccNv74yg.s 			page 5


 115 007e 202B     		cmp	r3, #32
 116 0080 02D0     		beq	.L8
 117 0082 222B     		cmp	r3, #34
 118 0084 23D0     		beq	.L9
 119 0086 41E0     		b	.L13
 120              	.L8:
 115:.\Generated_Source\PSoC5/USBUART_1_cdc.c ****         {
 116:.\Generated_Source\PSoC5/USBUART_1_cdc.c ****             case USBUART_1_CDC_SET_LINE_CODING:
 117:.\Generated_Source\PSoC5/USBUART_1_cdc.c ****                 USBUART_1_currentTD.count = USBUART_1_LINE_CODING_SIZE;
 121              		.loc 1 117 0
 122 0088 40F20003 		movw	r3, #:lower16:USBUART_1_currentTD
 123 008c C0F20003 		movt	r3, #:upper16:USBUART_1_currentTD
 124 0090 4FF00702 		mov	r2, #7
 125 0094 1A80     		strh	r2, [r3, #0]	@ movhi
 118:.\Generated_Source\PSoC5/USBUART_1_cdc.c ****                 USBUART_1_currentTD.pData = USBUART_1_lineCoding;
 126              		.loc 1 118 0
 127 0096 40F20003 		movw	r3, #:lower16:USBUART_1_currentTD
 128 009a C0F20003 		movt	r3, #:upper16:USBUART_1_currentTD
 129 009e 40F20002 		movw	r2, #:lower16:USBUART_1_lineCoding
 130 00a2 C0F20002 		movt	r2, #:upper16:USBUART_1_lineCoding
 131 00a6 5A60     		str	r2, [r3, #4]
 119:.\Generated_Source\PSoC5/USBUART_1_cdc.c ****                 USBUART_1_lineChanged |= USBUART_1_LINE_CODING_CHANGED;
 132              		.loc 1 119 0
 133 00a8 40F20003 		movw	r3, #:lower16:USBUART_1_lineChanged
 134 00ac C0F20003 		movt	r3, #:upper16:USBUART_1_lineChanged
 135 00b0 1B78     		ldrb	r3, [r3, #0]
 136 00b2 DBB2     		uxtb	r3, r3
 137 00b4 43F00103 		orr	r3, r3, #1
 138 00b8 DAB2     		uxtb	r2, r3
 139 00ba 40F20003 		movw	r3, #:lower16:USBUART_1_lineChanged
 140 00be C0F20003 		movt	r3, #:upper16:USBUART_1_lineChanged
 141 00c2 1A70     		strb	r2, [r3, #0]
 120:.\Generated_Source\PSoC5/USBUART_1_cdc.c ****                 requestHandled = USBUART_1_InitControlWrite();
 142              		.loc 1 120 0
 143 00c4 FFF7FEFF 		bl	USBUART_1_InitControlWrite
 144 00c8 0346     		mov	r3, r0
 145 00ca FB71     		strb	r3, [r7, #7]
 121:.\Generated_Source\PSoC5/USBUART_1_cdc.c ****                 break;
 146              		.loc 1 121 0
 147 00cc 1FE0     		b	.L6
 148              	.L9:
 122:.\Generated_Source\PSoC5/USBUART_1_cdc.c **** 
 123:.\Generated_Source\PSoC5/USBUART_1_cdc.c ****             case USBUART_1_CDC_SET_CONTROL_LINE_STATE:
 124:.\Generated_Source\PSoC5/USBUART_1_cdc.c ****                 USBUART_1_lineControlBitmap = CY_GET_REG8(USBUART_1_wValueLo);
 149              		.loc 1 124 0
 150 00ce 46F20203 		movw	r3, #24578
 151 00d2 C4F20003 		movt	r3, 16384
 152 00d6 1B78     		ldrb	r3, [r3, #0]
 153 00d8 DBB2     		uxtb	r3, r3
 154 00da 1A46     		mov	r2, r3
 155 00dc 40F20003 		movw	r3, #:lower16:USBUART_1_lineControlBitmap
 156 00e0 C0F20003 		movt	r3, #:upper16:USBUART_1_lineControlBitmap
 157 00e4 1A80     		strh	r2, [r3, #0]	@ movhi
 125:.\Generated_Source\PSoC5/USBUART_1_cdc.c ****                 USBUART_1_lineChanged |= USBUART_1_LINE_CONTROL_CHANGED;
 158              		.loc 1 125 0
 159 00e6 40F20003 		movw	r3, #:lower16:USBUART_1_lineChanged
 160 00ea C0F20003 		movt	r3, #:upper16:USBUART_1_lineChanged
ARM GAS  C:\Users\Robert\AppData\Local\Temp\ccNv74yg.s 			page 6


 161 00ee 1B78     		ldrb	r3, [r3, #0]
 162 00f0 DBB2     		uxtb	r3, r3
 163 00f2 43F00203 		orr	r3, r3, #2
 164 00f6 DAB2     		uxtb	r2, r3
 165 00f8 40F20003 		movw	r3, #:lower16:USBUART_1_lineChanged
 166 00fc C0F20003 		movt	r3, #:upper16:USBUART_1_lineChanged
 167 0100 1A70     		strb	r2, [r3, #0]
 126:.\Generated_Source\PSoC5/USBUART_1_cdc.c ****                 requestHandled = USBUART_1_InitNoDataControlTransfer();
 168              		.loc 1 126 0
 169 0102 FFF7FEFF 		bl	USBUART_1_InitNoDataControlTransfer
 170 0106 0346     		mov	r3, r0
 171 0108 FB71     		strb	r3, [r7, #7]
 127:.\Generated_Source\PSoC5/USBUART_1_cdc.c ****                 break;
 172              		.loc 1 127 0
 173 010a 00E0     		b	.L6
 174              	.L13:
 128:.\Generated_Source\PSoC5/USBUART_1_cdc.c **** 
 129:.\Generated_Source\PSoC5/USBUART_1_cdc.c ****             /* `#START CDC_WRITE_REQUESTS` Place other request handler here */
 130:.\Generated_Source\PSoC5/USBUART_1_cdc.c **** 
 131:.\Generated_Source\PSoC5/USBUART_1_cdc.c ****             /* `#END` */
 132:.\Generated_Source\PSoC5/USBUART_1_cdc.c **** 
 133:.\Generated_Source\PSoC5/USBUART_1_cdc.c ****             default:    /* requestHandled is initialized as FALSE by default */
 134:.\Generated_Source\PSoC5/USBUART_1_cdc.c ****                 break;
 175              		.loc 1 134 0
 176 010c 00BF     		nop
 177              	.L6:
 135:.\Generated_Source\PSoC5/USBUART_1_cdc.c ****         }
 136:.\Generated_Source\PSoC5/USBUART_1_cdc.c ****     }
 137:.\Generated_Source\PSoC5/USBUART_1_cdc.c ****     else
 138:.\Generated_Source\PSoC5/USBUART_1_cdc.c ****     {   /* requestHandled is initialized as FALSE by default */
 139:.\Generated_Source\PSoC5/USBUART_1_cdc.c ****     }
 140:.\Generated_Source\PSoC5/USBUART_1_cdc.c **** 
 141:.\Generated_Source\PSoC5/USBUART_1_cdc.c ****     return(requestHandled);
 178              		.loc 1 141 0
 179 010e FB79     		ldrb	r3, [r7, #7]	@ zero_extendqisi2
 142:.\Generated_Source\PSoC5/USBUART_1_cdc.c **** }
 180              		.loc 1 142 0
 181 0110 1846     		mov	r0, r3
 182 0112 07F10807 		add	r7, r7, #8
 183 0116 BD46     		mov	sp, r7
 184 0118 80BD     		pop	{r7, pc}
 185              		.cfi_endproc
 186              	.LFE0:
 187              		.size	USBUART_1_DispatchCDCClassRqst, .-USBUART_1_DispatchCDCClassRqst
 188 011a 00BF     		.section	.text.USBUART_1_CDC_Init,"ax",%progbits
 189              		.align	2
 190              		.global	USBUART_1_CDC_Init
 191              		.thumb
 192              		.thumb_func
 193              		.type	USBUART_1_CDC_Init, %function
 194              	USBUART_1_CDC_Init:
 195              	.LFB1:
 143:.\Generated_Source\PSoC5/USBUART_1_cdc.c **** 
 144:.\Generated_Source\PSoC5/USBUART_1_cdc.c **** 
 145:.\Generated_Source\PSoC5/USBUART_1_cdc.c **** /***************************************
 146:.\Generated_Source\PSoC5/USBUART_1_cdc.c **** * Optional CDC APIs
 147:.\Generated_Source\PSoC5/USBUART_1_cdc.c **** ***************************************/
ARM GAS  C:\Users\Robert\AppData\Local\Temp\ccNv74yg.s 			page 7


 148:.\Generated_Source\PSoC5/USBUART_1_cdc.c **** #if (USBUART_1_ENABLE_CDC_CLASS_API != 0u)
 149:.\Generated_Source\PSoC5/USBUART_1_cdc.c **** 
 150:.\Generated_Source\PSoC5/USBUART_1_cdc.c ****     /*******************************************************************************
 151:.\Generated_Source\PSoC5/USBUART_1_cdc.c ****     * Function Name: USBUART_1_CDC_Init
 152:.\Generated_Source\PSoC5/USBUART_1_cdc.c ****     ********************************************************************************
 153:.\Generated_Source\PSoC5/USBUART_1_cdc.c ****     *
 154:.\Generated_Source\PSoC5/USBUART_1_cdc.c ****     * Summary:
 155:.\Generated_Source\PSoC5/USBUART_1_cdc.c ****     *  This function initialize the CDC interface to be ready for the receive data
 156:.\Generated_Source\PSoC5/USBUART_1_cdc.c ****     *  from the PC.
 157:.\Generated_Source\PSoC5/USBUART_1_cdc.c ****     *
 158:.\Generated_Source\PSoC5/USBUART_1_cdc.c ****     * Parameters:
 159:.\Generated_Source\PSoC5/USBUART_1_cdc.c ****     *  None.
 160:.\Generated_Source\PSoC5/USBUART_1_cdc.c ****     *
 161:.\Generated_Source\PSoC5/USBUART_1_cdc.c ****     * Return:
 162:.\Generated_Source\PSoC5/USBUART_1_cdc.c ****     *  None.
 163:.\Generated_Source\PSoC5/USBUART_1_cdc.c ****     *
 164:.\Generated_Source\PSoC5/USBUART_1_cdc.c ****     * Global variables:
 165:.\Generated_Source\PSoC5/USBUART_1_cdc.c ****     *   USBUART_1_lineChanged: Initialized to zero.
 166:.\Generated_Source\PSoC5/USBUART_1_cdc.c ****     *   USBUART_1_cdc_data_out_ep: Used as an OUT endpoint number.
 167:.\Generated_Source\PSoC5/USBUART_1_cdc.c ****     *
 168:.\Generated_Source\PSoC5/USBUART_1_cdc.c ****     * Reentrant:
 169:.\Generated_Source\PSoC5/USBUART_1_cdc.c ****     *  No.
 170:.\Generated_Source\PSoC5/USBUART_1_cdc.c ****     *
 171:.\Generated_Source\PSoC5/USBUART_1_cdc.c ****     *******************************************************************************/
 172:.\Generated_Source\PSoC5/USBUART_1_cdc.c ****     void USBUART_1_CDC_Init(void) 
 173:.\Generated_Source\PSoC5/USBUART_1_cdc.c ****     {
 196              		.loc 1 173 0
 197              		.cfi_startproc
 198              		@ args = 0, pretend = 0, frame = 0
 199              		@ frame_needed = 1, uses_anonymous_args = 0
 200 0000 80B5     		push	{r7, lr}
 201              	.LCFI3:
 202              		.cfi_def_cfa_offset 8
 203              		.cfi_offset 7, -8
 204              		.cfi_offset 14, -4
 205 0002 00AF     		add	r7, sp, #0
 206              	.LCFI4:
 207              		.cfi_def_cfa_register 7
 174:.\Generated_Source\PSoC5/USBUART_1_cdc.c ****         USBUART_1_lineChanged = 0u;
 208              		.loc 1 174 0
 209 0004 40F20003 		movw	r3, #:lower16:USBUART_1_lineChanged
 210 0008 C0F20003 		movt	r3, #:upper16:USBUART_1_lineChanged
 211 000c 4FF00002 		mov	r2, #0
 212 0010 1A70     		strb	r2, [r3, #0]
 175:.\Generated_Source\PSoC5/USBUART_1_cdc.c ****         USBUART_1_EnableOutEP(USBUART_1_cdc_data_out_ep);
 213              		.loc 1 175 0
 214 0012 40F20003 		movw	r3, #:lower16:USBUART_1_cdc_data_out_ep
 215 0016 C0F20003 		movt	r3, #:upper16:USBUART_1_cdc_data_out_ep
 216 001a 1B78     		ldrb	r3, [r3, #0]
 217 001c DBB2     		uxtb	r3, r3
 218 001e 1846     		mov	r0, r3
 219 0020 FFF7FEFF 		bl	USBUART_1_EnableOutEP
 176:.\Generated_Source\PSoC5/USBUART_1_cdc.c ****     }
 220              		.loc 1 176 0
 221 0024 80BD     		pop	{r7, pc}
 222              		.cfi_endproc
 223              	.LFE1:
ARM GAS  C:\Users\Robert\AppData\Local\Temp\ccNv74yg.s 			page 8


 224              		.size	USBUART_1_CDC_Init, .-USBUART_1_CDC_Init
 225 0026 00BF     		.section	.text.USBUART_1_PutData,"ax",%progbits
 226              		.align	2
 227              		.global	USBUART_1_PutData
 228              		.thumb
 229              		.thumb_func
 230              		.type	USBUART_1_PutData, %function
 231              	USBUART_1_PutData:
 232              	.LFB2:
 177:.\Generated_Source\PSoC5/USBUART_1_cdc.c **** 
 178:.\Generated_Source\PSoC5/USBUART_1_cdc.c **** 
 179:.\Generated_Source\PSoC5/USBUART_1_cdc.c ****     /*******************************************************************************
 180:.\Generated_Source\PSoC5/USBUART_1_cdc.c ****     * Function Name: USBUART_1_PutData
 181:.\Generated_Source\PSoC5/USBUART_1_cdc.c ****     ********************************************************************************
 182:.\Generated_Source\PSoC5/USBUART_1_cdc.c ****     *
 183:.\Generated_Source\PSoC5/USBUART_1_cdc.c ****     * Summary:
 184:.\Generated_Source\PSoC5/USBUART_1_cdc.c ****     *  This function sends a specified number of bytes from the location specified
 185:.\Generated_Source\PSoC5/USBUART_1_cdc.c ****     *  by a pointer to the PC. The USBUART_1_CDCIsReady() function should be
 186:.\Generated_Source\PSoC5/USBUART_1_cdc.c ****     *  called before sending new data, to be sure that the previous data has
 187:.\Generated_Source\PSoC5/USBUART_1_cdc.c ****     *  finished sending.
 188:.\Generated_Source\PSoC5/USBUART_1_cdc.c ****     *  If the last sent packet is less than maximum packet size the USB transfer
 189:.\Generated_Source\PSoC5/USBUART_1_cdc.c ****     *  of this short packet will identify the end of the segment. If the last sent
 190:.\Generated_Source\PSoC5/USBUART_1_cdc.c ****     *  packet is exactly maximum packet size, it shall be followed by a zero-length
 191:.\Generated_Source\PSoC5/USBUART_1_cdc.c ****     *  packet (which is a short packet) to assure the end of segment is properly
 192:.\Generated_Source\PSoC5/USBUART_1_cdc.c ****     *  identified. To send zero-length packet, use USBUART_1_PutData() API
 193:.\Generated_Source\PSoC5/USBUART_1_cdc.c ****     *  with length parameter set to zero.
 194:.\Generated_Source\PSoC5/USBUART_1_cdc.c ****     *
 195:.\Generated_Source\PSoC5/USBUART_1_cdc.c ****     * Parameters:
 196:.\Generated_Source\PSoC5/USBUART_1_cdc.c ****     *  pData: pointer to the buffer containing data to be sent.
 197:.\Generated_Source\PSoC5/USBUART_1_cdc.c ****     *  length: Specifies the number of bytes to send from the pData
 198:.\Generated_Source\PSoC5/USBUART_1_cdc.c ****     *  buffer. Maximum length will be limited by the maximum packet
 199:.\Generated_Source\PSoC5/USBUART_1_cdc.c ****     *  size for the endpoint. Data will be lost if length is greater than Max
 200:.\Generated_Source\PSoC5/USBUART_1_cdc.c ****     *  Packet Size.
 201:.\Generated_Source\PSoC5/USBUART_1_cdc.c ****     *
 202:.\Generated_Source\PSoC5/USBUART_1_cdc.c ****     * Return:
 203:.\Generated_Source\PSoC5/USBUART_1_cdc.c ****     *  None.
 204:.\Generated_Source\PSoC5/USBUART_1_cdc.c ****     *
 205:.\Generated_Source\PSoC5/USBUART_1_cdc.c ****     * Global variables:
 206:.\Generated_Source\PSoC5/USBUART_1_cdc.c ****     *   USBUART_1_cdc_data_in_ep: CDC IN endpoint number used for sending
 207:.\Generated_Source\PSoC5/USBUART_1_cdc.c ****     *     data.
 208:.\Generated_Source\PSoC5/USBUART_1_cdc.c ****     *
 209:.\Generated_Source\PSoC5/USBUART_1_cdc.c ****     * Reentrant:
 210:.\Generated_Source\PSoC5/USBUART_1_cdc.c ****     *  No.
 211:.\Generated_Source\PSoC5/USBUART_1_cdc.c ****     *
 212:.\Generated_Source\PSoC5/USBUART_1_cdc.c ****     *******************************************************************************/
 213:.\Generated_Source\PSoC5/USBUART_1_cdc.c ****     void USBUART_1_PutData(const uint8* pData, uint16 length) 
 214:.\Generated_Source\PSoC5/USBUART_1_cdc.c ****     {
 233              		.loc 1 214 0
 234              		.cfi_startproc
 235              		@ args = 0, pretend = 0, frame = 8
 236              		@ frame_needed = 1, uses_anonymous_args = 0
 237 0000 80B5     		push	{r7, lr}
 238              	.LCFI5:
 239              		.cfi_def_cfa_offset 8
 240              		.cfi_offset 7, -8
 241              		.cfi_offset 14, -4
 242 0002 82B0     		sub	sp, sp, #8
ARM GAS  C:\Users\Robert\AppData\Local\Temp\ccNv74yg.s 			page 9


 243              	.LCFI6:
 244              		.cfi_def_cfa_offset 16
 245 0004 00AF     		add	r7, sp, #0
 246              	.LCFI7:
 247              		.cfi_def_cfa_register 7
 248 0006 7860     		str	r0, [r7, #4]
 249 0008 0B46     		mov	r3, r1
 250 000a 7B80     		strh	r3, [r7, #2]	@ movhi
 215:.\Generated_Source\PSoC5/USBUART_1_cdc.c ****         /* Limits length to maximum packet size for the EP */
 216:.\Generated_Source\PSoC5/USBUART_1_cdc.c ****         if(length > USBUART_1_EP[USBUART_1_cdc_data_in_ep].bufferSize)
 251              		.loc 1 216 0
 252 000c 40F20003 		movw	r3, #:lower16:USBUART_1_cdc_data_in_ep
 253 0010 C0F20003 		movt	r3, #:upper16:USBUART_1_cdc_data_in_ep
 254 0014 1B78     		ldrb	r3, [r3, #0]
 255 0016 DBB2     		uxtb	r3, r3
 256 0018 1946     		mov	r1, r3
 257 001a 40F20002 		movw	r2, #:lower16:USBUART_1_EP
 258 001e C0F20002 		movt	r2, #:upper16:USBUART_1_EP
 259 0022 0B46     		mov	r3, r1
 260 0024 4FEA4303 		lsl	r3, r3, #1
 261 0028 5B18     		adds	r3, r3, r1
 262 002a 4FEA8303 		lsl	r3, r3, #2
 263 002e D318     		adds	r3, r2, r3
 264 0030 03F10803 		add	r3, r3, #8
 265 0034 1B88     		ldrh	r3, [r3, #0]	@ movhi
 266 0036 9BB2     		uxth	r3, r3
 267 0038 7A88     		ldrh	r2, [r7, #2]
 268 003a 9A42     		cmp	r2, r3
 269 003c 19D9     		bls	.L16
 217:.\Generated_Source\PSoC5/USBUART_1_cdc.c ****         {
 218:.\Generated_Source\PSoC5/USBUART_1_cdc.c ****             /* Caution: Data will be lost if length is greater than Max Packet Length */
 219:.\Generated_Source\PSoC5/USBUART_1_cdc.c ****             length = USBUART_1_EP[USBUART_1_cdc_data_in_ep].bufferSize;
 270              		.loc 1 219 0
 271 003e 40F20003 		movw	r3, #:lower16:USBUART_1_cdc_data_in_ep
 272 0042 C0F20003 		movt	r3, #:upper16:USBUART_1_cdc_data_in_ep
 273 0046 1B78     		ldrb	r3, [r3, #0]
 274 0048 DBB2     		uxtb	r3, r3
 275 004a 1946     		mov	r1, r3
 276 004c 40F20002 		movw	r2, #:lower16:USBUART_1_EP
 277 0050 C0F20002 		movt	r2, #:upper16:USBUART_1_EP
 278 0054 0B46     		mov	r3, r1
 279 0056 4FEA4303 		lsl	r3, r3, #1
 280 005a 5B18     		adds	r3, r3, r1
 281 005c 4FEA8303 		lsl	r3, r3, #2
 282 0060 D318     		adds	r3, r2, r3
 283 0062 03F10803 		add	r3, r3, #8
 284 0066 1B88     		ldrh	r3, [r3, #0]	@ movhi
 285 0068 7B80     		strh	r3, [r7, #2]	@ movhi
 220:.\Generated_Source\PSoC5/USBUART_1_cdc.c ****              /* Halt CPU in debug mode */
 221:.\Generated_Source\PSoC5/USBUART_1_cdc.c ****             CYASSERT(0u != 0u);
 286              		.loc 1 221 0
 287 006a 4FF00000 		mov	r0, #0
 288 006e FFF7FEFF 		bl	CyHalt
 289              	.L16:
 222:.\Generated_Source\PSoC5/USBUART_1_cdc.c ****         }
 223:.\Generated_Source\PSoC5/USBUART_1_cdc.c ****         USBUART_1_LoadInEP(USBUART_1_cdc_data_in_ep, pData, length);
 290              		.loc 1 223 0
ARM GAS  C:\Users\Robert\AppData\Local\Temp\ccNv74yg.s 			page 10


 291 0072 40F20003 		movw	r3, #:lower16:USBUART_1_cdc_data_in_ep
 292 0076 C0F20003 		movt	r3, #:upper16:USBUART_1_cdc_data_in_ep
 293 007a 1B78     		ldrb	r3, [r3, #0]
 294 007c DAB2     		uxtb	r2, r3
 295 007e 7B88     		ldrh	r3, [r7, #2]
 296 0080 1046     		mov	r0, r2
 297 0082 7968     		ldr	r1, [r7, #4]
 298 0084 1A46     		mov	r2, r3
 299 0086 FFF7FEFF 		bl	USBUART_1_LoadInEP
 224:.\Generated_Source\PSoC5/USBUART_1_cdc.c ****     }
 300              		.loc 1 224 0
 301 008a 07F10807 		add	r7, r7, #8
 302 008e BD46     		mov	sp, r7
 303 0090 80BD     		pop	{r7, pc}
 304              		.cfi_endproc
 305              	.LFE2:
 306              		.size	USBUART_1_PutData, .-USBUART_1_PutData
 307 0092 00BF     		.section	.text.USBUART_1_StrLen,"ax",%progbits
 308              		.align	2
 309              		.thumb
 310              		.thumb_func
 311              		.type	USBUART_1_StrLen, %function
 312              	USBUART_1_StrLen:
 313              	.LFB3:
 225:.\Generated_Source\PSoC5/USBUART_1_cdc.c **** 
 226:.\Generated_Source\PSoC5/USBUART_1_cdc.c **** 
 227:.\Generated_Source\PSoC5/USBUART_1_cdc.c ****     /*******************************************************************************
 228:.\Generated_Source\PSoC5/USBUART_1_cdc.c ****     * Function Name: USBUART_1_StrLen
 229:.\Generated_Source\PSoC5/USBUART_1_cdc.c ****     ********************************************************************************
 230:.\Generated_Source\PSoC5/USBUART_1_cdc.c ****     *
 231:.\Generated_Source\PSoC5/USBUART_1_cdc.c ****     * Summary:
 232:.\Generated_Source\PSoC5/USBUART_1_cdc.c ****     *  Calculates length of a null terminated string.
 233:.\Generated_Source\PSoC5/USBUART_1_cdc.c ****     *
 234:.\Generated_Source\PSoC5/USBUART_1_cdc.c ****     * Parameters:
 235:.\Generated_Source\PSoC5/USBUART_1_cdc.c ****     *  string: pointer to the string.
 236:.\Generated_Source\PSoC5/USBUART_1_cdc.c ****     *
 237:.\Generated_Source\PSoC5/USBUART_1_cdc.c ****     * Return:
 238:.\Generated_Source\PSoC5/USBUART_1_cdc.c ****     *  Length of the string
 239:.\Generated_Source\PSoC5/USBUART_1_cdc.c ****     *
 240:.\Generated_Source\PSoC5/USBUART_1_cdc.c ****     *******************************************************************************/
 241:.\Generated_Source\PSoC5/USBUART_1_cdc.c ****     static uint16 USBUART_1_StrLen(const char8 string[]) 
 242:.\Generated_Source\PSoC5/USBUART_1_cdc.c ****     {
 314              		.loc 1 242 0
 315              		.cfi_startproc
 316              		@ args = 0, pretend = 0, frame = 16
 317              		@ frame_needed = 1, uses_anonymous_args = 0
 318              		@ link register save eliminated.
 319 0000 80B4     		push	{r7}
 320              	.LCFI8:
 321              		.cfi_def_cfa_offset 4
 322              		.cfi_offset 7, -4
 323 0002 85B0     		sub	sp, sp, #20
 324              	.LCFI9:
 325              		.cfi_def_cfa_offset 24
 326 0004 00AF     		add	r7, sp, #0
 327              	.LCFI10:
 328              		.cfi_def_cfa_register 7
ARM GAS  C:\Users\Robert\AppData\Local\Temp\ccNv74yg.s 			page 11


 329 0006 7860     		str	r0, [r7, #4]
 243:.\Generated_Source\PSoC5/USBUART_1_cdc.c ****         uint16 len = 0u;
 330              		.loc 1 243 0
 331 0008 4FF00003 		mov	r3, #0
 332 000c FB81     		strh	r3, [r7, #14]	@ movhi
 244:.\Generated_Source\PSoC5/USBUART_1_cdc.c **** 
 245:.\Generated_Source\PSoC5/USBUART_1_cdc.c ****         while (string[len] != (char8)0)
 333              		.loc 1 245 0
 334 000e 03E0     		b	.L18
 335              	.L19:
 246:.\Generated_Source\PSoC5/USBUART_1_cdc.c ****         {
 247:.\Generated_Source\PSoC5/USBUART_1_cdc.c ****             len++;
 336              		.loc 1 247 0
 337 0010 FB89     		ldrh	r3, [r7, #14]	@ movhi
 338 0012 03F10103 		add	r3, r3, #1
 339 0016 FB81     		strh	r3, [r7, #14]	@ movhi
 340              	.L18:
 245:.\Generated_Source\PSoC5/USBUART_1_cdc.c ****         while (string[len] != (char8)0)
 341              		.loc 1 245 0 discriminator 1
 342 0018 FB89     		ldrh	r3, [r7, #14]
 343 001a 7A68     		ldr	r2, [r7, #4]
 344 001c D318     		adds	r3, r2, r3
 345 001e 1B78     		ldrb	r3, [r3, #0]	@ zero_extendqisi2
 346 0020 002B     		cmp	r3, #0
 347 0022 F5D1     		bne	.L19
 248:.\Generated_Source\PSoC5/USBUART_1_cdc.c ****         }
 249:.\Generated_Source\PSoC5/USBUART_1_cdc.c **** 
 250:.\Generated_Source\PSoC5/USBUART_1_cdc.c ****         return (len);
 348              		.loc 1 250 0
 349 0024 FB89     		ldrh	r3, [r7, #14]
 251:.\Generated_Source\PSoC5/USBUART_1_cdc.c ****     }
 350              		.loc 1 251 0
 351 0026 1846     		mov	r0, r3
 352 0028 07F11407 		add	r7, r7, #20
 353 002c BD46     		mov	sp, r7
 354 002e 80BC     		pop	{r7}
 355 0030 7047     		bx	lr
 356              		.cfi_endproc
 357              	.LFE3:
 358              		.size	USBUART_1_StrLen, .-USBUART_1_StrLen
 359 0032 00BF     		.section	.text.USBUART_1_PutString,"ax",%progbits
 360              		.align	2
 361              		.global	USBUART_1_PutString
 362              		.thumb
 363              		.thumb_func
 364              		.type	USBUART_1_PutString, %function
 365              	USBUART_1_PutString:
 366              	.LFB4:
 252:.\Generated_Source\PSoC5/USBUART_1_cdc.c **** 
 253:.\Generated_Source\PSoC5/USBUART_1_cdc.c **** 
 254:.\Generated_Source\PSoC5/USBUART_1_cdc.c ****     /*******************************************************************************
 255:.\Generated_Source\PSoC5/USBUART_1_cdc.c ****     * Function Name: USBUART_1_PutString
 256:.\Generated_Source\PSoC5/USBUART_1_cdc.c ****     ********************************************************************************
 257:.\Generated_Source\PSoC5/USBUART_1_cdc.c ****     *
 258:.\Generated_Source\PSoC5/USBUART_1_cdc.c ****     * Summary:
 259:.\Generated_Source\PSoC5/USBUART_1_cdc.c ****     *  This function sends a null terminated string to the PC. This function will
 260:.\Generated_Source\PSoC5/USBUART_1_cdc.c ****     *  block if there is not enough memory to place the whole string. It will block
ARM GAS  C:\Users\Robert\AppData\Local\Temp\ccNv74yg.s 			page 12


 261:.\Generated_Source\PSoC5/USBUART_1_cdc.c ****     *  until the entire string has been written to the transmit buffer.
 262:.\Generated_Source\PSoC5/USBUART_1_cdc.c ****     *  The USBUART_CDCIsReady() function should be called before sending data with
 263:.\Generated_Source\PSoC5/USBUART_1_cdc.c ****     *  a new call to USBUART_1_PutString(), to be sure that the previous data
 264:.\Generated_Source\PSoC5/USBUART_1_cdc.c ****     *  has finished sending.
 265:.\Generated_Source\PSoC5/USBUART_1_cdc.c ****     *
 266:.\Generated_Source\PSoC5/USBUART_1_cdc.c ****     * Parameters:
 267:.\Generated_Source\PSoC5/USBUART_1_cdc.c ****     *  string: pointer to the string to be sent to the PC.
 268:.\Generated_Source\PSoC5/USBUART_1_cdc.c ****     *
 269:.\Generated_Source\PSoC5/USBUART_1_cdc.c ****     * Return:
 270:.\Generated_Source\PSoC5/USBUART_1_cdc.c ****     *  None.
 271:.\Generated_Source\PSoC5/USBUART_1_cdc.c ****     *
 272:.\Generated_Source\PSoC5/USBUART_1_cdc.c ****     * Global variables:
 273:.\Generated_Source\PSoC5/USBUART_1_cdc.c ****     *   USBUART_1_cdc_data_in_ep: CDC IN endpoint number used for sending
 274:.\Generated_Source\PSoC5/USBUART_1_cdc.c ****     *     data.
 275:.\Generated_Source\PSoC5/USBUART_1_cdc.c ****     *
 276:.\Generated_Source\PSoC5/USBUART_1_cdc.c ****     * Reentrant:
 277:.\Generated_Source\PSoC5/USBUART_1_cdc.c ****     *  No.
 278:.\Generated_Source\PSoC5/USBUART_1_cdc.c ****     *
 279:.\Generated_Source\PSoC5/USBUART_1_cdc.c ****     *******************************************************************************/
 280:.\Generated_Source\PSoC5/USBUART_1_cdc.c ****     void USBUART_1_PutString(const char8 string[]) 
 281:.\Generated_Source\PSoC5/USBUART_1_cdc.c ****     {
 367              		.loc 1 281 0
 368              		.cfi_startproc
 369              		@ args = 0, pretend = 0, frame = 16
 370              		@ frame_needed = 1, uses_anonymous_args = 0
 371 0000 80B5     		push	{r7, lr}
 372              	.LCFI11:
 373              		.cfi_def_cfa_offset 8
 374              		.cfi_offset 7, -8
 375              		.cfi_offset 14, -4
 376 0002 84B0     		sub	sp, sp, #16
 377              	.LCFI12:
 378              		.cfi_def_cfa_offset 24
 379 0004 00AF     		add	r7, sp, #0
 380              	.LCFI13:
 381              		.cfi_def_cfa_register 7
 382 0006 7860     		str	r0, [r7, #4]
 282:.\Generated_Source\PSoC5/USBUART_1_cdc.c ****         uint16 strLength;
 283:.\Generated_Source\PSoC5/USBUART_1_cdc.c ****         uint16 sendLength;
 284:.\Generated_Source\PSoC5/USBUART_1_cdc.c ****         uint16 bufIndex = 0u;
 383              		.loc 1 284 0
 384 0008 4FF00003 		mov	r3, #0
 385 000c BB81     		strh	r3, [r7, #12]	@ movhi
 285:.\Generated_Source\PSoC5/USBUART_1_cdc.c **** 
 286:.\Generated_Source\PSoC5/USBUART_1_cdc.c ****         /* Get length of the null terminated string */
 287:.\Generated_Source\PSoC5/USBUART_1_cdc.c ****         strLength = USBUART_1_StrLen(string);
 386              		.loc 1 287 0
 387 000e 7868     		ldr	r0, [r7, #4]
 388 0010 FFF7FEFF 		bl	USBUART_1_StrLen
 389 0014 0346     		mov	r3, r0
 390 0016 FB81     		strh	r3, [r7, #14]	@ movhi
 391              	.L27:
 288:.\Generated_Source\PSoC5/USBUART_1_cdc.c ****         do
 289:.\Generated_Source\PSoC5/USBUART_1_cdc.c ****         {
 290:.\Generated_Source\PSoC5/USBUART_1_cdc.c ****             /* Limits length to maximum packet size for the EP */
 291:.\Generated_Source\PSoC5/USBUART_1_cdc.c ****             sendLength = (strLength > USBUART_1_EP[USBUART_1_cdc_data_in_ep].bufferSize) ?
 392              		.loc 1 291 0
ARM GAS  C:\Users\Robert\AppData\Local\Temp\ccNv74yg.s 			page 13


 393 0018 40F20003 		movw	r3, #:lower16:USBUART_1_cdc_data_in_ep
 394 001c C0F20003 		movt	r3, #:upper16:USBUART_1_cdc_data_in_ep
 395 0020 1B78     		ldrb	r3, [r3, #0]
 396 0022 DBB2     		uxtb	r3, r3
 397 0024 1946     		mov	r1, r3
 398 0026 40F20002 		movw	r2, #:lower16:USBUART_1_EP
 399 002a C0F20002 		movt	r2, #:upper16:USBUART_1_EP
 400 002e 0B46     		mov	r3, r1
 401 0030 4FEA4303 		lsl	r3, r3, #1
 402 0034 5B18     		adds	r3, r3, r1
 403 0036 4FEA8303 		lsl	r3, r3, #2
 404 003a D318     		adds	r3, r2, r3
 405 003c 03F10803 		add	r3, r3, #8
 406 0040 1B88     		ldrh	r3, [r3, #0]	@ movhi
 407 0042 9BB2     		uxth	r3, r3
 408 0044 FA89     		ldrh	r2, [r7, #14]
 409 0046 9A42     		cmp	r2, r3
 410 0048 16D9     		bls	.L22
 292:.\Generated_Source\PSoC5/USBUART_1_cdc.c ****                           USBUART_1_EP[USBUART_1_cdc_data_in_ep].bufferSize : strLength;
 411              		.loc 1 292 0
 412 004a 40F20003 		movw	r3, #:lower16:USBUART_1_cdc_data_in_ep
 413 004e C0F20003 		movt	r3, #:upper16:USBUART_1_cdc_data_in_ep
 414 0052 1B78     		ldrb	r3, [r3, #0]
 415 0054 DBB2     		uxtb	r3, r3
 416 0056 1946     		mov	r1, r3
 291:.\Generated_Source\PSoC5/USBUART_1_cdc.c ****             sendLength = (strLength > USBUART_1_EP[USBUART_1_cdc_data_in_ep].bufferSize) ?
 417              		.loc 1 291 0
 418 0058 40F20002 		movw	r2, #:lower16:USBUART_1_EP
 419 005c C0F20002 		movt	r2, #:upper16:USBUART_1_EP
 420 0060 0B46     		mov	r3, r1
 421 0062 4FEA4303 		lsl	r3, r3, #1
 422 0066 5B18     		adds	r3, r3, r1
 423 0068 4FEA8303 		lsl	r3, r3, #2
 424 006c D318     		adds	r3, r2, r3
 425 006e 03F10803 		add	r3, r3, #8
 426 0072 1B88     		ldrh	r3, [r3, #0]	@ movhi
 427 0074 9BB2     		uxth	r3, r3
 428 0076 00E0     		b	.L23
 429              	.L22:
 291:.\Generated_Source\PSoC5/USBUART_1_cdc.c ****             sendLength = (strLength > USBUART_1_EP[USBUART_1_cdc_data_in_ep].bufferSize) ?
 430              		.loc 1 291 0 is_stmt 0 discriminator 1
 431 0078 FB89     		ldrh	r3, [r7, #14]
 432              	.L23:
 291:.\Generated_Source\PSoC5/USBUART_1_cdc.c ****             sendLength = (strLength > USBUART_1_EP[USBUART_1_cdc_data_in_ep].bufferSize) ?
 433              		.loc 1 291 0 discriminator 2
 434 007a 7B81     		strh	r3, [r7, #10]	@ movhi
 293:.\Generated_Source\PSoC5/USBUART_1_cdc.c ****              /* Enable IN transfer */
 294:.\Generated_Source\PSoC5/USBUART_1_cdc.c ****             USBUART_1_LoadInEP(USBUART_1_cdc_data_in_ep, (const uint8 *)&string[bufIndex], sendLeng
 435              		.loc 1 294 0 is_stmt 1 discriminator 2
 436 007c 40F20003 		movw	r3, #:lower16:USBUART_1_cdc_data_in_ep
 437 0080 C0F20003 		movt	r3, #:upper16:USBUART_1_cdc_data_in_ep
 438 0084 1B78     		ldrb	r3, [r3, #0]
 439 0086 D9B2     		uxtb	r1, r3
 440 0088 BB89     		ldrh	r3, [r7, #12]
 441 008a 7A68     		ldr	r2, [r7, #4]
 442 008c D218     		adds	r2, r2, r3
 443 008e 7B89     		ldrh	r3, [r7, #10]
ARM GAS  C:\Users\Robert\AppData\Local\Temp\ccNv74yg.s 			page 14


 444 0090 0846     		mov	r0, r1
 445 0092 1146     		mov	r1, r2
 446 0094 1A46     		mov	r2, r3
 447 0096 FFF7FEFF 		bl	USBUART_1_LoadInEP
 295:.\Generated_Source\PSoC5/USBUART_1_cdc.c ****             strLength -= sendLength;
 448              		.loc 1 295 0 discriminator 2
 449 009a FA89     		ldrh	r2, [r7, #14]	@ movhi
 450 009c 7B89     		ldrh	r3, [r7, #10]	@ movhi
 451 009e D31A     		subs	r3, r2, r3
 452 00a0 FB81     		strh	r3, [r7, #14]	@ movhi
 296:.\Generated_Source\PSoC5/USBUART_1_cdc.c **** 
 297:.\Generated_Source\PSoC5/USBUART_1_cdc.c ****             /* If more data are present to send or full packet was sent */
 298:.\Generated_Source\PSoC5/USBUART_1_cdc.c ****             if((strLength > 0u) || (sendLength == USBUART_1_EP[USBUART_1_cdc_data_in_ep].bufferSize
 453              		.loc 1 298 0 discriminator 2
 454 00a2 FB89     		ldrh	r3, [r7, #14]
 455 00a4 002B     		cmp	r3, #0
 456 00a6 18D1     		bne	.L24
 457              		.loc 1 298 0 is_stmt 0 discriminator 1
 458 00a8 40F20003 		movw	r3, #:lower16:USBUART_1_cdc_data_in_ep
 459 00ac C0F20003 		movt	r3, #:upper16:USBUART_1_cdc_data_in_ep
 460 00b0 1B78     		ldrb	r3, [r3, #0]
 461 00b2 DBB2     		uxtb	r3, r3
 462 00b4 1946     		mov	r1, r3
 463 00b6 40F20002 		movw	r2, #:lower16:USBUART_1_EP
 464 00ba C0F20002 		movt	r2, #:upper16:USBUART_1_EP
 465 00be 0B46     		mov	r3, r1
 466 00c0 4FEA4303 		lsl	r3, r3, #1
 467 00c4 5B18     		adds	r3, r3, r1
 468 00c6 4FEA8303 		lsl	r3, r3, #2
 469 00ca D318     		adds	r3, r2, r3
 470 00cc 03F10803 		add	r3, r3, #8
 471 00d0 1B88     		ldrh	r3, [r3, #0]	@ movhi
 472 00d2 9BB2     		uxth	r3, r3
 473 00d4 7A89     		ldrh	r2, [r7, #10]
 474 00d6 9A42     		cmp	r2, r3
 475 00d8 2AD1     		bne	.L25
 476              	.L24:
 299:.\Generated_Source\PSoC5/USBUART_1_cdc.c ****             {
 300:.\Generated_Source\PSoC5/USBUART_1_cdc.c ****                 bufIndex += sendLength;
 477              		.loc 1 300 0 is_stmt 1
 478 00da BA89     		ldrh	r2, [r7, #12]	@ movhi
 479 00dc 7B89     		ldrh	r3, [r7, #10]	@ movhi
 480 00de D318     		adds	r3, r2, r3
 481 00e0 BB81     		strh	r3, [r7, #12]	@ movhi
 301:.\Generated_Source\PSoC5/USBUART_1_cdc.c ****                 /* Wait for the Host to read it. */
 302:.\Generated_Source\PSoC5/USBUART_1_cdc.c ****                 while(USBUART_1_EP[USBUART_1_cdc_data_in_ep].apiEpState ==
 482              		.loc 1 302 0
 483 00e2 00BF     		nop
 484              	.L26:
 485              		.loc 1 302 0 is_stmt 0 discriminator 1
 486 00e4 40F20003 		movw	r3, #:lower16:USBUART_1_cdc_data_in_ep
 487 00e8 C0F20003 		movt	r3, #:upper16:USBUART_1_cdc_data_in_ep
 488 00ec 1B78     		ldrb	r3, [r3, #0]
 489 00ee DBB2     		uxtb	r3, r3
 490 00f0 1946     		mov	r1, r3
 491 00f2 40F20002 		movw	r2, #:lower16:USBUART_1_EP
 492 00f6 C0F20002 		movt	r2, #:upper16:USBUART_1_EP
ARM GAS  C:\Users\Robert\AppData\Local\Temp\ccNv74yg.s 			page 15


 493 00fa 0B46     		mov	r3, r1
 494 00fc 4FEA4303 		lsl	r3, r3, #1
 495 0100 5B18     		adds	r3, r3, r1
 496 0102 4FEA8303 		lsl	r3, r3, #2
 497 0106 D318     		adds	r3, r2, r3
 498 0108 5B78     		ldrb	r3, [r3, #1]
 499 010a DBB2     		uxtb	r3, r3
 500 010c 002B     		cmp	r3, #0
 501 010e E9D0     		beq	.L26
 303:.\Generated_Source\PSoC5/USBUART_1_cdc.c ****                                           USBUART_1_IN_BUFFER_FULL)
 304:.\Generated_Source\PSoC5/USBUART_1_cdc.c ****                 {
 305:.\Generated_Source\PSoC5/USBUART_1_cdc.c ****                     ;
 306:.\Generated_Source\PSoC5/USBUART_1_cdc.c ****                 }
 307:.\Generated_Source\PSoC5/USBUART_1_cdc.c ****                 /* If the last sent packet is exactly maximum packet size, 
 308:.\Generated_Source\PSoC5/USBUART_1_cdc.c ****                 *  it shall be followed by a zero-length packet to assure the
 309:.\Generated_Source\PSoC5/USBUART_1_cdc.c ****                 *  end of segment is properly identified by the terminal.
 310:.\Generated_Source\PSoC5/USBUART_1_cdc.c ****                 */
 311:.\Generated_Source\PSoC5/USBUART_1_cdc.c ****                 if(strLength == 0u)
 502              		.loc 1 311 0 is_stmt 1
 503 0110 FB89     		ldrh	r3, [r7, #14]
 504 0112 002B     		cmp	r3, #0
 505 0114 0CD1     		bne	.L25
 312:.\Generated_Source\PSoC5/USBUART_1_cdc.c ****                 {
 313:.\Generated_Source\PSoC5/USBUART_1_cdc.c ****                     USBUART_1_LoadInEP(USBUART_1_cdc_data_in_ep, NULL, 0u);
 506              		.loc 1 313 0
 507 0116 40F20003 		movw	r3, #:lower16:USBUART_1_cdc_data_in_ep
 508 011a C0F20003 		movt	r3, #:upper16:USBUART_1_cdc_data_in_ep
 509 011e 1B78     		ldrb	r3, [r3, #0]
 510 0120 DBB2     		uxtb	r3, r3
 511 0122 1846     		mov	r0, r3
 512 0124 4FF00001 		mov	r1, #0
 513 0128 4FF00002 		mov	r2, #0
 514 012c FFF7FEFF 		bl	USBUART_1_LoadInEP
 515              	.L25:
 314:.\Generated_Source\PSoC5/USBUART_1_cdc.c ****                 }
 315:.\Generated_Source\PSoC5/USBUART_1_cdc.c ****             }
 316:.\Generated_Source\PSoC5/USBUART_1_cdc.c ****         }while(strLength > 0u);
 516              		.loc 1 316 0
 517 0130 FB89     		ldrh	r3, [r7, #14]
 518 0132 002B     		cmp	r3, #0
 519 0134 7FF470AF 		bne	.L27
 317:.\Generated_Source\PSoC5/USBUART_1_cdc.c ****     }
 520              		.loc 1 317 0
 521 0138 07F11007 		add	r7, r7, #16
 522 013c BD46     		mov	sp, r7
 523 013e 80BD     		pop	{r7, pc}
 524              		.cfi_endproc
 525              	.LFE4:
 526              		.size	USBUART_1_PutString, .-USBUART_1_PutString
 527              		.section	.text.USBUART_1_PutChar,"ax",%progbits
 528              		.align	2
 529              		.global	USBUART_1_PutChar
 530              		.thumb
 531              		.thumb_func
 532              		.type	USBUART_1_PutChar, %function
 533              	USBUART_1_PutChar:
 534              	.LFB5:
ARM GAS  C:\Users\Robert\AppData\Local\Temp\ccNv74yg.s 			page 16


 318:.\Generated_Source\PSoC5/USBUART_1_cdc.c **** 
 319:.\Generated_Source\PSoC5/USBUART_1_cdc.c **** 
 320:.\Generated_Source\PSoC5/USBUART_1_cdc.c ****     /*******************************************************************************
 321:.\Generated_Source\PSoC5/USBUART_1_cdc.c ****     * Function Name: USBUART_1_PutChar
 322:.\Generated_Source\PSoC5/USBUART_1_cdc.c ****     ********************************************************************************
 323:.\Generated_Source\PSoC5/USBUART_1_cdc.c ****     *
 324:.\Generated_Source\PSoC5/USBUART_1_cdc.c ****     * Summary:
 325:.\Generated_Source\PSoC5/USBUART_1_cdc.c ****     *  Writes a single character to the PC.
 326:.\Generated_Source\PSoC5/USBUART_1_cdc.c ****     *
 327:.\Generated_Source\PSoC5/USBUART_1_cdc.c ****     * Parameters:
 328:.\Generated_Source\PSoC5/USBUART_1_cdc.c ****     *  txDataByte: Character to be sent to the PC.
 329:.\Generated_Source\PSoC5/USBUART_1_cdc.c ****     *
 330:.\Generated_Source\PSoC5/USBUART_1_cdc.c ****     * Return:
 331:.\Generated_Source\PSoC5/USBUART_1_cdc.c ****     *  None.
 332:.\Generated_Source\PSoC5/USBUART_1_cdc.c ****     *
 333:.\Generated_Source\PSoC5/USBUART_1_cdc.c ****     * Global variables:
 334:.\Generated_Source\PSoC5/USBUART_1_cdc.c ****     *   USBUART_1_cdc_data_in_ep: CDC IN endpoint number used for sending
 335:.\Generated_Source\PSoC5/USBUART_1_cdc.c ****     *     data.
 336:.\Generated_Source\PSoC5/USBUART_1_cdc.c ****     *
 337:.\Generated_Source\PSoC5/USBUART_1_cdc.c ****     * Reentrant:
 338:.\Generated_Source\PSoC5/USBUART_1_cdc.c ****     *  No.
 339:.\Generated_Source\PSoC5/USBUART_1_cdc.c ****     *
 340:.\Generated_Source\PSoC5/USBUART_1_cdc.c ****     *******************************************************************************/
 341:.\Generated_Source\PSoC5/USBUART_1_cdc.c ****     void USBUART_1_PutChar(char8 txDataByte) 
 342:.\Generated_Source\PSoC5/USBUART_1_cdc.c ****     {
 535              		.loc 1 342 0
 536              		.cfi_startproc
 537              		@ args = 0, pretend = 0, frame = 16
 538              		@ frame_needed = 1, uses_anonymous_args = 0
 539 0000 80B5     		push	{r7, lr}
 540              	.LCFI14:
 541              		.cfi_def_cfa_offset 8
 542              		.cfi_offset 7, -8
 543              		.cfi_offset 14, -4
 544 0002 84B0     		sub	sp, sp, #16
 545              	.LCFI15:
 546              		.cfi_def_cfa_offset 24
 547 0004 00AF     		add	r7, sp, #0
 548              	.LCFI16:
 549              		.cfi_def_cfa_register 7
 550 0006 0346     		mov	r3, r0
 551 0008 FB71     		strb	r3, [r7, #7]
 343:.\Generated_Source\PSoC5/USBUART_1_cdc.c ****         uint8 dataByte;
 344:.\Generated_Source\PSoC5/USBUART_1_cdc.c ****         dataByte = (uint8)txDataByte;
 552              		.loc 1 344 0
 553 000a FB79     		ldrb	r3, [r7, #7]
 554 000c FB73     		strb	r3, [r7, #15]
 345:.\Generated_Source\PSoC5/USBUART_1_cdc.c **** 
 346:.\Generated_Source\PSoC5/USBUART_1_cdc.c ****         USBUART_1_LoadInEP(USBUART_1_cdc_data_in_ep, &dataByte, 1u);
 555              		.loc 1 346 0
 556 000e 40F20003 		movw	r3, #:lower16:USBUART_1_cdc_data_in_ep
 557 0012 C0F20003 		movt	r3, #:upper16:USBUART_1_cdc_data_in_ep
 558 0016 1B78     		ldrb	r3, [r3, #0]
 559 0018 DAB2     		uxtb	r2, r3
 560 001a 07F10F03 		add	r3, r7, #15
 561 001e 1046     		mov	r0, r2
 562 0020 1946     		mov	r1, r3
ARM GAS  C:\Users\Robert\AppData\Local\Temp\ccNv74yg.s 			page 17


 563 0022 4FF00102 		mov	r2, #1
 564 0026 FFF7FEFF 		bl	USBUART_1_LoadInEP
 347:.\Generated_Source\PSoC5/USBUART_1_cdc.c ****     }
 565              		.loc 1 347 0
 566 002a 07F11007 		add	r7, r7, #16
 567 002e BD46     		mov	sp, r7
 568 0030 80BD     		pop	{r7, pc}
 569              		.cfi_endproc
 570              	.LFE5:
 571              		.size	USBUART_1_PutChar, .-USBUART_1_PutChar
 572 0032 00BF     		.section	.rodata
 573              		.align	2
 574              	.LC0:
 575 0000 0D       		.byte	13
 576 0001 0A       		.byte	10
 577 0002 0000     		.section	.text.USBUART_1_PutCRLF,"ax",%progbits
 578              		.align	2
 579              		.global	USBUART_1_PutCRLF
 580              		.thumb
 581              		.thumb_func
 582              		.type	USBUART_1_PutCRLF, %function
 583              	USBUART_1_PutCRLF:
 584              	.LFB6:
 348:.\Generated_Source\PSoC5/USBUART_1_cdc.c **** 
 349:.\Generated_Source\PSoC5/USBUART_1_cdc.c **** 
 350:.\Generated_Source\PSoC5/USBUART_1_cdc.c ****     /*******************************************************************************
 351:.\Generated_Source\PSoC5/USBUART_1_cdc.c ****     * Function Name: USBUART_1_PutCRLF
 352:.\Generated_Source\PSoC5/USBUART_1_cdc.c ****     ********************************************************************************
 353:.\Generated_Source\PSoC5/USBUART_1_cdc.c ****     *
 354:.\Generated_Source\PSoC5/USBUART_1_cdc.c ****     * Summary:
 355:.\Generated_Source\PSoC5/USBUART_1_cdc.c ****     *  Sends a carriage return (0x0D) and line feed (0x0A) to the PC
 356:.\Generated_Source\PSoC5/USBUART_1_cdc.c ****     *
 357:.\Generated_Source\PSoC5/USBUART_1_cdc.c ****     * Parameters:
 358:.\Generated_Source\PSoC5/USBUART_1_cdc.c ****     *  None.
 359:.\Generated_Source\PSoC5/USBUART_1_cdc.c ****     *
 360:.\Generated_Source\PSoC5/USBUART_1_cdc.c ****     * Return:
 361:.\Generated_Source\PSoC5/USBUART_1_cdc.c ****     *  None.
 362:.\Generated_Source\PSoC5/USBUART_1_cdc.c ****     *
 363:.\Generated_Source\PSoC5/USBUART_1_cdc.c ****     * Global variables:
 364:.\Generated_Source\PSoC5/USBUART_1_cdc.c ****     *   USBUART_1_cdc_data_in_ep: CDC IN endpoint number used for sending
 365:.\Generated_Source\PSoC5/USBUART_1_cdc.c ****     *     data.
 366:.\Generated_Source\PSoC5/USBUART_1_cdc.c ****     *
 367:.\Generated_Source\PSoC5/USBUART_1_cdc.c ****     * Reentrant:
 368:.\Generated_Source\PSoC5/USBUART_1_cdc.c ****     *  No.
 369:.\Generated_Source\PSoC5/USBUART_1_cdc.c ****     *
 370:.\Generated_Source\PSoC5/USBUART_1_cdc.c ****     *******************************************************************************/
 371:.\Generated_Source\PSoC5/USBUART_1_cdc.c ****     void USBUART_1_PutCRLF(void) 
 372:.\Generated_Source\PSoC5/USBUART_1_cdc.c ****     {
 585              		.loc 1 372 0
 586              		.cfi_startproc
 587              		@ args = 0, pretend = 0, frame = 8
 588              		@ frame_needed = 1, uses_anonymous_args = 0
 589 0000 80B5     		push	{r7, lr}
 590              	.LCFI17:
 591              		.cfi_def_cfa_offset 8
 592              		.cfi_offset 7, -8
 593              		.cfi_offset 14, -4
ARM GAS  C:\Users\Robert\AppData\Local\Temp\ccNv74yg.s 			page 18


 594 0002 82B0     		sub	sp, sp, #8
 595              	.LCFI18:
 596              		.cfi_def_cfa_offset 16
 597 0004 00AF     		add	r7, sp, #0
 598              	.LCFI19:
 599              		.cfi_def_cfa_register 7
 373:.\Generated_Source\PSoC5/USBUART_1_cdc.c ****         const uint8 CYCODE txData[] = {0x0Du, 0x0Au};
 600              		.loc 1 373 0
 601 0006 40F20003 		movw	r3, #:lower16:.LC0
 602 000a C0F20003 		movt	r3, #:upper16:.LC0
 603 000e 07F10402 		add	r2, r7, #4
 604 0012 1B88     		ldrh	r3, [r3, #0]	@ unaligned
 605 0014 1380     		strh	r3, [r2, #0]	@ unaligned
 374:.\Generated_Source\PSoC5/USBUART_1_cdc.c **** 
 375:.\Generated_Source\PSoC5/USBUART_1_cdc.c ****         USBUART_1_LoadInEP(USBUART_1_cdc_data_in_ep, (const uint8 *)txData, 2u);
 606              		.loc 1 375 0
 607 0016 40F20003 		movw	r3, #:lower16:USBUART_1_cdc_data_in_ep
 608 001a C0F20003 		movt	r3, #:upper16:USBUART_1_cdc_data_in_ep
 609 001e 1B78     		ldrb	r3, [r3, #0]
 610 0020 DAB2     		uxtb	r2, r3
 611 0022 07F10403 		add	r3, r7, #4
 612 0026 1046     		mov	r0, r2
 613 0028 1946     		mov	r1, r3
 614 002a 4FF00202 		mov	r2, #2
 615 002e FFF7FEFF 		bl	USBUART_1_LoadInEP
 376:.\Generated_Source\PSoC5/USBUART_1_cdc.c ****     }
 616              		.loc 1 376 0
 617 0032 07F10807 		add	r7, r7, #8
 618 0036 BD46     		mov	sp, r7
 619 0038 80BD     		pop	{r7, pc}
 620              		.cfi_endproc
 621              	.LFE6:
 622              		.size	USBUART_1_PutCRLF, .-USBUART_1_PutCRLF
 623 003a 00BF     		.section	.text.USBUART_1_GetCount,"ax",%progbits
 624              		.align	2
 625              		.global	USBUART_1_GetCount
 626              		.thumb
 627              		.thumb_func
 628              		.type	USBUART_1_GetCount, %function
 629              	USBUART_1_GetCount:
 630              	.LFB7:
 377:.\Generated_Source\PSoC5/USBUART_1_cdc.c **** 
 378:.\Generated_Source\PSoC5/USBUART_1_cdc.c **** 
 379:.\Generated_Source\PSoC5/USBUART_1_cdc.c ****     /*******************************************************************************
 380:.\Generated_Source\PSoC5/USBUART_1_cdc.c ****     * Function Name: USBUART_1_GetCount
 381:.\Generated_Source\PSoC5/USBUART_1_cdc.c ****     ********************************************************************************
 382:.\Generated_Source\PSoC5/USBUART_1_cdc.c ****     *
 383:.\Generated_Source\PSoC5/USBUART_1_cdc.c ****     * Summary:
 384:.\Generated_Source\PSoC5/USBUART_1_cdc.c ****     *  This function returns the number of bytes that were received from the PC.
 385:.\Generated_Source\PSoC5/USBUART_1_cdc.c ****     *  The returned length value should be passed to USBUART_1_GetData() as
 386:.\Generated_Source\PSoC5/USBUART_1_cdc.c ****     *  a parameter to read all received data. If all of the received data is not
 387:.\Generated_Source\PSoC5/USBUART_1_cdc.c ****     *  read at one time by the USBUART_1_GetData() API, the unread data will
 388:.\Generated_Source\PSoC5/USBUART_1_cdc.c ****     *  be lost.
 389:.\Generated_Source\PSoC5/USBUART_1_cdc.c ****     *
 390:.\Generated_Source\PSoC5/USBUART_1_cdc.c ****     * Parameters:
 391:.\Generated_Source\PSoC5/USBUART_1_cdc.c ****     *  None.
 392:.\Generated_Source\PSoC5/USBUART_1_cdc.c ****     *
ARM GAS  C:\Users\Robert\AppData\Local\Temp\ccNv74yg.s 			page 19


 393:.\Generated_Source\PSoC5/USBUART_1_cdc.c ****     * Return:
 394:.\Generated_Source\PSoC5/USBUART_1_cdc.c ****     *  Returns the number of received bytes. The maximum amount of received data at
 395:.\Generated_Source\PSoC5/USBUART_1_cdc.c ****     *  a time is limited by the maximum packet size for the endpoint.
 396:.\Generated_Source\PSoC5/USBUART_1_cdc.c ****     *
 397:.\Generated_Source\PSoC5/USBUART_1_cdc.c ****     * Global variables:
 398:.\Generated_Source\PSoC5/USBUART_1_cdc.c ****     *   USBUART_1_cdc_data_out_ep: CDC OUT endpoint number used.
 399:.\Generated_Source\PSoC5/USBUART_1_cdc.c ****     *
 400:.\Generated_Source\PSoC5/USBUART_1_cdc.c ****     *******************************************************************************/
 401:.\Generated_Source\PSoC5/USBUART_1_cdc.c ****     uint16 USBUART_1_GetCount(void) 
 402:.\Generated_Source\PSoC5/USBUART_1_cdc.c ****     {
 631              		.loc 1 402 0
 632              		.cfi_startproc
 633              		@ args = 0, pretend = 0, frame = 8
 634              		@ frame_needed = 1, uses_anonymous_args = 0
 635 0000 80B5     		push	{r7, lr}
 636              	.LCFI20:
 637              		.cfi_def_cfa_offset 8
 638              		.cfi_offset 7, -8
 639              		.cfi_offset 14, -4
 640 0002 82B0     		sub	sp, sp, #8
 641              	.LCFI21:
 642              		.cfi_def_cfa_offset 16
 643 0004 00AF     		add	r7, sp, #0
 644              	.LCFI22:
 645              		.cfi_def_cfa_register 7
 403:.\Generated_Source\PSoC5/USBUART_1_cdc.c ****         uint16 bytesCount;
 404:.\Generated_Source\PSoC5/USBUART_1_cdc.c **** 
 405:.\Generated_Source\PSoC5/USBUART_1_cdc.c ****         if (USBUART_1_EP[USBUART_1_cdc_data_out_ep].apiEpState == USBUART_1_OUT_BUFFER_FULL)
 646              		.loc 1 405 0
 647 0006 40F20003 		movw	r3, #:lower16:USBUART_1_cdc_data_out_ep
 648 000a C0F20003 		movt	r3, #:upper16:USBUART_1_cdc_data_out_ep
 649 000e 1B78     		ldrb	r3, [r3, #0]
 650 0010 DBB2     		uxtb	r3, r3
 651 0012 1946     		mov	r1, r3
 652 0014 40F20002 		movw	r2, #:lower16:USBUART_1_EP
 653 0018 C0F20002 		movt	r2, #:upper16:USBUART_1_EP
 654 001c 0B46     		mov	r3, r1
 655 001e 4FEA4303 		lsl	r3, r3, #1
 656 0022 5B18     		adds	r3, r3, r1
 657 0024 4FEA8303 		lsl	r3, r3, #2
 658 0028 D318     		adds	r3, r2, r3
 659 002a 5B78     		ldrb	r3, [r3, #1]
 660 002c DBB2     		uxtb	r3, r3
 661 002e 012B     		cmp	r3, #1
 662 0030 0BD1     		bne	.L31
 406:.\Generated_Source\PSoC5/USBUART_1_cdc.c ****         {
 407:.\Generated_Source\PSoC5/USBUART_1_cdc.c ****             bytesCount = USBUART_1_GetEPCount(USBUART_1_cdc_data_out_ep);
 663              		.loc 1 407 0
 664 0032 40F20003 		movw	r3, #:lower16:USBUART_1_cdc_data_out_ep
 665 0036 C0F20003 		movt	r3, #:upper16:USBUART_1_cdc_data_out_ep
 666 003a 1B78     		ldrb	r3, [r3, #0]
 667 003c DBB2     		uxtb	r3, r3
 668 003e 1846     		mov	r0, r3
 669 0040 FFF7FEFF 		bl	USBUART_1_GetEPCount
 670 0044 0346     		mov	r3, r0
 671 0046 FB80     		strh	r3, [r7, #6]	@ movhi
 672 0048 02E0     		b	.L32
ARM GAS  C:\Users\Robert\AppData\Local\Temp\ccNv74yg.s 			page 20


 673              	.L31:
 408:.\Generated_Source\PSoC5/USBUART_1_cdc.c ****         }
 409:.\Generated_Source\PSoC5/USBUART_1_cdc.c ****         else
 410:.\Generated_Source\PSoC5/USBUART_1_cdc.c ****         {
 411:.\Generated_Source\PSoC5/USBUART_1_cdc.c ****             bytesCount = 0u;
 674              		.loc 1 411 0
 675 004a 4FF00003 		mov	r3, #0
 676 004e FB80     		strh	r3, [r7, #6]	@ movhi
 677              	.L32:
 412:.\Generated_Source\PSoC5/USBUART_1_cdc.c ****         }
 413:.\Generated_Source\PSoC5/USBUART_1_cdc.c **** 
 414:.\Generated_Source\PSoC5/USBUART_1_cdc.c ****         return(bytesCount);
 678              		.loc 1 414 0
 679 0050 FB88     		ldrh	r3, [r7, #6]
 415:.\Generated_Source\PSoC5/USBUART_1_cdc.c ****     }
 680              		.loc 1 415 0
 681 0052 1846     		mov	r0, r3
 682 0054 07F10807 		add	r7, r7, #8
 683 0058 BD46     		mov	sp, r7
 684 005a 80BD     		pop	{r7, pc}
 685              		.cfi_endproc
 686              	.LFE7:
 687              		.size	USBUART_1_GetCount, .-USBUART_1_GetCount
 688              		.section	.text.USBUART_1_DataIsReady,"ax",%progbits
 689              		.align	2
 690              		.global	USBUART_1_DataIsReady
 691              		.thumb
 692              		.thumb_func
 693              		.type	USBUART_1_DataIsReady, %function
 694              	USBUART_1_DataIsReady:
 695              	.LFB8:
 416:.\Generated_Source\PSoC5/USBUART_1_cdc.c **** 
 417:.\Generated_Source\PSoC5/USBUART_1_cdc.c **** 
 418:.\Generated_Source\PSoC5/USBUART_1_cdc.c ****     /*******************************************************************************
 419:.\Generated_Source\PSoC5/USBUART_1_cdc.c ****     * Function Name: USBUART_1_DataIsReady
 420:.\Generated_Source\PSoC5/USBUART_1_cdc.c ****     ********************************************************************************
 421:.\Generated_Source\PSoC5/USBUART_1_cdc.c ****     *
 422:.\Generated_Source\PSoC5/USBUART_1_cdc.c ****     * Summary:
 423:.\Generated_Source\PSoC5/USBUART_1_cdc.c ****     *  Returns a nonzero value if the component received data or received
 424:.\Generated_Source\PSoC5/USBUART_1_cdc.c ****     *  zero-length packet. The USBUART_1_GetAll() or
 425:.\Generated_Source\PSoC5/USBUART_1_cdc.c ****     *  USBUART_1_GetData() API should be called to read data from the buffer
 426:.\Generated_Source\PSoC5/USBUART_1_cdc.c ****     *  and re-init OUT endpoint even when zero-length packet received.
 427:.\Generated_Source\PSoC5/USBUART_1_cdc.c ****     *
 428:.\Generated_Source\PSoC5/USBUART_1_cdc.c ****     * Parameters:
 429:.\Generated_Source\PSoC5/USBUART_1_cdc.c ****     *  None.
 430:.\Generated_Source\PSoC5/USBUART_1_cdc.c ****     *
 431:.\Generated_Source\PSoC5/USBUART_1_cdc.c ****     * Return:
 432:.\Generated_Source\PSoC5/USBUART_1_cdc.c ****     *  If the OUT packet received this function returns a nonzero value.
 433:.\Generated_Source\PSoC5/USBUART_1_cdc.c ****     *  Otherwise zero is returned.
 434:.\Generated_Source\PSoC5/USBUART_1_cdc.c ****     *
 435:.\Generated_Source\PSoC5/USBUART_1_cdc.c ****     * Global variables:
 436:.\Generated_Source\PSoC5/USBUART_1_cdc.c ****     *   USBUART_1_cdc_data_out_ep: CDC OUT endpoint number used.
 437:.\Generated_Source\PSoC5/USBUART_1_cdc.c ****     *
 438:.\Generated_Source\PSoC5/USBUART_1_cdc.c ****     *******************************************************************************/
 439:.\Generated_Source\PSoC5/USBUART_1_cdc.c ****     uint8 USBUART_1_DataIsReady(void) 
 440:.\Generated_Source\PSoC5/USBUART_1_cdc.c ****     {
 696              		.loc 1 440 0
ARM GAS  C:\Users\Robert\AppData\Local\Temp\ccNv74yg.s 			page 21


 697              		.cfi_startproc
 698              		@ args = 0, pretend = 0, frame = 0
 699              		@ frame_needed = 1, uses_anonymous_args = 0
 700              		@ link register save eliminated.
 701 0000 80B4     		push	{r7}
 702              	.LCFI23:
 703              		.cfi_def_cfa_offset 4
 704              		.cfi_offset 7, -4
 705 0002 00AF     		add	r7, sp, #0
 706              	.LCFI24:
 707              		.cfi_def_cfa_register 7
 441:.\Generated_Source\PSoC5/USBUART_1_cdc.c ****         return(USBUART_1_EP[USBUART_1_cdc_data_out_ep].apiEpState);
 708              		.loc 1 441 0
 709 0004 40F20003 		movw	r3, #:lower16:USBUART_1_cdc_data_out_ep
 710 0008 C0F20003 		movt	r3, #:upper16:USBUART_1_cdc_data_out_ep
 711 000c 1B78     		ldrb	r3, [r3, #0]
 712 000e DBB2     		uxtb	r3, r3
 713 0010 1946     		mov	r1, r3
 714 0012 40F20002 		movw	r2, #:lower16:USBUART_1_EP
 715 0016 C0F20002 		movt	r2, #:upper16:USBUART_1_EP
 716 001a 0B46     		mov	r3, r1
 717 001c 4FEA4303 		lsl	r3, r3, #1
 718 0020 5B18     		adds	r3, r3, r1
 719 0022 4FEA8303 		lsl	r3, r3, #2
 720 0026 D318     		adds	r3, r2, r3
 721 0028 5B78     		ldrb	r3, [r3, #1]
 722 002a DBB2     		uxtb	r3, r3
 442:.\Generated_Source\PSoC5/USBUART_1_cdc.c ****     }
 723              		.loc 1 442 0
 724 002c 1846     		mov	r0, r3
 725 002e BD46     		mov	sp, r7
 726 0030 80BC     		pop	{r7}
 727 0032 7047     		bx	lr
 728              		.cfi_endproc
 729              	.LFE8:
 730              		.size	USBUART_1_DataIsReady, .-USBUART_1_DataIsReady
 731              		.section	.text.USBUART_1_CDCIsReady,"ax",%progbits
 732              		.align	2
 733              		.global	USBUART_1_CDCIsReady
 734              		.thumb
 735              		.thumb_func
 736              		.type	USBUART_1_CDCIsReady, %function
 737              	USBUART_1_CDCIsReady:
 738              	.LFB9:
 443:.\Generated_Source\PSoC5/USBUART_1_cdc.c **** 
 444:.\Generated_Source\PSoC5/USBUART_1_cdc.c **** 
 445:.\Generated_Source\PSoC5/USBUART_1_cdc.c ****     /*******************************************************************************
 446:.\Generated_Source\PSoC5/USBUART_1_cdc.c ****     * Function Name: USBUART_1_CDCIsReady
 447:.\Generated_Source\PSoC5/USBUART_1_cdc.c ****     ********************************************************************************
 448:.\Generated_Source\PSoC5/USBUART_1_cdc.c ****     *
 449:.\Generated_Source\PSoC5/USBUART_1_cdc.c ****     * Summary:
 450:.\Generated_Source\PSoC5/USBUART_1_cdc.c ****     *  This function returns a nonzero value if the component is ready to send more
 451:.\Generated_Source\PSoC5/USBUART_1_cdc.c ****     *  data to the PC; otherwise, it returns zero. The function should be called
 452:.\Generated_Source\PSoC5/USBUART_1_cdc.c ****     *  before sending new data when using any of the following APIs:
 453:.\Generated_Source\PSoC5/USBUART_1_cdc.c ****     *  USBUART_1_PutData(),USBUART_1_PutString(),
 454:.\Generated_Source\PSoC5/USBUART_1_cdc.c ****     *  USBUART_1_PutChar or USBUART_1_PutCRLF(),
 455:.\Generated_Source\PSoC5/USBUART_1_cdc.c ****     *  to be sure that the previous data has finished sending.
ARM GAS  C:\Users\Robert\AppData\Local\Temp\ccNv74yg.s 			page 22


 456:.\Generated_Source\PSoC5/USBUART_1_cdc.c ****     *
 457:.\Generated_Source\PSoC5/USBUART_1_cdc.c ****     * Parameters:
 458:.\Generated_Source\PSoC5/USBUART_1_cdc.c ****     *  None.
 459:.\Generated_Source\PSoC5/USBUART_1_cdc.c ****     *
 460:.\Generated_Source\PSoC5/USBUART_1_cdc.c ****     * Return:
 461:.\Generated_Source\PSoC5/USBUART_1_cdc.c ****     *  If the buffer can accept new data, this function returns a nonzero value.
 462:.\Generated_Source\PSoC5/USBUART_1_cdc.c ****     *  Otherwise, it returns zero.
 463:.\Generated_Source\PSoC5/USBUART_1_cdc.c ****     *
 464:.\Generated_Source\PSoC5/USBUART_1_cdc.c ****     * Global variables:
 465:.\Generated_Source\PSoC5/USBUART_1_cdc.c ****     *   USBUART_1_cdc_data_in_ep: CDC IN endpoint number used.
 466:.\Generated_Source\PSoC5/USBUART_1_cdc.c ****     *
 467:.\Generated_Source\PSoC5/USBUART_1_cdc.c ****     *******************************************************************************/
 468:.\Generated_Source\PSoC5/USBUART_1_cdc.c ****     uint8 USBUART_1_CDCIsReady(void) 
 469:.\Generated_Source\PSoC5/USBUART_1_cdc.c ****     {
 739              		.loc 1 469 0
 740              		.cfi_startproc
 741              		@ args = 0, pretend = 0, frame = 0
 742              		@ frame_needed = 1, uses_anonymous_args = 0
 743              		@ link register save eliminated.
 744 0000 80B4     		push	{r7}
 745              	.LCFI25:
 746              		.cfi_def_cfa_offset 4
 747              		.cfi_offset 7, -4
 748 0002 00AF     		add	r7, sp, #0
 749              	.LCFI26:
 750              		.cfi_def_cfa_register 7
 470:.\Generated_Source\PSoC5/USBUART_1_cdc.c ****         return(USBUART_1_EP[USBUART_1_cdc_data_in_ep].apiEpState);
 751              		.loc 1 470 0
 752 0004 40F20003 		movw	r3, #:lower16:USBUART_1_cdc_data_in_ep
 753 0008 C0F20003 		movt	r3, #:upper16:USBUART_1_cdc_data_in_ep
 754 000c 1B78     		ldrb	r3, [r3, #0]
 755 000e DBB2     		uxtb	r3, r3
 756 0010 1946     		mov	r1, r3
 757 0012 40F20002 		movw	r2, #:lower16:USBUART_1_EP
 758 0016 C0F20002 		movt	r2, #:upper16:USBUART_1_EP
 759 001a 0B46     		mov	r3, r1
 760 001c 4FEA4303 		lsl	r3, r3, #1
 761 0020 5B18     		adds	r3, r3, r1
 762 0022 4FEA8303 		lsl	r3, r3, #2
 763 0026 D318     		adds	r3, r2, r3
 764 0028 5B78     		ldrb	r3, [r3, #1]
 765 002a DBB2     		uxtb	r3, r3
 471:.\Generated_Source\PSoC5/USBUART_1_cdc.c ****     }
 766              		.loc 1 471 0
 767 002c 1846     		mov	r0, r3
 768 002e BD46     		mov	sp, r7
 769 0030 80BC     		pop	{r7}
 770 0032 7047     		bx	lr
 771              		.cfi_endproc
 772              	.LFE9:
 773              		.size	USBUART_1_CDCIsReady, .-USBUART_1_CDCIsReady
 774              		.section	.text.USBUART_1_GetData,"ax",%progbits
 775              		.align	2
 776              		.global	USBUART_1_GetData
 777              		.thumb
 778              		.thumb_func
 779              		.type	USBUART_1_GetData, %function
ARM GAS  C:\Users\Robert\AppData\Local\Temp\ccNv74yg.s 			page 23


 780              	USBUART_1_GetData:
 781              	.LFB10:
 472:.\Generated_Source\PSoC5/USBUART_1_cdc.c **** 
 473:.\Generated_Source\PSoC5/USBUART_1_cdc.c **** 
 474:.\Generated_Source\PSoC5/USBUART_1_cdc.c ****     /*******************************************************************************
 475:.\Generated_Source\PSoC5/USBUART_1_cdc.c ****     * Function Name: USBUART_1_GetData
 476:.\Generated_Source\PSoC5/USBUART_1_cdc.c ****     ********************************************************************************
 477:.\Generated_Source\PSoC5/USBUART_1_cdc.c ****     *
 478:.\Generated_Source\PSoC5/USBUART_1_cdc.c ****     * Summary:
 479:.\Generated_Source\PSoC5/USBUART_1_cdc.c ****     *  This function gets a specified number of bytes from the input buffer and
 480:.\Generated_Source\PSoC5/USBUART_1_cdc.c ****     *  places them in a data array specified by the passed pointer.
 481:.\Generated_Source\PSoC5/USBUART_1_cdc.c ****     *  The USBUART_1_DataIsReady() API should be called first, to be sure
 482:.\Generated_Source\PSoC5/USBUART_1_cdc.c ****     *  that data is received from the host. If all received data will not be read at
 483:.\Generated_Source\PSoC5/USBUART_1_cdc.c ****     *  once, the unread data will be lost. The USBUART_1_GetData() API should
 484:.\Generated_Source\PSoC5/USBUART_1_cdc.c ****     *  be called to get the number of bytes that were received.
 485:.\Generated_Source\PSoC5/USBUART_1_cdc.c ****     *
 486:.\Generated_Source\PSoC5/USBUART_1_cdc.c ****     * Parameters:
 487:.\Generated_Source\PSoC5/USBUART_1_cdc.c ****     *  pData: Pointer to the data array where data will be placed.
 488:.\Generated_Source\PSoC5/USBUART_1_cdc.c ****     *  Length: Number of bytes to read into the data array from the RX buffer.
 489:.\Generated_Source\PSoC5/USBUART_1_cdc.c ****     *          Maximum length is limited by the the number of received bytes.
 490:.\Generated_Source\PSoC5/USBUART_1_cdc.c ****     *
 491:.\Generated_Source\PSoC5/USBUART_1_cdc.c ****     * Return:
 492:.\Generated_Source\PSoC5/USBUART_1_cdc.c ****     *  Number of bytes received.
 493:.\Generated_Source\PSoC5/USBUART_1_cdc.c ****     *
 494:.\Generated_Source\PSoC5/USBUART_1_cdc.c ****     * Global variables:
 495:.\Generated_Source\PSoC5/USBUART_1_cdc.c ****     *   USBUART_1_cdc_data_out_ep: CDC OUT endpoint number used.
 496:.\Generated_Source\PSoC5/USBUART_1_cdc.c ****     *
 497:.\Generated_Source\PSoC5/USBUART_1_cdc.c ****     * Reentrant:
 498:.\Generated_Source\PSoC5/USBUART_1_cdc.c ****     *  No.
 499:.\Generated_Source\PSoC5/USBUART_1_cdc.c ****     *
 500:.\Generated_Source\PSoC5/USBUART_1_cdc.c ****     *******************************************************************************/
 501:.\Generated_Source\PSoC5/USBUART_1_cdc.c ****     uint16 USBUART_1_GetData(uint8* pData, uint16 length) 
 502:.\Generated_Source\PSoC5/USBUART_1_cdc.c ****     {
 782              		.loc 1 502 0
 783              		.cfi_startproc
 784              		@ args = 0, pretend = 0, frame = 8
 785              		@ frame_needed = 1, uses_anonymous_args = 0
 786 0000 80B5     		push	{r7, lr}
 787              	.LCFI27:
 788              		.cfi_def_cfa_offset 8
 789              		.cfi_offset 7, -8
 790              		.cfi_offset 14, -4
 791 0002 82B0     		sub	sp, sp, #8
 792              	.LCFI28:
 793              		.cfi_def_cfa_offset 16
 794 0004 00AF     		add	r7, sp, #0
 795              	.LCFI29:
 796              		.cfi_def_cfa_register 7
 797 0006 7860     		str	r0, [r7, #4]
 798 0008 0B46     		mov	r3, r1
 799 000a 7B80     		strh	r3, [r7, #2]	@ movhi
 503:.\Generated_Source\PSoC5/USBUART_1_cdc.c ****         return(USBUART_1_ReadOutEP(USBUART_1_cdc_data_out_ep, pData, length));
 800              		.loc 1 503 0
 801 000c 40F20003 		movw	r3, #:lower16:USBUART_1_cdc_data_out_ep
 802 0010 C0F20003 		movt	r3, #:upper16:USBUART_1_cdc_data_out_ep
 803 0014 1B78     		ldrb	r3, [r3, #0]
 804 0016 DAB2     		uxtb	r2, r3
ARM GAS  C:\Users\Robert\AppData\Local\Temp\ccNv74yg.s 			page 24


 805 0018 7B88     		ldrh	r3, [r7, #2]
 806 001a 1046     		mov	r0, r2
 807 001c 7968     		ldr	r1, [r7, #4]
 808 001e 1A46     		mov	r2, r3
 809 0020 FFF7FEFF 		bl	USBUART_1_ReadOutEP
 810 0024 0346     		mov	r3, r0
 504:.\Generated_Source\PSoC5/USBUART_1_cdc.c ****     }
 811              		.loc 1 504 0
 812 0026 1846     		mov	r0, r3
 813 0028 07F10807 		add	r7, r7, #8
 814 002c BD46     		mov	sp, r7
 815 002e 80BD     		pop	{r7, pc}
 816              		.cfi_endproc
 817              	.LFE10:
 818              		.size	USBUART_1_GetData, .-USBUART_1_GetData
 819              		.section	.text.USBUART_1_GetAll,"ax",%progbits
 820              		.align	2
 821              		.global	USBUART_1_GetAll
 822              		.thumb
 823              		.thumb_func
 824              		.type	USBUART_1_GetAll, %function
 825              	USBUART_1_GetAll:
 826              	.LFB11:
 505:.\Generated_Source\PSoC5/USBUART_1_cdc.c **** 
 506:.\Generated_Source\PSoC5/USBUART_1_cdc.c **** 
 507:.\Generated_Source\PSoC5/USBUART_1_cdc.c ****     /*******************************************************************************
 508:.\Generated_Source\PSoC5/USBUART_1_cdc.c ****     * Function Name: USBUART_1_GetAll
 509:.\Generated_Source\PSoC5/USBUART_1_cdc.c ****     ********************************************************************************
 510:.\Generated_Source\PSoC5/USBUART_1_cdc.c ****     *
 511:.\Generated_Source\PSoC5/USBUART_1_cdc.c ****     * Summary:
 512:.\Generated_Source\PSoC5/USBUART_1_cdc.c ****     *  Gets all bytes of received data from the input buffer and places it into a
 513:.\Generated_Source\PSoC5/USBUART_1_cdc.c ****     *  specified data array. USBUART_1_DataIsReady() API should be called
 514:.\Generated_Source\PSoC5/USBUART_1_cdc.c ****     *  before, to be sure that data is received from the Host.
 515:.\Generated_Source\PSoC5/USBUART_1_cdc.c ****     *
 516:.\Generated_Source\PSoC5/USBUART_1_cdc.c ****     * Parameters:
 517:.\Generated_Source\PSoC5/USBUART_1_cdc.c ****     *  pData: Pointer to the data array where data will be placed.
 518:.\Generated_Source\PSoC5/USBUART_1_cdc.c ****     *
 519:.\Generated_Source\PSoC5/USBUART_1_cdc.c ****     * Return:
 520:.\Generated_Source\PSoC5/USBUART_1_cdc.c ****     *  Number of bytes received.
 521:.\Generated_Source\PSoC5/USBUART_1_cdc.c ****     *
 522:.\Generated_Source\PSoC5/USBUART_1_cdc.c ****     * Global variables:
 523:.\Generated_Source\PSoC5/USBUART_1_cdc.c ****     *   USBUART_1_cdc_data_out_ep: CDC OUT endpoint number used.
 524:.\Generated_Source\PSoC5/USBUART_1_cdc.c ****     *   USBUART_1_EP[].bufferSize: EP max packet size is used as a length
 525:.\Generated_Source\PSoC5/USBUART_1_cdc.c ****     *     to read all data from the EP buffer.
 526:.\Generated_Source\PSoC5/USBUART_1_cdc.c ****     *
 527:.\Generated_Source\PSoC5/USBUART_1_cdc.c ****     * Reentrant:
 528:.\Generated_Source\PSoC5/USBUART_1_cdc.c ****     *  No.
 529:.\Generated_Source\PSoC5/USBUART_1_cdc.c ****     *
 530:.\Generated_Source\PSoC5/USBUART_1_cdc.c ****     *******************************************************************************/
 531:.\Generated_Source\PSoC5/USBUART_1_cdc.c ****     uint16 USBUART_1_GetAll(uint8* pData) 
 532:.\Generated_Source\PSoC5/USBUART_1_cdc.c ****     {
 827              		.loc 1 532 0
 828              		.cfi_startproc
 829              		@ args = 0, pretend = 0, frame = 8
 830              		@ frame_needed = 1, uses_anonymous_args = 0
 831 0000 80B5     		push	{r7, lr}
 832              	.LCFI30:
ARM GAS  C:\Users\Robert\AppData\Local\Temp\ccNv74yg.s 			page 25


 833              		.cfi_def_cfa_offset 8
 834              		.cfi_offset 7, -8
 835              		.cfi_offset 14, -4
 836 0002 82B0     		sub	sp, sp, #8
 837              	.LCFI31:
 838              		.cfi_def_cfa_offset 16
 839 0004 00AF     		add	r7, sp, #0
 840              	.LCFI32:
 841              		.cfi_def_cfa_register 7
 842 0006 7860     		str	r0, [r7, #4]
 533:.\Generated_Source\PSoC5/USBUART_1_cdc.c ****         return (USBUART_1_ReadOutEP(USBUART_1_cdc_data_out_ep, pData,
 843              		.loc 1 533 0
 844 0008 40F20003 		movw	r3, #:lower16:USBUART_1_cdc_data_out_ep
 845 000c C0F20003 		movt	r3, #:upper16:USBUART_1_cdc_data_out_ep
 846 0010 1B78     		ldrb	r3, [r3, #0]
 847 0012 D8B2     		uxtb	r0, r3
 848 0014 40F20003 		movw	r3, #:lower16:USBUART_1_cdc_data_out_ep
 849 0018 C0F20003 		movt	r3, #:upper16:USBUART_1_cdc_data_out_ep
 850 001c 1B78     		ldrb	r3, [r3, #0]
 851 001e DBB2     		uxtb	r3, r3
 852 0020 1946     		mov	r1, r3
 853 0022 40F20002 		movw	r2, #:lower16:USBUART_1_EP
 854 0026 C0F20002 		movt	r2, #:upper16:USBUART_1_EP
 855 002a 0B46     		mov	r3, r1
 856 002c 4FEA4303 		lsl	r3, r3, #1
 857 0030 5B18     		adds	r3, r3, r1
 858 0032 4FEA8303 		lsl	r3, r3, #2
 859 0036 D318     		adds	r3, r2, r3
 860 0038 03F10803 		add	r3, r3, #8
 861 003c 1B88     		ldrh	r3, [r3, #0]	@ movhi
 862 003e 9BB2     		uxth	r3, r3
 863 0040 7968     		ldr	r1, [r7, #4]
 864 0042 1A46     		mov	r2, r3
 865 0044 FFF7FEFF 		bl	USBUART_1_ReadOutEP
 866 0048 0346     		mov	r3, r0
 534:.\Generated_Source\PSoC5/USBUART_1_cdc.c ****                                            USBUART_1_EP[USBUART_1_cdc_data_out_ep].bufferSize));
 535:.\Generated_Source\PSoC5/USBUART_1_cdc.c ****     }
 867              		.loc 1 535 0
 868 004a 1846     		mov	r0, r3
 869 004c 07F10807 		add	r7, r7, #8
 870 0050 BD46     		mov	sp, r7
 871 0052 80BD     		pop	{r7, pc}
 872              		.cfi_endproc
 873              	.LFE11:
 874              		.size	USBUART_1_GetAll, .-USBUART_1_GetAll
 875              		.section	.text.USBUART_1_GetChar,"ax",%progbits
 876              		.align	2
 877              		.global	USBUART_1_GetChar
 878              		.thumb
 879              		.thumb_func
 880              		.type	USBUART_1_GetChar, %function
 881              	USBUART_1_GetChar:
 882              	.LFB12:
 536:.\Generated_Source\PSoC5/USBUART_1_cdc.c **** 
 537:.\Generated_Source\PSoC5/USBUART_1_cdc.c **** 
 538:.\Generated_Source\PSoC5/USBUART_1_cdc.c ****     /*******************************************************************************
 539:.\Generated_Source\PSoC5/USBUART_1_cdc.c ****     * Function Name: USBUART_1_GetChar
ARM GAS  C:\Users\Robert\AppData\Local\Temp\ccNv74yg.s 			page 26


 540:.\Generated_Source\PSoC5/USBUART_1_cdc.c ****     ********************************************************************************
 541:.\Generated_Source\PSoC5/USBUART_1_cdc.c ****     *
 542:.\Generated_Source\PSoC5/USBUART_1_cdc.c ****     * Summary:
 543:.\Generated_Source\PSoC5/USBUART_1_cdc.c ****     *  This function reads one byte of received data from the buffer. If more than
 544:.\Generated_Source\PSoC5/USBUART_1_cdc.c ****     *  one byte has been received from the host, the rest of the data will be lost.
 545:.\Generated_Source\PSoC5/USBUART_1_cdc.c ****     *
 546:.\Generated_Source\PSoC5/USBUART_1_cdc.c ****     * Parameters:
 547:.\Generated_Source\PSoC5/USBUART_1_cdc.c ****     *  None.
 548:.\Generated_Source\PSoC5/USBUART_1_cdc.c ****     *
 549:.\Generated_Source\PSoC5/USBUART_1_cdc.c ****     * Return:
 550:.\Generated_Source\PSoC5/USBUART_1_cdc.c ****     *  Received one character.
 551:.\Generated_Source\PSoC5/USBUART_1_cdc.c ****     *
 552:.\Generated_Source\PSoC5/USBUART_1_cdc.c ****     * Global variables:
 553:.\Generated_Source\PSoC5/USBUART_1_cdc.c ****     *   USBUART_1_cdc_data_out_ep: CDC OUT endpoint number used.
 554:.\Generated_Source\PSoC5/USBUART_1_cdc.c ****     *
 555:.\Generated_Source\PSoC5/USBUART_1_cdc.c ****     * Reentrant:
 556:.\Generated_Source\PSoC5/USBUART_1_cdc.c ****     *  No.
 557:.\Generated_Source\PSoC5/USBUART_1_cdc.c ****     *
 558:.\Generated_Source\PSoC5/USBUART_1_cdc.c ****     *******************************************************************************/
 559:.\Generated_Source\PSoC5/USBUART_1_cdc.c ****     uint8 USBUART_1_GetChar(void) 
 560:.\Generated_Source\PSoC5/USBUART_1_cdc.c ****     {
 883              		.loc 1 560 0
 884              		.cfi_startproc
 885              		@ args = 0, pretend = 0, frame = 8
 886              		@ frame_needed = 1, uses_anonymous_args = 0
 887 0000 80B5     		push	{r7, lr}
 888              	.LCFI33:
 889              		.cfi_def_cfa_offset 8
 890              		.cfi_offset 7, -8
 891              		.cfi_offset 14, -4
 892 0002 82B0     		sub	sp, sp, #8
 893              	.LCFI34:
 894              		.cfi_def_cfa_offset 16
 895 0004 00AF     		add	r7, sp, #0
 896              	.LCFI35:
 897              		.cfi_def_cfa_register 7
 561:.\Generated_Source\PSoC5/USBUART_1_cdc.c ****          uint8 rxData;
 562:.\Generated_Source\PSoC5/USBUART_1_cdc.c **** 
 563:.\Generated_Source\PSoC5/USBUART_1_cdc.c ****         (void) USBUART_1_ReadOutEP(USBUART_1_cdc_data_out_ep, &rxData, 1u);
 898              		.loc 1 563 0
 899 0006 40F20003 		movw	r3, #:lower16:USBUART_1_cdc_data_out_ep
 900 000a C0F20003 		movt	r3, #:upper16:USBUART_1_cdc_data_out_ep
 901 000e 1B78     		ldrb	r3, [r3, #0]
 902 0010 DAB2     		uxtb	r2, r3
 903 0012 07F10703 		add	r3, r7, #7
 904 0016 1046     		mov	r0, r2
 905 0018 1946     		mov	r1, r3
 906 001a 4FF00102 		mov	r2, #1
 907 001e FFF7FEFF 		bl	USBUART_1_ReadOutEP
 564:.\Generated_Source\PSoC5/USBUART_1_cdc.c **** 
 565:.\Generated_Source\PSoC5/USBUART_1_cdc.c ****         return(rxData);
 908              		.loc 1 565 0
 909 0022 FB79     		ldrb	r3, [r7, #7]	@ zero_extendqisi2
 566:.\Generated_Source\PSoC5/USBUART_1_cdc.c ****     }
 910              		.loc 1 566 0
 911 0024 1846     		mov	r0, r3
 912 0026 07F10807 		add	r7, r7, #8
ARM GAS  C:\Users\Robert\AppData\Local\Temp\ccNv74yg.s 			page 27


 913 002a BD46     		mov	sp, r7
 914 002c 80BD     		pop	{r7, pc}
 915              		.cfi_endproc
 916              	.LFE12:
 917              		.size	USBUART_1_GetChar, .-USBUART_1_GetChar
 918 002e 00BF     		.section	.text.USBUART_1_IsLineChanged,"ax",%progbits
 919              		.align	2
 920              		.global	USBUART_1_IsLineChanged
 921              		.thumb
 922              		.thumb_func
 923              		.type	USBUART_1_IsLineChanged, %function
 924              	USBUART_1_IsLineChanged:
 925              	.LFB13:
 567:.\Generated_Source\PSoC5/USBUART_1_cdc.c **** 
 568:.\Generated_Source\PSoC5/USBUART_1_cdc.c ****     /*******************************************************************************
 569:.\Generated_Source\PSoC5/USBUART_1_cdc.c ****     * Function Name: USBUART_1_IsLineChanged
 570:.\Generated_Source\PSoC5/USBUART_1_cdc.c ****     ********************************************************************************
 571:.\Generated_Source\PSoC5/USBUART_1_cdc.c ****     *
 572:.\Generated_Source\PSoC5/USBUART_1_cdc.c ****     * Summary:
 573:.\Generated_Source\PSoC5/USBUART_1_cdc.c ****     *  This function returns clear on read status of the line. It returns not zero
 574:.\Generated_Source\PSoC5/USBUART_1_cdc.c ****     *  value when the host sends updated coding or control information to the
 575:.\Generated_Source\PSoC5/USBUART_1_cdc.c ****     *  device. The USBUART_1_GetDTERate(), USBUART_1_GetCharFormat()
 576:.\Generated_Source\PSoC5/USBUART_1_cdc.c ****     *  or USBUART_1_GetParityType() or USBUART_1_GetDataBits() API
 577:.\Generated_Source\PSoC5/USBUART_1_cdc.c ****     *  should be called to read data coding information.
 578:.\Generated_Source\PSoC5/USBUART_1_cdc.c ****     *  The USBUART_1_GetLineControl() API should be called to read line
 579:.\Generated_Source\PSoC5/USBUART_1_cdc.c ****     *  control information.
 580:.\Generated_Source\PSoC5/USBUART_1_cdc.c ****     *
 581:.\Generated_Source\PSoC5/USBUART_1_cdc.c ****     * Parameters:
 582:.\Generated_Source\PSoC5/USBUART_1_cdc.c ****     *  None.
 583:.\Generated_Source\PSoC5/USBUART_1_cdc.c ****     *
 584:.\Generated_Source\PSoC5/USBUART_1_cdc.c ****     * Return:
 585:.\Generated_Source\PSoC5/USBUART_1_cdc.c ****     *  If SET_LINE_CODING or CDC_SET_CONTROL_LINE_STATE requests are received, it
 586:.\Generated_Source\PSoC5/USBUART_1_cdc.c ****     *  returns a nonzero value. Otherwise, it returns zero.
 587:.\Generated_Source\PSoC5/USBUART_1_cdc.c ****     *
 588:.\Generated_Source\PSoC5/USBUART_1_cdc.c ****     * Global variables:
 589:.\Generated_Source\PSoC5/USBUART_1_cdc.c ****     *  USBUART_1_transferState: it is checked to be sure then OUT data
 590:.\Generated_Source\PSoC5/USBUART_1_cdc.c ****     *    phase has been complete, and data written to the lineCoding or Control
 591:.\Generated_Source\PSoC5/USBUART_1_cdc.c ****     *    Bitmap buffer.
 592:.\Generated_Source\PSoC5/USBUART_1_cdc.c ****     *  USBUART_1_lineChanged: used as a flag to be aware that Host has been
 593:.\Generated_Source\PSoC5/USBUART_1_cdc.c ****     *    sent request for changing Line Coding or Control Bitmap.
 594:.\Generated_Source\PSoC5/USBUART_1_cdc.c ****     *
 595:.\Generated_Source\PSoC5/USBUART_1_cdc.c ****     *******************************************************************************/
 596:.\Generated_Source\PSoC5/USBUART_1_cdc.c ****     uint8 USBUART_1_IsLineChanged(void) 
 597:.\Generated_Source\PSoC5/USBUART_1_cdc.c ****     {
 926              		.loc 1 597 0
 927              		.cfi_startproc
 928              		@ args = 0, pretend = 0, frame = 8
 929              		@ frame_needed = 1, uses_anonymous_args = 0
 930              		@ link register save eliminated.
 931 0000 80B4     		push	{r7}
 932              	.LCFI36:
 933              		.cfi_def_cfa_offset 4
 934              		.cfi_offset 7, -4
 935 0002 83B0     		sub	sp, sp, #12
 936              	.LCFI37:
 937              		.cfi_def_cfa_offset 16
 938 0004 00AF     		add	r7, sp, #0
ARM GAS  C:\Users\Robert\AppData\Local\Temp\ccNv74yg.s 			page 28


 939              	.LCFI38:
 940              		.cfi_def_cfa_register 7
 598:.\Generated_Source\PSoC5/USBUART_1_cdc.c ****         uint8 state = 0u;
 941              		.loc 1 598 0
 942 0006 4FF00003 		mov	r3, #0
 943 000a FB71     		strb	r3, [r7, #7]
 599:.\Generated_Source\PSoC5/USBUART_1_cdc.c **** 
 600:.\Generated_Source\PSoC5/USBUART_1_cdc.c ****         /* transferState is checked to be sure then OUT data phase has been complete */
 601:.\Generated_Source\PSoC5/USBUART_1_cdc.c ****         if(USBUART_1_transferState == USBUART_1_TRANS_STATE_IDLE)
 944              		.loc 1 601 0
 945 000c 40F20003 		movw	r3, #:lower16:USBUART_1_transferState
 946 0010 C0F20003 		movt	r3, #:upper16:USBUART_1_transferState
 947 0014 1B78     		ldrb	r3, [r3, #0]
 948 0016 DBB2     		uxtb	r3, r3
 949 0018 002B     		cmp	r3, #0
 950 001a 14D1     		bne	.L45
 602:.\Generated_Source\PSoC5/USBUART_1_cdc.c ****         {
 603:.\Generated_Source\PSoC5/USBUART_1_cdc.c ****             if(USBUART_1_lineChanged != 0u)
 951              		.loc 1 603 0
 952 001c 40F20003 		movw	r3, #:lower16:USBUART_1_lineChanged
 953 0020 C0F20003 		movt	r3, #:upper16:USBUART_1_lineChanged
 954 0024 1B78     		ldrb	r3, [r3, #0]
 955 0026 DBB2     		uxtb	r3, r3
 956 0028 002B     		cmp	r3, #0
 957 002a 0CD0     		beq	.L45
 604:.\Generated_Source\PSoC5/USBUART_1_cdc.c ****             {
 605:.\Generated_Source\PSoC5/USBUART_1_cdc.c ****                 state = USBUART_1_lineChanged;
 958              		.loc 1 605 0
 959 002c 40F20003 		movw	r3, #:lower16:USBUART_1_lineChanged
 960 0030 C0F20003 		movt	r3, #:upper16:USBUART_1_lineChanged
 961 0034 1B78     		ldrb	r3, [r3, #0]
 962 0036 FB71     		strb	r3, [r7, #7]
 606:.\Generated_Source\PSoC5/USBUART_1_cdc.c ****                 USBUART_1_lineChanged = 0u;
 963              		.loc 1 606 0
 964 0038 40F20003 		movw	r3, #:lower16:USBUART_1_lineChanged
 965 003c C0F20003 		movt	r3, #:upper16:USBUART_1_lineChanged
 966 0040 4FF00002 		mov	r2, #0
 967 0044 1A70     		strb	r2, [r3, #0]
 968              	.L45:
 607:.\Generated_Source\PSoC5/USBUART_1_cdc.c ****             }
 608:.\Generated_Source\PSoC5/USBUART_1_cdc.c ****         }
 609:.\Generated_Source\PSoC5/USBUART_1_cdc.c **** 
 610:.\Generated_Source\PSoC5/USBUART_1_cdc.c ****         return(state);
 969              		.loc 1 610 0
 970 0046 FB79     		ldrb	r3, [r7, #7]	@ zero_extendqisi2
 611:.\Generated_Source\PSoC5/USBUART_1_cdc.c ****     }
 971              		.loc 1 611 0
 972 0048 1846     		mov	r0, r3
 973 004a 07F10C07 		add	r7, r7, #12
 974 004e BD46     		mov	sp, r7
 975 0050 80BC     		pop	{r7}
 976 0052 7047     		bx	lr
 977              		.cfi_endproc
 978              	.LFE13:
 979              		.size	USBUART_1_IsLineChanged, .-USBUART_1_IsLineChanged
 980              		.section	.text.USBUART_1_GetDTERate,"ax",%progbits
 981              		.align	2
ARM GAS  C:\Users\Robert\AppData\Local\Temp\ccNv74yg.s 			page 29


 982              		.global	USBUART_1_GetDTERate
 983              		.thumb
 984              		.thumb_func
 985              		.type	USBUART_1_GetDTERate, %function
 986              	USBUART_1_GetDTERate:
 987              	.LFB14:
 612:.\Generated_Source\PSoC5/USBUART_1_cdc.c **** 
 613:.\Generated_Source\PSoC5/USBUART_1_cdc.c **** 
 614:.\Generated_Source\PSoC5/USBUART_1_cdc.c ****     /*******************************************************************************
 615:.\Generated_Source\PSoC5/USBUART_1_cdc.c ****     * Function Name: USBUART_1_GetDTERate
 616:.\Generated_Source\PSoC5/USBUART_1_cdc.c ****     ********************************************************************************
 617:.\Generated_Source\PSoC5/USBUART_1_cdc.c ****     *
 618:.\Generated_Source\PSoC5/USBUART_1_cdc.c ****     * Summary:
 619:.\Generated_Source\PSoC5/USBUART_1_cdc.c ****     *  Returns the data terminal rate set for this port in bits per second.
 620:.\Generated_Source\PSoC5/USBUART_1_cdc.c ****     *
 621:.\Generated_Source\PSoC5/USBUART_1_cdc.c ****     * Parameters:
 622:.\Generated_Source\PSoC5/USBUART_1_cdc.c ****     *  None.
 623:.\Generated_Source\PSoC5/USBUART_1_cdc.c ****     *
 624:.\Generated_Source\PSoC5/USBUART_1_cdc.c ****     * Return:
 625:.\Generated_Source\PSoC5/USBUART_1_cdc.c ****     *  Returns a uint32 value of the data rate in bits per second.
 626:.\Generated_Source\PSoC5/USBUART_1_cdc.c ****     *
 627:.\Generated_Source\PSoC5/USBUART_1_cdc.c ****     * Global variables:
 628:.\Generated_Source\PSoC5/USBUART_1_cdc.c ****     *  USBUART_1_lineCoding: First four bytes converted to uint32
 629:.\Generated_Source\PSoC5/USBUART_1_cdc.c ****     *    depend on compiler, and returned as a data rate.
 630:.\Generated_Source\PSoC5/USBUART_1_cdc.c ****     *
 631:.\Generated_Source\PSoC5/USBUART_1_cdc.c ****     *******************************************************************************/
 632:.\Generated_Source\PSoC5/USBUART_1_cdc.c ****     uint32 USBUART_1_GetDTERate(void) 
 633:.\Generated_Source\PSoC5/USBUART_1_cdc.c ****     {
 988              		.loc 1 633 0
 989              		.cfi_startproc
 990              		@ args = 0, pretend = 0, frame = 8
 991              		@ frame_needed = 1, uses_anonymous_args = 0
 992              		@ link register save eliminated.
 993 0000 80B4     		push	{r7}
 994              	.LCFI39:
 995              		.cfi_def_cfa_offset 4
 996              		.cfi_offset 7, -4
 997 0002 83B0     		sub	sp, sp, #12
 998              	.LCFI40:
 999              		.cfi_def_cfa_offset 16
 1000 0004 00AF     		add	r7, sp, #0
 1001              	.LCFI41:
 1002              		.cfi_def_cfa_register 7
 634:.\Generated_Source\PSoC5/USBUART_1_cdc.c ****         uint32 rate;
 635:.\Generated_Source\PSoC5/USBUART_1_cdc.c **** 
 636:.\Generated_Source\PSoC5/USBUART_1_cdc.c ****         rate = USBUART_1_lineCoding[USBUART_1_LINE_CODING_RATE + 3u];
 1003              		.loc 1 636 0
 1004 0006 40F20003 		movw	r3, #:lower16:USBUART_1_lineCoding
 1005 000a C0F20003 		movt	r3, #:upper16:USBUART_1_lineCoding
 1006 000e DB78     		ldrb	r3, [r3, #3]
 1007 0010 DBB2     		uxtb	r3, r3
 1008 0012 7B60     		str	r3, [r7, #4]
 637:.\Generated_Source\PSoC5/USBUART_1_cdc.c ****         rate = (rate << 8u) | USBUART_1_lineCoding[USBUART_1_LINE_CODING_RATE + 2u];
 1009              		.loc 1 637 0
 1010 0014 7B68     		ldr	r3, [r7, #4]
 1011 0016 4FEA0322 		lsl	r2, r3, #8
 1012 001a 40F20003 		movw	r3, #:lower16:USBUART_1_lineCoding
ARM GAS  C:\Users\Robert\AppData\Local\Temp\ccNv74yg.s 			page 30


 1013 001e C0F20003 		movt	r3, #:upper16:USBUART_1_lineCoding
 1014 0022 9B78     		ldrb	r3, [r3, #2]
 1015 0024 DBB2     		uxtb	r3, r3
 1016 0026 1343     		orrs	r3, r3, r2
 1017 0028 7B60     		str	r3, [r7, #4]
 638:.\Generated_Source\PSoC5/USBUART_1_cdc.c ****         rate = (rate << 8u) | USBUART_1_lineCoding[USBUART_1_LINE_CODING_RATE + 1u];
 1018              		.loc 1 638 0
 1019 002a 7B68     		ldr	r3, [r7, #4]
 1020 002c 4FEA0322 		lsl	r2, r3, #8
 1021 0030 40F20003 		movw	r3, #:lower16:USBUART_1_lineCoding
 1022 0034 C0F20003 		movt	r3, #:upper16:USBUART_1_lineCoding
 1023 0038 5B78     		ldrb	r3, [r3, #1]
 1024 003a DBB2     		uxtb	r3, r3
 1025 003c 1343     		orrs	r3, r3, r2
 1026 003e 7B60     		str	r3, [r7, #4]
 639:.\Generated_Source\PSoC5/USBUART_1_cdc.c ****         rate = (rate << 8u) | USBUART_1_lineCoding[USBUART_1_LINE_CODING_RATE];
 1027              		.loc 1 639 0
 1028 0040 7B68     		ldr	r3, [r7, #4]
 1029 0042 4FEA0322 		lsl	r2, r3, #8
 1030 0046 40F20003 		movw	r3, #:lower16:USBUART_1_lineCoding
 1031 004a C0F20003 		movt	r3, #:upper16:USBUART_1_lineCoding
 1032 004e 1B78     		ldrb	r3, [r3, #0]
 1033 0050 DBB2     		uxtb	r3, r3
 1034 0052 1343     		orrs	r3, r3, r2
 1035 0054 7B60     		str	r3, [r7, #4]
 640:.\Generated_Source\PSoC5/USBUART_1_cdc.c **** 
 641:.\Generated_Source\PSoC5/USBUART_1_cdc.c ****         return(rate);
 1036              		.loc 1 641 0
 1037 0056 7B68     		ldr	r3, [r7, #4]
 642:.\Generated_Source\PSoC5/USBUART_1_cdc.c ****     }
 1038              		.loc 1 642 0
 1039 0058 1846     		mov	r0, r3
 1040 005a 07F10C07 		add	r7, r7, #12
 1041 005e BD46     		mov	sp, r7
 1042 0060 80BC     		pop	{r7}
 1043 0062 7047     		bx	lr
 1044              		.cfi_endproc
 1045              	.LFE14:
 1046              		.size	USBUART_1_GetDTERate, .-USBUART_1_GetDTERate
 1047              		.section	.text.USBUART_1_GetCharFormat,"ax",%progbits
 1048              		.align	2
 1049              		.global	USBUART_1_GetCharFormat
 1050              		.thumb
 1051              		.thumb_func
 1052              		.type	USBUART_1_GetCharFormat, %function
 1053              	USBUART_1_GetCharFormat:
 1054              	.LFB15:
 643:.\Generated_Source\PSoC5/USBUART_1_cdc.c **** 
 644:.\Generated_Source\PSoC5/USBUART_1_cdc.c **** 
 645:.\Generated_Source\PSoC5/USBUART_1_cdc.c ****     /*******************************************************************************
 646:.\Generated_Source\PSoC5/USBUART_1_cdc.c ****     * Function Name: USBUART_1_GetCharFormat
 647:.\Generated_Source\PSoC5/USBUART_1_cdc.c ****     ********************************************************************************
 648:.\Generated_Source\PSoC5/USBUART_1_cdc.c ****     *
 649:.\Generated_Source\PSoC5/USBUART_1_cdc.c ****     * Summary:
 650:.\Generated_Source\PSoC5/USBUART_1_cdc.c ****     *  Returns the number of stop bits.
 651:.\Generated_Source\PSoC5/USBUART_1_cdc.c ****     *
 652:.\Generated_Source\PSoC5/USBUART_1_cdc.c ****     * Parameters:
ARM GAS  C:\Users\Robert\AppData\Local\Temp\ccNv74yg.s 			page 31


 653:.\Generated_Source\PSoC5/USBUART_1_cdc.c ****     *  None.
 654:.\Generated_Source\PSoC5/USBUART_1_cdc.c ****     *
 655:.\Generated_Source\PSoC5/USBUART_1_cdc.c ****     * Return:
 656:.\Generated_Source\PSoC5/USBUART_1_cdc.c ****     *  Returns the number of stop bits.
 657:.\Generated_Source\PSoC5/USBUART_1_cdc.c ****     *
 658:.\Generated_Source\PSoC5/USBUART_1_cdc.c ****     * Global variables:
 659:.\Generated_Source\PSoC5/USBUART_1_cdc.c ****     *  USBUART_1_lineCoding: used to get a parameter.
 660:.\Generated_Source\PSoC5/USBUART_1_cdc.c ****     *
 661:.\Generated_Source\PSoC5/USBUART_1_cdc.c ****     *******************************************************************************/
 662:.\Generated_Source\PSoC5/USBUART_1_cdc.c ****     uint8 USBUART_1_GetCharFormat(void) 
 663:.\Generated_Source\PSoC5/USBUART_1_cdc.c ****     {
 1055              		.loc 1 663 0
 1056              		.cfi_startproc
 1057              		@ args = 0, pretend = 0, frame = 0
 1058              		@ frame_needed = 1, uses_anonymous_args = 0
 1059              		@ link register save eliminated.
 1060 0000 80B4     		push	{r7}
 1061              	.LCFI42:
 1062              		.cfi_def_cfa_offset 4
 1063              		.cfi_offset 7, -4
 1064 0002 00AF     		add	r7, sp, #0
 1065              	.LCFI43:
 1066              		.cfi_def_cfa_register 7
 664:.\Generated_Source\PSoC5/USBUART_1_cdc.c ****         return(USBUART_1_lineCoding[USBUART_1_LINE_CODING_STOP_BITS]);
 1067              		.loc 1 664 0
 1068 0004 40F20003 		movw	r3, #:lower16:USBUART_1_lineCoding
 1069 0008 C0F20003 		movt	r3, #:upper16:USBUART_1_lineCoding
 1070 000c 1B79     		ldrb	r3, [r3, #4]
 1071 000e DBB2     		uxtb	r3, r3
 665:.\Generated_Source\PSoC5/USBUART_1_cdc.c ****     }
 1072              		.loc 1 665 0
 1073 0010 1846     		mov	r0, r3
 1074 0012 BD46     		mov	sp, r7
 1075 0014 80BC     		pop	{r7}
 1076 0016 7047     		bx	lr
 1077              		.cfi_endproc
 1078              	.LFE15:
 1079              		.size	USBUART_1_GetCharFormat, .-USBUART_1_GetCharFormat
 1080              		.section	.text.USBUART_1_GetParityType,"ax",%progbits
 1081              		.align	2
 1082              		.global	USBUART_1_GetParityType
 1083              		.thumb
 1084              		.thumb_func
 1085              		.type	USBUART_1_GetParityType, %function
 1086              	USBUART_1_GetParityType:
 1087              	.LFB16:
 666:.\Generated_Source\PSoC5/USBUART_1_cdc.c **** 
 667:.\Generated_Source\PSoC5/USBUART_1_cdc.c **** 
 668:.\Generated_Source\PSoC5/USBUART_1_cdc.c ****     /*******************************************************************************
 669:.\Generated_Source\PSoC5/USBUART_1_cdc.c ****     * Function Name: USBUART_1_GetParityType
 670:.\Generated_Source\PSoC5/USBUART_1_cdc.c ****     ********************************************************************************
 671:.\Generated_Source\PSoC5/USBUART_1_cdc.c ****     *
 672:.\Generated_Source\PSoC5/USBUART_1_cdc.c ****     * Summary:
 673:.\Generated_Source\PSoC5/USBUART_1_cdc.c ****     *  Returns the parity type for the CDC port.
 674:.\Generated_Source\PSoC5/USBUART_1_cdc.c ****     *
 675:.\Generated_Source\PSoC5/USBUART_1_cdc.c ****     * Parameters:
 676:.\Generated_Source\PSoC5/USBUART_1_cdc.c ****     *  None.
ARM GAS  C:\Users\Robert\AppData\Local\Temp\ccNv74yg.s 			page 32


 677:.\Generated_Source\PSoC5/USBUART_1_cdc.c ****     *
 678:.\Generated_Source\PSoC5/USBUART_1_cdc.c ****     * Return:
 679:.\Generated_Source\PSoC5/USBUART_1_cdc.c ****     *  Returns the parity type.
 680:.\Generated_Source\PSoC5/USBUART_1_cdc.c ****     *
 681:.\Generated_Source\PSoC5/USBUART_1_cdc.c ****     * Global variables:
 682:.\Generated_Source\PSoC5/USBUART_1_cdc.c ****     *  USBUART_1_lineCoding: used to get a parameter.
 683:.\Generated_Source\PSoC5/USBUART_1_cdc.c ****     *
 684:.\Generated_Source\PSoC5/USBUART_1_cdc.c ****     *******************************************************************************/
 685:.\Generated_Source\PSoC5/USBUART_1_cdc.c ****     uint8 USBUART_1_GetParityType(void) 
 686:.\Generated_Source\PSoC5/USBUART_1_cdc.c ****     {
 1088              		.loc 1 686 0
 1089              		.cfi_startproc
 1090              		@ args = 0, pretend = 0, frame = 0
 1091              		@ frame_needed = 1, uses_anonymous_args = 0
 1092              		@ link register save eliminated.
 1093 0000 80B4     		push	{r7}
 1094              	.LCFI44:
 1095              		.cfi_def_cfa_offset 4
 1096              		.cfi_offset 7, -4
 1097 0002 00AF     		add	r7, sp, #0
 1098              	.LCFI45:
 1099              		.cfi_def_cfa_register 7
 687:.\Generated_Source\PSoC5/USBUART_1_cdc.c ****         return(USBUART_1_lineCoding[USBUART_1_LINE_CODING_PARITY]);
 1100              		.loc 1 687 0
 1101 0004 40F20003 		movw	r3, #:lower16:USBUART_1_lineCoding
 1102 0008 C0F20003 		movt	r3, #:upper16:USBUART_1_lineCoding
 1103 000c 5B79     		ldrb	r3, [r3, #5]
 1104 000e DBB2     		uxtb	r3, r3
 688:.\Generated_Source\PSoC5/USBUART_1_cdc.c ****     }
 1105              		.loc 1 688 0
 1106 0010 1846     		mov	r0, r3
 1107 0012 BD46     		mov	sp, r7
 1108 0014 80BC     		pop	{r7}
 1109 0016 7047     		bx	lr
 1110              		.cfi_endproc
 1111              	.LFE16:
 1112              		.size	USBUART_1_GetParityType, .-USBUART_1_GetParityType
 1113              		.section	.text.USBUART_1_GetDataBits,"ax",%progbits
 1114              		.align	2
 1115              		.global	USBUART_1_GetDataBits
 1116              		.thumb
 1117              		.thumb_func
 1118              		.type	USBUART_1_GetDataBits, %function
 1119              	USBUART_1_GetDataBits:
 1120              	.LFB17:
 689:.\Generated_Source\PSoC5/USBUART_1_cdc.c **** 
 690:.\Generated_Source\PSoC5/USBUART_1_cdc.c **** 
 691:.\Generated_Source\PSoC5/USBUART_1_cdc.c ****     /*******************************************************************************
 692:.\Generated_Source\PSoC5/USBUART_1_cdc.c ****     * Function Name: USBUART_1_GetDataBits
 693:.\Generated_Source\PSoC5/USBUART_1_cdc.c ****     ********************************************************************************
 694:.\Generated_Source\PSoC5/USBUART_1_cdc.c ****     *
 695:.\Generated_Source\PSoC5/USBUART_1_cdc.c ****     * Summary:
 696:.\Generated_Source\PSoC5/USBUART_1_cdc.c ****     *  Returns the number of data bits for the CDC port.
 697:.\Generated_Source\PSoC5/USBUART_1_cdc.c ****     *
 698:.\Generated_Source\PSoC5/USBUART_1_cdc.c ****     * Parameters:
 699:.\Generated_Source\PSoC5/USBUART_1_cdc.c ****     *  None.
 700:.\Generated_Source\PSoC5/USBUART_1_cdc.c ****     *
ARM GAS  C:\Users\Robert\AppData\Local\Temp\ccNv74yg.s 			page 33


 701:.\Generated_Source\PSoC5/USBUART_1_cdc.c ****     * Return:
 702:.\Generated_Source\PSoC5/USBUART_1_cdc.c ****     *  Returns the number of data bits.
 703:.\Generated_Source\PSoC5/USBUART_1_cdc.c ****     *  The number of data bits can be 5, 6, 7, 8 or 16.
 704:.\Generated_Source\PSoC5/USBUART_1_cdc.c ****     *
 705:.\Generated_Source\PSoC5/USBUART_1_cdc.c ****     * Global variables:
 706:.\Generated_Source\PSoC5/USBUART_1_cdc.c ****     *  USBUART_1_lineCoding: used to get a parameter.
 707:.\Generated_Source\PSoC5/USBUART_1_cdc.c ****     *
 708:.\Generated_Source\PSoC5/USBUART_1_cdc.c ****     *******************************************************************************/
 709:.\Generated_Source\PSoC5/USBUART_1_cdc.c ****     uint8 USBUART_1_GetDataBits(void) 
 710:.\Generated_Source\PSoC5/USBUART_1_cdc.c ****     {
 1121              		.loc 1 710 0
 1122              		.cfi_startproc
 1123              		@ args = 0, pretend = 0, frame = 0
 1124              		@ frame_needed = 1, uses_anonymous_args = 0
 1125              		@ link register save eliminated.
 1126 0000 80B4     		push	{r7}
 1127              	.LCFI46:
 1128              		.cfi_def_cfa_offset 4
 1129              		.cfi_offset 7, -4
 1130 0002 00AF     		add	r7, sp, #0
 1131              	.LCFI47:
 1132              		.cfi_def_cfa_register 7
 711:.\Generated_Source\PSoC5/USBUART_1_cdc.c ****         return(USBUART_1_lineCoding[USBUART_1_LINE_CODING_DATA_BITS]);
 1133              		.loc 1 711 0
 1134 0004 40F20003 		movw	r3, #:lower16:USBUART_1_lineCoding
 1135 0008 C0F20003 		movt	r3, #:upper16:USBUART_1_lineCoding
 1136 000c 9B79     		ldrb	r3, [r3, #6]
 1137 000e DBB2     		uxtb	r3, r3
 712:.\Generated_Source\PSoC5/USBUART_1_cdc.c ****     }
 1138              		.loc 1 712 0
 1139 0010 1846     		mov	r0, r3
 1140 0012 BD46     		mov	sp, r7
 1141 0014 80BC     		pop	{r7}
 1142 0016 7047     		bx	lr
 1143              		.cfi_endproc
 1144              	.LFE17:
 1145              		.size	USBUART_1_GetDataBits, .-USBUART_1_GetDataBits
 1146              		.section	.text.USBUART_1_GetLineControl,"ax",%progbits
 1147              		.align	2
 1148              		.global	USBUART_1_GetLineControl
 1149              		.thumb
 1150              		.thumb_func
 1151              		.type	USBUART_1_GetLineControl, %function
 1152              	USBUART_1_GetLineControl:
 1153              	.LFB18:
 713:.\Generated_Source\PSoC5/USBUART_1_cdc.c **** 
 714:.\Generated_Source\PSoC5/USBUART_1_cdc.c **** 
 715:.\Generated_Source\PSoC5/USBUART_1_cdc.c ****     /*******************************************************************************
 716:.\Generated_Source\PSoC5/USBUART_1_cdc.c ****     * Function Name: USBUART_1_GetLineControl
 717:.\Generated_Source\PSoC5/USBUART_1_cdc.c ****     ********************************************************************************
 718:.\Generated_Source\PSoC5/USBUART_1_cdc.c ****     *
 719:.\Generated_Source\PSoC5/USBUART_1_cdc.c ****     * Summary:
 720:.\Generated_Source\PSoC5/USBUART_1_cdc.c ****     *  Returns Line control bitmap.
 721:.\Generated_Source\PSoC5/USBUART_1_cdc.c ****     *
 722:.\Generated_Source\PSoC5/USBUART_1_cdc.c ****     * Parameters:
 723:.\Generated_Source\PSoC5/USBUART_1_cdc.c ****     *  None.
 724:.\Generated_Source\PSoC5/USBUART_1_cdc.c ****     *
ARM GAS  C:\Users\Robert\AppData\Local\Temp\ccNv74yg.s 			page 34


 725:.\Generated_Source\PSoC5/USBUART_1_cdc.c ****     * Return:
 726:.\Generated_Source\PSoC5/USBUART_1_cdc.c ****     *  Returns Line control bitmap.
 727:.\Generated_Source\PSoC5/USBUART_1_cdc.c ****     *
 728:.\Generated_Source\PSoC5/USBUART_1_cdc.c ****     * Global variables:
 729:.\Generated_Source\PSoC5/USBUART_1_cdc.c ****     *  USBUART_1_lineControlBitmap: used to get a parameter.
 730:.\Generated_Source\PSoC5/USBUART_1_cdc.c ****     *
 731:.\Generated_Source\PSoC5/USBUART_1_cdc.c ****     *******************************************************************************/
 732:.\Generated_Source\PSoC5/USBUART_1_cdc.c ****     uint16 USBUART_1_GetLineControl(void) 
 733:.\Generated_Source\PSoC5/USBUART_1_cdc.c ****     {
 1154              		.loc 1 733 0
 1155              		.cfi_startproc
 1156              		@ args = 0, pretend = 0, frame = 0
 1157              		@ frame_needed = 1, uses_anonymous_args = 0
 1158              		@ link register save eliminated.
 1159 0000 80B4     		push	{r7}
 1160              	.LCFI48:
 1161              		.cfi_def_cfa_offset 4
 1162              		.cfi_offset 7, -4
 1163 0002 00AF     		add	r7, sp, #0
 1164              	.LCFI49:
 1165              		.cfi_def_cfa_register 7
 734:.\Generated_Source\PSoC5/USBUART_1_cdc.c ****         return(USBUART_1_lineControlBitmap);
 1166              		.loc 1 734 0
 1167 0004 40F20003 		movw	r3, #:lower16:USBUART_1_lineControlBitmap
 1168 0008 C0F20003 		movt	r3, #:upper16:USBUART_1_lineControlBitmap
 1169 000c 1B88     		ldrh	r3, [r3, #0]	@ movhi
 1170 000e 9BB2     		uxth	r3, r3
 735:.\Generated_Source\PSoC5/USBUART_1_cdc.c ****     }
 1171              		.loc 1 735 0
 1172 0010 1846     		mov	r0, r3
 1173 0012 BD46     		mov	sp, r7
 1174 0014 80BC     		pop	{r7}
 1175 0016 7047     		bx	lr
 1176              		.cfi_endproc
 1177              	.LFE18:
 1178              		.size	USBUART_1_GetLineControl, .-USBUART_1_GetLineControl
 1179              		.text
 1180              	.Letext0:
 1181              		.file 2 ".\\Generated_Source\\PSoC5\\cytypes.h"
 1182              		.file 3 ".\\Generated_Source\\PSoC5\\USBUART_1.h"
 1183              		.file 4 ".\\Generated_Source\\PSoC5\\USBUART_1_pvt.h"
 1184              		.section	.debug_info,"",%progbits
 1185              	.Ldebug_info0:
 1186 0000 F3050000 		.4byte	0x5f3
 1187 0004 0200     		.2byte	0x2
 1188 0006 00000000 		.4byte	.Ldebug_abbrev0
 1189 000a 04       		.byte	0x4
 1190 000b 01       		.uleb128 0x1
 1191 000c 4B030000 		.4byte	.LASF72
 1192 0010 01       		.byte	0x1
 1193 0011 26020000 		.4byte	.LASF73
 1194 0015 07010000 		.4byte	.LASF74
 1195 0019 00000000 		.4byte	.Ldebug_ranges0+0
 1196 001d 00000000 		.4byte	0
 1197 0021 00000000 		.4byte	0
 1198 0025 00000000 		.4byte	.Ldebug_line0
 1199 0029 02       		.uleb128 0x2
ARM GAS  C:\Users\Robert\AppData\Local\Temp\ccNv74yg.s 			page 35


 1200 002a 01       		.byte	0x1
 1201 002b 06       		.byte	0x6
 1202 002c 8D000000 		.4byte	.LASF0
 1203 0030 02       		.uleb128 0x2
 1204 0031 01       		.byte	0x1
 1205 0032 08       		.byte	0x8
 1206 0033 99030000 		.4byte	.LASF1
 1207 0037 02       		.uleb128 0x2
 1208 0038 02       		.byte	0x2
 1209 0039 05       		.byte	0x5
 1210 003a A7030000 		.4byte	.LASF2
 1211 003e 02       		.uleb128 0x2
 1212 003f 02       		.byte	0x2
 1213 0040 07       		.byte	0x7
 1214 0041 7C020000 		.4byte	.LASF3
 1215 0045 02       		.uleb128 0x2
 1216 0046 04       		.byte	0x4
 1217 0047 05       		.byte	0x5
 1218 0048 BE000000 		.4byte	.LASF4
 1219 004c 02       		.uleb128 0x2
 1220 004d 04       		.byte	0x4
 1221 004e 07       		.byte	0x7
 1222 004f 14020000 		.4byte	.LASF5
 1223 0053 02       		.uleb128 0x2
 1224 0054 08       		.byte	0x8
 1225 0055 05       		.byte	0x5
 1226 0056 7F000000 		.4byte	.LASF6
 1227 005a 02       		.uleb128 0x2
 1228 005b 08       		.byte	0x8
 1229 005c 07       		.byte	0x7
 1230 005d 63000000 		.4byte	.LASF7
 1231 0061 03       		.uleb128 0x3
 1232 0062 04       		.byte	0x4
 1233 0063 05       		.byte	0x5
 1234 0064 696E7400 		.ascii	"int\000"
 1235 0068 02       		.uleb128 0x2
 1236 0069 04       		.byte	0x4
 1237 006a 07       		.byte	0x7
 1238 006b 07020000 		.4byte	.LASF8
 1239 006f 04       		.uleb128 0x4
 1240 0070 F1000000 		.4byte	.LASF9
 1241 0074 02       		.byte	0x2
 1242 0075 5B       		.byte	0x5b
 1243 0076 30000000 		.4byte	0x30
 1244 007a 04       		.uleb128 0x4
 1245 007b 13000000 		.4byte	.LASF10
 1246 007f 02       		.byte	0x2
 1247 0080 5C       		.byte	0x5c
 1248 0081 3E000000 		.4byte	0x3e
 1249 0085 04       		.uleb128 0x4
 1250 0086 77010000 		.4byte	.LASF11
 1251 008a 02       		.byte	0x2
 1252 008b 5D       		.byte	0x5d
 1253 008c 4C000000 		.4byte	0x4c
 1254 0090 02       		.uleb128 0x2
 1255 0091 04       		.byte	0x4
 1256 0092 04       		.byte	0x4
ARM GAS  C:\Users\Robert\AppData\Local\Temp\ccNv74yg.s 			page 36


 1257 0093 3A030000 		.4byte	.LASF12
 1258 0097 02       		.uleb128 0x2
 1259 0098 08       		.byte	0x8
 1260 0099 04       		.byte	0x4
 1261 009a 00010000 		.4byte	.LASF13
 1262 009e 04       		.uleb128 0x4
 1263 009f 46040000 		.4byte	.LASF14
 1264 00a3 02       		.byte	0x2
 1265 00a4 6C       		.byte	0x6c
 1266 00a5 A9000000 		.4byte	0xa9
 1267 00a9 02       		.uleb128 0x2
 1268 00aa 01       		.byte	0x1
 1269 00ab 08       		.byte	0x8
 1270 00ac F9030000 		.4byte	.LASF15
 1271 00b0 04       		.uleb128 0x4
 1272 00b1 94030000 		.4byte	.LASF16
 1273 00b5 02       		.byte	0x2
 1274 00b6 F0       		.byte	0xf0
 1275 00b7 BB000000 		.4byte	0xbb
 1276 00bb 05       		.uleb128 0x5
 1277 00bc 6F000000 		.4byte	0x6f
 1278 00c0 05       		.uleb128 0x5
 1279 00c1 7A000000 		.4byte	0x7a
 1280 00c5 02       		.uleb128 0x2
 1281 00c6 04       		.byte	0x4
 1282 00c7 07       		.byte	0x7
 1283 00c8 D9020000 		.4byte	.LASF17
 1284 00cc 06       		.uleb128 0x6
 1285 00cd 0C       		.byte	0xc
 1286 00ce 03       		.byte	0x3
 1287 00cf 7D       		.byte	0x7d
 1288 00d0 53010000 		.4byte	0x153
 1289 00d4 07       		.uleb128 0x7
 1290 00d5 0A030000 		.4byte	.LASF18
 1291 00d9 03       		.byte	0x3
 1292 00da 7F       		.byte	0x7f
 1293 00db 6F000000 		.4byte	0x6f
 1294 00df 02       		.byte	0x2
 1295 00e0 23       		.byte	0x23
 1296 00e1 00       		.uleb128 0
 1297 00e2 07       		.uleb128 0x7
 1298 00e3 40030000 		.4byte	.LASF19
 1299 00e7 03       		.byte	0x3
 1300 00e8 80       		.byte	0x80
 1301 00e9 6F000000 		.4byte	0x6f
 1302 00ed 02       		.byte	0x2
 1303 00ee 23       		.byte	0x23
 1304 00ef 01       		.uleb128 0x1
 1305 00f0 07       		.uleb128 0x7
 1306 00f1 CF020000 		.4byte	.LASF20
 1307 00f5 03       		.byte	0x3
 1308 00f6 81       		.byte	0x81
 1309 00f7 6F000000 		.4byte	0x6f
 1310 00fb 02       		.byte	0x2
 1311 00fc 23       		.byte	0x23
 1312 00fd 02       		.uleb128 0x2
 1313 00fe 07       		.uleb128 0x7
ARM GAS  C:\Users\Robert\AppData\Local\Temp\ccNv74yg.s 			page 37


 1314 00ff F7000000 		.4byte	.LASF21
 1315 0103 03       		.byte	0x3
 1316 0104 82       		.byte	0x82
 1317 0105 6F000000 		.4byte	0x6f
 1318 0109 02       		.byte	0x2
 1319 010a 23       		.byte	0x23
 1320 010b 03       		.uleb128 0x3
 1321 010c 07       		.uleb128 0x7
 1322 010d 7A000000 		.4byte	.LASF22
 1323 0111 03       		.byte	0x3
 1324 0112 83       		.byte	0x83
 1325 0113 6F000000 		.4byte	0x6f
 1326 0117 02       		.byte	0x2
 1327 0118 23       		.byte	0x23
 1328 0119 04       		.uleb128 0x4
 1329 011a 07       		.uleb128 0x7
 1330 011b B0010000 		.4byte	.LASF23
 1331 011f 03       		.byte	0x3
 1332 0120 84       		.byte	0x84
 1333 0121 6F000000 		.4byte	0x6f
 1334 0125 02       		.byte	0x2
 1335 0126 23       		.byte	0x23
 1336 0127 05       		.uleb128 0x5
 1337 0128 07       		.uleb128 0x7
 1338 0129 3B040000 		.4byte	.LASF24
 1339 012d 03       		.byte	0x3
 1340 012e 85       		.byte	0x85
 1341 012f 7A000000 		.4byte	0x7a
 1342 0133 02       		.byte	0x2
 1343 0134 23       		.byte	0x23
 1344 0135 06       		.uleb128 0x6
 1345 0136 07       		.uleb128 0x7
 1346 0137 FE030000 		.4byte	.LASF25
 1347 013b 03       		.byte	0x3
 1348 013c 86       		.byte	0x86
 1349 013d 7A000000 		.4byte	0x7a
 1350 0141 02       		.byte	0x2
 1351 0142 23       		.byte	0x23
 1352 0143 08       		.uleb128 0x8
 1353 0144 07       		.uleb128 0x7
 1354 0145 A9020000 		.4byte	.LASF26
 1355 0149 03       		.byte	0x3
 1356 014a 87       		.byte	0x87
 1357 014b 6F000000 		.4byte	0x6f
 1358 014f 02       		.byte	0x2
 1359 0150 23       		.byte	0x23
 1360 0151 0A       		.uleb128 0xa
 1361 0152 00       		.byte	0
 1362 0153 04       		.uleb128 0x4
 1363 0154 C9010000 		.4byte	.LASF27
 1364 0158 03       		.byte	0x3
 1365 0159 88       		.byte	0x88
 1366 015a CC000000 		.4byte	0xcc
 1367 015e 06       		.uleb128 0x6
 1368 015f 04       		.byte	0x4
 1369 0160 03       		.byte	0x3
 1370 0161 94       		.byte	0x94
ARM GAS  C:\Users\Robert\AppData\Local\Temp\ccNv74yg.s 			page 38


 1371 0162 83010000 		.4byte	0x183
 1372 0166 07       		.uleb128 0x7
 1373 0167 74040000 		.4byte	.LASF28
 1374 016b 03       		.byte	0x3
 1375 016c 96       		.byte	0x96
 1376 016d 6F000000 		.4byte	0x6f
 1377 0171 02       		.byte	0x2
 1378 0172 23       		.byte	0x23
 1379 0173 00       		.uleb128 0
 1380 0174 07       		.uleb128 0x7
 1381 0175 D4030000 		.4byte	.LASF29
 1382 0179 03       		.byte	0x3
 1383 017a 97       		.byte	0x97
 1384 017b 7A000000 		.4byte	0x7a
 1385 017f 02       		.byte	0x2
 1386 0180 23       		.byte	0x23
 1387 0181 02       		.uleb128 0x2
 1388 0182 00       		.byte	0
 1389 0183 04       		.uleb128 0x4
 1390 0184 DB030000 		.4byte	.LASF30
 1391 0188 03       		.byte	0x3
 1392 0189 98       		.byte	0x98
 1393 018a 5E010000 		.4byte	0x15e
 1394 018e 06       		.uleb128 0x6
 1395 018f 0C       		.byte	0xc
 1396 0190 03       		.byte	0x3
 1397 0191 9A       		.byte	0x9a
 1398 0192 C1010000 		.4byte	0x1c1
 1399 0196 07       		.uleb128 0x7
 1400 0197 0D000000 		.4byte	.LASF31
 1401 019b 03       		.byte	0x3
 1402 019c 9C       		.byte	0x9c
 1403 019d 7A000000 		.4byte	0x7a
 1404 01a1 02       		.byte	0x2
 1405 01a2 23       		.byte	0x23
 1406 01a3 00       		.uleb128 0
 1407 01a4 07       		.uleb128 0x7
 1408 01a5 7E010000 		.4byte	.LASF32
 1409 01a9 03       		.byte	0x3
 1410 01aa 9D       		.byte	0x9d
 1411 01ab C1010000 		.4byte	0x1c1
 1412 01af 02       		.byte	0x2
 1413 01b0 23       		.byte	0x23
 1414 01b1 04       		.uleb128 0x4
 1415 01b2 07       		.uleb128 0x7
 1416 01b3 00000000 		.4byte	.LASF33
 1417 01b7 03       		.byte	0x3
 1418 01b8 9E       		.byte	0x9e
 1419 01b9 C7010000 		.4byte	0x1c7
 1420 01bd 02       		.byte	0x2
 1421 01be 23       		.byte	0x23
 1422 01bf 08       		.uleb128 0x8
 1423 01c0 00       		.byte	0
 1424 01c1 08       		.uleb128 0x8
 1425 01c2 04       		.byte	0x4
 1426 01c3 BB000000 		.4byte	0xbb
 1427 01c7 08       		.uleb128 0x8
ARM GAS  C:\Users\Robert\AppData\Local\Temp\ccNv74yg.s 			page 39


 1428 01c8 04       		.byte	0x4
 1429 01c9 83010000 		.4byte	0x183
 1430 01cd 04       		.uleb128 0x4
 1431 01ce 93040000 		.4byte	.LASF34
 1432 01d2 03       		.byte	0x3
 1433 01d3 9F       		.byte	0x9f
 1434 01d4 8E010000 		.4byte	0x18e
 1435 01d8 09       		.uleb128 0x9
 1436 01d9 01       		.byte	0x1
 1437 01da 91010000 		.4byte	.LASF47
 1438 01de 01       		.byte	0x1
 1439 01df 59       		.byte	0x59
 1440 01e0 01       		.byte	0x1
 1441 01e1 6F000000 		.4byte	0x6f
 1442 01e5 00000000 		.4byte	.LFB0
 1443 01e9 1A010000 		.4byte	.LFE0
 1444 01ed 00000000 		.4byte	.LLST0
 1445 01f1 01       		.byte	0x1
 1446 01f2 05020000 		.4byte	0x205
 1447 01f6 0A       		.uleb128 0xa
 1448 01f7 21040000 		.4byte	.LASF36
 1449 01fb 01       		.byte	0x1
 1450 01fc 5B       		.byte	0x5b
 1451 01fd 6F000000 		.4byte	0x6f
 1452 0201 02       		.byte	0x2
 1453 0202 91       		.byte	0x91
 1454 0203 77       		.sleb128 -9
 1455 0204 00       		.byte	0
 1456 0205 0B       		.uleb128 0xb
 1457 0206 01       		.byte	0x1
 1458 0207 F7020000 		.4byte	.LASF75
 1459 020b 01       		.byte	0x1
 1460 020c AC       		.byte	0xac
 1461 020d 01       		.byte	0x1
 1462 020e 00000000 		.4byte	.LFB1
 1463 0212 26000000 		.4byte	.LFE1
 1464 0216 38000000 		.4byte	.LLST1
 1465 021a 01       		.byte	0x1
 1466 021b 0C       		.uleb128 0xc
 1467 021c 01       		.byte	0x1
 1468 021d F5010000 		.4byte	.LASF37
 1469 0221 01       		.byte	0x1
 1470 0222 D5       		.byte	0xd5
 1471 0223 01       		.byte	0x1
 1472 0224 00000000 		.4byte	.LFB2
 1473 0228 92000000 		.4byte	.LFE2
 1474 022c 64000000 		.4byte	.LLST2
 1475 0230 01       		.byte	0x1
 1476 0231 52020000 		.4byte	0x252
 1477 0235 0D       		.uleb128 0xd
 1478 0236 7E010000 		.4byte	.LASF32
 1479 023a 01       		.byte	0x1
 1480 023b D5       		.byte	0xd5
 1481 023c 52020000 		.4byte	0x252
 1482 0240 02       		.byte	0x2
 1483 0241 91       		.byte	0x91
 1484 0242 74       		.sleb128 -12
ARM GAS  C:\Users\Robert\AppData\Local\Temp\ccNv74yg.s 			page 40


 1485 0243 0D       		.uleb128 0xd
 1486 0244 D4030000 		.4byte	.LASF29
 1487 0248 01       		.byte	0x1
 1488 0249 D5       		.byte	0xd5
 1489 024a 7A000000 		.4byte	0x7a
 1490 024e 02       		.byte	0x2
 1491 024f 91       		.byte	0x91
 1492 0250 72       		.sleb128 -14
 1493 0251 00       		.byte	0
 1494 0252 08       		.uleb128 0x8
 1495 0253 04       		.byte	0x4
 1496 0254 58020000 		.4byte	0x258
 1497 0258 0E       		.uleb128 0xe
 1498 0259 6F000000 		.4byte	0x6f
 1499 025d 0F       		.uleb128 0xf
 1500 025e 11030000 		.4byte	.LASF76
 1501 0262 01       		.byte	0x1
 1502 0263 F1       		.byte	0xf1
 1503 0264 01       		.byte	0x1
 1504 0265 7A000000 		.4byte	0x7a
 1505 0269 00000000 		.4byte	.LFB3
 1506 026d 32000000 		.4byte	.LFE3
 1507 0271 9C000000 		.4byte	.LLST3
 1508 0275 01       		.byte	0x1
 1509 0276 97020000 		.4byte	0x297
 1510 027a 0D       		.uleb128 0xd
 1511 027b 2E000000 		.4byte	.LASF35
 1512 027f 01       		.byte	0x1
 1513 0280 F1       		.byte	0xf1
 1514 0281 97020000 		.4byte	0x297
 1515 0285 02       		.byte	0x2
 1516 0286 91       		.byte	0x91
 1517 0287 6C       		.sleb128 -20
 1518 0288 10       		.uleb128 0x10
 1519 0289 6C656E00 		.ascii	"len\000"
 1520 028d 01       		.byte	0x1
 1521 028e F3       		.byte	0xf3
 1522 028f 7A000000 		.4byte	0x7a
 1523 0293 02       		.byte	0x2
 1524 0294 91       		.byte	0x91
 1525 0295 76       		.sleb128 -10
 1526 0296 00       		.byte	0
 1527 0297 08       		.uleb128 0x8
 1528 0298 04       		.byte	0x4
 1529 0299 9D020000 		.4byte	0x29d
 1530 029d 0E       		.uleb128 0xe
 1531 029e 9E000000 		.4byte	0x9e
 1532 02a2 11       		.uleb128 0x11
 1533 02a3 01       		.byte	0x1
 1534 02a4 4F020000 		.4byte	.LASF38
 1535 02a8 01       		.byte	0x1
 1536 02a9 1801     		.2byte	0x118
 1537 02ab 01       		.byte	0x1
 1538 02ac 00000000 		.4byte	.LFB4
 1539 02b0 40010000 		.4byte	.LFE4
 1540 02b4 D4000000 		.4byte	.LLST4
 1541 02b8 01       		.byte	0x1
ARM GAS  C:\Users\Robert\AppData\Local\Temp\ccNv74yg.s 			page 41


 1542 02b9 FA020000 		.4byte	0x2fa
 1543 02bd 12       		.uleb128 0x12
 1544 02be 2E000000 		.4byte	.LASF35
 1545 02c2 01       		.byte	0x1
 1546 02c3 1801     		.2byte	0x118
 1547 02c5 97020000 		.4byte	0x297
 1548 02c9 02       		.byte	0x2
 1549 02ca 91       		.byte	0x91
 1550 02cb 6C       		.sleb128 -20
 1551 02cc 13       		.uleb128 0x13
 1552 02cd CA030000 		.4byte	.LASF39
 1553 02d1 01       		.byte	0x1
 1554 02d2 1A01     		.2byte	0x11a
 1555 02d4 7A000000 		.4byte	0x7a
 1556 02d8 02       		.byte	0x2
 1557 02d9 91       		.byte	0x91
 1558 02da 76       		.sleb128 -10
 1559 02db 13       		.uleb128 0x13
 1560 02dc B4040000 		.4byte	.LASF40
 1561 02e0 01       		.byte	0x1
 1562 02e1 1B01     		.2byte	0x11b
 1563 02e3 7A000000 		.4byte	0x7a
 1564 02e7 02       		.byte	0x2
 1565 02e8 91       		.byte	0x91
 1566 02e9 72       		.sleb128 -14
 1567 02ea 13       		.uleb128 0x13
 1568 02eb 8F020000 		.4byte	.LASF41
 1569 02ef 01       		.byte	0x1
 1570 02f0 1C01     		.2byte	0x11c
 1571 02f2 7A000000 		.4byte	0x7a
 1572 02f6 02       		.byte	0x2
 1573 02f7 91       		.byte	0x91
 1574 02f8 74       		.sleb128 -12
 1575 02f9 00       		.byte	0
 1576 02fa 11       		.uleb128 0x11
 1577 02fb 01       		.byte	0x1
 1578 02fc B1030000 		.4byte	.LASF42
 1579 0300 01       		.byte	0x1
 1580 0301 5501     		.2byte	0x155
 1581 0303 01       		.byte	0x1
 1582 0304 00000000 		.4byte	.LFB5
 1583 0308 32000000 		.4byte	.LFE5
 1584 030c 0C010000 		.4byte	.LLST5
 1585 0310 01       		.byte	0x1
 1586 0311 34030000 		.4byte	0x334
 1587 0315 12       		.uleb128 0x12
 1588 0316 1A000000 		.4byte	.LASF43
 1589 031a 01       		.byte	0x1
 1590 031b 5501     		.2byte	0x155
 1591 031d 9E000000 		.4byte	0x9e
 1592 0321 02       		.byte	0x2
 1593 0322 91       		.byte	0x91
 1594 0323 6F       		.sleb128 -17
 1595 0324 13       		.uleb128 0x13
 1596 0325 25000000 		.4byte	.LASF44
 1597 0329 01       		.byte	0x1
 1598 032a 5701     		.2byte	0x157
ARM GAS  C:\Users\Robert\AppData\Local\Temp\ccNv74yg.s 			page 42


 1599 032c 6F000000 		.4byte	0x6f
 1600 0330 02       		.byte	0x2
 1601 0331 91       		.byte	0x91
 1602 0332 77       		.sleb128 -9
 1603 0333 00       		.byte	0
 1604 0334 11       		.uleb128 0x11
 1605 0335 01       		.byte	0x1
 1606 0336 4C040000 		.4byte	.LASF45
 1607 033a 01       		.byte	0x1
 1608 033b 7301     		.2byte	0x173
 1609 033d 01       		.byte	0x1
 1610 033e 00000000 		.4byte	.LFB6
 1611 0342 3A000000 		.4byte	.LFE6
 1612 0346 44010000 		.4byte	.LLST6
 1613 034a 01       		.byte	0x1
 1614 034b 5F030000 		.4byte	0x35f
 1615 034f 13       		.uleb128 0x13
 1616 0350 BF040000 		.4byte	.LASF46
 1617 0354 01       		.byte	0x1
 1618 0355 7501     		.2byte	0x175
 1619 0357 6F030000 		.4byte	0x36f
 1620 035b 02       		.byte	0x2
 1621 035c 91       		.byte	0x91
 1622 035d 74       		.sleb128 -12
 1623 035e 00       		.byte	0
 1624 035f 14       		.uleb128 0x14
 1625 0360 6F000000 		.4byte	0x6f
 1626 0364 6F030000 		.4byte	0x36f
 1627 0368 15       		.uleb128 0x15
 1628 0369 C5000000 		.4byte	0xc5
 1629 036d 01       		.byte	0x1
 1630 036e 00       		.byte	0
 1631 036f 0E       		.uleb128 0xe
 1632 0370 5F030000 		.4byte	0x35f
 1633 0374 16       		.uleb128 0x16
 1634 0375 01       		.byte	0x1
 1635 0376 E2010000 		.4byte	.LASF48
 1636 037a 01       		.byte	0x1
 1637 037b 9101     		.2byte	0x191
 1638 037d 01       		.byte	0x1
 1639 037e 7A000000 		.4byte	0x7a
 1640 0382 00000000 		.4byte	.LFB7
 1641 0386 5C000000 		.4byte	.LFE7
 1642 038a 7C010000 		.4byte	.LLST7
 1643 038e 01       		.byte	0x1
 1644 038f A3030000 		.4byte	0x3a3
 1645 0393 13       		.uleb128 0x13
 1646 0394 30040000 		.4byte	.LASF49
 1647 0398 01       		.byte	0x1
 1648 0399 9301     		.2byte	0x193
 1649 039b 7A000000 		.4byte	0x7a
 1650 039f 02       		.byte	0x2
 1651 03a0 91       		.byte	0x91
 1652 03a1 76       		.sleb128 -10
 1653 03a2 00       		.byte	0
 1654 03a3 17       		.uleb128 0x17
 1655 03a4 01       		.byte	0x1
ARM GAS  C:\Users\Robert\AppData\Local\Temp\ccNv74yg.s 			page 43


 1656 03a5 DB040000 		.4byte	.LASF50
 1657 03a9 01       		.byte	0x1
 1658 03aa B701     		.2byte	0x1b7
 1659 03ac 01       		.byte	0x1
 1660 03ad 6F000000 		.4byte	0x6f
 1661 03b1 00000000 		.4byte	.LFB8
 1662 03b5 34000000 		.4byte	.LFE8
 1663 03b9 B4010000 		.4byte	.LLST8
 1664 03bd 01       		.byte	0x1
 1665 03be 17       		.uleb128 0x17
 1666 03bf 01       		.byte	0x1
 1667 03c0 C6040000 		.4byte	.LASF51
 1668 03c4 01       		.byte	0x1
 1669 03c5 D401     		.2byte	0x1d4
 1670 03c7 01       		.byte	0x1
 1671 03c8 6F000000 		.4byte	0x6f
 1672 03cc 00000000 		.4byte	.LFB9
 1673 03d0 34000000 		.4byte	.LFE9
 1674 03d4 E0010000 		.4byte	.LLST9
 1675 03d8 01       		.byte	0x1
 1676 03d9 16       		.uleb128 0x16
 1677 03da 01       		.byte	0x1
 1678 03db A2040000 		.4byte	.LASF52
 1679 03df 01       		.byte	0x1
 1680 03e0 F501     		.2byte	0x1f5
 1681 03e2 01       		.byte	0x1
 1682 03e3 7A000000 		.4byte	0x7a
 1683 03e7 00000000 		.4byte	.LFB10
 1684 03eb 30000000 		.4byte	.LFE10
 1685 03ef 0C020000 		.4byte	.LLST10
 1686 03f3 01       		.byte	0x1
 1687 03f4 17040000 		.4byte	0x417
 1688 03f8 12       		.uleb128 0x12
 1689 03f9 7E010000 		.4byte	.LASF32
 1690 03fd 01       		.byte	0x1
 1691 03fe F501     		.2byte	0x1f5
 1692 0400 17040000 		.4byte	0x417
 1693 0404 02       		.byte	0x2
 1694 0405 91       		.byte	0x91
 1695 0406 74       		.sleb128 -12
 1696 0407 12       		.uleb128 0x12
 1697 0408 D4030000 		.4byte	.LASF29
 1698 040c 01       		.byte	0x1
 1699 040d F501     		.2byte	0x1f5
 1700 040f 7A000000 		.4byte	0x7a
 1701 0413 02       		.byte	0x2
 1702 0414 91       		.byte	0x91
 1703 0415 72       		.sleb128 -14
 1704 0416 00       		.byte	0
 1705 0417 08       		.uleb128 0x8
 1706 0418 04       		.byte	0x4
 1707 0419 6F000000 		.4byte	0x6f
 1708 041d 16       		.uleb128 0x16
 1709 041e 01       		.byte	0x1
 1710 041f 98020000 		.4byte	.LASF53
 1711 0423 01       		.byte	0x1
 1712 0424 1302     		.2byte	0x213
ARM GAS  C:\Users\Robert\AppData\Local\Temp\ccNv74yg.s 			page 44


 1713 0426 01       		.byte	0x1
 1714 0427 7A000000 		.4byte	0x7a
 1715 042b 00000000 		.4byte	.LFB11
 1716 042f 54000000 		.4byte	.LFE11
 1717 0433 44020000 		.4byte	.LLST11
 1718 0437 01       		.byte	0x1
 1719 0438 4C040000 		.4byte	0x44c
 1720 043c 12       		.uleb128 0x12
 1721 043d 7E010000 		.4byte	.LASF32
 1722 0441 01       		.byte	0x1
 1723 0442 1302     		.2byte	0x213
 1724 0444 17040000 		.4byte	0x417
 1725 0448 02       		.byte	0x2
 1726 0449 91       		.byte	0x91
 1727 044a 74       		.sleb128 -12
 1728 044b 00       		.byte	0
 1729 044c 16       		.uleb128 0x16
 1730 044d 01       		.byte	0x1
 1731 044e B7010000 		.4byte	.LASF54
 1732 0452 01       		.byte	0x1
 1733 0453 2F02     		.2byte	0x22f
 1734 0455 01       		.byte	0x1
 1735 0456 6F000000 		.4byte	0x6f
 1736 045a 00000000 		.4byte	.LFB12
 1737 045e 2E000000 		.4byte	.LFE12
 1738 0462 7C020000 		.4byte	.LLST12
 1739 0466 01       		.byte	0x1
 1740 0467 7B040000 		.4byte	0x47b
 1741 046b 13       		.uleb128 0x13
 1742 046c C3030000 		.4byte	.LASF55
 1743 0470 01       		.byte	0x1
 1744 0471 3102     		.2byte	0x231
 1745 0473 6F000000 		.4byte	0x6f
 1746 0477 02       		.byte	0x2
 1747 0478 91       		.byte	0x91
 1748 0479 77       		.sleb128 -9
 1749 047a 00       		.byte	0
 1750 047b 18       		.uleb128 0x18
 1751 047c 01       		.byte	0x1
 1752 047d 5F010000 		.4byte	.LASF56
 1753 0481 01       		.byte	0x1
 1754 0482 5402     		.2byte	0x254
 1755 0484 01       		.byte	0x1
 1756 0485 6F000000 		.4byte	0x6f
 1757 0489 00000000 		.4byte	.LFB13
 1758 048d 54000000 		.4byte	.LFE13
 1759 0491 B4020000 		.4byte	.LLST13
 1760 0495 01       		.byte	0x1
 1761 0496 AA040000 		.4byte	0x4aa
 1762 049a 13       		.uleb128 0x13
 1763 049b B8000000 		.4byte	.LASF57
 1764 049f 01       		.byte	0x1
 1765 04a0 5602     		.2byte	0x256
 1766 04a2 6F000000 		.4byte	0x6f
 1767 04a6 02       		.byte	0x2
 1768 04a7 91       		.byte	0x91
 1769 04a8 77       		.sleb128 -9
ARM GAS  C:\Users\Robert\AppData\Local\Temp\ccNv74yg.s 			page 45


 1770 04a9 00       		.byte	0
 1771 04aa 18       		.uleb128 0x18
 1772 04ab 01       		.byte	0x1
 1773 04ac E2020000 		.4byte	.LASF58
 1774 04b0 01       		.byte	0x1
 1775 04b1 7802     		.2byte	0x278
 1776 04b3 01       		.byte	0x1
 1777 04b4 85000000 		.4byte	0x85
 1778 04b8 00000000 		.4byte	.LFB14
 1779 04bc 64000000 		.4byte	.LFE14
 1780 04c0 EC020000 		.4byte	.LLST14
 1781 04c4 01       		.byte	0x1
 1782 04c5 D9040000 		.4byte	0x4d9
 1783 04c9 13       		.uleb128 0x13
 1784 04ca 99000000 		.4byte	.LASF59
 1785 04ce 01       		.byte	0x1
 1786 04cf 7A02     		.2byte	0x27a
 1787 04d1 85000000 		.4byte	0x85
 1788 04d5 02       		.byte	0x2
 1789 04d6 91       		.byte	0x91
 1790 04d7 74       		.sleb128 -12
 1791 04d8 00       		.byte	0
 1792 04d9 17       		.uleb128 0x17
 1793 04da 01       		.byte	0x1
 1794 04db 22030000 		.4byte	.LASF60
 1795 04df 01       		.byte	0x1
 1796 04e0 9602     		.2byte	0x296
 1797 04e2 01       		.byte	0x1
 1798 04e3 6F000000 		.4byte	0x6f
 1799 04e7 00000000 		.4byte	.LFB15
 1800 04eb 18000000 		.4byte	.LFE15
 1801 04ef 24030000 		.4byte	.LLST15
 1802 04f3 01       		.byte	0x1
 1803 04f4 17       		.uleb128 0x17
 1804 04f5 01       		.byte	0x1
 1805 04f6 09040000 		.4byte	.LASF61
 1806 04fa 01       		.byte	0x1
 1807 04fb AD02     		.2byte	0x2ad
 1808 04fd 01       		.byte	0x1
 1809 04fe 6F000000 		.4byte	0x6f
 1810 0502 00000000 		.4byte	.LFB16
 1811 0506 18000000 		.4byte	.LFE16
 1812 050a 50030000 		.4byte	.LLST16
 1813 050e 01       		.byte	0x1
 1814 050f 17       		.uleb128 0x17
 1815 0510 01       		.byte	0x1
 1816 0511 5E040000 		.4byte	.LASF62
 1817 0515 01       		.byte	0x1
 1818 0516 C502     		.2byte	0x2c5
 1819 0518 01       		.byte	0x1
 1820 0519 6F000000 		.4byte	0x6f
 1821 051d 00000000 		.4byte	.LFB17
 1822 0521 18000000 		.4byte	.LFE17
 1823 0525 7C030000 		.4byte	.LLST17
 1824 0529 01       		.byte	0x1
 1825 052a 17       		.uleb128 0x17
 1826 052b 01       		.byte	0x1
ARM GAS  C:\Users\Robert\AppData\Local\Temp\ccNv74yg.s 			page 46


 1827 052c 4A000000 		.4byte	.LASF63
 1828 0530 01       		.byte	0x1
 1829 0531 DC02     		.2byte	0x2dc
 1830 0533 01       		.byte	0x1
 1831 0534 7A000000 		.4byte	0x7a
 1832 0538 00000000 		.4byte	.LFB18
 1833 053c 18000000 		.4byte	.LFE18
 1834 0540 A8030000 		.4byte	.LLST18
 1835 0544 01       		.byte	0x1
 1836 0545 19       		.uleb128 0x19
 1837 0546 7B040000 		.4byte	.LASF64
 1838 054a 03       		.byte	0x3
 1839 054b 5002     		.2byte	0x250
 1840 054d BB000000 		.4byte	0xbb
 1841 0551 01       		.byte	0x1
 1842 0552 01       		.byte	0x1
 1843 0553 14       		.uleb128 0x14
 1844 0554 6F000000 		.4byte	0x6f
 1845 0558 63050000 		.4byte	0x563
 1846 055c 15       		.uleb128 0x15
 1847 055d C5000000 		.4byte	0xc5
 1848 0561 06       		.byte	0x6
 1849 0562 00       		.byte	0
 1850 0563 1A       		.uleb128 0x1a
 1851 0564 35000000 		.4byte	.LASF65
 1852 0568 01       		.byte	0x1
 1853 0569 1E       		.byte	0x1e
 1854 056a 75050000 		.4byte	0x575
 1855 056e 01       		.byte	0x1
 1856 056f 05       		.byte	0x5
 1857 0570 03       		.byte	0x3
 1858 0571 00000000 		.4byte	USBUART_1_lineCoding
 1859 0575 05       		.uleb128 0x5
 1860 0576 53050000 		.4byte	0x553
 1861 057a 1A       		.uleb128 0x1a
 1862 057b C7000000 		.4byte	.LASF66
 1863 057f 01       		.byte	0x1
 1864 0580 25       		.byte	0x25
 1865 0581 BB000000 		.4byte	0xbb
 1866 0585 01       		.byte	0x1
 1867 0586 05       		.byte	0x5
 1868 0587 03       		.byte	0x3
 1869 0588 00000000 		.4byte	USBUART_1_lineChanged
 1870 058c 1A       		.uleb128 0x1a
 1871 058d B3020000 		.4byte	.LASF67
 1872 0591 01       		.byte	0x1
 1873 0592 26       		.byte	0x26
 1874 0593 C0000000 		.4byte	0xc0
 1875 0597 01       		.byte	0x1
 1876 0598 05       		.byte	0x5
 1877 0599 03       		.byte	0x3
 1878 059a 00000000 		.4byte	USBUART_1_lineControlBitmap
 1879 059e 1A       		.uleb128 0x1a
 1880 059f 63020000 		.4byte	.LASF68
 1881 05a3 01       		.byte	0x1
 1882 05a4 27       		.byte	0x27
 1883 05a5 BB000000 		.4byte	0xbb
ARM GAS  C:\Users\Robert\AppData\Local\Temp\ccNv74yg.s 			page 47


 1884 05a9 01       		.byte	0x1
 1885 05aa 05       		.byte	0x5
 1886 05ab 03       		.byte	0x3
 1887 05ac 00000000 		.4byte	USBUART_1_cdc_data_in_ep
 1888 05b0 1A       		.uleb128 0x1a
 1889 05b1 9E000000 		.4byte	.LASF69
 1890 05b5 01       		.byte	0x1
 1891 05b6 28       		.byte	0x28
 1892 05b7 BB000000 		.4byte	0xbb
 1893 05bb 01       		.byte	0x1
 1894 05bc 05       		.byte	0x5
 1895 05bd 03       		.byte	0x3
 1896 05be 00000000 		.4byte	USBUART_1_cdc_data_out_ep
 1897 05c2 14       		.uleb128 0x14
 1898 05c3 53010000 		.4byte	0x153
 1899 05c7 D2050000 		.4byte	0x5d2
 1900 05cb 15       		.uleb128 0x15
 1901 05cc C5000000 		.4byte	0xc5
 1902 05d0 08       		.byte	0x8
 1903 05d1 00       		.byte	0
 1904 05d2 1B       		.uleb128 0x1b
 1905 05d3 84010000 		.4byte	.LASF70
 1906 05d7 04       		.byte	0x4
 1907 05d8 35       		.byte	0x35
 1908 05d9 DF050000 		.4byte	0x5df
 1909 05dd 01       		.byte	0x1
 1910 05de 01       		.byte	0x1
 1911 05df 05       		.uleb128 0x5
 1912 05e0 C2050000 		.4byte	0x5c2
 1913 05e4 1B       		.uleb128 0x1b
 1914 05e5 DD000000 		.4byte	.LASF71
 1915 05e9 04       		.byte	0x4
 1916 05ea 36       		.byte	0x36
 1917 05eb F1050000 		.4byte	0x5f1
 1918 05ef 01       		.byte	0x1
 1919 05f0 01       		.byte	0x1
 1920 05f1 05       		.uleb128 0x5
 1921 05f2 CD010000 		.4byte	0x1cd
 1922 05f6 00       		.byte	0
 1923              		.section	.debug_abbrev,"",%progbits
 1924              	.Ldebug_abbrev0:
 1925 0000 01       		.uleb128 0x1
 1926 0001 11       		.uleb128 0x11
 1927 0002 01       		.byte	0x1
 1928 0003 25       		.uleb128 0x25
 1929 0004 0E       		.uleb128 0xe
 1930 0005 13       		.uleb128 0x13
 1931 0006 0B       		.uleb128 0xb
 1932 0007 03       		.uleb128 0x3
 1933 0008 0E       		.uleb128 0xe
 1934 0009 1B       		.uleb128 0x1b
 1935 000a 0E       		.uleb128 0xe
 1936 000b 55       		.uleb128 0x55
 1937 000c 06       		.uleb128 0x6
 1938 000d 11       		.uleb128 0x11
 1939 000e 01       		.uleb128 0x1
 1940 000f 52       		.uleb128 0x52
ARM GAS  C:\Users\Robert\AppData\Local\Temp\ccNv74yg.s 			page 48


 1941 0010 01       		.uleb128 0x1
 1942 0011 10       		.uleb128 0x10
 1943 0012 06       		.uleb128 0x6
 1944 0013 00       		.byte	0
 1945 0014 00       		.byte	0
 1946 0015 02       		.uleb128 0x2
 1947 0016 24       		.uleb128 0x24
 1948 0017 00       		.byte	0
 1949 0018 0B       		.uleb128 0xb
 1950 0019 0B       		.uleb128 0xb
 1951 001a 3E       		.uleb128 0x3e
 1952 001b 0B       		.uleb128 0xb
 1953 001c 03       		.uleb128 0x3
 1954 001d 0E       		.uleb128 0xe
 1955 001e 00       		.byte	0
 1956 001f 00       		.byte	0
 1957 0020 03       		.uleb128 0x3
 1958 0021 24       		.uleb128 0x24
 1959 0022 00       		.byte	0
 1960 0023 0B       		.uleb128 0xb
 1961 0024 0B       		.uleb128 0xb
 1962 0025 3E       		.uleb128 0x3e
 1963 0026 0B       		.uleb128 0xb
 1964 0027 03       		.uleb128 0x3
 1965 0028 08       		.uleb128 0x8
 1966 0029 00       		.byte	0
 1967 002a 00       		.byte	0
 1968 002b 04       		.uleb128 0x4
 1969 002c 16       		.uleb128 0x16
 1970 002d 00       		.byte	0
 1971 002e 03       		.uleb128 0x3
 1972 002f 0E       		.uleb128 0xe
 1973 0030 3A       		.uleb128 0x3a
 1974 0031 0B       		.uleb128 0xb
 1975 0032 3B       		.uleb128 0x3b
 1976 0033 0B       		.uleb128 0xb
 1977 0034 49       		.uleb128 0x49
 1978 0035 13       		.uleb128 0x13
 1979 0036 00       		.byte	0
 1980 0037 00       		.byte	0
 1981 0038 05       		.uleb128 0x5
 1982 0039 35       		.uleb128 0x35
 1983 003a 00       		.byte	0
 1984 003b 49       		.uleb128 0x49
 1985 003c 13       		.uleb128 0x13
 1986 003d 00       		.byte	0
 1987 003e 00       		.byte	0
 1988 003f 06       		.uleb128 0x6
 1989 0040 13       		.uleb128 0x13
 1990 0041 01       		.byte	0x1
 1991 0042 0B       		.uleb128 0xb
 1992 0043 0B       		.uleb128 0xb
 1993 0044 3A       		.uleb128 0x3a
 1994 0045 0B       		.uleb128 0xb
 1995 0046 3B       		.uleb128 0x3b
 1996 0047 0B       		.uleb128 0xb
 1997 0048 01       		.uleb128 0x1
ARM GAS  C:\Users\Robert\AppData\Local\Temp\ccNv74yg.s 			page 49


 1998 0049 13       		.uleb128 0x13
 1999 004a 00       		.byte	0
 2000 004b 00       		.byte	0
 2001 004c 07       		.uleb128 0x7
 2002 004d 0D       		.uleb128 0xd
 2003 004e 00       		.byte	0
 2004 004f 03       		.uleb128 0x3
 2005 0050 0E       		.uleb128 0xe
 2006 0051 3A       		.uleb128 0x3a
 2007 0052 0B       		.uleb128 0xb
 2008 0053 3B       		.uleb128 0x3b
 2009 0054 0B       		.uleb128 0xb
 2010 0055 49       		.uleb128 0x49
 2011 0056 13       		.uleb128 0x13
 2012 0057 38       		.uleb128 0x38
 2013 0058 0A       		.uleb128 0xa
 2014 0059 00       		.byte	0
 2015 005a 00       		.byte	0
 2016 005b 08       		.uleb128 0x8
 2017 005c 0F       		.uleb128 0xf
 2018 005d 00       		.byte	0
 2019 005e 0B       		.uleb128 0xb
 2020 005f 0B       		.uleb128 0xb
 2021 0060 49       		.uleb128 0x49
 2022 0061 13       		.uleb128 0x13
 2023 0062 00       		.byte	0
 2024 0063 00       		.byte	0
 2025 0064 09       		.uleb128 0x9
 2026 0065 2E       		.uleb128 0x2e
 2027 0066 01       		.byte	0x1
 2028 0067 3F       		.uleb128 0x3f
 2029 0068 0C       		.uleb128 0xc
 2030 0069 03       		.uleb128 0x3
 2031 006a 0E       		.uleb128 0xe
 2032 006b 3A       		.uleb128 0x3a
 2033 006c 0B       		.uleb128 0xb
 2034 006d 3B       		.uleb128 0x3b
 2035 006e 0B       		.uleb128 0xb
 2036 006f 27       		.uleb128 0x27
 2037 0070 0C       		.uleb128 0xc
 2038 0071 49       		.uleb128 0x49
 2039 0072 13       		.uleb128 0x13
 2040 0073 11       		.uleb128 0x11
 2041 0074 01       		.uleb128 0x1
 2042 0075 12       		.uleb128 0x12
 2043 0076 01       		.uleb128 0x1
 2044 0077 40       		.uleb128 0x40
 2045 0078 06       		.uleb128 0x6
 2046 0079 9642     		.uleb128 0x2116
 2047 007b 0C       		.uleb128 0xc
 2048 007c 01       		.uleb128 0x1
 2049 007d 13       		.uleb128 0x13
 2050 007e 00       		.byte	0
 2051 007f 00       		.byte	0
 2052 0080 0A       		.uleb128 0xa
 2053 0081 34       		.uleb128 0x34
 2054 0082 00       		.byte	0
ARM GAS  C:\Users\Robert\AppData\Local\Temp\ccNv74yg.s 			page 50


 2055 0083 03       		.uleb128 0x3
 2056 0084 0E       		.uleb128 0xe
 2057 0085 3A       		.uleb128 0x3a
 2058 0086 0B       		.uleb128 0xb
 2059 0087 3B       		.uleb128 0x3b
 2060 0088 0B       		.uleb128 0xb
 2061 0089 49       		.uleb128 0x49
 2062 008a 13       		.uleb128 0x13
 2063 008b 02       		.uleb128 0x2
 2064 008c 0A       		.uleb128 0xa
 2065 008d 00       		.byte	0
 2066 008e 00       		.byte	0
 2067 008f 0B       		.uleb128 0xb
 2068 0090 2E       		.uleb128 0x2e
 2069 0091 00       		.byte	0
 2070 0092 3F       		.uleb128 0x3f
 2071 0093 0C       		.uleb128 0xc
 2072 0094 03       		.uleb128 0x3
 2073 0095 0E       		.uleb128 0xe
 2074 0096 3A       		.uleb128 0x3a
 2075 0097 0B       		.uleb128 0xb
 2076 0098 3B       		.uleb128 0x3b
 2077 0099 0B       		.uleb128 0xb
 2078 009a 27       		.uleb128 0x27
 2079 009b 0C       		.uleb128 0xc
 2080 009c 11       		.uleb128 0x11
 2081 009d 01       		.uleb128 0x1
 2082 009e 12       		.uleb128 0x12
 2083 009f 01       		.uleb128 0x1
 2084 00a0 40       		.uleb128 0x40
 2085 00a1 06       		.uleb128 0x6
 2086 00a2 9642     		.uleb128 0x2116
 2087 00a4 0C       		.uleb128 0xc
 2088 00a5 00       		.byte	0
 2089 00a6 00       		.byte	0
 2090 00a7 0C       		.uleb128 0xc
 2091 00a8 2E       		.uleb128 0x2e
 2092 00a9 01       		.byte	0x1
 2093 00aa 3F       		.uleb128 0x3f
 2094 00ab 0C       		.uleb128 0xc
 2095 00ac 03       		.uleb128 0x3
 2096 00ad 0E       		.uleb128 0xe
 2097 00ae 3A       		.uleb128 0x3a
 2098 00af 0B       		.uleb128 0xb
 2099 00b0 3B       		.uleb128 0x3b
 2100 00b1 0B       		.uleb128 0xb
 2101 00b2 27       		.uleb128 0x27
 2102 00b3 0C       		.uleb128 0xc
 2103 00b4 11       		.uleb128 0x11
 2104 00b5 01       		.uleb128 0x1
 2105 00b6 12       		.uleb128 0x12
 2106 00b7 01       		.uleb128 0x1
 2107 00b8 40       		.uleb128 0x40
 2108 00b9 06       		.uleb128 0x6
 2109 00ba 9642     		.uleb128 0x2116
 2110 00bc 0C       		.uleb128 0xc
 2111 00bd 01       		.uleb128 0x1
ARM GAS  C:\Users\Robert\AppData\Local\Temp\ccNv74yg.s 			page 51


 2112 00be 13       		.uleb128 0x13
 2113 00bf 00       		.byte	0
 2114 00c0 00       		.byte	0
 2115 00c1 0D       		.uleb128 0xd
 2116 00c2 05       		.uleb128 0x5
 2117 00c3 00       		.byte	0
 2118 00c4 03       		.uleb128 0x3
 2119 00c5 0E       		.uleb128 0xe
 2120 00c6 3A       		.uleb128 0x3a
 2121 00c7 0B       		.uleb128 0xb
 2122 00c8 3B       		.uleb128 0x3b
 2123 00c9 0B       		.uleb128 0xb
 2124 00ca 49       		.uleb128 0x49
 2125 00cb 13       		.uleb128 0x13
 2126 00cc 02       		.uleb128 0x2
 2127 00cd 0A       		.uleb128 0xa
 2128 00ce 00       		.byte	0
 2129 00cf 00       		.byte	0
 2130 00d0 0E       		.uleb128 0xe
 2131 00d1 26       		.uleb128 0x26
 2132 00d2 00       		.byte	0
 2133 00d3 49       		.uleb128 0x49
 2134 00d4 13       		.uleb128 0x13
 2135 00d5 00       		.byte	0
 2136 00d6 00       		.byte	0
 2137 00d7 0F       		.uleb128 0xf
 2138 00d8 2E       		.uleb128 0x2e
 2139 00d9 01       		.byte	0x1
 2140 00da 03       		.uleb128 0x3
 2141 00db 0E       		.uleb128 0xe
 2142 00dc 3A       		.uleb128 0x3a
 2143 00dd 0B       		.uleb128 0xb
 2144 00de 3B       		.uleb128 0x3b
 2145 00df 0B       		.uleb128 0xb
 2146 00e0 27       		.uleb128 0x27
 2147 00e1 0C       		.uleb128 0xc
 2148 00e2 49       		.uleb128 0x49
 2149 00e3 13       		.uleb128 0x13
 2150 00e4 11       		.uleb128 0x11
 2151 00e5 01       		.uleb128 0x1
 2152 00e6 12       		.uleb128 0x12
 2153 00e7 01       		.uleb128 0x1
 2154 00e8 40       		.uleb128 0x40
 2155 00e9 06       		.uleb128 0x6
 2156 00ea 9742     		.uleb128 0x2117
 2157 00ec 0C       		.uleb128 0xc
 2158 00ed 01       		.uleb128 0x1
 2159 00ee 13       		.uleb128 0x13
 2160 00ef 00       		.byte	0
 2161 00f0 00       		.byte	0
 2162 00f1 10       		.uleb128 0x10
 2163 00f2 34       		.uleb128 0x34
 2164 00f3 00       		.byte	0
 2165 00f4 03       		.uleb128 0x3
 2166 00f5 08       		.uleb128 0x8
 2167 00f6 3A       		.uleb128 0x3a
 2168 00f7 0B       		.uleb128 0xb
ARM GAS  C:\Users\Robert\AppData\Local\Temp\ccNv74yg.s 			page 52


 2169 00f8 3B       		.uleb128 0x3b
 2170 00f9 0B       		.uleb128 0xb
 2171 00fa 49       		.uleb128 0x49
 2172 00fb 13       		.uleb128 0x13
 2173 00fc 02       		.uleb128 0x2
 2174 00fd 0A       		.uleb128 0xa
 2175 00fe 00       		.byte	0
 2176 00ff 00       		.byte	0
 2177 0100 11       		.uleb128 0x11
 2178 0101 2E       		.uleb128 0x2e
 2179 0102 01       		.byte	0x1
 2180 0103 3F       		.uleb128 0x3f
 2181 0104 0C       		.uleb128 0xc
 2182 0105 03       		.uleb128 0x3
 2183 0106 0E       		.uleb128 0xe
 2184 0107 3A       		.uleb128 0x3a
 2185 0108 0B       		.uleb128 0xb
 2186 0109 3B       		.uleb128 0x3b
 2187 010a 05       		.uleb128 0x5
 2188 010b 27       		.uleb128 0x27
 2189 010c 0C       		.uleb128 0xc
 2190 010d 11       		.uleb128 0x11
 2191 010e 01       		.uleb128 0x1
 2192 010f 12       		.uleb128 0x12
 2193 0110 01       		.uleb128 0x1
 2194 0111 40       		.uleb128 0x40
 2195 0112 06       		.uleb128 0x6
 2196 0113 9642     		.uleb128 0x2116
 2197 0115 0C       		.uleb128 0xc
 2198 0116 01       		.uleb128 0x1
 2199 0117 13       		.uleb128 0x13
 2200 0118 00       		.byte	0
 2201 0119 00       		.byte	0
 2202 011a 12       		.uleb128 0x12
 2203 011b 05       		.uleb128 0x5
 2204 011c 00       		.byte	0
 2205 011d 03       		.uleb128 0x3
 2206 011e 0E       		.uleb128 0xe
 2207 011f 3A       		.uleb128 0x3a
 2208 0120 0B       		.uleb128 0xb
 2209 0121 3B       		.uleb128 0x3b
 2210 0122 05       		.uleb128 0x5
 2211 0123 49       		.uleb128 0x49
 2212 0124 13       		.uleb128 0x13
 2213 0125 02       		.uleb128 0x2
 2214 0126 0A       		.uleb128 0xa
 2215 0127 00       		.byte	0
 2216 0128 00       		.byte	0
 2217 0129 13       		.uleb128 0x13
 2218 012a 34       		.uleb128 0x34
 2219 012b 00       		.byte	0
 2220 012c 03       		.uleb128 0x3
 2221 012d 0E       		.uleb128 0xe
 2222 012e 3A       		.uleb128 0x3a
 2223 012f 0B       		.uleb128 0xb
 2224 0130 3B       		.uleb128 0x3b
 2225 0131 05       		.uleb128 0x5
ARM GAS  C:\Users\Robert\AppData\Local\Temp\ccNv74yg.s 			page 53


 2226 0132 49       		.uleb128 0x49
 2227 0133 13       		.uleb128 0x13
 2228 0134 02       		.uleb128 0x2
 2229 0135 0A       		.uleb128 0xa
 2230 0136 00       		.byte	0
 2231 0137 00       		.byte	0
 2232 0138 14       		.uleb128 0x14
 2233 0139 01       		.uleb128 0x1
 2234 013a 01       		.byte	0x1
 2235 013b 49       		.uleb128 0x49
 2236 013c 13       		.uleb128 0x13
 2237 013d 01       		.uleb128 0x1
 2238 013e 13       		.uleb128 0x13
 2239 013f 00       		.byte	0
 2240 0140 00       		.byte	0
 2241 0141 15       		.uleb128 0x15
 2242 0142 21       		.uleb128 0x21
 2243 0143 00       		.byte	0
 2244 0144 49       		.uleb128 0x49
 2245 0145 13       		.uleb128 0x13
 2246 0146 2F       		.uleb128 0x2f
 2247 0147 0B       		.uleb128 0xb
 2248 0148 00       		.byte	0
 2249 0149 00       		.byte	0
 2250 014a 16       		.uleb128 0x16
 2251 014b 2E       		.uleb128 0x2e
 2252 014c 01       		.byte	0x1
 2253 014d 3F       		.uleb128 0x3f
 2254 014e 0C       		.uleb128 0xc
 2255 014f 03       		.uleb128 0x3
 2256 0150 0E       		.uleb128 0xe
 2257 0151 3A       		.uleb128 0x3a
 2258 0152 0B       		.uleb128 0xb
 2259 0153 3B       		.uleb128 0x3b
 2260 0154 05       		.uleb128 0x5
 2261 0155 27       		.uleb128 0x27
 2262 0156 0C       		.uleb128 0xc
 2263 0157 49       		.uleb128 0x49
 2264 0158 13       		.uleb128 0x13
 2265 0159 11       		.uleb128 0x11
 2266 015a 01       		.uleb128 0x1
 2267 015b 12       		.uleb128 0x12
 2268 015c 01       		.uleb128 0x1
 2269 015d 40       		.uleb128 0x40
 2270 015e 06       		.uleb128 0x6
 2271 015f 9642     		.uleb128 0x2116
 2272 0161 0C       		.uleb128 0xc
 2273 0162 01       		.uleb128 0x1
 2274 0163 13       		.uleb128 0x13
 2275 0164 00       		.byte	0
 2276 0165 00       		.byte	0
 2277 0166 17       		.uleb128 0x17
 2278 0167 2E       		.uleb128 0x2e
 2279 0168 00       		.byte	0
 2280 0169 3F       		.uleb128 0x3f
 2281 016a 0C       		.uleb128 0xc
 2282 016b 03       		.uleb128 0x3
ARM GAS  C:\Users\Robert\AppData\Local\Temp\ccNv74yg.s 			page 54


 2283 016c 0E       		.uleb128 0xe
 2284 016d 3A       		.uleb128 0x3a
 2285 016e 0B       		.uleb128 0xb
 2286 016f 3B       		.uleb128 0x3b
 2287 0170 05       		.uleb128 0x5
 2288 0171 27       		.uleb128 0x27
 2289 0172 0C       		.uleb128 0xc
 2290 0173 49       		.uleb128 0x49
 2291 0174 13       		.uleb128 0x13
 2292 0175 11       		.uleb128 0x11
 2293 0176 01       		.uleb128 0x1
 2294 0177 12       		.uleb128 0x12
 2295 0178 01       		.uleb128 0x1
 2296 0179 40       		.uleb128 0x40
 2297 017a 06       		.uleb128 0x6
 2298 017b 9742     		.uleb128 0x2117
 2299 017d 0C       		.uleb128 0xc
 2300 017e 00       		.byte	0
 2301 017f 00       		.byte	0
 2302 0180 18       		.uleb128 0x18
 2303 0181 2E       		.uleb128 0x2e
 2304 0182 01       		.byte	0x1
 2305 0183 3F       		.uleb128 0x3f
 2306 0184 0C       		.uleb128 0xc
 2307 0185 03       		.uleb128 0x3
 2308 0186 0E       		.uleb128 0xe
 2309 0187 3A       		.uleb128 0x3a
 2310 0188 0B       		.uleb128 0xb
 2311 0189 3B       		.uleb128 0x3b
 2312 018a 05       		.uleb128 0x5
 2313 018b 27       		.uleb128 0x27
 2314 018c 0C       		.uleb128 0xc
 2315 018d 49       		.uleb128 0x49
 2316 018e 13       		.uleb128 0x13
 2317 018f 11       		.uleb128 0x11
 2318 0190 01       		.uleb128 0x1
 2319 0191 12       		.uleb128 0x12
 2320 0192 01       		.uleb128 0x1
 2321 0193 40       		.uleb128 0x40
 2322 0194 06       		.uleb128 0x6
 2323 0195 9742     		.uleb128 0x2117
 2324 0197 0C       		.uleb128 0xc
 2325 0198 01       		.uleb128 0x1
 2326 0199 13       		.uleb128 0x13
 2327 019a 00       		.byte	0
 2328 019b 00       		.byte	0
 2329 019c 19       		.uleb128 0x19
 2330 019d 34       		.uleb128 0x34
 2331 019e 00       		.byte	0
 2332 019f 03       		.uleb128 0x3
 2333 01a0 0E       		.uleb128 0xe
 2334 01a1 3A       		.uleb128 0x3a
 2335 01a2 0B       		.uleb128 0xb
 2336 01a3 3B       		.uleb128 0x3b
 2337 01a4 05       		.uleb128 0x5
 2338 01a5 49       		.uleb128 0x49
 2339 01a6 13       		.uleb128 0x13
ARM GAS  C:\Users\Robert\AppData\Local\Temp\ccNv74yg.s 			page 55


 2340 01a7 3F       		.uleb128 0x3f
 2341 01a8 0C       		.uleb128 0xc
 2342 01a9 3C       		.uleb128 0x3c
 2343 01aa 0C       		.uleb128 0xc
 2344 01ab 00       		.byte	0
 2345 01ac 00       		.byte	0
 2346 01ad 1A       		.uleb128 0x1a
 2347 01ae 34       		.uleb128 0x34
 2348 01af 00       		.byte	0
 2349 01b0 03       		.uleb128 0x3
 2350 01b1 0E       		.uleb128 0xe
 2351 01b2 3A       		.uleb128 0x3a
 2352 01b3 0B       		.uleb128 0xb
 2353 01b4 3B       		.uleb128 0x3b
 2354 01b5 0B       		.uleb128 0xb
 2355 01b6 49       		.uleb128 0x49
 2356 01b7 13       		.uleb128 0x13
 2357 01b8 3F       		.uleb128 0x3f
 2358 01b9 0C       		.uleb128 0xc
 2359 01ba 02       		.uleb128 0x2
 2360 01bb 0A       		.uleb128 0xa
 2361 01bc 00       		.byte	0
 2362 01bd 00       		.byte	0
 2363 01be 1B       		.uleb128 0x1b
 2364 01bf 34       		.uleb128 0x34
 2365 01c0 00       		.byte	0
 2366 01c1 03       		.uleb128 0x3
 2367 01c2 0E       		.uleb128 0xe
 2368 01c3 3A       		.uleb128 0x3a
 2369 01c4 0B       		.uleb128 0xb
 2370 01c5 3B       		.uleb128 0x3b
 2371 01c6 0B       		.uleb128 0xb
 2372 01c7 49       		.uleb128 0x49
 2373 01c8 13       		.uleb128 0x13
 2374 01c9 3F       		.uleb128 0x3f
 2375 01ca 0C       		.uleb128 0xc
 2376 01cb 3C       		.uleb128 0x3c
 2377 01cc 0C       		.uleb128 0xc
 2378 01cd 00       		.byte	0
 2379 01ce 00       		.byte	0
 2380 01cf 00       		.byte	0
 2381              		.section	.debug_loc,"",%progbits
 2382              	.Ldebug_loc0:
 2383              	.LLST0:
 2384 0000 00000000 		.4byte	.LFB0
 2385 0004 02000000 		.4byte	.LCFI0
 2386 0008 0200     		.2byte	0x2
 2387 000a 7D       		.byte	0x7d
 2388 000b 00       		.sleb128 0
 2389 000c 02000000 		.4byte	.LCFI0
 2390 0010 04000000 		.4byte	.LCFI1
 2391 0014 0200     		.2byte	0x2
 2392 0016 7D       		.byte	0x7d
 2393 0017 08       		.sleb128 8
 2394 0018 04000000 		.4byte	.LCFI1
 2395 001c 06000000 		.4byte	.LCFI2
 2396 0020 0200     		.2byte	0x2
ARM GAS  C:\Users\Robert\AppData\Local\Temp\ccNv74yg.s 			page 56


 2397 0022 7D       		.byte	0x7d
 2398 0023 10       		.sleb128 16
 2399 0024 06000000 		.4byte	.LCFI2
 2400 0028 1A010000 		.4byte	.LFE0
 2401 002c 0200     		.2byte	0x2
 2402 002e 77       		.byte	0x77
 2403 002f 10       		.sleb128 16
 2404 0030 00000000 		.4byte	0
 2405 0034 00000000 		.4byte	0
 2406              	.LLST1:
 2407 0038 00000000 		.4byte	.LFB1
 2408 003c 02000000 		.4byte	.LCFI3
 2409 0040 0200     		.2byte	0x2
 2410 0042 7D       		.byte	0x7d
 2411 0043 00       		.sleb128 0
 2412 0044 02000000 		.4byte	.LCFI3
 2413 0048 04000000 		.4byte	.LCFI4
 2414 004c 0200     		.2byte	0x2
 2415 004e 7D       		.byte	0x7d
 2416 004f 08       		.sleb128 8
 2417 0050 04000000 		.4byte	.LCFI4
 2418 0054 26000000 		.4byte	.LFE1
 2419 0058 0200     		.2byte	0x2
 2420 005a 77       		.byte	0x77
 2421 005b 08       		.sleb128 8
 2422 005c 00000000 		.4byte	0
 2423 0060 00000000 		.4byte	0
 2424              	.LLST2:
 2425 0064 00000000 		.4byte	.LFB2
 2426 0068 02000000 		.4byte	.LCFI5
 2427 006c 0200     		.2byte	0x2
 2428 006e 7D       		.byte	0x7d
 2429 006f 00       		.sleb128 0
 2430 0070 02000000 		.4byte	.LCFI5
 2431 0074 04000000 		.4byte	.LCFI6
 2432 0078 0200     		.2byte	0x2
 2433 007a 7D       		.byte	0x7d
 2434 007b 08       		.sleb128 8
 2435 007c 04000000 		.4byte	.LCFI6
 2436 0080 06000000 		.4byte	.LCFI7
 2437 0084 0200     		.2byte	0x2
 2438 0086 7D       		.byte	0x7d
 2439 0087 10       		.sleb128 16
 2440 0088 06000000 		.4byte	.LCFI7
 2441 008c 92000000 		.4byte	.LFE2
 2442 0090 0200     		.2byte	0x2
 2443 0092 77       		.byte	0x77
 2444 0093 10       		.sleb128 16
 2445 0094 00000000 		.4byte	0
 2446 0098 00000000 		.4byte	0
 2447              	.LLST3:
 2448 009c 00000000 		.4byte	.LFB3
 2449 00a0 02000000 		.4byte	.LCFI8
 2450 00a4 0200     		.2byte	0x2
 2451 00a6 7D       		.byte	0x7d
 2452 00a7 00       		.sleb128 0
 2453 00a8 02000000 		.4byte	.LCFI8
ARM GAS  C:\Users\Robert\AppData\Local\Temp\ccNv74yg.s 			page 57


 2454 00ac 04000000 		.4byte	.LCFI9
 2455 00b0 0200     		.2byte	0x2
 2456 00b2 7D       		.byte	0x7d
 2457 00b3 04       		.sleb128 4
 2458 00b4 04000000 		.4byte	.LCFI9
 2459 00b8 06000000 		.4byte	.LCFI10
 2460 00bc 0200     		.2byte	0x2
 2461 00be 7D       		.byte	0x7d
 2462 00bf 18       		.sleb128 24
 2463 00c0 06000000 		.4byte	.LCFI10
 2464 00c4 32000000 		.4byte	.LFE3
 2465 00c8 0200     		.2byte	0x2
 2466 00ca 77       		.byte	0x77
 2467 00cb 18       		.sleb128 24
 2468 00cc 00000000 		.4byte	0
 2469 00d0 00000000 		.4byte	0
 2470              	.LLST4:
 2471 00d4 00000000 		.4byte	.LFB4
 2472 00d8 02000000 		.4byte	.LCFI11
 2473 00dc 0200     		.2byte	0x2
 2474 00de 7D       		.byte	0x7d
 2475 00df 00       		.sleb128 0
 2476 00e0 02000000 		.4byte	.LCFI11
 2477 00e4 04000000 		.4byte	.LCFI12
 2478 00e8 0200     		.2byte	0x2
 2479 00ea 7D       		.byte	0x7d
 2480 00eb 08       		.sleb128 8
 2481 00ec 04000000 		.4byte	.LCFI12
 2482 00f0 06000000 		.4byte	.LCFI13
 2483 00f4 0200     		.2byte	0x2
 2484 00f6 7D       		.byte	0x7d
 2485 00f7 18       		.sleb128 24
 2486 00f8 06000000 		.4byte	.LCFI13
 2487 00fc 40010000 		.4byte	.LFE4
 2488 0100 0200     		.2byte	0x2
 2489 0102 77       		.byte	0x77
 2490 0103 18       		.sleb128 24
 2491 0104 00000000 		.4byte	0
 2492 0108 00000000 		.4byte	0
 2493              	.LLST5:
 2494 010c 00000000 		.4byte	.LFB5
 2495 0110 02000000 		.4byte	.LCFI14
 2496 0114 0200     		.2byte	0x2
 2497 0116 7D       		.byte	0x7d
 2498 0117 00       		.sleb128 0
 2499 0118 02000000 		.4byte	.LCFI14
 2500 011c 04000000 		.4byte	.LCFI15
 2501 0120 0200     		.2byte	0x2
 2502 0122 7D       		.byte	0x7d
 2503 0123 08       		.sleb128 8
 2504 0124 04000000 		.4byte	.LCFI15
 2505 0128 06000000 		.4byte	.LCFI16
 2506 012c 0200     		.2byte	0x2
 2507 012e 7D       		.byte	0x7d
 2508 012f 18       		.sleb128 24
 2509 0130 06000000 		.4byte	.LCFI16
 2510 0134 32000000 		.4byte	.LFE5
ARM GAS  C:\Users\Robert\AppData\Local\Temp\ccNv74yg.s 			page 58


 2511 0138 0200     		.2byte	0x2
 2512 013a 77       		.byte	0x77
 2513 013b 18       		.sleb128 24
 2514 013c 00000000 		.4byte	0
 2515 0140 00000000 		.4byte	0
 2516              	.LLST6:
 2517 0144 00000000 		.4byte	.LFB6
 2518 0148 02000000 		.4byte	.LCFI17
 2519 014c 0200     		.2byte	0x2
 2520 014e 7D       		.byte	0x7d
 2521 014f 00       		.sleb128 0
 2522 0150 02000000 		.4byte	.LCFI17
 2523 0154 04000000 		.4byte	.LCFI18
 2524 0158 0200     		.2byte	0x2
 2525 015a 7D       		.byte	0x7d
 2526 015b 08       		.sleb128 8
 2527 015c 04000000 		.4byte	.LCFI18
 2528 0160 06000000 		.4byte	.LCFI19
 2529 0164 0200     		.2byte	0x2
 2530 0166 7D       		.byte	0x7d
 2531 0167 10       		.sleb128 16
 2532 0168 06000000 		.4byte	.LCFI19
 2533 016c 3A000000 		.4byte	.LFE6
 2534 0170 0200     		.2byte	0x2
 2535 0172 77       		.byte	0x77
 2536 0173 10       		.sleb128 16
 2537 0174 00000000 		.4byte	0
 2538 0178 00000000 		.4byte	0
 2539              	.LLST7:
 2540 017c 00000000 		.4byte	.LFB7
 2541 0180 02000000 		.4byte	.LCFI20
 2542 0184 0200     		.2byte	0x2
 2543 0186 7D       		.byte	0x7d
 2544 0187 00       		.sleb128 0
 2545 0188 02000000 		.4byte	.LCFI20
 2546 018c 04000000 		.4byte	.LCFI21
 2547 0190 0200     		.2byte	0x2
 2548 0192 7D       		.byte	0x7d
 2549 0193 08       		.sleb128 8
 2550 0194 04000000 		.4byte	.LCFI21
 2551 0198 06000000 		.4byte	.LCFI22
 2552 019c 0200     		.2byte	0x2
 2553 019e 7D       		.byte	0x7d
 2554 019f 10       		.sleb128 16
 2555 01a0 06000000 		.4byte	.LCFI22
 2556 01a4 5C000000 		.4byte	.LFE7
 2557 01a8 0200     		.2byte	0x2
 2558 01aa 77       		.byte	0x77
 2559 01ab 10       		.sleb128 16
 2560 01ac 00000000 		.4byte	0
 2561 01b0 00000000 		.4byte	0
 2562              	.LLST8:
 2563 01b4 00000000 		.4byte	.LFB8
 2564 01b8 02000000 		.4byte	.LCFI23
 2565 01bc 0200     		.2byte	0x2
 2566 01be 7D       		.byte	0x7d
 2567 01bf 00       		.sleb128 0
ARM GAS  C:\Users\Robert\AppData\Local\Temp\ccNv74yg.s 			page 59


 2568 01c0 02000000 		.4byte	.LCFI23
 2569 01c4 04000000 		.4byte	.LCFI24
 2570 01c8 0200     		.2byte	0x2
 2571 01ca 7D       		.byte	0x7d
 2572 01cb 04       		.sleb128 4
 2573 01cc 04000000 		.4byte	.LCFI24
 2574 01d0 34000000 		.4byte	.LFE8
 2575 01d4 0200     		.2byte	0x2
 2576 01d6 77       		.byte	0x77
 2577 01d7 04       		.sleb128 4
 2578 01d8 00000000 		.4byte	0
 2579 01dc 00000000 		.4byte	0
 2580              	.LLST9:
 2581 01e0 00000000 		.4byte	.LFB9
 2582 01e4 02000000 		.4byte	.LCFI25
 2583 01e8 0200     		.2byte	0x2
 2584 01ea 7D       		.byte	0x7d
 2585 01eb 00       		.sleb128 0
 2586 01ec 02000000 		.4byte	.LCFI25
 2587 01f0 04000000 		.4byte	.LCFI26
 2588 01f4 0200     		.2byte	0x2
 2589 01f6 7D       		.byte	0x7d
 2590 01f7 04       		.sleb128 4
 2591 01f8 04000000 		.4byte	.LCFI26
 2592 01fc 34000000 		.4byte	.LFE9
 2593 0200 0200     		.2byte	0x2
 2594 0202 77       		.byte	0x77
 2595 0203 04       		.sleb128 4
 2596 0204 00000000 		.4byte	0
 2597 0208 00000000 		.4byte	0
 2598              	.LLST10:
 2599 020c 00000000 		.4byte	.LFB10
 2600 0210 02000000 		.4byte	.LCFI27
 2601 0214 0200     		.2byte	0x2
 2602 0216 7D       		.byte	0x7d
 2603 0217 00       		.sleb128 0
 2604 0218 02000000 		.4byte	.LCFI27
 2605 021c 04000000 		.4byte	.LCFI28
 2606 0220 0200     		.2byte	0x2
 2607 0222 7D       		.byte	0x7d
 2608 0223 08       		.sleb128 8
 2609 0224 04000000 		.4byte	.LCFI28
 2610 0228 06000000 		.4byte	.LCFI29
 2611 022c 0200     		.2byte	0x2
 2612 022e 7D       		.byte	0x7d
 2613 022f 10       		.sleb128 16
 2614 0230 06000000 		.4byte	.LCFI29
 2615 0234 30000000 		.4byte	.LFE10
 2616 0238 0200     		.2byte	0x2
 2617 023a 77       		.byte	0x77
 2618 023b 10       		.sleb128 16
 2619 023c 00000000 		.4byte	0
 2620 0240 00000000 		.4byte	0
 2621              	.LLST11:
 2622 0244 00000000 		.4byte	.LFB11
 2623 0248 02000000 		.4byte	.LCFI30
 2624 024c 0200     		.2byte	0x2
ARM GAS  C:\Users\Robert\AppData\Local\Temp\ccNv74yg.s 			page 60


 2625 024e 7D       		.byte	0x7d
 2626 024f 00       		.sleb128 0
 2627 0250 02000000 		.4byte	.LCFI30
 2628 0254 04000000 		.4byte	.LCFI31
 2629 0258 0200     		.2byte	0x2
 2630 025a 7D       		.byte	0x7d
 2631 025b 08       		.sleb128 8
 2632 025c 04000000 		.4byte	.LCFI31
 2633 0260 06000000 		.4byte	.LCFI32
 2634 0264 0200     		.2byte	0x2
 2635 0266 7D       		.byte	0x7d
 2636 0267 10       		.sleb128 16
 2637 0268 06000000 		.4byte	.LCFI32
 2638 026c 54000000 		.4byte	.LFE11
 2639 0270 0200     		.2byte	0x2
 2640 0272 77       		.byte	0x77
 2641 0273 10       		.sleb128 16
 2642 0274 00000000 		.4byte	0
 2643 0278 00000000 		.4byte	0
 2644              	.LLST12:
 2645 027c 00000000 		.4byte	.LFB12
 2646 0280 02000000 		.4byte	.LCFI33
 2647 0284 0200     		.2byte	0x2
 2648 0286 7D       		.byte	0x7d
 2649 0287 00       		.sleb128 0
 2650 0288 02000000 		.4byte	.LCFI33
 2651 028c 04000000 		.4byte	.LCFI34
 2652 0290 0200     		.2byte	0x2
 2653 0292 7D       		.byte	0x7d
 2654 0293 08       		.sleb128 8
 2655 0294 04000000 		.4byte	.LCFI34
 2656 0298 06000000 		.4byte	.LCFI35
 2657 029c 0200     		.2byte	0x2
 2658 029e 7D       		.byte	0x7d
 2659 029f 10       		.sleb128 16
 2660 02a0 06000000 		.4byte	.LCFI35
 2661 02a4 2E000000 		.4byte	.LFE12
 2662 02a8 0200     		.2byte	0x2
 2663 02aa 77       		.byte	0x77
 2664 02ab 10       		.sleb128 16
 2665 02ac 00000000 		.4byte	0
 2666 02b0 00000000 		.4byte	0
 2667              	.LLST13:
 2668 02b4 00000000 		.4byte	.LFB13
 2669 02b8 02000000 		.4byte	.LCFI36
 2670 02bc 0200     		.2byte	0x2
 2671 02be 7D       		.byte	0x7d
 2672 02bf 00       		.sleb128 0
 2673 02c0 02000000 		.4byte	.LCFI36
 2674 02c4 04000000 		.4byte	.LCFI37
 2675 02c8 0200     		.2byte	0x2
 2676 02ca 7D       		.byte	0x7d
 2677 02cb 04       		.sleb128 4
 2678 02cc 04000000 		.4byte	.LCFI37
 2679 02d0 06000000 		.4byte	.LCFI38
 2680 02d4 0200     		.2byte	0x2
 2681 02d6 7D       		.byte	0x7d
ARM GAS  C:\Users\Robert\AppData\Local\Temp\ccNv74yg.s 			page 61


 2682 02d7 10       		.sleb128 16
 2683 02d8 06000000 		.4byte	.LCFI38
 2684 02dc 54000000 		.4byte	.LFE13
 2685 02e0 0200     		.2byte	0x2
 2686 02e2 77       		.byte	0x77
 2687 02e3 10       		.sleb128 16
 2688 02e4 00000000 		.4byte	0
 2689 02e8 00000000 		.4byte	0
 2690              	.LLST14:
 2691 02ec 00000000 		.4byte	.LFB14
 2692 02f0 02000000 		.4byte	.LCFI39
 2693 02f4 0200     		.2byte	0x2
 2694 02f6 7D       		.byte	0x7d
 2695 02f7 00       		.sleb128 0
 2696 02f8 02000000 		.4byte	.LCFI39
 2697 02fc 04000000 		.4byte	.LCFI40
 2698 0300 0200     		.2byte	0x2
 2699 0302 7D       		.byte	0x7d
 2700 0303 04       		.sleb128 4
 2701 0304 04000000 		.4byte	.LCFI40
 2702 0308 06000000 		.4byte	.LCFI41
 2703 030c 0200     		.2byte	0x2
 2704 030e 7D       		.byte	0x7d
 2705 030f 10       		.sleb128 16
 2706 0310 06000000 		.4byte	.LCFI41
 2707 0314 64000000 		.4byte	.LFE14
 2708 0318 0200     		.2byte	0x2
 2709 031a 77       		.byte	0x77
 2710 031b 10       		.sleb128 16
 2711 031c 00000000 		.4byte	0
 2712 0320 00000000 		.4byte	0
 2713              	.LLST15:
 2714 0324 00000000 		.4byte	.LFB15
 2715 0328 02000000 		.4byte	.LCFI42
 2716 032c 0200     		.2byte	0x2
 2717 032e 7D       		.byte	0x7d
 2718 032f 00       		.sleb128 0
 2719 0330 02000000 		.4byte	.LCFI42
 2720 0334 04000000 		.4byte	.LCFI43
 2721 0338 0200     		.2byte	0x2
 2722 033a 7D       		.byte	0x7d
 2723 033b 04       		.sleb128 4
 2724 033c 04000000 		.4byte	.LCFI43
 2725 0340 18000000 		.4byte	.LFE15
 2726 0344 0200     		.2byte	0x2
 2727 0346 77       		.byte	0x77
 2728 0347 04       		.sleb128 4
 2729 0348 00000000 		.4byte	0
 2730 034c 00000000 		.4byte	0
 2731              	.LLST16:
 2732 0350 00000000 		.4byte	.LFB16
 2733 0354 02000000 		.4byte	.LCFI44
 2734 0358 0200     		.2byte	0x2
 2735 035a 7D       		.byte	0x7d
 2736 035b 00       		.sleb128 0
 2737 035c 02000000 		.4byte	.LCFI44
 2738 0360 04000000 		.4byte	.LCFI45
ARM GAS  C:\Users\Robert\AppData\Local\Temp\ccNv74yg.s 			page 62


 2739 0364 0200     		.2byte	0x2
 2740 0366 7D       		.byte	0x7d
 2741 0367 04       		.sleb128 4
 2742 0368 04000000 		.4byte	.LCFI45
 2743 036c 18000000 		.4byte	.LFE16
 2744 0370 0200     		.2byte	0x2
 2745 0372 77       		.byte	0x77
 2746 0373 04       		.sleb128 4
 2747 0374 00000000 		.4byte	0
 2748 0378 00000000 		.4byte	0
 2749              	.LLST17:
 2750 037c 00000000 		.4byte	.LFB17
 2751 0380 02000000 		.4byte	.LCFI46
 2752 0384 0200     		.2byte	0x2
 2753 0386 7D       		.byte	0x7d
 2754 0387 00       		.sleb128 0
 2755 0388 02000000 		.4byte	.LCFI46
 2756 038c 04000000 		.4byte	.LCFI47
 2757 0390 0200     		.2byte	0x2
 2758 0392 7D       		.byte	0x7d
 2759 0393 04       		.sleb128 4
 2760 0394 04000000 		.4byte	.LCFI47
 2761 0398 18000000 		.4byte	.LFE17
 2762 039c 0200     		.2byte	0x2
 2763 039e 77       		.byte	0x77
 2764 039f 04       		.sleb128 4
 2765 03a0 00000000 		.4byte	0
 2766 03a4 00000000 		.4byte	0
 2767              	.LLST18:
 2768 03a8 00000000 		.4byte	.LFB18
 2769 03ac 02000000 		.4byte	.LCFI48
 2770 03b0 0200     		.2byte	0x2
 2771 03b2 7D       		.byte	0x7d
 2772 03b3 00       		.sleb128 0
 2773 03b4 02000000 		.4byte	.LCFI48
 2774 03b8 04000000 		.4byte	.LCFI49
 2775 03bc 0200     		.2byte	0x2
 2776 03be 7D       		.byte	0x7d
 2777 03bf 04       		.sleb128 4
 2778 03c0 04000000 		.4byte	.LCFI49
 2779 03c4 18000000 		.4byte	.LFE18
 2780 03c8 0200     		.2byte	0x2
 2781 03ca 77       		.byte	0x77
 2782 03cb 04       		.sleb128 4
 2783 03cc 00000000 		.4byte	0
 2784 03d0 00000000 		.4byte	0
 2785              		.section	.debug_aranges,"",%progbits
 2786 0000 AC000000 		.4byte	0xac
 2787 0004 0200     		.2byte	0x2
 2788 0006 00000000 		.4byte	.Ldebug_info0
 2789 000a 04       		.byte	0x4
 2790 000b 00       		.byte	0
 2791 000c 0000     		.2byte	0
 2792 000e 0000     		.2byte	0
 2793 0010 00000000 		.4byte	.LFB0
 2794 0014 1A010000 		.4byte	.LFE0-.LFB0
 2795 0018 00000000 		.4byte	.LFB1
ARM GAS  C:\Users\Robert\AppData\Local\Temp\ccNv74yg.s 			page 63


 2796 001c 26000000 		.4byte	.LFE1-.LFB1
 2797 0020 00000000 		.4byte	.LFB2
 2798 0024 92000000 		.4byte	.LFE2-.LFB2
 2799 0028 00000000 		.4byte	.LFB3
 2800 002c 32000000 		.4byte	.LFE3-.LFB3
 2801 0030 00000000 		.4byte	.LFB4
 2802 0034 40010000 		.4byte	.LFE4-.LFB4
 2803 0038 00000000 		.4byte	.LFB5
 2804 003c 32000000 		.4byte	.LFE5-.LFB5
 2805 0040 00000000 		.4byte	.LFB6
 2806 0044 3A000000 		.4byte	.LFE6-.LFB6
 2807 0048 00000000 		.4byte	.LFB7
 2808 004c 5C000000 		.4byte	.LFE7-.LFB7
 2809 0050 00000000 		.4byte	.LFB8
 2810 0054 34000000 		.4byte	.LFE8-.LFB8
 2811 0058 00000000 		.4byte	.LFB9
 2812 005c 34000000 		.4byte	.LFE9-.LFB9
 2813 0060 00000000 		.4byte	.LFB10
 2814 0064 30000000 		.4byte	.LFE10-.LFB10
 2815 0068 00000000 		.4byte	.LFB11
 2816 006c 54000000 		.4byte	.LFE11-.LFB11
 2817 0070 00000000 		.4byte	.LFB12
 2818 0074 2E000000 		.4byte	.LFE12-.LFB12
 2819 0078 00000000 		.4byte	.LFB13
 2820 007c 54000000 		.4byte	.LFE13-.LFB13
 2821 0080 00000000 		.4byte	.LFB14
 2822 0084 64000000 		.4byte	.LFE14-.LFB14
 2823 0088 00000000 		.4byte	.LFB15
 2824 008c 18000000 		.4byte	.LFE15-.LFB15
 2825 0090 00000000 		.4byte	.LFB16
 2826 0094 18000000 		.4byte	.LFE16-.LFB16
 2827 0098 00000000 		.4byte	.LFB17
 2828 009c 18000000 		.4byte	.LFE17-.LFB17
 2829 00a0 00000000 		.4byte	.LFB18
 2830 00a4 18000000 		.4byte	.LFE18-.LFB18
 2831 00a8 00000000 		.4byte	0
 2832 00ac 00000000 		.4byte	0
 2833              		.section	.debug_ranges,"",%progbits
 2834              	.Ldebug_ranges0:
 2835 0000 00000000 		.4byte	.LFB0
 2836 0004 1A010000 		.4byte	.LFE0
 2837 0008 00000000 		.4byte	.LFB1
 2838 000c 26000000 		.4byte	.LFE1
 2839 0010 00000000 		.4byte	.LFB2
 2840 0014 92000000 		.4byte	.LFE2
 2841 0018 00000000 		.4byte	.LFB3
 2842 001c 32000000 		.4byte	.LFE3
 2843 0020 00000000 		.4byte	.LFB4
 2844 0024 40010000 		.4byte	.LFE4
 2845 0028 00000000 		.4byte	.LFB5
 2846 002c 32000000 		.4byte	.LFE5
 2847 0030 00000000 		.4byte	.LFB6
 2848 0034 3A000000 		.4byte	.LFE6
 2849 0038 00000000 		.4byte	.LFB7
 2850 003c 5C000000 		.4byte	.LFE7
 2851 0040 00000000 		.4byte	.LFB8
 2852 0044 34000000 		.4byte	.LFE8
ARM GAS  C:\Users\Robert\AppData\Local\Temp\ccNv74yg.s 			page 64


 2853 0048 00000000 		.4byte	.LFB9
 2854 004c 34000000 		.4byte	.LFE9
 2855 0050 00000000 		.4byte	.LFB10
 2856 0054 30000000 		.4byte	.LFE10
 2857 0058 00000000 		.4byte	.LFB11
 2858 005c 54000000 		.4byte	.LFE11
 2859 0060 00000000 		.4byte	.LFB12
 2860 0064 2E000000 		.4byte	.LFE12
 2861 0068 00000000 		.4byte	.LFB13
 2862 006c 54000000 		.4byte	.LFE13
 2863 0070 00000000 		.4byte	.LFB14
 2864 0074 64000000 		.4byte	.LFE14
 2865 0078 00000000 		.4byte	.LFB15
 2866 007c 18000000 		.4byte	.LFE15
 2867 0080 00000000 		.4byte	.LFB16
 2868 0084 18000000 		.4byte	.LFE16
 2869 0088 00000000 		.4byte	.LFB17
 2870 008c 18000000 		.4byte	.LFE17
 2871 0090 00000000 		.4byte	.LFB18
 2872 0094 18000000 		.4byte	.LFE18
 2873 0098 00000000 		.4byte	0
 2874 009c 00000000 		.4byte	0
 2875              		.section	.debug_line,"",%progbits
 2876              	.Ldebug_line0:
 2877 0000 36020000 		.section	.debug_str,"MS",%progbits,1
 2877      02006E00 
 2877      00000201 
 2877      FB0E0D00 
 2877      01010101 
 2878              	.LASF33:
 2879 0000 70537461 		.ascii	"pStatusBlock\000"
 2879      74757342 
 2879      6C6F636B 
 2879      00
 2880              	.LASF31:
 2881 000d 636F756E 		.ascii	"count\000"
 2881      7400
 2882              	.LASF10:
 2883 0013 75696E74 		.ascii	"uint16\000"
 2883      313600
 2884              	.LASF43:
 2885 001a 74784461 		.ascii	"txDataByte\000"
 2885      74614279 
 2885      746500
 2886              	.LASF44:
 2887 0025 64617461 		.ascii	"dataByte\000"
 2887      42797465 
 2887      00
 2888              	.LASF35:
 2889 002e 73747269 		.ascii	"string\000"
 2889      6E6700
 2890              	.LASF65:
 2891 0035 55534255 		.ascii	"USBUART_1_lineCoding\000"
 2891      4152545F 
 2891      315F6C69 
 2891      6E65436F 
 2891      64696E67 
ARM GAS  C:\Users\Robert\AppData\Local\Temp\ccNv74yg.s 			page 65


 2892              	.LASF63:
 2893 004a 55534255 		.ascii	"USBUART_1_GetLineControl\000"
 2893      4152545F 
 2893      315F4765 
 2893      744C696E 
 2893      65436F6E 
 2894              	.LASF7:
 2895 0063 6C6F6E67 		.ascii	"long long unsigned int\000"
 2895      206C6F6E 
 2895      6720756E 
 2895      7369676E 
 2895      65642069 
 2896              	.LASF22:
 2897 007a 61646472 		.ascii	"addr\000"
 2897      00
 2898              	.LASF6:
 2899 007f 6C6F6E67 		.ascii	"long long int\000"
 2899      206C6F6E 
 2899      6720696E 
 2899      7400
 2900              	.LASF0:
 2901 008d 7369676E 		.ascii	"signed char\000"
 2901      65642063 
 2901      68617200 
 2902              	.LASF59:
 2903 0099 72617465 		.ascii	"rate\000"
 2903      00
 2904              	.LASF69:
 2905 009e 55534255 		.ascii	"USBUART_1_cdc_data_out_ep\000"
 2905      4152545F 
 2905      315F6364 
 2905      635F6461 
 2905      74615F6F 
 2906              	.LASF57:
 2907 00b8 73746174 		.ascii	"state\000"
 2907      6500
 2908              	.LASF4:
 2909 00be 6C6F6E67 		.ascii	"long int\000"
 2909      20696E74 
 2909      00
 2910              	.LASF66:
 2911 00c7 55534255 		.ascii	"USBUART_1_lineChanged\000"
 2911      4152545F 
 2911      315F6C69 
 2911      6E654368 
 2911      616E6765 
 2912              	.LASF71:
 2913 00dd 55534255 		.ascii	"USBUART_1_currentTD\000"
 2913      4152545F 
 2913      315F6375 
 2913      7272656E 
 2913      74544400 
 2914              	.LASF9:
 2915 00f1 75696E74 		.ascii	"uint8\000"
 2915      3800
 2916              	.LASF21:
 2917 00f7 6570546F 		.ascii	"epToggle\000"
ARM GAS  C:\Users\Robert\AppData\Local\Temp\ccNv74yg.s 			page 66


 2917      67676C65 
 2917      00
 2918              	.LASF13:
 2919 0100 646F7562 		.ascii	"double\000"
 2919      6C6500
 2920              	.LASF74:
 2921 0107 433A5C55 		.ascii	"C:\\Users\\Robert\\Dropbox\\Classes\\capstone\\tft_"
 2921      73657273 
 2921      5C526F62 
 2921      6572745C 
 2921      44726F70 
 2922 0134 74657374 		.ascii	"test.Bundle01_Rev_b - touch\\tft_test.cydsn\000"
 2922      2E42756E 
 2922      646C6530 
 2922      315F5265 
 2922      765F6220 
 2923              	.LASF56:
 2924 015f 55534255 		.ascii	"USBUART_1_IsLineChanged\000"
 2924      4152545F 
 2924      315F4973 
 2924      4C696E65 
 2924      4368616E 
 2925              	.LASF11:
 2926 0177 75696E74 		.ascii	"uint32\000"
 2926      333200
 2927              	.LASF32:
 2928 017e 70446174 		.ascii	"pData\000"
 2928      6100
 2929              	.LASF70:
 2930 0184 55534255 		.ascii	"USBUART_1_EP\000"
 2930      4152545F 
 2930      315F4550 
 2930      00
 2931              	.LASF47:
 2932 0191 55534255 		.ascii	"USBUART_1_DispatchCDCClassRqst\000"
 2932      4152545F 
 2932      315F4469 
 2932      73706174 
 2932      63684344 
 2933              	.LASF23:
 2934 01b0 65704D6F 		.ascii	"epMode\000"
 2934      646500
 2935              	.LASF54:
 2936 01b7 55534255 		.ascii	"USBUART_1_GetChar\000"
 2936      4152545F 
 2936      315F4765 
 2936      74436861 
 2936      7200
 2937              	.LASF27:
 2938 01c9 545F5553 		.ascii	"T_USBUART_1_EP_CTL_BLOCK\000"
 2938      42554152 
 2938      545F315F 
 2938      45505F43 
 2938      544C5F42 
 2939              	.LASF48:
 2940 01e2 55534255 		.ascii	"USBUART_1_GetCount\000"
 2940      4152545F 
ARM GAS  C:\Users\Robert\AppData\Local\Temp\ccNv74yg.s 			page 67


 2940      315F4765 
 2940      74436F75 
 2940      6E7400
 2941              	.LASF37:
 2942 01f5 55534255 		.ascii	"USBUART_1_PutData\000"
 2942      4152545F 
 2942      315F5075 
 2942      74446174 
 2942      6100
 2943              	.LASF8:
 2944 0207 756E7369 		.ascii	"unsigned int\000"
 2944      676E6564 
 2944      20696E74 
 2944      00
 2945              	.LASF5:
 2946 0214 6C6F6E67 		.ascii	"long unsigned int\000"
 2946      20756E73 
 2946      69676E65 
 2946      6420696E 
 2946      7400
 2947              	.LASF73:
 2948 0226 2E5C4765 		.ascii	".\\Generated_Source\\PSoC5\\USBUART_1_cdc.c\000"
 2948      6E657261 
 2948      7465645F 
 2948      536F7572 
 2948      63655C50 
 2949              	.LASF38:
 2950 024f 55534255 		.ascii	"USBUART_1_PutString\000"
 2950      4152545F 
 2950      315F5075 
 2950      74537472 
 2950      696E6700 
 2951              	.LASF68:
 2952 0263 55534255 		.ascii	"USBUART_1_cdc_data_in_ep\000"
 2952      4152545F 
 2952      315F6364 
 2952      635F6461 
 2952      74615F69 
 2953              	.LASF3:
 2954 027c 73686F72 		.ascii	"short unsigned int\000"
 2954      7420756E 
 2954      7369676E 
 2954      65642069 
 2954      6E7400
 2955              	.LASF41:
 2956 028f 62756649 		.ascii	"bufIndex\000"
 2956      6E646578 
 2956      00
 2957              	.LASF53:
 2958 0298 55534255 		.ascii	"USBUART_1_GetAll\000"
 2958      4152545F 
 2958      315F4765 
 2958      74416C6C 
 2958      00
 2959              	.LASF26:
 2960 02a9 696E7465 		.ascii	"interface\000"
 2960      72666163 
ARM GAS  C:\Users\Robert\AppData\Local\Temp\ccNv74yg.s 			page 68


 2960      6500
 2961              	.LASF67:
 2962 02b3 55534255 		.ascii	"USBUART_1_lineControlBitmap\000"
 2962      4152545F 
 2962      315F6C69 
 2962      6E65436F 
 2962      6E74726F 
 2963              	.LASF20:
 2964 02cf 68774570 		.ascii	"hwEpState\000"
 2964      53746174 
 2964      6500
 2965              	.LASF17:
 2966 02d9 73697A65 		.ascii	"sizetype\000"
 2966      74797065 
 2966      00
 2967              	.LASF58:
 2968 02e2 55534255 		.ascii	"USBUART_1_GetDTERate\000"
 2968      4152545F 
 2968      315F4765 
 2968      74445445 
 2968      52617465 
 2969              	.LASF75:
 2970 02f7 55534255 		.ascii	"USBUART_1_CDC_Init\000"
 2970      4152545F 
 2970      315F4344 
 2970      435F496E 
 2970      697400
 2971              	.LASF18:
 2972 030a 61747472 		.ascii	"attrib\000"
 2972      696200
 2973              	.LASF76:
 2974 0311 55534255 		.ascii	"USBUART_1_StrLen\000"
 2974      4152545F 
 2974      315F5374 
 2974      724C656E 
 2974      00
 2975              	.LASF60:
 2976 0322 55534255 		.ascii	"USBUART_1_GetCharFormat\000"
 2976      4152545F 
 2976      315F4765 
 2976      74436861 
 2976      72466F72 
 2977              	.LASF12:
 2978 033a 666C6F61 		.ascii	"float\000"
 2978      7400
 2979              	.LASF19:
 2980 0340 61706945 		.ascii	"apiEpState\000"
 2980      70537461 
 2980      746500
 2981              	.LASF72:
 2982 034b 474E5520 		.ascii	"GNU C 4.7.3 20130312 (release) [ARM/embedded-4_7-br"
 2982      4320342E 
 2982      372E3320 
 2982      32303133 
 2982      30333132 
 2983 037e 616E6368 		.ascii	"anch revision 196615]\000"
 2983      20726576 
ARM GAS  C:\Users\Robert\AppData\Local\Temp\ccNv74yg.s 			page 69


 2983      6973696F 
 2983      6E203139 
 2983      36363135 
 2984              	.LASF16:
 2985 0394 72656738 		.ascii	"reg8\000"
 2985      00
 2986              	.LASF1:
 2987 0399 756E7369 		.ascii	"unsigned char\000"
 2987      676E6564 
 2987      20636861 
 2987      7200
 2988              	.LASF2:
 2989 03a7 73686F72 		.ascii	"short int\000"
 2989      7420696E 
 2989      7400
 2990              	.LASF42:
 2991 03b1 55534255 		.ascii	"USBUART_1_PutChar\000"
 2991      4152545F 
 2991      315F5075 
 2991      74436861 
 2991      7200
 2992              	.LASF55:
 2993 03c3 72784461 		.ascii	"rxData\000"
 2993      746100
 2994              	.LASF39:
 2995 03ca 7374724C 		.ascii	"strLength\000"
 2995      656E6774 
 2995      6800
 2996              	.LASF29:
 2997 03d4 6C656E67 		.ascii	"length\000"
 2997      746800
 2998              	.LASF30:
 2999 03db 545F5553 		.ascii	"T_USBUART_1_XFER_STATUS_BLOCK\000"
 2999      42554152 
 2999      545F315F 
 2999      58464552 
 2999      5F535441 
 3000              	.LASF15:
 3001 03f9 63686172 		.ascii	"char\000"
 3001      00
 3002              	.LASF25:
 3003 03fe 62756666 		.ascii	"bufferSize\000"
 3003      65725369 
 3003      7A6500
 3004              	.LASF61:
 3005 0409 55534255 		.ascii	"USBUART_1_GetParityType\000"
 3005      4152545F 
 3005      315F4765 
 3005      74506172 
 3005      69747954 
 3006              	.LASF36:
 3007 0421 72657175 		.ascii	"requestHandled\000"
 3007      65737448 
 3007      616E646C 
 3007      656400
 3008              	.LASF49:
 3009 0430 62797465 		.ascii	"bytesCount\000"
ARM GAS  C:\Users\Robert\AppData\Local\Temp\ccNv74yg.s 			page 70


 3009      73436F75 
 3009      6E7400
 3010              	.LASF24:
 3011 043b 62756666 		.ascii	"buffOffset\000"
 3011      4F666673 
 3011      657400
 3012              	.LASF14:
 3013 0446 63686172 		.ascii	"char8\000"
 3013      3800
 3014              	.LASF45:
 3015 044c 55534255 		.ascii	"USBUART_1_PutCRLF\000"
 3015      4152545F 
 3015      315F5075 
 3015      7443524C 
 3015      4600
 3016              	.LASF62:
 3017 045e 55534255 		.ascii	"USBUART_1_GetDataBits\000"
 3017      4152545F 
 3017      315F4765 
 3017      74446174 
 3017      61426974 
 3018              	.LASF28:
 3019 0474 73746174 		.ascii	"status\000"
 3019      757300
 3020              	.LASF64:
 3021 047b 55534255 		.ascii	"USBUART_1_transferState\000"
 3021      4152545F 
 3021      315F7472 
 3021      616E7366 
 3021      65725374 
 3022              	.LASF34:
 3023 0493 545F5553 		.ascii	"T_USBUART_1_TD\000"
 3023      42554152 
 3023      545F315F 
 3023      544400
 3024              	.LASF52:
 3025 04a2 55534255 		.ascii	"USBUART_1_GetData\000"
 3025      4152545F 
 3025      315F4765 
 3025      74446174 
 3025      6100
 3026              	.LASF40:
 3027 04b4 73656E64 		.ascii	"sendLength\000"
 3027      4C656E67 
 3027      746800
 3028              	.LASF46:
 3029 04bf 74784461 		.ascii	"txData\000"
 3029      746100
 3030              	.LASF51:
 3031 04c6 55534255 		.ascii	"USBUART_1_CDCIsReady\000"
 3031      4152545F 
 3031      315F4344 
 3031      43497352 
 3031      65616479 
 3032              	.LASF50:
 3033 04db 55534255 		.ascii	"USBUART_1_DataIsReady\000"
 3033      4152545F 
ARM GAS  C:\Users\Robert\AppData\Local\Temp\ccNv74yg.s 			page 71


 3033      315F4461 
 3033      74614973 
 3033      52656164 
 3034              		.ident	"GCC: (GNU Tools for ARM Embedded Processors) 4.7.3 20130312 (release) [ARM/embedded-4_7-br
