ARM GAS  C:\Users\Robert\AppData\Local\Temp\ccNv74yg.s 			page 1


   1              		.syntax unified
   2              		.cpu cortex-m3
   3              		.fpu softvfp
   4              		.eabi_attribute 20, 1
   5              		.eabi_attribute 21, 1
   6              		.eabi_attribute 23, 3
   7              		.eabi_attribute 24, 1
   8              		.eabi_attribute 25, 1
   9              		.eabi_attribute 26, 1
  10              		.eabi_attribute 30, 6
  11              		.eabi_attribute 34, 1
  12              		.eabi_attribute 18, 4
  13              		.thumb
  14              		.file	"USBUART_1_cdc.c"
  15              		.text
  16              	.Ltext0:
  17              		.cfi_sections	.debug_frame
  18              		.global	USBUART_1_lineCoding
  19              		.data
  20              		.align	2
  21              		.type	USBUART_1_lineCoding, %object
  22              		.size	USBUART_1_lineCoding, 7
  23              	USBUART_1_lineCoding:
  24 0000 00       		.byte	0
  25 0001 C2       		.byte	-62
  26 0002 01       		.byte	1
  27 0003 00       		.byte	0
  28 0004 00       		.byte	0
  29 0005 00       		.byte	0
  30 0006 08       		.byte	8
  31              		.comm	USBUART_1_lineChanged,1,1
  32              		.comm	USBUART_1_lineControlBitmap,2,2
  33              		.comm	USBUART_1_cdc_data_in_ep,1,1
  34              		.comm	USBUART_1_cdc_data_out_ep,1,1
  35 0007 00       		.section	.text.USBUART_1_DispatchCDCClassRqst,"ax",%progbits
  36              		.align	2
  37              		.global	USBUART_1_DispatchCDCClassRqst
  38              		.thumb
  39              		.thumb_func
  40              		.type	USBUART_1_DispatchCDCClassRqst, %function
  41              	USBUART_1_DispatchCDCClassRqst:
  42              	.LFB0:
  43              		.file 1 ".\\Generated_Source\\PSoC5\\USBUART_1_cdc.c"
   1:.\Generated_Source\PSoC5/USBUART_1_cdc.c **** /*******************************************************************************
   2:.\Generated_Source\PSoC5/USBUART_1_cdc.c **** * File Name: USBUART_1_cdc.c
   3:.\Generated_Source\PSoC5/USBUART_1_cdc.c **** * Version 2.70
   4:.\Generated_Source\PSoC5/USBUART_1_cdc.c **** *
   5:.\Generated_Source\PSoC5/USBUART_1_cdc.c **** * Description:
   6:.\Generated_Source\PSoC5/USBUART_1_cdc.c **** *  USB CDC class request handler.
   7:.\Generated_Source\PSoC5/USBUART_1_cdc.c **** *
   8:.\Generated_Source\PSoC5/USBUART_1_cdc.c **** * Related Document:
   9:.\Generated_Source\PSoC5/USBUART_1_cdc.c **** *  Universal Serial Bus Class Definitions for Communication Devices Version 1.1
  10:.\Generated_Source\PSoC5/USBUART_1_cdc.c **** *
  11:.\Generated_Source\PSoC5/USBUART_1_cdc.c **** ********************************************************************************
  12:.\Generated_Source\PSoC5/USBUART_1_cdc.c **** * Copyright 2012-2013, Cypress Semiconductor Corporation.  All rights reserved.
  13:.\Generated_Source\PSoC5/USBUART_1_cdc.c **** * You may use this file only in accordance with the license, terms, conditions,
  14:.\Generated_Source\PSoC5/USBUART_1_cdc.c **** * disclaimers, and limitations in the end user license agreement accompanying
ARM GAS  C:\Users\Robert\AppData\Local\Temp\ccNv74yg.s 			page 2


  15:.\Generated_Source\PSoC5/USBUART_1_cdc.c **** * the software package with which this file was provided.
  16:.\Generated_Source\PSoC5/USBUART_1_cdc.c **** *******************************************************************************/
  17:.\Generated_Source\PSoC5/USBUART_1_cdc.c **** 
  18:.\Generated_Source\PSoC5/USBUART_1_cdc.c **** #include "USBUART_1.h"
  19:.\Generated_Source\PSoC5/USBUART_1_cdc.c **** 
  20:.\Generated_Source\PSoC5/USBUART_1_cdc.c **** #if defined(USBUART_1_ENABLE_CDC_CLASS)
  21:.\Generated_Source\PSoC5/USBUART_1_cdc.c **** 
  22:.\Generated_Source\PSoC5/USBUART_1_cdc.c **** #include "USBUART_1_cdc.h"
  23:.\Generated_Source\PSoC5/USBUART_1_cdc.c **** #include "USBUART_1_pvt.h"
  24:.\Generated_Source\PSoC5/USBUART_1_cdc.c **** 
  25:.\Generated_Source\PSoC5/USBUART_1_cdc.c **** 
  26:.\Generated_Source\PSoC5/USBUART_1_cdc.c **** /***************************************
  27:.\Generated_Source\PSoC5/USBUART_1_cdc.c **** *    CDC Variables
  28:.\Generated_Source\PSoC5/USBUART_1_cdc.c **** ***************************************/
  29:.\Generated_Source\PSoC5/USBUART_1_cdc.c **** 
  30:.\Generated_Source\PSoC5/USBUART_1_cdc.c **** volatile uint8 USBUART_1_lineCoding[USBUART_1_LINE_CODING_SIZE] =
  31:.\Generated_Source\PSoC5/USBUART_1_cdc.c **** {
  32:.\Generated_Source\PSoC5/USBUART_1_cdc.c ****     0x00u, 0xC2u, 0x01u, 0x00u,     /* Data terminal rate 115200 */
  33:.\Generated_Source\PSoC5/USBUART_1_cdc.c ****     0x00u,                          /* 1 Stop bit */
  34:.\Generated_Source\PSoC5/USBUART_1_cdc.c ****     0x00u,                          /* None parity */
  35:.\Generated_Source\PSoC5/USBUART_1_cdc.c ****     0x08u                           /* 8 data bits */
  36:.\Generated_Source\PSoC5/USBUART_1_cdc.c **** };
  37:.\Generated_Source\PSoC5/USBUART_1_cdc.c **** volatile uint8 USBUART_1_lineChanged;
  38:.\Generated_Source\PSoC5/USBUART_1_cdc.c **** volatile uint16 USBUART_1_lineControlBitmap;
  39:.\Generated_Source\PSoC5/USBUART_1_cdc.c **** volatile uint8 USBUART_1_cdc_data_in_ep;
  40:.\Generated_Source\PSoC5/USBUART_1_cdc.c **** volatile uint8 USBUART_1_cdc_data_out_ep;
  41:.\Generated_Source\PSoC5/USBUART_1_cdc.c **** 
  42:.\Generated_Source\PSoC5/USBUART_1_cdc.c **** 
  43:.\Generated_Source\PSoC5/USBUART_1_cdc.c **** /***************************************
  44:.\Generated_Source\PSoC5/USBUART_1_cdc.c **** *     Static Function Prototypes
  45:.\Generated_Source\PSoC5/USBUART_1_cdc.c **** ***************************************/
  46:.\Generated_Source\PSoC5/USBUART_1_cdc.c **** #if (USBUART_1_ENABLE_CDC_CLASS_API != 0u)
  47:.\Generated_Source\PSoC5/USBUART_1_cdc.c ****     static uint16 USBUART_1_StrLen(const char8 string[]) ;
  48:.\Generated_Source\PSoC5/USBUART_1_cdc.c **** #endif /* (USBUART_1_ENABLE_CDC_CLASS_API != 0u) */
  49:.\Generated_Source\PSoC5/USBUART_1_cdc.c **** 
  50:.\Generated_Source\PSoC5/USBUART_1_cdc.c **** 
  51:.\Generated_Source\PSoC5/USBUART_1_cdc.c **** /***************************************
  52:.\Generated_Source\PSoC5/USBUART_1_cdc.c **** * Custom Declarations
  53:.\Generated_Source\PSoC5/USBUART_1_cdc.c **** ***************************************/
  54:.\Generated_Source\PSoC5/USBUART_1_cdc.c **** 
  55:.\Generated_Source\PSoC5/USBUART_1_cdc.c **** /* `#START CDC_CUSTOM_DECLARATIONS` Place your declaration here */
  56:.\Generated_Source\PSoC5/USBUART_1_cdc.c **** 
  57:.\Generated_Source\PSoC5/USBUART_1_cdc.c **** /* `#END` */
  58:.\Generated_Source\PSoC5/USBUART_1_cdc.c **** 
  59:.\Generated_Source\PSoC5/USBUART_1_cdc.c **** 
  60:.\Generated_Source\PSoC5/USBUART_1_cdc.c **** /*******************************************************************************
  61:.\Generated_Source\PSoC5/USBUART_1_cdc.c **** * Function Name: USBUART_1_DispatchCDCClassRqst
  62:.\Generated_Source\PSoC5/USBUART_1_cdc.c **** ********************************************************************************
  63:.\Generated_Source\PSoC5/USBUART_1_cdc.c **** *
  64:.\Generated_Source\PSoC5/USBUART_1_cdc.c **** * Summary:
  65:.\Generated_Source\PSoC5/USBUART_1_cdc.c **** *  This routine dispatches CDC class requests.
  66:.\Generated_Source\PSoC5/USBUART_1_cdc.c **** *
  67:.\Generated_Source\PSoC5/USBUART_1_cdc.c **** * Parameters:
  68:.\Generated_Source\PSoC5/USBUART_1_cdc.c **** *  None.
  69:.\Generated_Source\PSoC5/USBUART_1_cdc.c **** *
  70:.\Generated_Source\PSoC5/USBUART_1_cdc.c **** * Return:
  71:.\Generated_Source\PSoC5/USBUART_1_cdc.c **** *  requestHandled
ARM GAS  C:\Users\Robert\AppData\Local\Temp\ccNv74yg.s 			page 3


  72:.\Generated_Source\PSoC5/USBUART_1_cdc.c **** *
  73:.\Generated_Source\PSoC5/USBUART_1_cdc.c **** * Global variables:
  74:.\Generated_Source\PSoC5/USBUART_1_cdc.c **** *   USBUART_1_lineCoding: Contains the current line coding structure.
  75:.\Generated_Source\PSoC5/USBUART_1_cdc.c **** *     It is set by the Host using SET_LINE_CODING request and returned to the
  76:.\Generated_Source\PSoC5/USBUART_1_cdc.c **** *     user code by the USBFS_GetDTERate(), USBFS_GetCharFormat(),
  77:.\Generated_Source\PSoC5/USBUART_1_cdc.c **** *     USBFS_GetParityType(), USBFS_GetDataBits() APIs.
  78:.\Generated_Source\PSoC5/USBUART_1_cdc.c **** *   USBUART_1_lineControlBitmap: Contains the current control signal
  79:.\Generated_Source\PSoC5/USBUART_1_cdc.c **** *     bitmap. It is set by the Host using SET_CONTROL_LINE request and returned
  80:.\Generated_Source\PSoC5/USBUART_1_cdc.c **** *     to the user code by the USBFS_GetLineControl() API.
  81:.\Generated_Source\PSoC5/USBUART_1_cdc.c **** *   USBUART_1_lineChanged: This variable is used as a flag for the
  82:.\Generated_Source\PSoC5/USBUART_1_cdc.c **** *     USBFS_IsLineChanged() API, to be aware that Host has been sent request
  83:.\Generated_Source\PSoC5/USBUART_1_cdc.c **** *     for changing Line Coding or Control Bitmap.
  84:.\Generated_Source\PSoC5/USBUART_1_cdc.c **** *
  85:.\Generated_Source\PSoC5/USBUART_1_cdc.c **** * Reentrant:
  86:.\Generated_Source\PSoC5/USBUART_1_cdc.c **** *  No.
  87:.\Generated_Source\PSoC5/USBUART_1_cdc.c **** *
  88:.\Generated_Source\PSoC5/USBUART_1_cdc.c **** *******************************************************************************/
  89:.\Generated_Source\PSoC5/USBUART_1_cdc.c **** uint8 USBUART_1_DispatchCDCClassRqst(void) 
  90:.\Generated_Source\PSoC5/USBUART_1_cdc.c **** {
  44              		.loc 1 90 0
  45              		.cfi_startproc
  46              		@ args = 0, pretend = 0, frame = 8
  47              		@ frame_needed = 1, uses_anonymous_args = 0
  48 0000 80B5     		push	{r7, lr}
  49              	.LCFI0:
  50              		.cfi_def_cfa_offset 8
  51              		.cfi_offset 7, -8
  52              		.cfi_offset 14, -4
  53 0002 82B0     		sub	sp, sp, #8
  54              	.LCFI1:
  55              		.cfi_def_cfa_offset 16
  56 0004 00AF     		add	r7, sp, #0
  57              	.LCFI2:
  58              		.cfi_def_cfa_register 7
  91:.\Generated_Source\PSoC5/USBUART_1_cdc.c ****     uint8 requestHandled = USBUART_1_FALSE;
  59              		.loc 1 91 0
  60 0006 4FF00003 		mov	r3, #0
  61 000a FB71     		strb	r3, [r7, #7]
  92:.\Generated_Source\PSoC5/USBUART_1_cdc.c **** 
  93:.\Generated_Source\PSoC5/USBUART_1_cdc.c ****     if ((CY_GET_REG8(USBUART_1_bmRequestType) & USBUART_1_RQST_DIR_MASK) == USBUART_1_RQST_DIR_D2H)
  62              		.loc 1 93 0
  63 000c 4FF4C043 		mov	r3, #24576
  64 0010 C4F20003 		movt	r3, 16384
  65 0014 1B78     		ldrb	r3, [r3, #0]
  66 0016 DBB2     		uxtb	r3, r3
  67 0018 DBB2     		uxtb	r3, r3
  68 001a 5BB2     		sxtb	r3, r3
  69 001c 002B     		cmp	r3, #0
  70 001e 1EDA     		bge	.L2
  94:.\Generated_Source\PSoC5/USBUART_1_cdc.c ****     {   /* Control Read */
  95:.\Generated_Source\PSoC5/USBUART_1_cdc.c ****         switch (CY_GET_REG8(USBUART_1_bRequest))
  71              		.loc 1 95 0
  72 0020 46F20103 		movw	r3, #24577
  73 0024 C4F20003 		movt	r3, 16384
  74 0028 1B78     		ldrb	r3, [r3, #0]
  75 002a DBB2     		uxtb	r3, r3
  76 002c 212B     		cmp	r3, #33
ARM GAS  C:\Users\Robert\AppData\Local\Temp\ccNv74yg.s 			page 4


  77 002e 15D1     		bne	.L12
  78              	.L4:
  96:.\Generated_Source\PSoC5/USBUART_1_cdc.c ****         {
  97:.\Generated_Source\PSoC5/USBUART_1_cdc.c ****             case USBUART_1_CDC_GET_LINE_CODING:
  98:.\Generated_Source\PSoC5/USBUART_1_cdc.c ****                 USBUART_1_currentTD.count = USBUART_1_LINE_CODING_SIZE;
  79              		.loc 1 98 0
  80 0030 40F20003 		movw	r3, #:lower16:USBUART_1_currentTD
  81 0034 C0F20003 		movt	r3, #:upper16:USBUART_1_currentTD
  82 0038 4FF00702 		mov	r2, #7
  83 003c 1A80     		strh	r2, [r3, #0]	@ movhi
  99:.\Generated_Source\PSoC5/USBUART_1_cdc.c ****                 USBUART_1_currentTD.pData = USBUART_1_lineCoding;
  84              		.loc 1 99 0
  85 003e 40F20003 		movw	r3, #:lower16:USBUART_1_currentTD
  86 0042 C0F20003 		movt	r3, #:upper16:USBUART_1_currentTD
  87 0046 40F20002 		movw	r2, #:lower16:USBUART_1_lineCoding
  88 004a C0F20002 		movt	r2, #:upper16:USBUART_1_lineCoding
  89 004e 5A60     		str	r2, [r3, #4]
 100:.\Generated_Source\PSoC5/USBUART_1_cdc.c ****                 requestHandled  = USBUART_1_InitControlRead();
  90              		.loc 1 100 0
  91 0050 FFF7FEFF 		bl	USBUART_1_InitControlRead
  92 0054 0346     		mov	r3, r0
  93 0056 FB71     		strb	r3, [r7, #7]
 101:.\Generated_Source\PSoC5/USBUART_1_cdc.c ****                 break;
  94              		.loc 1 101 0
  95 0058 00BF     		nop
  96 005a 58E0     		b	.L6
  97              	.L12:
 102:.\Generated_Source\PSoC5/USBUART_1_cdc.c **** 
 103:.\Generated_Source\PSoC5/USBUART_1_cdc.c ****             /* `#START CDC_READ_REQUESTS` Place other request handler here */
 104:.\Generated_Source\PSoC5/USBUART_1_cdc.c **** 
 105:.\Generated_Source\PSoC5/USBUART_1_cdc.c ****             /* `#END` */
 106:.\Generated_Source\PSoC5/USBUART_1_cdc.c **** 
 107:.\Generated_Source\PSoC5/USBUART_1_cdc.c ****             default:    /* requestHandled is initialized as FALSE by default */
 108:.\Generated_Source\PSoC5/USBUART_1_cdc.c ****                 break;
  98              		.loc 1 108 0
  99 005c 57E0     		b	.L6
 100              	.L2:
 109:.\Generated_Source\PSoC5/USBUART_1_cdc.c ****         }
 110:.\Generated_Source\PSoC5/USBUART_1_cdc.c ****     }
 111:.\Generated_Source\PSoC5/USBUART_1_cdc.c ****     else if ((CY_GET_REG8(USBUART_1_bmRequestType) & USBUART_1_RQST_DIR_MASK) == \
 101              		.loc 1 111 0
 102 005e 4FF4C043 		mov	r3, #24576
 103 0062 C4F20003 		movt	r3, 16384
 104 0066 1B78     		ldrb	r3, [r3, #0]
 105 0068 DBB2     		uxtb	r3, r3
 106 006a DBB2     		uxtb	r3, r3
 107 006c 5BB2     		sxtb	r3, r3
 108 006e 002B     		cmp	r3, #0
 109 0070 4DDB     		blt	.L6
 112:.\Generated_Source\PSoC5/USBUART_1_cdc.c ****                                                                             USBUART_1_RQST_DIR_H2D)
 113:.\Generated_Source\PSoC5/USBUART_1_cdc.c ****     {   /* Control Write */
 114:.\Generated_Source\PSoC5/USBUART_1_cdc.c ****         switch (CY_GET_REG8(USBUART_1_bRequest))
 110              		.loc 1 114 0
 111 0072 46F20103 		movw	r3, #24577
 112 0076 C4F20003 		movt	r3, 16384
 113 007a 1B78     		ldrb	r3, [r3, #0]
 114 007c DBB2     		uxtb	r3, r3
ARM GAS  C:\Users\Robert\AppData\Local\Temp\ccNv74yg.s 			page 5


 115 007e 202B     		cmp	r3, #32
 116 0080 02D0     		beq	.L8
 117 0082 222B     		cmp	r3, #34
 118 0084 23D0     		beq	.L9
 119 0086 41E0     		b	.L13
 120              	.L8:
 115:.\Generated_Source\PSoC5/USBUART_1_cdc.c ****         {
 116:.\Generated_Source\PSoC5/USBUART_1_cdc.c ****             case USBUART_1_CDC_SET_LINE_CODING:
 117:.\Generated_Source\PSoC5/USBUART_1_cdc.c ****                 USBUART_1_currentTD.count = USBUART_1_LINE_CODING_SIZE;
 121              		.loc 1 117 0
 122 0088 40F20003 		movw	r3, #:lower16:USBUART_1_currentTD
 123 008c C0F20003 		movt	r3, #:upper16:USBUART_1_currentTD
 124 0090 4FF00702 		mov	r2, #7
 125 0094 1A80     		strh	r2, [r3, #0]	@ movhi
 118:.\Generated_Source\PSoC5/USBUART_1_cdc.c ****                 USBUART_1_currentTD.pData = USBUART_1_lineCoding;
 126              		.loc 1 118 0
 127 0096 40F20003 		movw	r3, #:lower16:USBUART_1_currentTD
 128 009a C0F20003 		movt	r3, #:upper16:USBUART_1_currentTD
 129 009e 40F20002 		movw	r2, #:lower16:USBUART_1_lineCoding
 130 00a2 C0F20002 		movt	r2, #:upper16:USBUART_1_lineCoding
 131 00a6 5A60     		str	r2, [r3, #4]
 119:.\Generated_Source\PSoC5/USBUART_1_cdc.c ****                 USBUART_1_lineChanged |= USBUART_1_LINE_CODING_CHANGED;
 132              		.loc 1 119 0
 133 00a8 40F20003 		movw	r3, #:lower16:USBUART_1_lineChanged
 134 00ac C0F20003 		movt	r3, #:upper16:USBUART_1_lineChanged
 135 00b0 1B78     		ldrb	r3, [r3, #0]
 136 00b2 DBB2     		uxtb	r3, r3
 137 00b4 43F00103 		orr	r3, r3, #1
 138 00b8 DAB2     		uxtb	r2, r3
 139 00ba 40F20003 		movw	r3, #:lower16:USBUART_1_lineChanged
 140 00be C0F20003 		movt	r3, #:upper16:USBUART_1_lineChanged
 141 00c2 1A70     		strb	r2, [r3, #0]
 120:.\Generated_Source\PSoC5/USBUART_1_cdc.c ****                 requestHandled = USBUART_1_InitControlWrite();
 142              		.loc 1 120 0
 143 00c4 FFF7FEFF 		bl	USBUART_1_InitControlWrite
 144 00c8 0346     		mov	r3, r0
 145 00ca FB71     		strb	r3, [r7, #7]
 121:.\Generated_Source\PSoC5/USBUART_1_cdc.c ****                 break;
 146              		.loc 1 121 0
 147 00cc 1FE0     		b	.L6
 148              	.L9:
 122:.\Generated_Source\PSoC5/USBUART_1_cdc.c **** 
 123:.\Generated_Source\PSoC5/USBUART_1_cdc.c ****             case USBUART_1_CDC_SET_CONTROL_LINE_STATE:
 124:.\Generated_Source\PSoC5/USBUART_1_cdc.c ****                 USBUART_1_lineControlBitmap = CY_GET_REG8(USBUART_1_wValueLo);
 149              		.loc 1 124 0
 150 00ce 46F20203 		movw	r3, #24578
 151 00d2 C4F20003 		movt	r3, 16384
 152 00d6 1B78     		ldrb	r3, [r3, #0]
 153 00d8 DBB2     		uxtb	r3, r3
 154 00da 1A46     		mov	r2, r3
 155 00dc 40F20003 		movw	r3, #:lower16:USBUART_1_lineControlBitmap
 156 00e0 C0F20003 		movt	r3, #:upper16:USBUART_1_lineControlBitmap
 157 00e4 1A80     		strh	r2, [r3, #0]	@ movhi
 125:.\Generated_Source\PSoC5/USBUART_1_cdc.c ****                 USBUART_1_lineChanged |= USBUART_1_LINE_CONTROL_CHANGED;
 158              		.loc 1 125 0
 159 00e6 40F20003 		movw	r3, #:lower16:USBUART_1_lineChanged
 160 00ea C0F20003 		movt	r3, #:upper16:USBUART_1_lineChanged
ARM GAS  C:\Users\Robert\AppData\Local\Temp\ccNv74yg.s 			page 6


 161 00ee 1B78     		ldrb	r3, [r3, #0]
 162 00f0 DBB2     		uxtb	r3, r3
 163 00f2 43F00203 		orr	r3, r3, #2
 164 00f6 DAB2     		uxtb	r2, r3
 165 00f8 40F20003 		movw	r3, #:lower16:USBUART_1_lineChanged
 166 00fc C0F20003 		movt	r3, #:upper16:USBUART_1_lineChanged
 167 0100 1A70     		strb	r2, [r3, #0]
 126:.\Generated_Source\PSoC5/USBUART_1_cdc.c ****                 requestHandled = USBUART_1_InitNoDataControlTransfer();
 168              		.loc 1 126 0
 169 0102 FFF7FEFF 		bl	USBUART_1_InitNoDataControlTransfer
 170 0106 0346     		mov	r3, r0
 171 0108 FB71     		strb	r3, [r7, #7]
 127:.\Generated_Source\PSoC5/USBUART_1_cdc.c ****                 break;
 172              		.loc 1 127 0
 173 010a 00E0     		b	.L6
 174              	.L13:
 128:.\Generated_Source\PSoC5/USBUART_1_cdc.c **** 
 129:.\Generated_Source\PSoC5/USBUART_1_cdc.c ****             /* `#START CDC_WRITE_REQUESTS` Place other request handler here */
 130:.\Generated_Source\PSoC5/USBUART_1_cdc.c **** 
 131:.\Generated_Source\PSoC5/USBUART_1_cdc.c ****             /* `#END` */
 132:.\Generated_Source\PSoC5/USBUART_1_cdc.c **** 
 133:.\Generated_Source\PSoC5/USBUART_1_cdc.c ****             default:    /* requestHandled is initialized as FALSE by default */
 134:.\Generated_Source\PSoC5/USBUART_1_cdc.c ****                 break;
 175              		.loc 1 134 0
 176 010c 00BF     		nop
 177              	.L6:
 135:.\Generated_Source\PSoC5/USBUART_1_cdc.c ****         }
 136:.\Generated_Source\PSoC5/USBUART_1_cdc.c ****     }
 137:.\Generated_Source\PSoC5/USBUART_1_cdc.c ****     else
 138:.\Generated_Source\PSoC5/USBUART_1_cdc.c ****     {   /* requestHandled is initialized as FALSE by default */
 139:.\Generated_Source\PSoC5/USBUART_1_cdc.c ****     }
 140:.\Generated_Source\PSoC5/USBUART_1_cdc.c **** 
 141:.\Generated_Source\PSoC5/USBUART_1_cdc.c ****     return(requestHandled);
 178              		.loc 1 141 0
 179 010e FB79     		ldrb	r3, [r7, #7]	@ zero_extendqisi2
 142:.\Generated_Source\PSoC5/USBUART_1_cdc.c **** }
 180              		.loc 1 142 0
 181 0110 1846     		mov	r0, r3
 182 0112 07F10807 		add	r7, r7, #8
 183 0116 BD46     		mov	sp, r7
 184 0118 80BD     		pop	{r7, pc}
 185              		.cfi_endproc
 186              	.LFE0:
 187              		.size	USBUART_1_DispatchCDCClassRqst, .-USBUART_1_DispatchCDCClassRqst
 188 011a 00BF     		.section	.text.USBUART_1_CDC_Init,"ax",%progbits
 189              		.align	2
 190              		.global	USBUART_1_CDC_Init
 191              		.thumb
 192              		.thumb_func
 193              		.type	USBUART_1_CDC_Init, %function
 194              	USBUART_1_CDC_Init:
 195              	.LFB1:
 143:.\Generated_Source\PSoC5/USBUART_1_cdc.c **** 
 144:.\Generated_Source\PSoC5/USBUART_1_cdc.c **** 
 145:.\Generated_Source\PSoC5/USBUART_1_cdc.c **** /***************************************
 146:.\Generated_Source\PSoC5/USBUART_1_cdc.c **** * Optional CDC APIs
 147:.\Generated_Source\PSoC5/USBUART_1_cdc.c **** ***************************************/
ARM GAS  C:\Users\Robert\AppData\Local\Temp\ccNv74yg.s 			page 7


 148:.\Generated_Source\PSoC5/USBUART_1_cdc.c **** #if (USBUART_1_ENABLE_CDC_CLASS_API != 0u)
 149:.\Generated_Source\PSoC5/USBUART_1_cdc.c **** 
 150:.\Generated_Source\PSoC5/USBUART_1_cdc.c ****     /*******************************************************************************
 151:.\Generated_Source\PSoC5/USBUART_1_cdc.c ****     * Function Name: USBUART_1_CDC_Init
 152:.\Generated_Source\PSoC5/USBUART_1_cdc.c ****     ********************************************************************************
 153:.\Generated_Source\PSoC5/USBUART_1_cdc.c ****     *
 154:.\Generated_Source\PSoC5/USBUART_1_cdc.c ****     * Summary:
 155:.\Generated_Source\PSoC5/USBUART_1_cdc.c ****     *  This function initialize the CDC interface to be ready for the receive data
 156:.\Generated_Source\PSoC5/USBUART_1_cdc.c ****     *  from the PC.
 157:.\Generated_Source\PSoC5/USBUART_1_cdc.c ****     *
 158:.\Generated_Source\PSoC5/USBUART_1_cdc.c ****     * Parameters:
 159:.\Generated_Source\PSoC5/USBUART_1_cdc.c ****     *  None.
 160:.\Generated_Source\PSoC5/USBUART_1_cdc.c ****     *
 161:.\Generated_Source\PSoC5/USBUART_1_cdc.c ****     * Return:
 162:.\Generated_Source\PSoC5/USBUART_1_cdc.c ****     *  None.
 163:.\Generated_Source\PSoC5/USBUART_1_cdc.c ****     *
 164:.\Generated_Source\PSoC5/USBUART_1_cdc.c ****     * Global variables:
 165:.\Generated_Source\PSoC5/USBUART_1_cdc.c ****     *   USBUART_1_lineChanged: Initialized to zero.
 166:.\Generated_Source\PSoC5/USBUART_1_cdc.c ****     *   USBUART_1_cdc_data_out_ep: Used as an OUT endpoint number.
 167:.\Generated_Source\PSoC5/USBUART_1_cdc.c ****     *
 168:.\Generated_Source\PSoC5/USBUART_1_cdc.c ****     * Reentrant:
 169:.\Generated_Source\PSoC5/USBUART_1_cdc.c ****     *  No.
 170:.\Generated_Source\PSoC5/USBUART_1_cdc.c ****     *
 171:.\Generated_Source\PSoC5/USBUART_1_cdc.c ****     *******************************************************************************/
 172:.\Generated_Source\PSoC5/USBUART_1_cdc.c ****     void USBUART_1_CDC_Init(void) 
 173:.\Generated_Source\PSoC5/USBUART_1_cdc.c ****     {
 196              		.loc 1 173 0
 197              		.cfi_startproc
 198              		@ args = 0, pretend = 0, frame = 0
 199              		@ frame_needed = 1, uses_anonymous_args = 0
 200 0000 80B5     		push	{r7, lr}
 201              	.LCFI3:
 202              		.cfi_def_cfa_offset 8
 203              		.cfi_offset 7, -8
 204              		.cfi_offset 14, -4
 205 0002 00AF     		add	r7, sp, #0
 206              	.LCFI4:
 207              		.cfi_def_cfa_register 7
 174:.\Generated_Source\PSoC5/USBUART_1_cdc.c ****         USBUART_1_lineChanged = 0u;
 208              		.loc 1 174 0
 209 0004 40F20003 		movw	r3, #:lower16:USBUART_1_lineChanged
 210 0008 C0F20003 		movt	r3, #:upper16:USBUART_1_lineChanged
 211 000c 4FF00002 		mov	r2, #0
 212 0010 1A70     		strb	r2, [r3, #0]
 175:.\Generated_Source\PSoC5/USBUART_1_cdc.c ****         USBUART_1_EnableOutEP(USBUART_1_cdc_data_out_ep);
 213              		.loc 1 175 0
 214 0012 40F20003 		movw	r3, #:lower16:USBUART_1_cdc_data_out_ep
 215 0016 C0F20003 		movt	r3, #:upper16:USBUART_1_cdc_data_out_ep
 216 001a 1B78     		ldrb	r3, [r3, #0]
 217 001c DBB2     		uxtb	r3, r3
 218 001e 1846     		mov	r0, r3
 219 0020 FFF7FEFF 		bl	USBUART_1_EnableOutEP
 176:.\Generated_Source\PSoC5/USBUART_1_cdc.c ****     }
 220              		.loc 1 176 0
 221 0024 80BD     		pop	{r7, pc}
 222              		.cfi_endproc
 223              	.LFE1:
ARM GAS  C:\Users\Robert\AppData\Local\Temp\ccNv74yg.s 			page 8


 224              		.size	USBUART_1_CDC_Init, .-USBUART_1_CDC_Init
 225 0026 00BF     		.section	.text.USBUART_1_PutData,"ax",%progbits
 226              		.align	2
 227              		.global	USBUART_1_PutData
 228              		.thumb
 229              		.thumb_func
 230              		.type	USBUART_1_PutData, %function
 231              	USBUART_1_PutData:
 232              	.LFB2:
 177:.\Generated_Source\PSoC5/USBUART_1_cdc.c **** 
 178:.\Generated_Source\PSoC5/USBUART_1_cdc.c **** 
 179:.\Generated_Source\PSoC5/USBUART_1_cdc.c ****     /*******************************************************************************
 180:.\Generated_Source\PSoC5/USBUART_1_cdc.c ****     * Function Name: USBUART_1_PutData
 181:.\Generated_Source\PSoC5/USBUART_1_cdc.c ****     ********************************************************************************
 182:.\Generated_Source\PSoC5/USBUART_1_cdc.c ****     *
 183:.\Generated_Source\PSoC5/USBUART_1_cdc.c ****     * Summary:
 184:.\Generated_Source\PSoC5/USBUART_1_cdc.c ****     *  This function sends a specified number of bytes from the location specified
 185:.\Generated_Source\PSoC5/USBUART_1_cdc.c ****     *  by a pointer to the PC. The USBUART_1_CDCIsReady() function should be
 186:.\Generated_Source\PSoC5/USBUART_1_cdc.c ****     *  called before sending new data, to be sure that the previous data has
 187:.\Generated_Source\PSoC5/USBUART_1_cdc.c ****     *  finished sending.
 188:.\Generated_Source\PSoC5/USBUART_1_cdc.c ****     *  If the last sent packet is less than maximum packet size the USB transfer
 189:.\Generated_Source\PSoC5/USBUART_1_cdc.c ****     *  of this short packet will identify the end of the segment. If the last sent
 190:.\Generated_Source\PSoC5/USBUART_1_cdc.c ****     *  packet is exactly maximum packet size, it shall be followed by a zero-length
 191:.\Generated_Source\PSoC5/USBUART_1_cdc.c ****     *  packet (which is a short packet) to assure the end of segment is properly
 192:.\Generated_Source\PSoC5/USBUART_1_cdc.c ****     *  identified. To send zero-length packet, use USBUART_1_PutData() API
 193:.\Generated_Source\PSoC5/USBUART_1_cdc.c ****     *  with length parameter set to zero.
 194:.\Generated_Source\PSoC5/USBUART_1_cdc.c ****     *
 195:.\Generated_Source\PSoC5/USBUART_1_cdc.c ****     * Parameters:
 196:.\Generated_Source\PSoC5/USBUART_1_cdc.c ****     *  pData: pointer to the buffer containing data to be sent.
 197:.\Generated_Source\PSoC5/USBUART_1_cdc.c ****     *  length: Specifies the number of bytes to send from the pData
 198:.\Generated_Source\PSoC5/USBUART_1_cdc.c ****     *  buffer. Maximum length will be limited by the maximum packet
 199:.\Generated_Source\PSoC5/USBUART_1_cdc.c ****     *  size for the endpoint. Data will be lost if length is greater than Max
 200:.\Generated_Source\PSoC5/USBUART_1_cdc.c ****     *  Packet Size.
 201:.\Generated_Source\PSoC5/USBUART_1_cdc.c ****     *
 202:.\Generated_Source\PSoC5/USBUART_1_cdc.c ****     * Return:
 203:.\Generated_Source\PSoC5/USBUART_1_cdc.c ****     *  None.
 204:.\Generated_Source\PSoC5/USBUART_1_cdc.c ****     *
 205:.\Generated_Source\PSoC5/USBUART_1_cdc.c ****     * Global variables:
 206:.\Generated_Source\PSoC5/USBUART_1_cdc.c ****     *   USBUART_1_cdc_data_in_ep: CDC IN endpoint number used for sending
 207:.\Generated_Source\PSoC5/USBUART_1_cdc.c ****     *     data.
 208:.\Generated_Source\PSoC5/USBUART_1_cdc.c ****     *
 209:.\Generated_Source\PSoC5/USBUART_1_cdc.c ****     * Reentrant:
 210:.\Generated_Source\PSoC5/USBUART_1_cdc.c ****     *  No.
 211:.\Generated_Source\PSoC5/USBUART_1_cdc.c ****     *
 212:.\Generated_Source\PSoC5/USBUART_1_cdc.c ****     *******************************************************************************/
 213:.\Generated_Source\PSoC5/USBUART_1_cdc.c ****     void USBUART_1_PutData(const uint8* pData, uint16 length) 
 214:.\Generated_Source\PSoC5/USBUART_1_cdc.c ****     {
 233              		.loc 1 214 0
 234              		.cfi_startproc
 235              		@ args = 0, pretend = 0, frame = 8
 236              		@ frame_needed = 1, uses_anonymous_args = 0
 237 0000 80B5     		push	{r7, lr}
 238              	.LCFI5:
 239              		.cfi_def_cfa_offset 8
 240              		.cfi_offset 7, -8
 241              		.cfi_offset 14, -4
 242 0002 82B0     		sub	sp, sp, #8
ARM GAS  C:\Users\Robert\AppData\Local\Temp\ccNv74yg.s 			page 9


 243              	.LCFI6:
 244              		.cfi_def_cfa_offset 16
 245 0004 00AF     		add	r7, sp, #0
 246              	.LCFI7:
 247              		.cfi_def_cfa_register 7
 248 0006 7860     		str	r0, [r7, #4]
 249 0008 0B46     		mov	r3, r1
 250 000a 7B80     		strh	r3, [r7, #2]	@ movhi
 215:.\Generated_Source\PSoC5/USBUART_1_cdc.c ****         /* Limits length to maximum packet size for the EP */
 216:.\Generated_Source\PSoC5/USBUART_1_cdc.c ****         if(length > USBUART_1_EP[USBUART_1_cdc_data_in_ep].bufferSize)
 251              		.loc 1 216 0
 252 000c 40F20003 		movw	r3, #:lower16:USBUART_1_cdc_data_in_ep
 253 0010 C0F20003 		movt	r3, #:upper16:USBUART_1_cdc_data_in_ep
 254 0014 1B78     		ldrb	r3, [r3, #0]
 255 0016 DBB2     		uxtb	r3, r3
 256 0018 1946     		mov	r1, r3
 257 001a 40F20002 		movw	r2, #:lower16:USBUART_1_EP
 258 001e C0F20002 		movt	r2, #:upper16:USBUART_1_EP
 259 0022 0B46     		mov	r3, r1
 260 0024 4FEA4303 		lsl	r3, r3, #1
 261 0028 5B18     		adds	r3, r3, r1
 262 002a 4FEA8303 		lsl	r3, r3, #2
 263 002e D318     		adds	r3, r2, r3
 264 0030 03F10803 		add	r3, r3, #8
 265 0034 1B88     		ldrh	r3, [r3, #0]	@ movhi
 266 0036 9BB2     		uxth	r3, r3
 267 0038 7A88     		ldrh	r2, [r7, #2]
 268 003a 9A42     		cmp	r2, r3
 269 003c 19D9     		bls	.L16
 217:.\Generated_Source\PSoC5/USBUART_1_cdc.c ****         {
 218:.\Generated_Source\PSoC5/USBUART_1_cdc.c ****             /* Caution: Data will be lost if length is greater than Max Packet Length */
 219:.\Generated_Source\PSoC5/USBUART_1_cdc.c ****             length = USBUART_1_EP[USBUART_1_cdc_data_in_ep].bufferSize;
 270              		.loc 1 219 0
 271 003e 40F20003 		movw	r3, #:lower16:USBUART_1_cdc_data_in_ep
 272 0042 C0F20003 		movt	r3, #:upper16:USBUART_1_cdc_data_in_ep
 273 0046 1B78     		ldrb	r3, [r3, #0]
 274 0048 DBB2     		uxtb	r3, r3
 275 004a 1946     		mov	r1, r3
 276 004c 40F20002 		movw	r2, #:lower16:USBUART_1_EP
 277 0050 C0F20002 		movt	r2, #:upper16:USBUART_1_EP
 278 0054 0B46     		mov	r3, r1
 279 0056 4FEA4303 		lsl	r3, r3, #1
 280 005a 5B18     		adds	r3, r3, r1
 281 005c 4FEA8303 		lsl	r3, r3, #2
 282 0060 D318     		adds	r3, r2, r3
 283 0062 03F10803 		add	r3, r3, #8
 284 0066 1B88     		ldrh	r3, [r3, #0]	@ movhi
 285 0068 7B80     		strh	r3, [r7, #2]	@ movhi
 220:.\Generated_Source\PSoC5/USBUART_1_cdc.c ****              /* Halt CPU in debug mode */
 221:.\Generated_Source\PSoC5/USBUART_1_cdc.c ****             CYASSERT(0u != 0u);
 286              		.loc 1 221 0
 287 006a 4FF00000 		mov	r0, #0
 288 006e FFF7FEFF 		bl	CyHalt
 289              	.L16:
 222:.\Generated_Source\PSoC5/USBUART_1_cdc.c ****         }
 223:.\Generated_Source\PSoC5/USBUART_1_cdc.c ****         USBUART_1_LoadInEP(USBUART_1_cdc_data_in_ep, pData, length);
 290              		.loc 1 223 0
ARM GAS  C:\Users\Robert\AppData\Local\Temp\ccNv74yg.s 			page 10


 291 0072 40F20003 		movw	r3, #:lower16:USBUART_1_cdc_data_in_ep
 292 0076 C0F20003 		movt	r3, #:upper16:USBUART_1_cdc_data_in_ep
 293 007a 1B78     		ldrb	r3, [r3, #0]
 294 007c DAB2     		uxtb	r2, r3
 295 007e 7B88     		ldrh	r3, [r7, #2]
 296 0080 1046     		mov	r0, r2
 297 0082 7968     		ldr	r1, [r7, #4]
 298 0084 1A46     		mov	r2, r3
 299 0086 FFF7FEFF 		bl	USBUART_1_LoadInEP
 224:.\Generated_Source\PSoC5/USBUART_1_cdc.c ****     }
 300              		.loc 1 224 0
 301 008a 07F10807 		add	r7, r7, #8
 302 008e BD46     		mov	sp, r7
 303 0090 80BD     		pop	{r7, pc}
 304              		.cfi_endproc
 305              	.LFE2:
 306              		.size	USBUART_1_PutData, .-USBUART_1_PutData
 307 0092 00BF     		.section	.text.USBUART_1_StrLen,"ax",%progbits
 308              		.align	2
 309              		.thumb
 310              		.thumb_func
 311              		.type	USBUART_1_StrLen, %function
 312              	USBUART_1_StrLen:
 313              	.LFB3:
 225:.\Generated_Source\PSoC5/USBUART_1_cdc.c **** 
 226:.\Generated_Source\PSoC5/USBUART_1_cdc.c **** 
 227:.\Generated_Source\PSoC5/USBUART_1_cdc.c ****     /*******************************************************************************
 228:.\Generated_Source\PSoC5/USBUART_1_cdc.c ****     * Function Name: USBUART_1_StrLen
 229:.\Generated_Source\PSoC5/USBUART_1_cdc.c ****     ********************************************************************************
 230:.\Generated_Source\PSoC5/USBUART_1_cdc.c ****     *
 231:.\Generated_Source\PSoC5/USBUART_1_cdc.c ****     * Summary:
 232:.\Generated_Source\PSoC5/USBUART_1_cdc.c ****     *  Calculates length of a null terminated string.
 233:.\Generated_Source\PSoC5/USBUART_1_cdc.c ****     *
 234:.\Generated_Source\PSoC5/USBUART_1_cdc.c ****     * Parameters:
 235:.\Generated_Source\PSoC5/USBUART_1_cdc.c ****     *  string: pointer to the string.
 236:.\Generated_Source\PSoC5/USBUART_1_cdc.c ****     *
 237:.\Generated_Source\PSoC5/USBUART_1_cdc.c ****     * Return:
 238:.\Generated_Source\PSoC5/USBUART_1_cdc.c ****     *  Length of the string
 239:.\Generated_Source\PSoC5/USBUART_1_cdc.c ****     *
 240:.\Generated_Source\PSoC5/USBUART_1_cdc.c ****     *******************************************************************************/
 241:.\Generated_Source\PSoC5/USBUART_1_cdc.c ****     static uint16 USBUART_1_StrLen(const char8 string[]) 
 242:.\Generated_Source\PSoC5/USBUART_1_cdc.c ****     {
 314              		.loc 1 242 0
 315              		.cfi_startproc
 316              		@ args = 0, pretend = 0, frame = 16
 317              		@ frame_needed = 1, uses_anonymous_args = 0
 318              		@ link register save eliminated.
 319 0000 80B4     		push	{r7}
 320              	.LCFI8:
 321              		.cfi_def_cfa_offset 4
 322              		.cfi_offset 7, -4
 323 0002 85B0     		sub	sp, sp, #20
 324              	.LCFI9:
 325              		.cfi_def_cfa_offset 24
 326 0004 00AF     		add	r7, sp, #0
 327              	.LCFI10:
 328              		.cfi_def_cfa_register 7
ARM GAS  C:\Users\Robert\AppData\Local\Temp\ccNv74yg.s 			page 11


 329 0006 7860     		str	r0, [r7, #4]
 243:.\Generated_Source\PSoC5/USBUART_1_cdc.c ****         uint16 len = 0u;
 330              		.loc 1 243 0
 331 0008 4FF00003 		mov	r3, #0
 332 000c FB81     		strh	r3, [r7, #14]	@ movhi
 244:.\Generated_Source\PSoC5/USBUART_1_cdc.c **** 
 245:.\Generated_Source\PSoC5/USBUART_1_cdc.c ****         while (string[len] != (char8)0)
 333              		.loc 1 245 0
 334 000e 03E0     		b	.L18
 335              	.L19:
 246:.\Generated_Source\PSoC5/USBUART_1_cdc.c ****         {
 247:.\Generated_Source\PSoC5/USBUART_1_cdc.c ****             len++;
 336              		.loc 1 247 0
 337 0010 FB89     		ldrh	r3, [r7, #14]	@ movhi
 338 0012 03F10103 		add	r3, r3, #1
 339 0016 FB81     		strh	r3, [r7, #14]	@ movhi
 340              	.L18:
 245:.\Generated_Source\PSoC5/USBUART_1_cdc.c ****         while (string[len] != (char8)0)
 341              		.loc 1 245 0 discriminator 1
 342 0018 FB89     		ldrh	r3, [r7, #14]
 343 001a 7A68     		ldr	r2, [r7, #4]
 344 001c D318     		adds	r3, r2, r3
 345 001e 1B78     		ldrb	r3, [r3, #0]	@ zero_extendqisi2
 346 0020 002B     		cmp	r3, #0
 347 0022 F5D1     		bne	.L19
 248:.\Generated_Source\PSoC5/USBUART_1_cdc.c ****         }
 249:.\Generated_Source\PSoC5/USBUART_1_cdc.c **** 
 250:.\Generated_Source\PSoC5/USBUART_1_cdc.c ****         return (len);
 348              		.loc 1 250 0
 349 0024 FB89     		ldrh	r3, [r7, #14]
 251:.\Generated_Source\PSoC5/USBUART_1_cdc.c ****     }
 350              		.loc 1 251 0
 351 0026 1846     		mov	r0, r3
 352 0028 07F11407 		add	r7, r7, #20
 353 002c BD46     		mov	sp, r7
 354 002e 80BC     		pop	{r7}
 355 0030 7047     		bx	lr
 356              		.cfi_endproc
 357              	.LFE3:
 358              		.size	USBUART_1_StrLen, .-USBUART_1_StrLen
 359 0032 00BF     		.section	.text.USBUART_1_PutString,"ax",%progbits
 360              		.align	2
 361              		.global	USBUART_1_PutString
 362              		.thumb
 363              		.thumb_func
 364              		.type	USBUART_1_PutString, %function
 365              	USBUART_1_PutString:
 366              	.LFB4:
 252:.\Generated_Source\PSoC5/USBUART_1_cdc.c **** 
 253:.\Generated_Source\PSoC5/USBUART_1_cdc.c **** 
 254:.\Generated_Source\PSoC5/USBUART_1_cdc.c ****     /*******************************************************************************
 255:.\Generated_Source\PSoC5/USBUART_1_cdc.c ****     * Function Name: USBUART_1_PutString
 256:.\Generated_Source\PSoC5/USBUART_1_cdc.c ****     ********************************************************************************
 257:.\Generated_Source\PSoC5/USBUART_1_cdc.c ****     *
 258:.\Generated_Source\PSoC5/USBUART_1_cdc.c ****     * Summary:
 259:.\Generated_Source\PSoC5/USBUART_1_cdc.c ****     *  This function sends a null terminated string to the PC. This function will
 260:.\Generated_Source\PSoC5/USBUART_1_cdc.c ****     *  block if there is not enough memory to place the whole string. It will block
ARM GAS  C:\Users\Robert\AppData\Local\Temp\ccNv74yg.s 			page 12


 261:.\Generated_Source\PSoC5/USBUART_1_cdc.c ****     *  until the entire string has been written to the transmit buffer.
 262:.\Generated_Source\PSoC5/USBUART_1_cdc.c ****     *  The USBUART_CDCIsReady() function should be called before sending data with
 263:.\Generated_Source\PSoC5/USBUART_1_cdc.c ****     *  a new call to USBUART_1_PutString(), to be sure that the previous data
 264:.\Generated_Source\PSoC5/USBUART_1_cdc.c ****     *  has finished sending.
 265:.\Generated_Source\PSoC5/USBUART_1_cdc.c ****     *
 266:.\Generated_Source\PSoC5/USBUART_1_cdc.c ****     * Parameters:
 267:.\Generated_Source\PSoC5/USBUART_1_cdc.c ****     *  string: pointer to the string to be sent to the PC.
 268:.\Generated_Source\PSoC5/USBUART_1_cdc.c ****     *
 269:.\Generated_Source\PSoC5/USBUART_1_cdc.c ****     * Return:
 270:.\Generated_Source\PSoC5/USBUART_1_cdc.c ****     *  None.
 271:.\Generated_Source\PSoC5/USBUART_1_cdc.c ****     *
 272:.\Generated_Source\PSoC5/USBUART_1_cdc.c ****     * Global variables:
 273:.\Generated_Source\PSoC5/USBUART_1_cdc.c ****     *   USBUART_1_cdc_data_in_ep: CDC IN endpoint number used for sending
 274:.\Generated_Source\PSoC5/USBUART_1_cdc.c ****     *     data.
 275:.\Generated_Source\PSoC5/USBUART_1_cdc.c ****     *
 276:.\Generated_Source\PSoC5/USBUART_1_cdc.c ****     * Reentrant:
 277:.\Generated_Source\PSoC5/USBUART_1_cdc.c ****     *  No.
 278:.\Generated_Source\PSoC5/USBUART_1_cdc.c ****     *
 279:.\Generated_Source\PSoC5/USBUART_1_cdc.c ****     *******************************************************************************/
 280:.\Generated_Source\PSoC5/USBUART_1_cdc.c ****     void USBUART_1_PutString(const char8 string[]) 
 281:.\Generated_Source\PSoC5/USBUART_1_cdc.c ****     {
 367              		.loc 1 281 0
 368              		.cfi_startproc
 369              		@ args = 0, pretend = 0, frame = 16
 370              		@ frame_needed = 1, uses_anonymous_args = 0
 371 0000 80B5     		push	{r7, lr}
 372              	.LCFI11:
 373              		.cfi_def_cfa_offset 8
 374              		.cfi_offset 7, -8
 375              		.cfi_offset 14, -4
 376 0002 84B0     		sub	sp, sp, #16
 377              	.LCFI12:
 378              		.cfi_def_cfa_offset 24
 379 0004 00AF     		add	r7, sp, #0
 380              	.LCFI13:
 381              		.cfi_def_cfa_register 7
 382 0006 7860     		str	r0, [r7, #4]
 282:.\Generated_Source\PSoC5/USBUART_1_cdc.c ****         uint16 strLength;
 283:.\Generated_Source\PSoC5/USBUART_1_cdc.c ****         uint16 sendLength;
 284:.\Generated_Source\PSoC5/USBUART_1_cdc.c ****         uint16 bufIndex = 0u;
 383              		.loc 1 284 0
 384 0008 4FF00003 		mov	r3, #0
 385 000c BB81     		strh	r3, [r7, #12]	@ movhi
 285:.\Generated_Source\PSoC5/USBUART_1_cdc.c **** 
 286:.\Generated_Source\PSoC5/USBUART_1_cdc.c ****         /* Get length of the null terminated string */
 287:.\Generated_Source\PSoC5/USBUART_1_cdc.c ****         strLength = USBUART_1_StrLen(string);
 386              		.loc 1 287 0
 387 000e 7868     		ldr	r0, [r7, #4]
 388 0010 FFF7FEFF 		bl	USBUART_1_StrLen
 389 0014 0346     		mov	r3, r0
 390 0016 FB81     		strh	r3, [r7, #14]	@ movhi
 391              	.L27:
 288:.\Generated_Source\PSoC5/USBUART_1_cdc.c ****         do
 289:.\Generated_Source\PSoC5/USBUART_1_cdc.c ****         {
 290:.\Generated_Source\PSoC5/USBUART_1_cdc.c ****             /* Limits length to maximum packet size for the EP */
 291:.\Generated_Source\PSoC5/USBUART_1_cdc.c ****             sendLength = (strLength > USBUART_1_EP[USBUART_1_cdc_data_in_ep].bufferSize) ?
 392              		.loc 1 291 0
ARM GAS  C:\Users\Robert\AppData\Local\Temp\ccNv74yg.s 			page 13


 393 0018 40F20003 		movw	r3, #:lower16:USBUART_1_cdc_data_in_ep
 394 001c C0F20003 		movt	r3, #:upper16:USBUART_1_cdc_data_in_ep
 395 0020 1B78     		ldrb	r3, [r3, #0]
 396 0022 DBB2     		uxtb	r3, r3
 397 0024 1946     		mov	r1, r3
 398 0026 40F20002 		movw	r2, #:lower16:USBUART_1_EP
 399 002a C0F20002 		movt	r2, #:upper16:USBUART_1_EP
 400 002e 0B46     		mov	r3, r1
 401 0030 4FEA4303 		lsl	r3, r3, #1
 402 0034 5B18     		adds	r3, r3, r1
 403 0036 4FEA8303 		lsl	r3, r3, #2
 404 003a D318     		adds	r3, r2, r3
 405 003c 03F10803 		add	r3, r3, #8
 406 0040 1B88     		ldrh	r3, [r3, #0]	@ movhi
 407 0042 9BB2     		uxth	r3, r3
 408 0044 FA89     		ldrh	r2, [r7, #14]
 409 0046 9A42     		cmp	r2, r3
 410 0048 16D9     		bls	.L22
 292:.\Generated_Source\PSoC5/USBUART_1_cdc.c ****                           USBUART_1_EP[USBUART_1_cdc_data_in_ep].bufferSize : strLength;
 411              		.loc 1 292 0
 412 004a 40F20003 		movw	r3, #:lower16:USBUART_1_cdc_data_in_ep
 413 004e C0F20003 		movt	r3, #:upper16:USBUART_1_cdc_data_in_ep
 414 0052 1B78     		ldrb	r3, [r3, #0]
 415 0054 DBB2     		uxtb	r3, r3
 416 0056 1946     		mov	r1, r3
 291:.\Generated_Source\PSoC5/USBUART_1_cdc.c ****             sendLength = (strLength > USBUART_1_EP[USBUART_1_cdc_data_in_ep].bufferSize) ?
 417              		.loc 1 291 0
 418 0058 40F20002 		movw	r2, #:lower16:USBUART_1_EP
 419 005c C0F20002 		movt	r2, #:upper16:USBUART_1_EP
 420 0060 0B46     		mov	r3, r1
 421 0062 4FEA4303 		lsl	r3, r3, #1
 422 0066 5B18     		adds	r3, r3, r1
 423 0068 4FEA8303 		lsl	r3, r3, #2
 424 006c D318     		adds	r3, r2, r3
 425 006e 03F10803 		add	r3, r3, #8
 426 0072 1B88     		ldrh	r3, [r3, #0]	@ movhi
 427 0074 9BB2     		uxth	r3, r3
 428 0076 00E0     		b	.L23
 429              	.L22:
 291:.\Generated_Source\PSoC5/USBUART_1_cdc.c ****             sendLength = (strLength > USBUART_1_EP[USBUART_1_cdc_data_in_ep].bufferSize) ?
 430              		.loc 1 291 0 is_stmt 0 discriminator 1
 431 0078 FB89     		ldrh	r3, [r7, #14]
 432              	.L23:
 291:.\Generated_Source\PSoC5/USBUART_1_cdc.c ****             sendLength = (strLength > USBUART_1_EP[USBUART_1_cdc_data_in_ep].bufferSize) ?
 433              		.loc 1 291 0 discriminator 2
 434 007a 7B81     		strh	r3, [r7, #10]	@ movhi
 293:.\Generated_Source\PSoC5/USBUART_1_cdc.c ****              /* Enable IN transfer */
 294:.\Generated_Source\PSoC5/USBUART_1_cdc.c ****             USBUART_1_LoadInEP(USBUART_1_cdc_data_in_ep, (const uint8 *)&string[bufIndex], sendLeng
 435              		.loc 1 294 0 is_stmt 1 discriminator 2
 436 007c 40F20003 		movw	r3, #:lower16:USBUART_1_cdc_data_in_ep
 437 0080 C0F20003 		movt	r3, #:upper16:USBUART_1_cdc_data_in_ep
 438 0084 1B78     		ldrb	r3, [r3, #0]
 439 0086 D9B2     		uxtb	r1, r3
 440 0088 BB89     		ldrh	r3, [r7, #12]
 441 008a 7A68     		ldr	r2, [r7, #4]
 442 008c D218     		adds	r2, r2, r3
 443 008e 7B89     		ldrh	r3, [r7, #10]
ARM GAS  C:\Users\Robert\AppData\Local\Temp\ccNv74yg.s 			page 14


 444 0090 0846     		mov	r0, r1
 445 0092 1146     		mov	r1, r2
 446 0094 1A46     		mov	r2, r3
 447 0096 FFF7FEFF 		bl	USBUART_1_LoadInEP
 295:.\Generated_Source\PSoC5/USBUART_1_cdc.c ****             strLength -= sendLength;
 448              		.loc 1 295 0 discriminator 2
 449 009a FA89     		ldrh	r2, [r7, #14]	@ movhi
 450 009c 7B89     		ldrh	r3, [r7, #10]	@ movhi
 451 009e D31A     		subs	r3, r2, r3
 452 00a0 FB81     		strh	r3, [r7, #14]	@ movhi
 296:.\Generated_Source\PSoC5/USBUART_1_cdc.c **** 
 297:.\Generated_Source\PSoC5/USBUART_1_cdc.c ****             /* If more data are present to send or full packet was sent */
 298:.\Generated_Source\PSoC5/USBUART_1_cdc.c ****             if((strLength > 0u) || (sendLength == USBUART_1_EP[USBUART_1_cdc_data_in_ep].bufferSize
 453              		.loc 1 298 0 discriminator 2
 454 00a2 FB89     		ldrh	r3, [r7, #14]
 455 00a4 002B     		cmp	r3, #0
 456 00a6 18D1     		bne	.L24
 457              		.loc 1 298 0 is_stmt 0 discriminator 1
 458 00a8 40F20003 		movw	r3, #:lower16:USBUART_1_cdc_data_in_ep
 459 00ac C0F20003 		movt	r3, #:upper16:USBUART_1_cdc_data_in_ep
 460 00b0 1B78     		ldrb	r3, [r3, #0]
 461 00b2 DBB2     		uxtb	r3, r3
 462 00b4 1946     		mov	r1, r3
 463 00b6 40F20002 		movw	r2, #:lower16:USBUART_1_EP
 464 00ba C0F20002 		movt	r2, #:upper16:USBUART_1_EP
 465 00be 0B46     		mov	r3, r1
 466 00c0 4FEA4303 		lsl	r3, r3, #1
 467 00c4 5B18     		adds	r3, r3, r1
 468 00c6 4FEA8303 		lsl	r3, r3, #2
 469 00ca D318     		adds	r3, r2, r3
 470 00cc 03F10803 		add	r3, r3, #8
 471 00d0 1B88     		ldrh	r3, [r3, #0]	@ movhi
 472 00d2 9BB2     		uxth	r3, r3
 473 00d4 7A89     		ldrh	r2, [r7, #10]
 474 00d6 9A42     		cmp	r2, r3
 475 00d8 2AD1     		bne	.L25
 476              	.L24:
 299:.\Generated_Source\PSoC5/USBUART_1_cdc.c ****             {
 300:.\Generated_Source\PSoC5/USBUART_1_cdc.c ****                 bufIndex += sendLength;
 477              		.loc 1 300 0 is_stmt 1
 478 00da BA89     		ldrh	r2, [r7, #12]	@ movhi
 479 00dc 7B89     		ldrh	r3, [r7, #10]	@ movhi
 480 00de D318     		adds	r3, r2, r3
 481 00e0 BB81     		strh	r3, [r7, #12]	@ movhi
 301:.\Generated_Source\PSoC5/USBUART_1_cdc.c ****                 /* Wait for the Host to read it. */
 302:.\Generated_Source\PSoC5/USBUART_1_cdc.c ****                 while(USBUART_1_EP[USBUART_1_cdc_data_in_ep].apiEpState ==
 482              		.loc 1 302 0
 483 00e2 00BF     		nop
 484              	.L26:
 485              		.loc 1 302 0 is_stmt 0 discriminator 1
 486 00e4 40F20003 		movw	r3, #:lower16:USBUART_1_cdc_data_in_ep
 487 00e8 C0F20003 		movt	r3, #:upper16:USBUART_1_cdc_data_in_ep
 488 00ec 1B78     		ldrb	r3, [r3, #0]
 489 00ee DBB2     		uxtb	r3, r3
 490 00f0 1946     		mov	r1, r3
 491 00f2 40F20002 		movw	r2, #:lower16:USBUART_1_EP
 492 00f6 C0F20002 		movt	r2, #:upper16:USBUART_1_EP
ARM GAS  C:\Users\Robert\AppData\Local\Temp\ccNv74yg.s 			page 15


 493 00fa 0B46     		mov	r3, r1
 494 00fc 4FEA4303 		lsl	r3, r3, #1
 495 0100 5B18     		adds	r3, r3, r1
 496 0102 4FEA8303 		lsl	r3, r3, #2
 497 0106 D318     		adds	r3, r2, r3
 498 0108 5B78     		ldrb	r3, [r3, #1]
 499 010a DBB2     		uxtb	r3, r3
 500 010c 002B     		cmp	r3, #0
 501 010e E9D0     		beq	.L26
 303:.\Generated_Source\PSoC5/USBUART_1_cdc.c ****                                           USBUART_1_IN_BUFFER_FULL)
 304:.\Generated_Source\PSoC5/USBUART_1_cdc.c ****                 {
 305:.\Generated_Source\PSoC5/USBUART_1_cdc.c ****                     ;
 306:.\Generated_Source\PSoC5/USBUART_1_cdc.c ****                 }
 307:.\Generated_Source\PSoC5/USBUART_1_cdc.c ****                 /* If the last sent packet is exactly maximum packet size, 
 308:.\Generated_Source\PSoC5/USBUART_1_cdc.c ****                 *  it shall be followed by a zero-length packet to assure the
 309:.\Generated_Source\PSoC5/USBUART_1_cdc.c ****                 *  end of segment is properly identified by the terminal.
 310:.\Generated_Source\PSoC5/USBUART_1_cdc.c ****                 */
 311:.\Generated_Source\PSoC5/USBUART_1_cdc.c ****                 if(strLength == 0u)
 502              		.loc 1 311 0 is_stmt 1
 503 0110 FB89     		ldrh	r3, [r7, #14]
 504 0112 002B     		cmp	r3, #0
 505 0114 0CD1     		bne	.L25
 312:.\Generated_Source\PSoC5/USBUART_1_cdc.c ****                 {
 313:.\Generated_Source\PSoC5/USBUART_1_cdc.c ****                     USBUART_1_LoadInEP(USBUART_1_cdc_data_in_ep, NULL, 0u);
 506              		.loc 1 313 0
 507 0116 40F20003 		movw	r3, #:lower16:USBUART_1_cdc_data_in_ep
 508 011a C0F20003 		movt	r3, #:upper16:USBUART_1_cdc_data_in_ep
 509 011e 1B78     		ldrb	r3, [r3, #0]
 510 0120 DBB2     		uxtb	r3, r3
 511 0122 1846     		mov	r0, r3
 512 0124 4FF00001 		mov	r1, #0
 513 0128 4FF00002 		mov	r2, #0
 514 012c FFF7FEFF 		bl	USBUART_1_LoadInEP
 515              	.L25:
 314:.\Generated_Source\PSoC5/USBUART_1_cdc.c ****                 }
 315:.\Generated_Source\PSoC5/USBUART_1_cdc.c ****             }
 316:.\Generated_Source\PSoC5/USBUART_1_cdc.c ****         }while(strLength > 0u);
 516              		.loc 1 316 0
 517 0130 FB89     		ldrh	r3, [r7, #14]
 518 0132 002B     		cmp	r3, #0
 519 0134 7FF470AF 		bne	.L27
 317:.\Generated_Source\PSoC5/USBUART_1_cdc.c ****     }
 520              		.loc 1 317 0
 521 0138 07F11007 		add	r7, r7, #16
 522 013c BD46     		mov	sp, r7
 523 013e 80BD     		pop	{r7, pc}
 524              		.cfi_endproc
 525              	.LFE4:
 526              		.size	USBUART_1_PutString, .-USBUART_1_PutString
 527              		.section	.text.USBUART_1_PutChar,"ax",%progbits
 528              		.align	2
 529              		.global	USBUART_1_PutChar
 530              		.thumb
 531              		.thumb_func
 532              		.type	USBUART_1_PutChar, %function
 533              	USBUART_1_PutChar:
 534              	.LFB5:
ARM GAS  C:\Users\Robert\AppData\Local\Temp\ccNv74yg.s 			page 16


 318:.\Generated_Source\PSoC5/USBUART_1_cdc.c **** 
 319:.\Generated_Source\PSoC5/USBUART_1_cdc.c **** 
 320:.\Generated_Source\PSoC5/USBUART_1_cdc.c ****     /*******************************************************************************
 321:.\Generated_Source\PSoC5/USBUART_1_cdc.c ****     * Function Name: USBUART_1_PutChar
 322:.\Generated_Source\PSoC5/USBUART_1_cdc.c ****     ********************************************************************************
 323:.\Generated_Source\PSoC5/USBUART_1_cdc.c ****     *
 324:.\Generated_Source\PSoC5/USBUART_1_cdc.c ****     * Summary:
 325:.\Generated_Source\PSoC5/USBUART_1_cdc.c ****     *  Writes a single character to the PC.
 326:.\Generated_Source\PSoC5/USBUART_1_cdc.c ****     *
 327:.\Generated_Source\PSoC5/USBUART_1_cdc.c ****     * Parameters:
 328:.\Generated_Source\PSoC5/USBUART_1_cdc.c ****     *  txDataByte: Character to be sent to the PC.
 329:.\Generated_Source\PSoC5/USBUART_1_cdc.c ****     *
 330:.\Generated_Source\PSoC5/USBUART_1_cdc.c ****     * Return:
 331:.\Generated_Source\PSoC5/USBUART_1_cdc.c ****     *  None.
 332:.\Generated_Source\PSoC5/USBUART_1_cdc.c ****     *
 333:.\Generated_Source\PSoC5/USBUART_1_cdc.c ****     * Global variables:
 334:.\Generated_Source\PSoC5/USBUART_1_cdc.c ****     *   USBUART_1_cdc_data_in_ep: CDC IN endpoint number used for sending
 335:.\Generated_Source\PSoC5/USBUART_1_cdc.c ****     *     data.
 336:.\Generated_Source\PSoC5/USBUART_1_cdc.c ****     *
 337:.\Generated_Source\PSoC5/USBUART_1_cdc.c ****     * Reentrant:
 338:.\Generated_Source\PSoC5/USBUART_1_cdc.c ****     *  No.
 339:.\Generated_Source\PSoC5/USBUART_1_cdc.c ****     *
 340:.\Generated_Source\PSoC5/USBUART_1_cdc.c ****     *******************************************************************************/
 341:.\Generated_Source\PSoC5/USBUART_1_cdc.c ****     void USBUART_1_PutChar(char8 txDataByte) 
 342:.\Generated_Source\PSoC5/USBUART_1_cdc.c ****     {
 535              		.loc 1 342 0
 536              		.cfi_startproc
 537              		@ args = 0, pretend = 0, frame = 16
 538              		@ frame_needed = 1, uses_anonymous_args = 0
 539 0000 80B5     		push	{r7, lr}
 540              	.LCFI14:
 541              		.cfi_def_cfa_offset 8
 542              		.cfi_offset 7, -8
 543              		.cfi_offset 14, -4
 544 0002 84B0     		sub	sp, sp, #16
 545              	.LCFI15:
 546              		.cfi_def_cfa_offset 24
 547 0004 00AF     		add	r7, sp, #0
 548              	.LCFI16:
 549              		.cfi_def_cfa_register 7
 550 0006 0346     		mov	r3, r0
 551 0008 FB71     		strb	r3, [r7, #7]
 343:.\Generated_Source\PSoC5/USBUART_1_cdc.c ****         uint8 dataByte;
 344:.\Generated_Source\PSoC5/USBUART_1_cdc.c ****         dataByte = (uint8)txDataByte;
 552              		.loc 1 344 0
 553 000a FB79     		ldrb	r3, [r7, #7]
 554 000c FB73     		strb	r3, [r7, #15]
 345:.\Generated_Source\PSoC5/USBUART_1_cdc.c **** 
 346:.\Generated_Source\PSoC5/USBUART_1_cdc.c ****         USBUART_1_LoadInEP(USBUART_1_cdc_data_in_ep, &dataByte, 1u);
 555              		.loc 1 346 0
 556 000e 40F20003 		movw	r3, #:lower16:USBUART_1_cdc_data_in_ep
 557 0012 C0F20003 		movt	r3, #:upper16:USBUART_1_cdc_data_in_ep
 558 0016 1B78     		ldrb	r3, [r3, #0]
 559 0018 DAB2     		uxtb	r2, r3
 560 001a 07F10F03 		add	r3, r7, #15
 561 001e 1046     		mov	r0, r2
 562 0020 1946     		mov	r1, r3
ARM GAS  C:\Users\Robert\AppData\Local\Temp\ccNv74yg.s 			page 17


 563 0022 4FF00102 		mov	r2, #1
 564 0026 FFF7FEFF 		bl	USBUART_1_LoadInEP
 347:.\Generated_Source\PSoC5/USBUART_1_cdc.c ****     }
 565              		.loc 1 347 0
 566 002a 07F11007 		add	r7, r7, #16
 567 002e BD46     		mov	sp, r7
 568 0030 80BD     		pop	{r7, pc}
 569              		.cfi_endproc
 570              	.LFE5:
 571              		.size	USBUART_1_PutChar, .-USBUART_1_PutChar
 572 0032 00BF     		.section	.rodata
 573              		.align	2
 574              	.LC0:
 575 0000 0D       		.byte	13
 576 0001 0A       		.byte	10
 577 0002 0000     		.section	.text.USBUART_1_PutCRLF,"ax",%progbits
 578              		.align	2
 579              		.global	USBUART_1_PutCRLF
 580              		.thumb
 581              		.thumb_func
 582              		.type	USBUART_1_PutCRLF, %function
 583              	USBUART_1_PutCRLF:
 584              	.LFB6:
 348:.\Generated_Source\PSoC5/USBUART_1_cdc.c **** 
 349:.\Generated_Source\PSoC5/USBUART_1_cdc.c **** 
 350:.\Generated_Source\PSoC5/USBUART_1_cdc.c ****     /*******************************************************************************
 351:.\Generated_Source\PSoC5/USBUART_1_cdc.c ****     * Function Name: USBUART_1_PutCRLF
 352:.\Generated_Source\PSoC5/USBUART_1_cdc.c ****     ********************************************************************************
 353:.\Generated_Source\PSoC5/USBUART_1_cdc.c ****     *
 354:.\Generated_Source\PSoC5/USBUART_1_cdc.c ****     * Summary:
 355:.\Generated_Source\PSoC5/USBUART_1_cdc.c ****     *  Sends a carriage return (0x0D) and line feed (0x0A) to the PC
 356:.\Generated_Source\PSoC5/USBUART_1_cdc.c ****     *
 357:.\Generated_Source\PSoC5/USBUART_1_cdc.c ****     * Parameters:
 358:.\Generated_Source\PSoC5/USBUART_1_cdc.c ****     *  None.
 359:.\Generated_Source\PSoC5/USBUART_1_cdc.c ****     *
 360:.\Generated_Source\PSoC5/USBUART_1_cdc.c ****     * Return:
 361:.\Generated_Source\PSoC5/USBUART_1_cdc.c ****     *  None.
 362:.\Generated_Source\PSoC5/USBUART_1_cdc.c ****     *
 363:.\Generated_Source\PSoC5/USBUART_1_cdc.c ****     * Global variables:
 364:.\Generated_Source\PSoC5/USBUART_1_cdc.c ****     *   USBUART_1_cdc_data_in_ep: CDC IN endpoint number used for sending
 365:.\Generated_Source\PSoC5/USBUART_1_cdc.c ****     *     data.
 366:.\Generated_Source\PSoC5/USBUART_1_cdc.c ****     *
 367:.\Generated_Source\PSoC5/USBUART_1_cdc.c ****     * Reentrant:
 368:.\Generated_Source\PSoC5/USBUART_1_cdc.c ****     *  No.
 369:.\Generated_Source\PSoC5/USBUART_1_cdc.c ****     *
 370:.\Generated_Source\PSoC5/USBUART_1_cdc.c ****     *******************************************************************************/
 371:.\Generated_Source\PSoC5/USBUART_1_cdc.c ****     void USBUART_1_PutCRLF(void) 
 372:.\Generated_Source\PSoC5/USBUART_1_cdc.c ****     {
 585              		.loc 1 372 0
 586              		.cfi_startproc
 587              		@ args = 0, pretend = 0, frame = 8
 588              		@ frame_needed = 1, uses_anonymous_args = 0
 589 0000 80B5     		push	{r7, lr}
 590              	.LCFI17:
 591              		.cfi_def_cfa_offset 8
 592              		.cfi_offset 7, -8
 593              		.cfi_offset 14, -4
ARM GAS  C:\Users\Robert\AppData\Local\Temp\ccNv74yg.s 			page 18


 594 0002 82B0     		sub	sp, sp, #8
 595              	.LCFI18:
 596              		.cfi_def_cfa_offset 16
 597 0004 00AF     		add	r7, sp, #0
 598              	.LCFI19:
 599              		.cfi_def_cfa_register 7
 373:.\Generated_Source\PSoC5/USBUART_1_cdc.c ****         const uint8 CYCODE txData[] = {0x0Du, 0x0Au};
 600              		.loc 1 373 0
 601 0006 40F20003 		movw	r3, #:lower16:.LC0
 602 000a C0F20003 		movt	r3, #:upper16:.LC0
 603 000e 07F10402 		add	r2, r7, #4
 604 0012 1B88     		ldrh	r3, [r3, #0]	@ unaligned
 605 0014 1380     		strh	r3, [r2, #0]	@ unaligned
 374:.\Generated_Source\PSoC5/USBUART_1_cdc.c **** 
 375:.\Generated_Source\PSoC5/USBUART_1_cdc.c ****         USBUART_1_LoadInEP(USBUART_1_cdc_data_in_ep, (const uint8 *)txData, 2u);
 606              		.loc 1 375 0
 607 0016 40F20003 		movw	r3, #:lower16:USBUART_1_cdc_data_in_ep
 608 001a C0F20003 		movt	r3, #:upper16:USBUART_1_cdc_data_in_ep
 609 001e 1B78     		ldrb	r3, [r3, #0]
 610 0020 DAB2     		uxtb	r2, r3
 611 0022 07F10403 		add	r3, r7, #4
 612 0026 1046     		mov	r0, r2
 613 0028 1946     		mov	r1, r3
 614 002a 4FF00202 		mov	r2, #2
 615 002e FFF7FEFF 		bl	USBUART_1_LoadInEP
 376:.\Generated_Source\PSoC5/USBUART_1_cdc.c ****     }
 616              		.loc 1 376 0
 617 0032 07F10807 		add	r7, r7, #8
 618 0036 BD46     		mov	sp, r7
 619 0038 80BD     		pop	{r7, pc}
 620              		.cfi_endproc
 621              	.LFE6:
 622              		.size	USBUART_1_PutCRLF, .-USBUART_1_PutCRLF
 623 003a 00BF     		.section	.text.USBUART_1_GetCount,"ax",%progbits
 624              		.align	2
 625              		.global	USBUART_1_GetCount
 626              		.thumb
 627              		.thumb_func
 628              		.type	USBUART_1_GetCount, %function
 629              	USBUART_1_GetCount:
 630              	.LFB7:
 377:.\Generated_Source\PSoC5/USBUART_1_cdc.c **** 
 378:.\Generated_Source\PSoC5/USBUART_1_cdc.c **** 
 379:.\Generated_Source\PSoC5/USBUART_1_cdc.c ****     /*******************************************************************************
 380:.\Generated_Source\PSoC5/USBUART_1_cdc.c ****     * Function Name: USBUART_1_GetCount
 381:.\Generated_Source\PSoC5/USBUART_1_cdc.c ****     ********************************************************************************
 382:.\Generated_Source\PSoC5/USBUART_1_cdc.c ****     *
 383:.\Generated_Source\PSoC5/USBUART_1_cdc.c ****     * Summary:
 384:.\Generated_Source\PSoC5/USBUART_1_cdc.c ****     *  This function returns the number of bytes that were received from the PC.
 385:.\Generated_Source\PSoC5/USBUART_1_cdc.c ****     *  The returned length value should be passed to USBUART_1_GetData() as
 386:.\Generated_Source\PSoC5/USBUART_1_cdc.c ****     *  a parameter to read all received data. If all of the received data is not
 387:.\Generated_Source\PSoC5/USBUART_1_cdc.c ****     *  read at one time by the USBUART_1_GetData() API, the unread data will
 388:.\Generated_Source\PSoC5/USBUART_1_cdc.c ****     *  be lost.
 389:.\Generated_Source\PSoC5/USBUART_1_cdc.c ****     *
 390:.\Generated_Source\PSoC5/USBUART_1_cdc.c ****     * Parameters:
 391:.\Generated_Source\PSoC5/USBUART_1_cdc.c ****     *  None.
 392:.\Generated_Source\PSoC5/USBUART_1_cdc.c ****     *
ARM GAS  C:\Users\Robert\AppData\Local\Temp\ccNv74yg.s 			page 19


 393:.\Generated_Source\PSoC5/USBUART_1_cdc.c ****     * Return:
 394:.\Generated_Source\PSoC5/USBUART_1_cdc.c ****     *  Returns the number of received bytes. The maximum amount of received data at
 395:.\Generated_Source\PSoC5/USBUART_1_cdc.c ****     *  a time is limited by the maximum packet size for the endpoint.
 396:.\Generated_Source\PSoC5/USBUART_1_cdc.c ****     *
 397:.\Generated_Source\PSoC5/USBUART_1_cdc.c ****     * Global variables:
 398:.\Generated_Source\PSoC5/USBUART_1_cdc.c ****     *   USBUART_1_cdc_data_out_ep: CDC OUT endpoint number used.
 399:.\Generated_Source\PSoC5/USBUART_1_cdc.c ****     *
 400:.\Generated_Source\PSoC5/USBUART_1_cdc.c ****     *******************************************************************************/
 401:.\Generated_Source\PSoC5/USBUART_1_cdc.c ****     uint16 USBUART_1_GetCount(void) 
 402:.\Generated_Source\PSoC5/USBUART_1_cdc.c ****     {
 631              		.loc 1 402 0
 632              		.cfi_startproc
 633              		@ args = 0, pretend = 0, frame = 8
 634              		@ frame_needed = 1, uses_anonymous_args = 0
 635 0000 80B5     		push	{r7, lr}
 636              	.LCFI20:
 637              		.cfi_def_cfa_offset 8
 638              		.cfi_offset 7, -8
 639              		.cfi_offset 14, -4
 640 0002 82B0     		sub	sp, sp, #8
 641              	.LCFI21:
 642              		.cfi_def_cfa_offset 16
 643 0004 00AF     		add	r7, sp, #0
 644              	.LCFI22:
 645              		.cfi_def_cfa_register 7
 403:.\Generated_Source\PSoC5/USBUART_1_cdc.c ****         uint16 bytesCount;
 404:.\Generated_Source\PSoC5/USBUART_1_cdc.c **** 
 405:.\Generated_Source\PSoC5/USBUART_1_cdc.c ****         if (USBUART_1_EP[USBUART_1_cdc_data_out_ep].apiEpState == USBUART_1_OUT_BUFFER_FULL)
 646              		.loc 1 405 0
 647 0006 40F20003 		movw	r3, #:lower16:USBUART_1_cdc_data_out_ep
 648 000a C0F20003 		movt	r3, #:upper16:USBUART_1_cdc_data_out_ep
 649 000e 1B78     		ldrb	r3, [r3, #0]
 650 0010 DBB2     		uxtb	r3, r3
 651 0012 1946     		mov	r1, r3
 652 0014 40F20002 		movw	r2, #:lower16:USBUART_1_EP
 653 0018 C0F20002 		movt	r2, #:upper16:USBUART_1_EP
 654 001c 0B46     		mov	r3, r1
 655 001e 4FEA4303 		lsl	r3, r3, #1
 656 0022 5B18     		adds	r3, r3, r1
 657 0024 4FEA8303 		lsl	r3, r3, #2
 658 0028 D318     		adds	r3, r2, r3
 659 002a 5B78     		ldrb	r3, [r3, #1]
 660 002c DBB2     		uxtb	r3, r3
 661 002e 012B     		cmp	r3, #1
 662 0030 0BD1     		bne	.L31
 406:.\Generated_Source\PSoC5/USBUART_1_cdc.c ****         {
 407:.\Generated_Source\PSoC5/USBUART_1_cdc.c ****             bytesCount = USBUART_1_GetEPCount(USBUART_1_cdc_data_out_ep);
 663              		.loc 1 407 0
 664 0032 40F20003 		movw	r3, #:lower16:USBUART_1_cdc_data_out_ep
 665 0036 C0F20003 		movt	r3, #:upper16:USBUART_1_cdc_data_out_ep
 666 003a 1B78     		ldrb	r3, [r3, #0]
 667 003c DBB2     		uxtb	r3, r3
 668 003e 1846     		mov	r0, r3
 669 0040 FFF7FEFF 		bl	USBUART_1_GetEPCount
 670 0044 0346     		mov	r3, r0
 671 0046 FB80     		strh	r3, [r7, #6]	@ movhi
 672 0048 02E0     		b	.L32
ARM GAS  C:\Users\Robert\AppData\Local\Temp\ccNv74yg.s 			page 20


 673              	.L31:
 408:.\Generated_Source\PSoC5/USBUART_1_cdc.c ****         }
 409:.\Generated_Source\PSoC5/USBUART_1_cdc.c ****         else
 410:.\Generated_Source\PSoC5/USBUART_1_cdc.c ****         {
 411:.\Generated_Source\PSoC5/USBUART_1_cdc.c ****             bytesCount = 0u;
 674              		.loc 1 411 0
 675 004a 4FF00003 		mov	r3, #0
 676 004e FB80     		strh	r3, [r7, #6]	@ movhi
 677              	.L32:
 412:.\Generated_Source\PSoC5/USBUART_1_cdc.c ****         }
 413:.\Generated_Source\PSoC5/USBUART_1_cdc.c **** 
 414:.\Generated_Source\PSoC5/USBUART_1_cdc.c ****         return(bytesCount);
 678              		.loc 1 414 0
 679 0050 FB88     		ldrh	r3, [r7, #6]
 415:.\Generated_Source\PSoC5/USBUART_1_cdc.c ****     }
 680              		.loc 1 415 0
 681 0052 1846     		mov	r0, r3
 682 0054 07F10807 		add	r7, r7, #8
 683 0058 BD46     		mov	sp, r7
 684 005a 80BD     		pop	{r7, pc}
 685              		.cfi_endproc
 686              	.LFE7:
 687              		.size	USBUART_1_GetCount, .-USBUART_1_GetCount
 688              		.section	.text.USBUART_1_DataIsReady,"ax",%progbits
 689              		.align	2
 690              		.global	USBUART_1_DataIsReady
 691              		.thumb
 692              		.thumb_func
 693              		.type	USBUART_1_DataIsReady, %function
 694              	USBUART_1_DataIsReady:
 695              	.LFB8:
 416:.\Generated_Source\PSoC5/USBUART_1_cdc.c **** 
 417:.\Generated_Source\PSoC5/USBUART_1_cdc.c **** 
 418:.\Generated_Source\PSoC5/USBUART_1_cdc.c ****     /*******************************************************************************
 419:.\Generated_Source\PSoC5/USBUART_1_cdc.c ****     * Function Name: USBUART_1_DataIsReady
 420:.\Generated_Source\PSoC5/USBUART_1_cdc.c ****     ********************************************************************************
 421:.\Generated_Source\PSoC5/USBUART_1_cdc.c ****     *
 422:.\Generated_Source\PSoC5/USBUART_1_cdc.c ****     * Summary:
 423:.\Generated_Source\PSoC5/USBUART_1_cdc.c ****     *  Returns a nonzero value if the component received data or received
 424:.\Generated_Source\PSoC5/USBUART_1_cdc.c ****     *  zero-length packet. The USBUART_1_GetAll() or
 425:.\Generated_Source\PSoC5/USBUART_1_cdc.c ****     *  USBUART_1_GetData() API should be called to read data from the buffer
 426:.\Generated_Source\PSoC5/USBUART_1_cdc.c ****     *  and re-init OUT endpoint even when zero-length packet received.
 427:.\Generated_Source\PSoC5/USBUART_1_cdc.c ****     *
 428:.\Generated_Source\PSoC5/USBUART_1_cdc.c ****     * Parameters:
 429:.\Generated_Source\PSoC5/USBUART_1_cdc.c ****     *  None.
 430:.\Generated_Source\PSoC5/USBUART_1_cdc.c ****     *
 431:.\Generated_Source\PSoC5/USBUART_1_cdc.c ****     * Return:
 432:.\Generated_Source\PSoC5/USBUART_1_cdc.c ****     *  If the OUT packet received this function returns a nonzero value.
 433:.\Generated_Source\PSoC5/USBUART_1_cdc.c ****     *  Otherwise zero is returned.
 434:.\Generated_Source\PSoC5/USBUART_1_cdc.c ****     *
 435:.\Generated_Source\PSoC5/USBUART_1_cdc.c ****     * Global variables:
 436:.\Generated_Source\PSoC5/USBUART_1_cdc.c ****     *   USBUART_1_cdc_data_out_ep: CDC OUT endpoint number used.
 437:.\Generated_Source\PSoC5/USBUART_1_cdc.c ****     *
 438:.\Generated_Source\PSoC5/USBUART_1_cdc.c ****     *******************************************************************************/
 439:.\Generated_Source\PSoC5/USBUART_1_cdc.c ****     uint8 USBUART_1_DataIsReady(void) 
 440:.\Generated_Source\PSoC5/USBUART_1_cdc.c ****     {
 696              		.loc 1 440 0
ARM GAS  C:\Users\Robert\AppData\Local\Temp\ccNv74yg.s 			page 21


 697              		.cfi_startproc
 698              		@ args = 0, pretend = 0, frame = 0
 699              		@ frame_needed = 1, uses_anonymous_args = 0
 700              		@ link register save eliminated.
 701 0000 80B4     		push	{r7}
 702              	.LCFI23:
 703              		.cfi_def_cfa_offset 4
 704              		.cfi_offset 7, -4
 705 0002 00AF     		add	r7, sp, #0
 706              	.LCFI24:
 707              		.cfi_def_cfa_register 7
 441:.\Generated_Source\PSoC5/USBUART_1_cdc.c ****         return(USBUART_1_EP[USBUART_1_cdc_data_out_ep].apiEpState);
 708              		.loc 1 441 0
 709 0004 40F20003 		movw	r3, #:lower16:USBUART_1_cdc_data_out_ep
 710 0008 C0F20003 		movt	r3, #:upper16:USBUART_1_cdc_data_out_ep
 711 000c 1B78     		ldrb	r3, [r3, #0]
 712 000e DBB2     		uxtb	r3, r3
 713 0010 1946     		mov	r1, r3
 714 0012 40F20002 		movw	r2, #:lower16:USBUART_1_EP
 715 0016 C0F20002 		movt	r2, #:upper16:USBUART_1_EP
 716 001a 0B46     		mov	r3, r1
 717 001c 4FEA4303 		lsl	r3, r3, #1
 718 0020 5B18     		adds	r3, r3, r1
 719 0022 4FEA8303 		lsl	r3, r3, #2
 720 0026 D318     		adds	r3, r2, r3
 721 0028 5B78     		ldrb	r3, [r3, #1]
 722 002a DBB2     		uxtb	r3, r3
 442:.\Generated_Source\PSoC5/USBUART_1_cdc.c ****     }
 723              		.loc 1 442 0
 724 002c 1846     		mov	r0, r3
 725 002e BD46     		mov	sp, r7
 726 0030 80BC     		pop	{r7}
 727 0032 7047     		bx	lr
 728              		.cfi_endproc
 729              	.LFE8:
 730              		.size	USBUART_1_DataIsReady, .-USBUART_1_DataIsReady
 731              		.section	.text.USBUART_1_CDCIsReady,"ax",%progbits
 732              		.align	2
 733              		.global	USBUART_1_CDCIsReady
 734              		.thumb
 735              		.thumb_func
 736              		.type	USBUART_1_CDCIsReady, %function
 737              	USBUART_1_CDCIsReady:
 738              	.LFB9:
 443:.\Generated_Source\PSoC5/USBUART_1_cdc.c **** 
 444:.\Generated_Source\PSoC5/USBUART_1_cdc.c **** 
 445:.\Generated_Source\PSoC5/USBUART_1_cdc.c ****     /*******************************************************************************
 446:.\Generated_Source\PSoC5/USBUART_1_cdc.c ****     * Function Name: USBUART_1_CDCIsReady
 447:.\Generated_Source\PSoC5/USBUART_1_cdc.c ****     ********************************************************************************
 448:.\Generated_Source\PSoC5/USBUART_1_cdc.c ****     *
 449:.\Generated_Source\PSoC5/USBUART_1_cdc.c ****     * Summary:
 450:.\Generated_Source\PSoC5/USBUART_1_cdc.c ****     *  This function returns a nonzero value if the component is ready to send more
 451:.\Generated_Source\PSoC5/USBUART_1_cdc.c ****     *  data to the PC; otherwise, it returns zero. The function should be called
 452:.\Generated_Source\PSoC5/USBUART_1_cdc.c ****     *  before sending new data when using any of the following APIs:
 453:.\Generated_Source\PSoC5/USBUART_1_cdc.c ****     *  USBUART_1_PutData(),USBUART_1_PutString(),
 454:.\Generated_Source\PSoC5/USBUART_1_cdc.c ****     *  USBUART_1_PutChar or USBUART_1_PutCRLF(),
 455:.\Generated_Source\PSoC5/USBUART_1_cdc.c ****     *  to be sure that the previous data has finished sending.
ARM GAS  C:\Users\Robert\AppData\Local\Temp\ccNv74yg.s 			page 22


 456:.\Generated_Source\PSoC5/USBUART_1_cdc.c ****     *
 457:.\Generated_Source\PSoC5/USBUART_1_cdc.c ****     * Parameters:
 458:.\Generated_Source\PSoC5/USBUART_1_cdc.c ****     *  None.
 459:.\Generated_Source\PSoC5/USBUART_1_cdc.c ****     *
 460:.\Generated_Source\PSoC5/USBUART_1_cdc.c ****     * Return:
 461:.\Generated_Source\PSoC5/USBUART_1_cdc.c ****     *  If the buffer can accept new data, this function returns a nonzero value.
 462:.\Generated_Source\PSoC5/USBUART_1_cdc.c ****     *  Otherwise, it returns zero.
 463:.\Generated_Source\PSoC5/USBUART_1_cdc.c ****     *
 464:.\Generated_Source\PSoC5/USBUART_1_cdc.c ****     * Global variables:
 465:.\Generated_Source\PSoC5/USBUART_1_cdc.c ****     *   USBUART_1_cdc_data_in_ep: CDC IN endpoint number used.
 466:.\Generated_Source\PSoC5/USBUART_1_cdc.c ****     *
 467:.\Generated_Source\PSoC5/USBUART_1_cdc.c ****     *******************************************************************************/
 468:.\Generated_Source\PSoC5/USBUART_1_cdc.c ****     uint8 USBUART_1_CDCIsReady(void) 
 469:.\Generated_Source\PSoC5/USBUART_1_cdc.c ****     {
 739              		.loc 1 469 0
 740              		.cfi_startproc
 741              		@ args = 0, pretend = 0, frame = 0
 742              		@ frame_needed = 1, uses_anonymous_args = 0
 743              		@ link register save eliminated.
 744 0000 80B4     		push	{r7}
 745              	.LCFI25:
 746              		.cfi_def_cfa_offset 4
 747              		.cfi_offset 7, -4
 748 0002 00AF     		add	r7, sp, #0
 749              	.LCFI26:
 750              		.cfi_def_cfa_register 7
 470:.\Generated_Source\PSoC5/USBUART_1_cdc.c ****         return(USBUART_1_EP[USBUART_1_cdc_data_in_ep].apiEpState);
 751              		.loc 1 470 0
 752 0004 40F20003 		movw	r3, #:lower16:USBUART_1_cdc_data_in_ep
 753 0008 C0F20003 		movt	r3, #:upper16:USBUART_1_cdc_data_in_ep
 754 000c 1B78     		ldrb	r3, [r3, #0]
 755 000e DBB2     		uxtb	r3, r3
 756 0010 1946     		mov	r1, r3
 757 0012 40F20002 		movw	r2, #:lower16:USBUART_1_EP
 758 0016 C0F20002 		movt	r2, #:upper16:USBUART_1_EP
 759 001a 0B46     		mov	r3, r1
 760 001c 4FEA4303 		lsl	r3, r3, #1
 761 0020 5B18     		adds	r3, r3, r1
 762 0022 4FEA8303 		lsl	r3, r3, #2
 763 0026 D318     		adds	r3, r2, r3
 764 0028 5B78     		ldrb	r3, [r3, #1]
 765 002a DBB2     		uxtb	r3, r3
 471:.\Generated_Source\PSoC5/USBUART_1_cdc.c ****     }
 766              		.loc 1 471 0
 767 002c 1846     		mov	r0, r3
 768 002e BD46     		mov	sp, r7
 769 0030 80BC     		pop	{r7}
 770 0032 7047     		bx	lr
 771              		.cfi_endproc
 772              	.LFE9:
 773              		.size	USBUART_1_CDCIsReady, .-USBUART_1_CDCIsReady
 774              		.section	.text.USBUART_1_GetData,"ax",%progbits
 775              		.align	2
 776              		.global	USBUART_1_GetData
 777              		.thumb
 778              		.thumb_func
 779              		.type	USBUART_1_GetData, %function
ARM GAS  C:\Users\Robert\AppData\Local\Temp\ccNv74yg.s 			page 23


 780              	USBUART_1_GetData:
 781              	.LFB10:
 472:.\Generated_Source\PSoC5/USBUART_1_cdc.c **** 
 473:.\Generated_Source\PSoC5/USBUART_1_cdc.c **** 
 474:.\Generated_Source\PSoC5/USBUART_1_cdc.c ****     /*******************************************************************************
 475:.\Generated_Source\PSoC5/USBUART_1_cdc.c ****     * Function Name: USBUART_1_GetData
 476:.\Generated_Source\PSoC5/USBUART_1_cdc.c ****     ********************************************************************************
 477:.\Generated_Source\PSoC5/USBUART_1_cdc.c ****     *
 478:.\Generated_Source\PSoC5/USBUART_1_cdc.c ****     * Summary:
 479:.\Generated_Source\PSoC5/USBUART_1_cdc.c ****     *  This function gets a specified number of bytes from the input buffer and
 480:.\Generated_Source\PSoC5/USBUART_1_cdc.c ****     *  places them in a data array specified by the passed pointer.
 481:.\Generated_Source\PSoC5/USBUART_1_cdc.c ****     *  The USBUART_1_DataIsReady() API should be called first, to be sure
 482:.\Generated_Source\PSoC5/USBUART_1_cdc.c ****     *  that data is received from the host. If all received data will not be read at
 483:.\Generated_Source\PSoC5/USBUART_1_cdc.c ****     *  once, the unread data will be lost. The USBUART_1_GetData() API should
 484:.\Generated_Source\PSoC5/USBUART_1_cdc.c ****     *  be called to get the number of bytes that were received.
 485:.\Generated_Source\PSoC5/USBUART_1_cdc.c ****     *
 486:.\Generated_Source\PSoC5/USBUART_1_cdc.c ****     * Parameters:
 487:.\Generated_Source\PSoC5/USBUART_1_cdc.c ****     *  pData: Pointer to the data array where data will be placed.
 488:.\Generated_Source\PSoC5/USBUART_1_cdc.c ****     *  Length: Number of bytes to read into the data array from the RX buffer.
 489:.\Generated_Source\PSoC5/USBUART_1_cdc.c ****     *          Maximum length is limited by the the number of received bytes.
 490:.\Generated_Source\PSoC5/USBUART_1_cdc.c ****     *
 491:.\Generated_Source\PSoC5/USBUART_1_cdc.c ****     * Return:
 492:.\Generated_Source\PSoC5/USBUART_1_cdc.c ****     *  Number of bytes received.
 493:.\Generated_Source\PSoC5/USBUART_1_cdc.c ****     *
 494:.\Generated_Source\PSoC5/USBUART_1_cdc.c ****     * Global variables:
 495:.\Generated_Source\PSoC5/USBUART_1_cdc.c ****     *   USBUART_1_cdc_data_out_ep: CDC OUT endpoint number used.
 496:.\Generated_Source\PSoC5/USBUART_1_cdc.c ****     *
 497:.\Generated_Source\PSoC5/USBUART_1_cdc.c ****     * Reentrant:
 498:.\Generated_Source\PSoC5/USBUART_1_cdc.c ****     *  No.
 499:.\Generated_Source\PSoC5/USBUART_1_cdc.c ****     *
 500:.\Generated_Source\PSoC5/USBUART_1_cdc.c ****     *******************************************************************************/
 501:.\Generated_Source\PSoC5/USBUART_1_cdc.c ****     uint16 USBUART_1_GetData(uint8* pData, uint16 length) 
 502:.\Generated_Source\PSoC5/USBUART_1_cdc.c ****     {
 782              		.loc 1 502 0
 783              		.cfi_startproc
 784              		@ args = 0, pretend = 0, frame = 8
 785              		@ frame_needed = 1, uses_anonymous_args = 0
 786 0000 80B5     		push	{r7, lr}
 787              	.LCFI27:
 788              		.cfi_def_cfa_offset 8
 789              		.cfi_offset 7, -8
 790              		.cfi_offset 14, -4
 791 0002 82B0     		sub	sp, sp, #8
 792              	.LCFI28:
 793              		.cfi_def_cfa_offset 16
 794 0004 00AF     		add	r7, sp, #0
 795              	.LCFI29:
 796              		.cfi_def_cfa_register 7
 797 0006 7860     		str	r0, [r7, #4]
 798 0008 0B46     		mov	r3, r1
 799 000a 7B80     		strh	r3, [r7, #2]	@ movhi
 503:.\Generated_Source\PSoC5/USBUART_1_cdc.c ****         return(USBUART_1_ReadOutEP(USBUART_1_cdc_data_out_ep, pData, length));
 800              		.loc 1 503 0
 801 000c 40F20003 		movw	r3, #:lower16:USBUART_1_cdc_data_out_ep
 802 0010 C0F20003 		movt	r3, #:upper16:USBUART_1_cdc_data_out_ep
 803 0014 1B78     		ldrb	r3, [r3, #0]
 804 0016 DAB2     		uxtb	r2, r3
ARM GAS  C:\Users\Robert\AppData\Local\Temp\ccNv74yg.s 			page 24


 805 0018 7B88     		ldrh	r3, [r7, #2]
 806 001a 1046     		mov	r0, r2
 807 001c 7968     		ldr	r1, [r7, #4]
 808 001e 1A46     		mov	r2, r3
 809 0020 FFF7FEFF 		bl	USBUART_1_ReadOutEP
 810 0024 0346     		mov	r3, r0
 504:.\Generated_Source\PSoC5/USBUART_1_cdc.c ****     }
 811              		.loc 1 504 0
 812 0026 1846     		mov	r0, r3
 813 0028 07F10807 		add	r7, r7, #8
 814 002c BD46     		mov	sp, r7
 815 002e 80BD     		pop	{r7, pc}
 816              		.cfi_endproc
 817              	.LFE10:
 818              		.size	USBUART_1_GetData, .-USBUART_1_GetData
 819              		.section	.text.USBUART_1_GetAll,"ax",%progbits
 820              		.align	2
 821              		.global	USBUART_1_GetAll
 822              		.thumb
 823              		.thumb_func
 824              		.type	USBUART_1_GetAll, %function
 825              	USBUART_1_GetAll:
 826              	.LFB11:
 505:.\Generated_Source\PSoC5/USBUART_1_cdc.c **** 
 506:.\Generated_Source\PSoC5/USBUART_1_cdc.c **** 
 507:.\Generated_Source\PSoC5/USBUART_1_cdc.c ****     /*******************************************************************************
 508:.\Generated_Source\PSoC5/USBUART_1_cdc.c ****     * Function Name: USBUART_1_GetAll
 509:.\Generated_Source\PSoC5/USBUART_1_cdc.c ****     ********************************************************************************
 510:.\Generated_Source\PSoC5/USBUART_1_cdc.c ****     *
 511:.\Generated_Source\PSoC5/USBUART_1_cdc.c ****     * Summary:
 512:.\Generated_Source\PSoC5/USBUART_1_cdc.c ****     *  Gets all bytes of received data from the input buffer and places it into a
 513:.\Generated_Source\PSoC5/USBUART_1_cdc.c ****     *  specified data array. USBUART_1_DataIsReady() API should be called
 514:.\Generated_Source\PSoC5/USBUART_1_cdc.c ****     *  before, to be sure that data is received from the Host.
 515:.\Generated_Source\PSoC5/USBUART_1_cdc.c ****     *
 516:.\Generated_Source\PSoC5/USBUART_1_cdc.c ****     * Parameters:
 517:.\Generated_Source\PSoC5/USBUART_1_cdc.c ****     *  pData: Pointer to the data array where data will be placed.
 518:.\Generated_Source\PSoC5/USBUART_1_cdc.c ****     *
 519:.\Generated_Source\PSoC5/USBUART_1_cdc.c ****     * Return:
 520:.\Generated_Source\PSoC5/USBUART_1_cdc.c ****     *  Number of bytes received.
 521:.\Generated_Source\PSoC5/USBUART_1_cdc.c ****     *
 522:.\Generated_Source\PSoC5/USBUART_1_cdc.c ****     * Global variables:
 523:.\Generated_Source\PSoC5/USBUART_1_cdc.c ****     *   USBUART_1_cdc_data_out_ep: CDC OUT endpoint number used.
 524:.\Generated_Source\PSoC5/USBUART_1_cdc.c ****     *   USBUART_1_EP[].bufferSize: EP max packet size is used as a length
 525:.\Generated_Source\PSoC5/USBUART_1_cdc.c ****     *     to read all data from the EP buffer.
 526:.\Generated_Source\PSoC5/USBUART_1_cdc.c ****     *
 527:.\Generated_Source\PSoC5/USBUART_1_cdc.c ****     * Reentrant:
 528:.\Generated_Source\PSoC5/USBUART_1_cdc.c ****     *  No.
 529:.\Generated_Source\PSoC5/USBUART_1_cdc.c ****     *
 530:.\Generated_Source\PSoC5/USBUART_1_cdc.c ****     *******************************************************************************/
 531:.\Generated_Source\PSoC5/USBUART_1_cdc.c ****     uint16 USBUART_1_GetAll(uint8* pData) 
 532:.\Generated_Source\PSoC5/USBUART_1_cdc.c ****     {
 827              		.loc 1 532 0
 828              		.cfi_startproc
 829              		@ args = 0, pretend = 0, frame = 8
 830              		@ frame_needed = 1, uses_anonymous_args = 0
 831 0000 80B5     		push	{r7, lr}
 832              	.LCFI30:
ARM GAS  C:\Users\Robert\AppData\Local\Temp\ccNv74yg.s 			page 25


 833              		.cfi_def_cfa_offset 8
 834              		.cfi_offset 7, -8
 835              		.cfi_offset 14, -4
 836 0002 82B0     		sub	sp, sp, #8
 837              	.LCFI31:
 838              		.cfi_def_cfa_offset 16
 839 0004 00AF     		add	r7, sp, #0
 840              	.LCFI32:
 841              		.cfi_def_cfa_register 7
 842 0006 7860     		str	r0, [r7, #4]
 533:.\Generated_Source\PSoC5/USBUART_1_cdc.c ****         return (USBUART_1_ReadOutEP(USBUART_1_cdc_data_out_ep, pData,
 843              		.loc 1 533 0
 844 0008 40F20003 		movw	r3, #:lower16:USBUART_1_cdc_data_out_ep
 845 000c C0F20003 		movt	r3, #:upper16:USBUART_1_cdc_data_out_ep
 846 0010 1B78     		ldrb	r3, [r3, #0]
 847 0012 D8B2     		uxtb	r0, r3
 848 0014 40F20003 		movw	r3, #:lower16:USBUART_1_cdc_data_out_ep
 849 0018 C0F20003 		movt	r3, #:upper16:USBUART_1_cdc_data_out_ep
 850 001c 1B78     		ldrb	r3, [r3, #0]
 851 001e DBB2     		uxtb	r3, r3
 852 0020 1946     		mov	r1, r3
 853 0022 40F20002 		movw	r2, #:lower16:USBUART_1_EP
 854 0026 C0F20002 		movt	r2, #:upper16:USBUART_1_EP
 855 002a 0B46     		mov	r3, r1
 856 002c 4FEA4303 		lsl	r3, r3, #1
 857 0030 5B18     		adds	r3, r3, r1
 858 0032 4FEA8303 		lsl	r3, r3, #2
 859 0036 D318     		adds	r3, r2, r3
 860 0038 03F10803 		add	r3, r3, #8
 861 003c 1B88     		ldrh	r3, [r3, #0]	@ movhi
 862 003e 9BB2     		uxth	r3, r3
 863 0040 7968     		ldr	r1, [r7, #4]
 864 0042 1A46     		mov	r2, r3
 865 0044 FFF7FEFF 		bl	USBUART_1_ReadOutEP
 866 0048 0346     		mov	r3, r0
 534:.\Generated_Source\PSoC5/USBUART_1_cdc.c ****                                            USBUART_1_EP[USBUART_1_cdc_data_out_ep].bufferSize));
 535:.\Generated_Source\PSoC5/USBUART_1_cdc.c ****     }
 867              		.loc 1 535 0
 868 004a 1846     		mov	r0, r3
 869 004c 07F10807 		add	r7, r7, #8
 870 0050 BD46     		mov	sp, r7
 871 0052 80BD     		pop	{r7, pc}
 872              		.cfi_endproc
 873              	.LFE11:
 874              		.size	USBUART_1_GetAll, .-USBUART_1_GetAll
 875              		.section	.text.USBUART_1_GetChar,"ax",%progbits
 876              		.align	2
 877              		.global	USBUART_1_GetChar
 878              		.thumb
 879              		.thumb_func
 880              		.type	USBUART_1_GetChar, %function
 881              	USBUART_1_GetChar:
 882              	.LFB12:
 536:.\Generated_Source\PSoC5/USBUART_1_cdc.c **** 
 537:.\Generated_Source\PSoC5/USBUART_1_cdc.c **** 
 538:.\Generated_Source\PSoC5/USBUART_1_cdc.c ****     /*******************************************************************************
 539:.\Generated_Source\PSoC5/USBUART_1_cdc.c ****     * Function Name: USBUART_1_GetChar
ARM GAS  C:\Users\Robert\AppData\Local\Temp\ccNv74yg.s 			page 26


 540:.\Generated_Source\PSoC5/USBUART_1_cdc.c ****     ********************************************************************************
 541:.\Generated_Source\PSoC5/USBUART_1_cdc.c ****     *
 542:.\Generated_Source\PSoC5/USBUART_1_cdc.c ****     * Summary:
 543:.\Generated_Source\PSoC5/USBUART_1_cdc.c ****     *  This function reads one byte of received data from the buffer. If more than
 544:.\Generated_Source\PSoC5/USBUART_1_cdc.c ****     *  one byte has been received from the host, the rest of the data will be lost.
 545:.\Generated_Source\PSoC5/USBUART_1_cdc.c ****     *
 546:.\Generated_Source\PSoC5/USBUART_1_cdc.c ****     * Parameters:
 547:.\Generated_Source\PSoC5/USBUART_1_cdc.c ****     *  None.
 548:.\Generated_Source\PSoC5/USBUART_1_cdc.c ****     *
 549:.\Generated_Source\PSoC5/USBUART_1_cdc.c ****     * Return:
 550:.\Generated_Source\PSoC5/USBUART_1_cdc.c ****     *  Received one character.
 551:.\Generated_Source\PSoC5/USBUART_1_cdc.c ****     *
 552:.\Generated_Source\PSoC5/USBUART_1_cdc.c ****     * Global variables:
 553:.\Generated_Source\PSoC5/USBUART_1_cdc.c ****     *   USBUART_1_cdc_data_out_ep: CDC OUT endpoint number used.
 554:.\Generated_Source\PSoC5/USBUART_1_cdc.c ****     *
 555:.\Generated_Source\PSoC5/USBUART_1_cdc.c ****     * Reentrant:
 556:.\Generated_Source\PSoC5/USBUART_1_cdc.c ****     *  No.
 557:.\Generated_Source\PSoC5/USBUART_1_cdc.c ****     *
 558:.\Generated_Source\PSoC5/USBUART_1_cdc.c ****     *******************************************************************************/
 559:.\Generated_Source\PSoC5/USBUART_1_cdc.c ****     uint8 USBUART_1_GetChar(void) 
 560:.\Generated_Source\PSoC5/USBUART_1_cdc.c ****     {
 883              		.loc 1 560 0
 884              		.cfi_startproc
 885              		@ args = 0, pretend = 0, frame = 8
 886              		@ frame_needed = 1, uses_anonymous_args = 0
 887 0000 80B5     		push	{r7, lr}
 888              	.LCFI33:
 889              		.cfi_def_cfa_offset 8
 890              		.cfi_offset 7, -8
 891              		.cfi_offset 14, -4
 892 0002 82B0     		sub	sp, sp, #8
 893              	.LCFI34:
 894              		.cfi_def_cfa_offset 16
 895 0004 00AF     		add	r7, sp, #0
 896              	.LCFI35:
 897              		.cfi_def_cfa_register 7
 561:.\Generated_Source\PSoC5/USBUART_1_cdc.c ****          uint8 rxData;
 562:.\Generated_Source\PSoC5/USBUART_1_cdc.c **** 
 563:.\Generated_Source\PSoC5/USBUART_1_cdc.c ****         (void) USBUART_1_ReadOutEP(USBUART_1_cdc_data_out_ep, &rxData, 1u);
 898              		.loc 1 563 0
 899 0006 40F20003 		movw	r3, #:lower16:USBUART_1_cdc_data_out_ep
 900 000a C0F20003 		movt	r3, #:upper16:USBUART_1_cdc_data_out_ep
 901 000e 1B78     		ldrb	r3, [r3, #0]
 902 0010 DAB2     		uxtb	r2, r3
 903 0012 07F10703 		add	r3, r7, #7
 904 0016 1046     		mov	r0, r2
 905 0018 1946     		mov	r1, r3
 906 001a 4FF00102 		mov	r2, #1
 907 001e FFF7FEFF 		bl	USBUART_1_ReadOutEP
 564:.\Generated_Source\PSoC5/USBUART_1_cdc.c **** 
 565:.\Generated_Source\PSoC5/USBUART_1_cdc.c ****         return(rxData);
 908              		.loc 1 565 0
 909 0022 FB79     		ldrb	r3, [r7, #7]	@ zero_extendqisi2
 566:.\Generated_Source\PSoC5/USBUART_1_cdc.c ****     }
 910              		.loc 1 566 0
 911 0024 1846     		mov	r0, r3
 912 0026 07F10807 		add	r7, r7, #8
ARM GAS  C:\Users\Robert\AppData\Local\Temp\ccNv74yg.s 			page 27


 913 002a BD46     		mov	sp, r7
 914 002c 80BD     		pop	{r7, pc}
 915              		.cfi_endproc
 916              	.LFE12:
 917              		.size	USBUART_1_GetChar, .-USBUART_1_GetChar
 918 002e 00BF     		.section	.text.USBUART_1_IsLineChanged,"ax",%progbits
 919              		.align	2
 920              		.global	USBUART_1_IsLineChanged
 921              		.thumb
 922              		.thumb_func
 923              		.type	USBUART_1_IsLineChanged, %function
 924              	USBUART_1_IsLineChanged:
 925              	.LFB13:
 567:.\Generated_Source\PSoC5/USBUART_1_cdc.c **** 
 568:.\Generated_Source\PSoC5/USBUART_1_cdc.c ****     /*******************************************************************************
 569:.\Generated_Source\PSoC5/USBUART_1_cdc.c ****     * Function Name: USBUART_1_IsLineChanged
 570:.\Generated_Source\PSoC5/USBUART_1_cdc.c ****     ********************************************************************************
 571:.\Generated_Source\PSoC5/USBUART_1_cdc.c ****     *
 572:.\Generated_Source\PSoC5/USBUART_1_cdc.c ****     * Summary:
 573:.\Generated_Source\PSoC5/USBUART_1_cdc.c ****     *  This function returns clear on read status of the line. It returns not zero
 574:.\Generated_Source\PSoC5/USBUART_1_cdc.c ****     *  value when the host sends updated coding or control information to the
 575:.\Generated_Source\PSoC5/USBUART_1_cdc.c ****     *  device. The USBUART_1_GetDTERate(), USBUART_1_GetCharFormat()
 576:.\Generated_Source\PSoC5/USBUART_1_cdc.c ****     *  or USBUART_1_GetParityType() or USBUART_1_GetDataBits() API
 577:.\Generated_Source\PSoC5/USBUART_1_cdc.c ****     *  should be called to read data coding information.
 578:.\Generated_Source\PSoC5/USBUART_1_cdc.c ****     *  The USBUART_1_GetLineControl() API should be called to read line
 579:.\Generated_Source\PSoC5/USBUART_1_cdc.c ****     *  control information.
 580:.\Generated_Source\PSoC5/USBUART_1_cdc.c ****     *
 581:.\Generated_Source\PSoC5/USBUART_1_cdc.c ****     * Parameters:
 582:.\Generated_Source\PSoC5/USBUART_1_cdc.c ****     *  None.
 583:.\Generated_Source\PSoC5/USBUART_1_cdc.c ****     *
 584:.\Generated_Source\PSoC5/USBUART_1_cdc.c ****     * Return:
 585:.\Generated_Source\PSoC5/USBUART_1_cdc.c ****     *  If SET_LINE_CODING or CDC_SET_CONTROL_LINE_STATE requests are received, it
 586:.\Generated_Source\PSoC5/USBUART_1_cdc.c ****     *  returns a nonzero value. Otherwise, it returns zero.
 587:.\Generated_Source\PSoC5/USBUART_1_cdc.c ****     *
 588:.\Generated_Source\PSoC5/USBUART_1_cdc.c ****     * Global variables:
 589:.\Generated_Source\PSoC5/USBUART_1_cdc.c ****     *  USBUART_1_transferState: it is checked to be sure then OUT data
 590:.\Generated_Source\PSoC5/USBUART_1_cdc.c ****     *    phase has been complete, and data written to the lineCoding or Control
 591:.\Generated_Source\PSoC5/USBUART_1_cdc.c ****     *    Bitmap buffer.
 592:.\Generated_Source\PSoC5/USBUART_1_cdc.c ****     *  USBUART_1_lineChanged: used as a flag to be aware that Host has been
 593:.\Generated_Source\PSoC5/USBUART_1_cdc.c ****     *    sent request for changing Line Coding or Control Bitmap.
 594:.\Generated_Source\PSoC5/USBUART_1_cdc.c ****     *
 595:.\Generated_Source\PSoC5/USBUART_1_cdc.c ****     *******************************************************************************/
 596:.\Generated_Source\PSoC5/USBUART_1_cdc.c ****     uint8 USBUART_1_IsLineChanged(void) 
 597:.\Generated_Source\PSoC5/USBUART_1_cdc.c ****     {
 926              		.loc 1 597 0
 927              		.cfi_startproc
 928              		@ args = 0, pretend = 0, frame = 8
 929              		@ frame_needed = 1, uses_anonymous_args = 0
 930              		@ link register save eliminated.
 931 0000 80B4     		push	{r7}
 932              	.LCFI36:
 933              		.cfi_def_cfa_offset 4
 934              		.cfi_offset 7, -4
 935 0002 83B0     		sub	sp, sp, #12
 936              	.LCFI37:
 937              		.cfi_def_cfa_offset 16
 938 0004 00AF     		add	r7, sp, #0
ARM GAS  C:\Users\Robert\AppData\Local\Temp\ccNv74yg.s 			page 28


 939              	.LCFI38:
 940              		.cfi_def_cfa_register 7
 598:.\Generated_Source\PSoC5/USBUART_1_cdc.c ****         uint8 state = 0u;
 941              		.loc 1 598 0
 942 0006 4FF00003 		mov	r3, #0
 943 000a FB71     		strb	r3, [r7, #7]
 599:.\Generated_Source\PSoC5/USBUART_1_cdc.c **** 
 600:.\Generated_Source\PSoC5/USBUART_1_cdc.c ****         /* transferState is checked to be sure then OUT data phase has been complete */
 601:.\Generated_Source\PSoC5/USBUART_1_cdc.c ****         if(USBUART_1_transferState == USBUART_1_TRANS_STATE_IDLE)
 944              		.loc 1 601 0
 945 000c 40F20003 		movw	r3, #:lower16:USBUART_1_transferState
 946 0010 C0F20003 		movt	r3, #:upper16:USBUART_1_transferState
 947 0014 1B78     		ldrb	r3, [r3, #0]
 948 0016 DBB2     		uxtb	r3, r3
 949 0018 002B     		cmp	r3, #0
 950 001a 14D1     		bne	.L45
 602:.\Generated_Source\PSoC5/USBUART_1_cdc.c ****         {
 603:.\Generated_Source\PSoC5/USBUART_1_cdc.c ****             if(USBUART_1_lineChanged != 0u)
 951              		.loc 1 603 0
 952 001c 40F20003 		movw	r3, #:lower16:USBUART_1_lineChanged
 953 0020 C0F20003 		movt	r3, #:upper16:USBUART_1_lineChanged
 954 0024 1B78     		ldrb	r3, [r3, #0]
 955 0026 DBB2     		uxtb	r3, r3
 956 0028 002B     		cmp	r3, #0
 957 002a 0CD0     		beq	.L45
 604:.\Generated_Source\PSoC5/USBUART_1_cdc.c ****             {
 605:.\Generated_Source\PSoC5/USBUART_1_cdc.c ****                 state = USBUART_1_lineChanged;
 958              		.loc 1 605 0
 959 002c 40F20003 		movw	r3, #:lower16:USBUART_1_lineChanged
 960 0030 C0F20003 		movt	r3, #:upper16:USBUART_1_lineChanged
 961 0034 1B78     		ldrb	r3, [r3, #0]
 962 0036 FB71     		strb	r3, [r7, #7]
 606:.\Generated_Source\PSoC5/USBUART_1_cdc.c ****                 USBUART_1_lineChanged = 0u;
 963              		.loc 1 606 0
 964 0038 40F20003 		movw	r3, #:lower16:USBUART_1_lineChanged
 965 003c C0F20003 		movt	r3, #:upper16:USBUART_1_lineChanged
 966 0040 4FF00002 		mov	r2, #0
 967 0044 1A70     		strb	r2, [r3, #0]
 968              	.L45:
 607:.\Generated_Source\PSoC5/USBUART_1_cdc.c ****             }
 608:.\Generated_Source\PSoC5/USBUART_1_cdc.c ****         }
 609:.\Generated_Source\PSoC5/USBUART_1_cdc.c **** 
 610:.\Generated_Source\PSoC5/USBUART_1_cdc.c ****         return(state);
 969              		.loc 1 610 0
 970 0046 FB79     		ldrb	r3, [r7, #7]	@ zero_extendqisi2
 611:.\Generated_Source\PSoC5/USBUART_1_cdc.c ****     }
 971              		.loc 1 611 0
 972 0048 1846     		mov	r0, r3
 973 004a 07F10C07 		add	r7, r7, #12
 974 004e BD46     		mov	sp, r7
 975 0050 80BC     		pop	{r7}
 976 0052 7047     		bx	lr
 977              		.cfi_endproc
 978              	.LFE13:
 979              		.size	USBUART_1_IsLineChanged, .-USBUART_1_IsLineChanged
 980              		.section	.text.USBUART_1_GetDTERate,"ax",%progbits
 981              		.align	2
ARM GAS  C:\Users\Robert\AppData\Local\Temp\ccNv74yg.s 			page 29


 982              		.global	USBUART_1_GetDTERate
 983              		.thumb
 984              		.thumb_func
 985              		.type	USBUART_1_GetDTERate, %function
 986              	USBUART_1_GetDTERate:
 987              	.LFB14:
 612:.\Generated_Source\PSoC5/USBUART_1_cdc.c **** 
 613:.\Generated_Source\PSoC5/USBUART_1_cdc.c **** 
 614:.\Generated_Source\PSoC5/USBUART_1_cdc.c ****     /*******************************************************************************
 615:.\Generated_Source\PSoC5/USBUART_1_cdc.c ****     * Function Name: USBUART_1_GetDTERate
 616:.\Generated_Source\PSoC5/USBUART_1_cdc.c ****     ********************************************************************************
 617:.\Generated_Source\PSoC5/USBUART_1_cdc.c ****     *
 618:.\Generated_Source\PSoC5/USBUART_1_cdc.c ****     * Summary:
 619:.\Generated_Source\PSoC5/USBUART_1_cdc.c ****     *  Returns the data terminal rate set for this port in bits per second.
 620:.\Generated_Source\PSoC5/USBUART_1_cdc.c ****     *
 621:.\Generated_Source\PSoC5/USBUART_1_cdc.c ****     * Parameters:
 622:.\Generated_Source\PSoC5/USBUART_1_cdc.c ****     *  None.
 623:.\Generated_Source\PSoC5/USBUART_1_cdc.c ****     *
 624:.\Generated_Source\PSoC5/USBUART_1_cdc.c ****     * Return:
 625:.\Generated_Source\PSoC5/USBUART_1_cdc.c ****     *  Returns a uint32 value of the data rate in bits per second.
 626:.\Generated_Source\PSoC5/USBUART_1_cdc.c ****     *
 627:.\Generated_Source\PSoC5/USBUART_1_cdc.c ****     * Global variables:
 628:.\Generated_Source\PSoC5/USBUART_1_cdc.c ****     *  USBUART_1_lineCoding: First four bytes converted to uint32
 629:.\Generated_Source\PSoC5/USBUART_1_cdc.c ****     *    depend on compiler, and returned as a data rate.
 630:.\Generated_Source\PSoC5/USBUART_1_cdc.c ****     *
 631:.\Generated_Source\PSoC5/USBUART_1_cdc.c ****     *******************************************************************************/
 632:.\Generated_Source\PSoC5/USBUART_1_cdc.c ****     uint32 USBUART_1_GetDTERate(void) 
 633:.\Generated_Source\PSoC5/USBUART_1_cdc.c ****     {
 988              		.loc 1 633 0
 989              		.cfi_startproc
 990              		@ args = 0, pretend = 0, frame = 8
 991              		@ frame_needed = 1, uses_anonymous_args = 0
 992              		@ link register save eliminated.
 993 0000 80B4     		push	{r7}
 994              	.LCFI39:
 995              		.cfi_def_cfa_offset 4
 996              		.cfi_offset 7, -4
 997 0002 83B0     		sub	sp, sp, #12
 998              	.LCFI40:
 999              		.cfi_def_cfa_offset 16
 1000 0004 00AF     		add	r7, sp, #0
 1001              	.LCFI41:
 1002              		.cfi_def_cfa_register 7
 634:.\Generated_Source\PSoC5/USBUART_1_cdc.c ****         uint32 rate;
 635:.\Generated_Source\PSoC5/USBUART_1_cdc.c **** 
 636:.\Generated_Source\PSoC5/USBUART_1_cdc.c ****         rate = USBUART_1_lineCoding[USBUART_1_LINE_CODING_RATE + 3u];
 1003              		.loc 1 636 0
 1004 0006 40F20003 		movw	r3, #:lower16:USBUART_1_lineCoding
 1005 000a C0F20003 		movt	r3, #:upper16:USBUART_1_lineCoding
 1006 000e DB78     		ldrb	r3, [r3, #3]
 1007 0010 DBB2     		uxtb	r3, r3
 1008 0012 7B60     		str	r3, [r7, #4]
 637:.\Generated_Source\PSoC5/USBUART_1_cdc.c ****         rate = (rate << 8u) | USBUART_1_lineCoding[USBUART_1_LINE_CODING_RATE + 2u];
 1009              		.loc 1 637 0
 1010 0014 7B68     		ldr	r3, [r7, #4]
 1011 0016 4FEA0322 		lsl	r2, r3, #8
 1012 001a 40F20003 		movw	r3, #:lower16:USBUART_1_lineCoding
ARM GAS  C:\Users\Robert\AppData\Local\Temp\ccNv74yg.s 			page 30


 1013 001e C0F20003 		movt	r3, #:upper16:USBUART_1_lineCoding
 1014 0022 9B78     		ldrb	r3, [r3, #2]
 1015 0024 DBB2     		uxtb	r3, r3
 1016 0026 1343     		orrs	r3, r3, r2
 1017 0028 7B60     		str	r3, [r7, #4]
 638:.\Generated_Source\PSoC5/USBUART_1_cdc.c ****         rate = (rate << 8u) | USBUART_1_lineCoding[USBUART_1_LINE_CODING_RATE + 1u];
 1018              		.loc 1 638 0
 1019 002a 7B68     		ldr	r3, [r7, #4]
 1020 002c 4FEA0322 		lsl	r2, r3, #8
 1021 0030 40F20003 		movw	r3, #:lower16:USBUART_1_lineCoding
 1022 0034 C0F20003 		movt	r3, #:upper16:USBUART_1_lineCoding
 1023 0038 5B78     		ldrb	r3, [r3, #1]
 1024 003a DBB2     		uxtb	r3, r3
 1025 003c 1343     		orrs	r3, r3, r2
 1026 003e 7B60     		str	r3, [r7, #4]
 639:.\Generated_Source\PSoC5/USBUART_1_cdc.c ****         rate = (rate << 8u) | USBUART_1_lineCoding[USBUART_1_LINE_CODING_RATE];
 1027              		.loc 1 639 0
 1028 0040 7B68     		ldr	r3, [r7, #4]
 1029 0042 4FEA0322 		lsl	r2, r3, #8
 1030 0046 40F20003 		movw	r3, #:lower16:USBUART_1_lineCoding
 1031 004a C0F20003 		movt	r3, #:upper16:USBUART_1_lineCoding
 1032 004e 1B78     		ldrb	r3, [r3, #0]
 1033 0050 DBB2     		uxtb	r3, r3
 1034 0052 1343     		orrs	r3, r3, r2
 1035 0054 7B60     		str	r3, [r7, #4]
 640:.\Generated_Source\PSoC5/USBUART_1_cdc.c **** 
 641:.\Generated_Source\PSoC5/USBUART_1_cdc.c ****         return(rate);
 1036              		.loc 1 641 0
 1037 0056 7B68     		ldr	r3, [r7, #4]
 642:.\Generated_Source\PSoC5/USBUART_1_cdc.c ****     }
 1038              		.loc 1 642 0
 1039 0058 1846     		mov	r0, r3
 1040 005a 07F10C07 		add	r7, r7, #12
 1041 005e BD46     		mov	sp, r7
 1042 0060 80BC     		pop	{r7}
 1043 0062 7047     		bx	lr
 1044              		.cfi_endproc
 1045              	.LFE14:
 1046              		.size	USBUART_1_GetDTERate, .-USBUART_1_GetDTERate
 1047              		.section	.text.USBUART_1_GetCharFormat,"ax",%progbits
 1048              		.align	2
 1049              		.global	USBUART_1_GetCharFormat
 1050              		.thumb
 1051              		.thumb_func
 1052              		.type	USBUART_1_GetCharFormat, %function
 1053              	USBUART_1_GetCharFormat:
 1054              	.LFB15:
 643:.\Generated_Source\PSoC5/USBUART_1_cdc.c **** 
 644:.\Generated_Source\PSoC5/USBUART_1_cdc.c **** 
 645:.\Generated_Source\PSoC5/USBUART_1_cdc.c ****     /*******************************************************************************
 646:.\Generated_Source\PSoC5/USBUART_1_cdc.c ****     * Function Name: USBUART_1_GetCharFormat
 647:.\Generated_Source\PSoC5/USBUART_1_cdc.c ****     ********************************************************************************
 648:.\Generated_Source\PSoC5/USBUART_1_cdc.c ****     *
 649:.\Generated_Source\PSoC5/USBUART_1_cdc.c ****     * Summary:
 650:.\Generated_Source\PSoC5/USBUART_1_cdc.c ****     *  Returns the number of stop bits.
 651:.\Generated_Source\PSoC5/USBUART_1_cdc.c ****     *
 652:.\Generated_Source\PSoC5/USBUART_1_cdc.c ****     * Parameters:
ARM GAS  C:\Users\Robert\AppData\Local\Temp\ccNv74yg.s 			page 31


 653:.\Generated_Source\PSoC5/USBUART_1_cdc.c ****     *  None.
 654:.\Generated_Source\PSoC5/USBUART_1_cdc.c ****     *
 655:.\Generated_Source\PSoC5/USBUART_1_cdc.c ****     * Return:
 656:.\Generated_Source\PSoC5/USBUART_1_cdc.c ****     *  Returns the number of stop bits.
 657:.\Generated_Source\PSoC5/USBUART_1_cdc.c ****     *
 658:.\Generated_Source\PSoC5/USBUART_1_cdc.c ****     * Global variables:
 659:.\Generated_Source\PSoC5/USBUART_1_cdc.c ****     *  USBUART_1_lineCoding: used to get a parameter.
 660:.\Generated_Source\PSoC5/USBUART_1_cdc.c ****     *
 661:.\Generated_Source\PSoC5/USBUART_1_cdc.c ****     *******************************************************************************/
 662:.\Generated_Source\PSoC5/USBUART_1_cdc.c ****     uint8 USBUART_1_GetCharFormat(void) 
 663:.\Generated_Source\PSoC5/USBUART_1_cdc.c ****     {
 1055              		.loc 1 663 0
 1056              		.cfi_startproc
 1057              		@ args = 0, pretend = 0, frame = 0
 1058              		@ frame_needed = 1, uses_anonymous_args = 0
 1059              		@ link register save eliminated.
 1060 0000 80B4     		push	{r7}
 1061              	.LCFI42:
 1062              		.cfi_def_cfa_offset 4
 1063              		.cfi_offset 7, -4
 1064 0002 00AF     		add	r7, sp, #0
 1065              	.LCFI43:
 1066              		.cfi_def_cfa_register 7
 664:.\Generated_Source\PSoC5/USBUART_1_cdc.c ****         return(USBUART_1_lineCoding[USBUART_1_LINE_CODING_STOP_BITS]);
 1067              		.loc 1 664 0
 1068 0004 40F20003 		movw	r3, #:lower16:USBUART_1_lineCoding
 1069 0008 C0F20003 		movt	r3, #:upper16:USBUART_1_lineCoding
 1070 000c 1B79     		ldrb	r3, [r3, #4]
 1071 000e DBB2     		uxtb	r3, r3
 665:.\Generated_Source\PSoC5/USBUART_1_cdc.c ****     }
 1072              		.loc 1 665 0
 1073 0010 1846     		mov	r0, r3
 1074 0012 BD46     		mov	sp, r7
 1075 0014 80BC     		pop	{r7}
 1076 0016 7047     		bx	lr
 1077              		.cfi_endproc
 1078              	.LFE15:
 1079              		.size	USBUART_1_GetCharFormat, .-USBUART_1_GetCharFormat
 1080              		.section	.text.USBUART_1_GetParityType,"ax",%progbits
 1081              		.align	2
 1082              		.global	USBUART_1_GetParityType
 1083              		.thumb
 1084              		.thumb_func
 1085              		.type	USBUART_1_GetParityType, %function
 1086              	USBUART_1_GetParityType:
 1087              	.LFB16:
 666:.\Generated_Source\PSoC5/USBUART_1_cdc.c **** 
 667:.\Generated_Source\PSoC5/USBUART_1_cdc.c **** 
 668:.\Generated_Source\PSoC5/USBUART_1_cdc.c ****     /*******************************************************************************
 669:.\Generated_Source\PSoC5/USBUART_1_cdc.c ****     * Function Name: USBUART_1_GetParityType
 670:.\Generated_Source\PSoC5/USBUART_1_cdc.c ****     ********************************************************************************
 671:.\Generated_Source\PSoC5/USBUART_1_cdc.c ****     *
 672:.\Generated_Source\PSoC5/USBUART_1_cdc.c ****     * Summary:
 673:.\Generated_Source\PSoC5/USBUART_1_cdc.c ****     *  Returns the parity type for the CDC port.
 674:.\Generated_Source\PSoC5/USBUART_1_cdc.c ****     *
 675:.\Generated_Source\PSoC5/USBUART_1_cdc.c ****     * Parameters:
 676:.\Generated_Source\PSoC5/USBUART_1_cdc.c ****     *  None.
ARM GAS  C:\Users\Robert\AppData\Local\Temp\ccNv74yg.s 			page 32


 677:.\Generated_Source\PSoC5/USBUART_1_cdc.c ****     *
 678:.\Generated_Source\PSoC5/USBUART_1_cdc.c ****     * Return:
 679:.\Generated_Source\PSoC5/USBUART_1_cdc.c ****     *  Returns the parity type.
 680:.\Generated_Source\PSoC5/USBUART_1_cdc.c ****     *
 681:.\Generated_Source\PSoC5/USBUART_1_cdc.c ****     * Global variables:
 682:.\Generated_Source\PSoC5/USBUART_1_cdc.c ****     *  USBUART_1_lineCoding: used to get a parameter.
 683:.\Generated_Source\PSoC5/USBUART_1_cdc.c ****     *
 684:.\Generated_Source\PSoC5/USBUART_1_cdc.c ****     *******************************************************************************/
 685:.\Generated_Source\PSoC5/USBUART_1_cdc.c ****     uint8 USBUART_1_GetParityType(void) 
 686:.\Generated_Source\PSoC5/USBUART_1_cdc.c ****     {
 1088              		.loc 1 686 0
 1089              		.cfi_startproc
 1090              		@ args = 0, pretend = 0, frame = 0
 1091              		@ frame_needed = 1, uses_anonymous_args = 0
 1092              		@ link register save eliminated.
 1093 0000 80B4     		push	{r7}
 1094              	.LCFI44:
 1095              		.cfi_def_cfa_offset 4
 1096              		.cfi_offset 7, -4
 1097 0002 00AF     		add	r7, sp, #0
 1098              	.LCFI45:
 1099              		.cfi_def_cfa_register 7
 687:.\Generated_Source\PSoC5/USBUART_1_cdc.c ****         return(USBUART_1_lineCoding[USBUART_1_LINE_CODING_PARITY]);
 1100              		.loc 1 687 0
 1101 0004 40F20003 		movw	r3, #:lower16:USBUART_1_lineCoding
 1102 0008 C0F20003 		movt	r3, #:upper16:USBUART_1_lineCoding
 1103 000c 5B79     		ldrb	r3, [r3, #5]
 1104 000e DBB2     		uxtb	r3, r3
 688:.\Generated_Source\PSoC5/USBUART_1_cdc.c ****     }
 1105              		.loc 1 688 0
 1106 0010 1846     		mov	r0, r3
 1107 0012 BD46     		mov	sp, r7
 1108 0014 80BC     		pop	{r7}
 1109 0016 7047     		bx	lr
 1110              		.cfi_endproc
 1111              	.LFE16:
 1112              		.size	USBUART_1_GetParityType, .-USBUART_1_GetParityType
 1113              		.section	.text.USBUART_1_GetDataBits,"ax",%progbits
 1114              		.align	2
 1115              		.global	USBUART_1_GetDataBits
 1116              		.thumb
 1117              		.thumb_func
 1118              		.type	USBUART_1_GetDataBits, %function
 1119              	USBUART_1_GetDataBits:
 1120              	.LFB17:
 689:.\Generated_Source\PSoC5/USBUART_1_cdc.c **** 
 690:.\Generated_Source\PSoC5/USBUART_1_cdc.c **** 
 691:.\Generated_Source\PSoC5/USBUART_1_cdc.c ****     /*******************************************************************************
 692:.\Generated_Source\PSoC5/USBUART_1_cdc.c ****     * Function Name: USBUART_1_GetDataBits
 693:.\Generated_Source\PSoC5/USBUART_1_cdc.c ****     ********************************************************************************
 694:.\Generated_Source\PSoC5/USBUART_1_cdc.c ****     *
 695:.\Generated_Source\PSoC5/USBUART_1_cdc.c ****     * Summary:
 696:.\Generated_Source\PSoC5/USBUART_1_cdc.c ****     *  Returns the number of data bits for the CDC port.
 697:.\Generated_Source\PSoC5/USBUART_1_cdc.c ****     *
 698:.\Generated_Source\PSoC5/USBUART_1_cdc.c ****     * Parameters:
 699:.\Generated_Source\PSoC5/USBUART_1_cdc.c ****     *  None.
 700:.\Generated_Source\PSoC5/USBUART_1_cdc.c ****     *
ARM GAS  C:\Users\Robert\AppData\Local\Temp\ccNv74yg.s 			page 33


 701:.\Generated_Source\PSoC5/USBUART_1_cdc.c ****     * Return:
 702:.\Generated_Source\PSoC5/USBUART_1_cdc.c ****     *  Returns the number of data bits.
 703:.\Generated_Source\PSoC5/USBUART_1_cdc.c ****     *  The number of data bits can be 5, 6, 7, 8 or 16.
 704:.\Generated_Source\PSoC5/USBUART_1_cdc.c ****     *
 705:.\Generated_Source\PSoC5/USBUART_1_cdc.c ****     * Global variables:
 706:.\Generated_Source\PSoC5/USBUART_1_cdc.c ****     *  USBUART_1_lineCoding: used to get a parameter.
 707:.\Generated_Source\PSoC5/USBUART_1_cdc.c ****     *
 708:.\Generated_Source\PSoC5/USBUART_1_cdc.c ****     *******************************************************************************/
 709:.\Generated_Source\PSoC5/USBUART_1_cdc.c ****     uint8 USBUART_1_GetDataBits(void) 
 710:.\Generated_Source\PSoC5/USBUART_1_cdc.c ****     {
 1121              		.loc 1 710 0
 1122              		.cfi_startproc
 1123              		@ args = 0, pretend = 0, frame = 0
 1124              		@ frame_needed = 1, uses_anonymous_args = 0
 1125              		@ link register save eliminated.
 1126 0000 80B4     		push	{r7}
 1127              	.LCFI46:
 1128              		.cfi_def_cfa_offset 4
 1129              		.cfi_offset 7, -4
 1130 0002 00AF     		add	r7, sp, #0
 1131              	.LCFI47:
 1132              		.cfi_def_cfa_register 7
 711:.\Generated_Source\PSoC5/USBUART_1_cdc.c ****         return(USBUART_1_lineCoding[USBUART_1_LINE_CODING_DATA_BITS]);
 1133              		.loc 1 711 0
 1134 0004 40F20003 		movw	r3, #:lower16:USBUART_1_lineCoding
 1135 0008 C0F20003 		movt	r3, #:upper16:USBUART_1_lineCoding
 1136 000c 9B79     		ldrb	r3, [r3, #6]
 1137 000e DBB2     		uxtb	r3, r3
 712:.\Generated_Source\PSoC5/USBUART_1_cdc.c ****     }
 1138              		.loc 1 712 0
 1139 0010 1846     		mov	r0, r3
 1140 0012 BD46     		mov	sp, r7
 1141 0014 80BC     		pop	{r7}
 1142 0016 7047     		bx	lr
 1143              		.cfi_endproc
 1144              	.LFE17:
 1145              		.size	USBUART_1_GetDataBits, .-USBUART_1_GetDataBits
 1146              		.section	.text.USBUART_1_GetLineControl,"ax",%progbits
 1147              		.align	2
 1148              		.global	USBUART_1_GetLineControl
 1149              		.thumb
 1150              		.thumb_func
 1151              		.type	USBUART_1_GetLineControl, %function
 1152              	USBUART_1_GetLineControl:
 1153              	.LFB18:
 713:.\Generated_Source\PSoC5/USBUART_1_cdc.c **** 
 714:.\Generated_Source\PSoC5/USBUART_1_cdc.c **** 
 715:.\Generated_Source\PSoC5/USBUART_1_cdc.c ****     /*******************************************************************************
 716:.\Generated_Source\PSoC5/USBUART_1_cdc.c ****     * Function Name: USBUART_1_GetLineControl
 717:.\Generated_Source\PSoC5/USBUART_1_cdc.c ****     ********************************************************************************
 718:.\Generated_Source\PSoC5/USBUART_1_cdc.c ****     *
 719:.\Generated_Source\PSoC5/USBUART_1_cdc.c ****     * Summary:
 720:.\Generated_Source\PSoC5/USBUART_1_cdc.c ****     *  Returns Line control bitmap.
 721:.\Generated_Source\PSoC5/USBUART_1_cdc.c ****     *
 722:.\Generated_Source\PSoC5/USBUART_1_cdc.c ****     * Parameters:
 723:.\Generated_Source\PSoC5/USBUART_1_cdc.c ****     *  None.
 724:.\Generated_Source\PSoC5/USBUART_1_cdc.c ****     *
ARM GAS  C:\Users\Robert\AppData\Local\Temp\ccNv74yg.s 			page 34


 725:.\Generated_Source\PSoC5/USBUART_1_cdc.c ****     * Return:
 726:.\Generated_Source\PSoC5/USBUART_1_cdc.c ****     *  Returns Line control bitmap.
 727:.\Generated_Source\PSoC5/USBUART_1_cdc.c ****     *
 728:.\Generated_Source\PSoC5/USBUART_1_cdc.c ****     * Global variables:
 729:.\Generated_Source\PSoC5/USBUART_1_cdc.c ****     *  USBUART_1_lineControlBitmap: used to get a parameter.
 730:.\Generated_Source\PSoC5/USBUART_1_cdc.c ****     *
 731:.\Generated_Source\PSoC5/USBUART_1_cdc.c ****     *******************************************************************************/
 732:.\Generated_Source\PSoC5/USBUART_1_cdc.c ****     uint16 USBUART_1_GetLineControl(void) 
 733:.\Generated_Source\PSoC5/USBUART_1_cdc.c ****     {
 1154              		.loc 1 733 0
 1155              		.cfi_startproc
 1156              		@ args = 0, pretend = 0, frame = 0
 1157              		@ frame_needed = 1, uses_anonymous_args = 0
 1158              		@ link register save eliminated.
 1159 0000 80B4     		push	{r7}
 1160              	.LCFI48:
 1161              		.cfi_def_cfa_offset 4
 1162              		.cfi_offset 7, -4
 1163 0002 00AF     		add	r7, sp, #0
 1164              	.LCFI49:
 1165              		.cfi_def_cfa_register 7
 734:.\Generated_Source\PSoC5/USBUART_1_cdc.c ****         return(USBUART_1_lineControlBitmap);
 1166              		.loc 1 734 0
 1167 0004 40F20003 		movw	r3, #:lower16:USBUART_1_lineControlBitmap
 1168 0008 C0F20003 		movt	r3, #:upper16:USBUART_1_lineControlBitmap
 1169 000c 1B88     		ldrh	r3, [r3, #0]	@ movhi
 1170 000e 9BB2     		uxth	r3, r3
 735:.\Generated_Source\PSoC5/USBUART_1_cdc.c ****     }
 1171              		.loc 1 735 0
 1172 0010 1846     		mov	r0, r3
 1173 0012 BD46     		mov	sp, r7
 1174 0014 80BC     		pop	{r7}
 1175 0016 7047     		bx	lr
 1176              		.cfi_endproc
 1177              	.LFE18:
 1178              		.size	USBUART_1_GetLineControl, .-USBUART_1_GetLineControl
 1179              		.text
 1180              	.Letext0:
 1181              		.file 2 ".\\Generated_Source\\PSoC5\\cytypes.h"
 1182              		.file 3 ".\\Generated_Source\\PSoC5\\USBUART_1.h"
 1183              		.file 4 ".\\Generated_Source\\PSoC5\\USBUART_1_pvt.h"