ARM GAS  C:\Users\Robert\AppData\Local\Temp\ccGI9XoE.s 			page 1


   1              		.syntax unified
   2              		.cpu cortex-m3
   3              		.fpu softvfp
   4              		.eabi_attribute 20, 1
   5              		.eabi_attribute 21, 1
   6              		.eabi_attribute 23, 3
   7              		.eabi_attribute 24, 1
   8              		.eabi_attribute 25, 1
   9              		.eabi_attribute 26, 1
  10              		.eabi_attribute 30, 6
  11              		.eabi_attribute 34, 1
  12              		.eabi_attribute 18, 4
  13              		.thumb
  14              		.file	"USBUART_1_pm.c"
  15              		.text
  16              	.Ltext0:
  17              		.cfi_sections	.debug_frame
  18              		.comm	cursor_x,2,2
  19              		.comm	cursor_y,2,2
  20              		.comm	textcolor,2,2
  21              		.comm	textbgcolor,2,2
  22              		.comm	textsize,1,1
  23              		.comm	rotation,1,1
  24              		.comm	wrap,1,1
  25              		.comm	_width,4,4
  26              		.comm	_height,4,4
  27              		.bss
  28              		.align	2
  29              	USBUART_1_backup:
  30 0000 0000     		.space	2
  31 0002 0000     		.section	.text.USBUART_1_DP_ISR,"ax",%progbits
  32              		.align	2
  33              		.global	USBUART_1_DP_ISR
  34              		.thumb
  35              		.thumb_func
  36              		.type	USBUART_1_DP_ISR, %function
  37              	USBUART_1_DP_ISR:
  38              	.LFB56:
  39              		.file 1 ".\\Generated_Source\\PSoC5\\USBUART_1_pm.c"
   1:.\Generated_Source\PSoC5/USBUART_1_pm.c **** /*******************************************************************************
   2:.\Generated_Source\PSoC5/USBUART_1_pm.c **** * File Name: USBUART_1_pm.c
   3:.\Generated_Source\PSoC5/USBUART_1_pm.c **** * Version 2.70
   4:.\Generated_Source\PSoC5/USBUART_1_pm.c **** *
   5:.\Generated_Source\PSoC5/USBUART_1_pm.c **** * Description:
   6:.\Generated_Source\PSoC5/USBUART_1_pm.c **** *  This file provides Suspend/Resume APIs functionality.
   7:.\Generated_Source\PSoC5/USBUART_1_pm.c **** *
   8:.\Generated_Source\PSoC5/USBUART_1_pm.c **** * Note:
   9:.\Generated_Source\PSoC5/USBUART_1_pm.c **** *
  10:.\Generated_Source\PSoC5/USBUART_1_pm.c **** ********************************************************************************
  11:.\Generated_Source\PSoC5/USBUART_1_pm.c **** * Copyright 2008-2013, Cypress Semiconductor Corporation.  All rights reserved.
  12:.\Generated_Source\PSoC5/USBUART_1_pm.c **** * You may use this file only in accordance with the license, terms, conditions,
  13:.\Generated_Source\PSoC5/USBUART_1_pm.c **** * disclaimers, and limitations in the end user license agreement accompanying
  14:.\Generated_Source\PSoC5/USBUART_1_pm.c **** * the software package with which this file was provided.
  15:.\Generated_Source\PSoC5/USBUART_1_pm.c **** *******************************************************************************/
  16:.\Generated_Source\PSoC5/USBUART_1_pm.c **** 
  17:.\Generated_Source\PSoC5/USBUART_1_pm.c **** #include "project.h"
  18:.\Generated_Source\PSoC5/USBUART_1_pm.c **** #include "USBUART_1.h"
ARM GAS  C:\Users\Robert\AppData\Local\Temp\ccGI9XoE.s 			page 2


  19:.\Generated_Source\PSoC5/USBUART_1_pm.c **** #include "USBUART_1_pvt.h"
  20:.\Generated_Source\PSoC5/USBUART_1_pm.c **** 
  21:.\Generated_Source\PSoC5/USBUART_1_pm.c **** 
  22:.\Generated_Source\PSoC5/USBUART_1_pm.c **** /***************************************
  23:.\Generated_Source\PSoC5/USBUART_1_pm.c **** * Custom Declarations
  24:.\Generated_Source\PSoC5/USBUART_1_pm.c **** ***************************************/
  25:.\Generated_Source\PSoC5/USBUART_1_pm.c **** /* `#START PM_CUSTOM_DECLARATIONS` Place your declaration here */
  26:.\Generated_Source\PSoC5/USBUART_1_pm.c **** 
  27:.\Generated_Source\PSoC5/USBUART_1_pm.c **** /* `#END` */
  28:.\Generated_Source\PSoC5/USBUART_1_pm.c **** 
  29:.\Generated_Source\PSoC5/USBUART_1_pm.c **** 
  30:.\Generated_Source\PSoC5/USBUART_1_pm.c **** /***************************************
  31:.\Generated_Source\PSoC5/USBUART_1_pm.c **** * Local data allocation
  32:.\Generated_Source\PSoC5/USBUART_1_pm.c **** ***************************************/
  33:.\Generated_Source\PSoC5/USBUART_1_pm.c **** 
  34:.\Generated_Source\PSoC5/USBUART_1_pm.c **** static USBUART_1_BACKUP_STRUCT  USBUART_1_backup;
  35:.\Generated_Source\PSoC5/USBUART_1_pm.c **** 
  36:.\Generated_Source\PSoC5/USBUART_1_pm.c **** 
  37:.\Generated_Source\PSoC5/USBUART_1_pm.c **** #if(USBUART_1_DP_ISR_REMOVE == 0u)
  38:.\Generated_Source\PSoC5/USBUART_1_pm.c **** 
  39:.\Generated_Source\PSoC5/USBUART_1_pm.c ****     /*******************************************************************************
  40:.\Generated_Source\PSoC5/USBUART_1_pm.c ****     * Function Name: USBUART_1_DP_Interrupt
  41:.\Generated_Source\PSoC5/USBUART_1_pm.c ****     ********************************************************************************
  42:.\Generated_Source\PSoC5/USBUART_1_pm.c ****     *
  43:.\Generated_Source\PSoC5/USBUART_1_pm.c ****     * Summary:
  44:.\Generated_Source\PSoC5/USBUART_1_pm.c ****     *  This Interrupt Service Routine handles DP pin changes for wake-up from
  45:.\Generated_Source\PSoC5/USBUART_1_pm.c ****     *  the sleep mode.
  46:.\Generated_Source\PSoC5/USBUART_1_pm.c ****     *
  47:.\Generated_Source\PSoC5/USBUART_1_pm.c ****     * Parameters:
  48:.\Generated_Source\PSoC5/USBUART_1_pm.c ****     *  None.
  49:.\Generated_Source\PSoC5/USBUART_1_pm.c ****     *
  50:.\Generated_Source\PSoC5/USBUART_1_pm.c ****     * Return:
  51:.\Generated_Source\PSoC5/USBUART_1_pm.c ****     *  None.
  52:.\Generated_Source\PSoC5/USBUART_1_pm.c ****     *
  53:.\Generated_Source\PSoC5/USBUART_1_pm.c ****     *******************************************************************************/
  54:.\Generated_Source\PSoC5/USBUART_1_pm.c ****     CY_ISR(USBUART_1_DP_ISR)
  55:.\Generated_Source\PSoC5/USBUART_1_pm.c ****     {
  40              		.loc 1 55 0
  41              		.cfi_startproc
  42              		@ args = 0, pretend = 0, frame = 0
  43              		@ frame_needed = 1, uses_anonymous_args = 0
  44              		@ link register save eliminated.
  45 0000 80B4     		push	{r7}
  46              	.LCFI0:
  47              		.cfi_def_cfa_offset 4
  48              		.cfi_offset 7, -4
  49 0002 00AF     		add	r7, sp, #0
  50              	.LCFI1:
  51              		.cfi_def_cfa_register 7
  56:.\Generated_Source\PSoC5/USBUART_1_pm.c ****         /* `#START DP_USER_CODE` Place your code here */
  57:.\Generated_Source\PSoC5/USBUART_1_pm.c **** 
  58:.\Generated_Source\PSoC5/USBUART_1_pm.c ****         /* `#END` */
  59:.\Generated_Source\PSoC5/USBUART_1_pm.c **** 
  60:.\Generated_Source\PSoC5/USBUART_1_pm.c ****         /* Clears active interrupt */
  61:.\Generated_Source\PSoC5/USBUART_1_pm.c ****         CY_GET_REG8(USBUART_1_DP_INTSTAT_PTR);
  52              		.loc 1 61 0
  53 0004 44F28F53 		movw	r3, #17807
ARM GAS  C:\Users\Robert\AppData\Local\Temp\ccGI9XoE.s 			page 3


  54 0008 C4F20003 		movt	r3, 16384
  55 000c 1B78     		ldrb	r3, [r3, #0]
  62:.\Generated_Source\PSoC5/USBUART_1_pm.c ****     }
  56              		.loc 1 62 0
  57 000e BD46     		mov	sp, r7
  58 0010 80BC     		pop	{r7}
  59 0012 7047     		bx	lr
  60              		.cfi_endproc
  61              	.LFE56:
  62              		.size	USBUART_1_DP_ISR, .-USBUART_1_DP_ISR
  63              		.section	.text.USBUART_1_SaveConfig,"ax",%progbits
  64              		.align	2
  65              		.global	USBUART_1_SaveConfig
  66              		.thumb
  67              		.thumb_func
  68              		.type	USBUART_1_SaveConfig, %function
  69              	USBUART_1_SaveConfig:
  70              	.LFB57:
  63:.\Generated_Source\PSoC5/USBUART_1_pm.c **** 
  64:.\Generated_Source\PSoC5/USBUART_1_pm.c **** #endif /* (USBUART_1_DP_ISR_REMOVE == 0u) */
  65:.\Generated_Source\PSoC5/USBUART_1_pm.c **** 
  66:.\Generated_Source\PSoC5/USBUART_1_pm.c **** 
  67:.\Generated_Source\PSoC5/USBUART_1_pm.c **** /*******************************************************************************
  68:.\Generated_Source\PSoC5/USBUART_1_pm.c **** * Function Name: USBUART_1_SaveConfig
  69:.\Generated_Source\PSoC5/USBUART_1_pm.c **** ********************************************************************************
  70:.\Generated_Source\PSoC5/USBUART_1_pm.c **** *
  71:.\Generated_Source\PSoC5/USBUART_1_pm.c **** * Summary:
  72:.\Generated_Source\PSoC5/USBUART_1_pm.c **** *  Saves the current user configuration.
  73:.\Generated_Source\PSoC5/USBUART_1_pm.c **** *
  74:.\Generated_Source\PSoC5/USBUART_1_pm.c **** * Parameters:
  75:.\Generated_Source\PSoC5/USBUART_1_pm.c **** *  None.
  76:.\Generated_Source\PSoC5/USBUART_1_pm.c **** *
  77:.\Generated_Source\PSoC5/USBUART_1_pm.c **** * Return:
  78:.\Generated_Source\PSoC5/USBUART_1_pm.c **** *  None.
  79:.\Generated_Source\PSoC5/USBUART_1_pm.c **** *
  80:.\Generated_Source\PSoC5/USBUART_1_pm.c **** * Reentrant:
  81:.\Generated_Source\PSoC5/USBUART_1_pm.c **** *  No.
  82:.\Generated_Source\PSoC5/USBUART_1_pm.c **** *
  83:.\Generated_Source\PSoC5/USBUART_1_pm.c **** *******************************************************************************/
  84:.\Generated_Source\PSoC5/USBUART_1_pm.c **** void USBUART_1_SaveConfig(void) 
  85:.\Generated_Source\PSoC5/USBUART_1_pm.c **** {
  71              		.loc 1 85 0
  72              		.cfi_startproc
  73              		@ args = 0, pretend = 0, frame = 0
  74              		@ frame_needed = 1, uses_anonymous_args = 0
  75              		@ link register save eliminated.
  76 0000 80B4     		push	{r7}
  77              	.LCFI2:
  78              		.cfi_def_cfa_offset 4
  79              		.cfi_offset 7, -4
  80 0002 00AF     		add	r7, sp, #0
  81              	.LCFI3:
  82              		.cfi_def_cfa_register 7
  86:.\Generated_Source\PSoC5/USBUART_1_pm.c **** 
  87:.\Generated_Source\PSoC5/USBUART_1_pm.c **** }
  83              		.loc 1 87 0
  84 0004 BD46     		mov	sp, r7
ARM GAS  C:\Users\Robert\AppData\Local\Temp\ccGI9XoE.s 			page 4


  85 0006 80BC     		pop	{r7}
  86 0008 7047     		bx	lr
  87              		.cfi_endproc
  88              	.LFE57:
  89              		.size	USBUART_1_SaveConfig, .-USBUART_1_SaveConfig
  90 000a 00BF     		.section	.text.USBUART_1_RestoreConfig,"ax",%progbits
  91              		.align	2
  92              		.global	USBUART_1_RestoreConfig
  93              		.thumb
  94              		.thumb_func
  95              		.type	USBUART_1_RestoreConfig, %function
  96              	USBUART_1_RestoreConfig:
  97              	.LFB58:
  88:.\Generated_Source\PSoC5/USBUART_1_pm.c **** 
  89:.\Generated_Source\PSoC5/USBUART_1_pm.c **** 
  90:.\Generated_Source\PSoC5/USBUART_1_pm.c **** /*******************************************************************************
  91:.\Generated_Source\PSoC5/USBUART_1_pm.c **** * Function Name: USBUART_1_RestoreConfig
  92:.\Generated_Source\PSoC5/USBUART_1_pm.c **** ********************************************************************************
  93:.\Generated_Source\PSoC5/USBUART_1_pm.c **** *
  94:.\Generated_Source\PSoC5/USBUART_1_pm.c **** * Summary:
  95:.\Generated_Source\PSoC5/USBUART_1_pm.c **** *  Restores the current user configuration.
  96:.\Generated_Source\PSoC5/USBUART_1_pm.c **** *
  97:.\Generated_Source\PSoC5/USBUART_1_pm.c **** * Parameters:
  98:.\Generated_Source\PSoC5/USBUART_1_pm.c **** *  None.
  99:.\Generated_Source\PSoC5/USBUART_1_pm.c **** *
 100:.\Generated_Source\PSoC5/USBUART_1_pm.c **** * Return:
 101:.\Generated_Source\PSoC5/USBUART_1_pm.c **** *  None.
 102:.\Generated_Source\PSoC5/USBUART_1_pm.c **** *
 103:.\Generated_Source\PSoC5/USBUART_1_pm.c **** * Reentrant:
 104:.\Generated_Source\PSoC5/USBUART_1_pm.c **** *  No.
 105:.\Generated_Source\PSoC5/USBUART_1_pm.c **** *
 106:.\Generated_Source\PSoC5/USBUART_1_pm.c **** *******************************************************************************/
 107:.\Generated_Source\PSoC5/USBUART_1_pm.c **** void USBUART_1_RestoreConfig(void) 
 108:.\Generated_Source\PSoC5/USBUART_1_pm.c **** {
  98              		.loc 1 108 0
  99              		.cfi_startproc
 100              		@ args = 0, pretend = 0, frame = 0
 101              		@ frame_needed = 1, uses_anonymous_args = 0
 102 0000 80B5     		push	{r7, lr}
 103              	.LCFI4:
 104              		.cfi_def_cfa_offset 8
 105              		.cfi_offset 7, -8
 106              		.cfi_offset 14, -4
 107 0002 00AF     		add	r7, sp, #0
 108              	.LCFI5:
 109              		.cfi_def_cfa_register 7
 109:.\Generated_Source\PSoC5/USBUART_1_pm.c ****     if(USBUART_1_configuration != 0u)
 110              		.loc 1 109 0
 111 0004 40F20003 		movw	r3, #:lower16:USBUART_1_configuration
 112 0008 C0F20003 		movt	r3, #:upper16:USBUART_1_configuration
 113 000c 1B78     		ldrb	r3, [r3, #0]
 114 000e DBB2     		uxtb	r3, r3
 115 0010 002B     		cmp	r3, #0
 116 0012 01D0     		beq	.L3
 110:.\Generated_Source\PSoC5/USBUART_1_pm.c ****     {
 111:.\Generated_Source\PSoC5/USBUART_1_pm.c ****         USBUART_1_ConfigReg();
 117              		.loc 1 111 0
ARM GAS  C:\Users\Robert\AppData\Local\Temp\ccGI9XoE.s 			page 5


 118 0014 FFF7FEFF 		bl	USBUART_1_ConfigReg
 119              	.L3:
 112:.\Generated_Source\PSoC5/USBUART_1_pm.c ****     }
 113:.\Generated_Source\PSoC5/USBUART_1_pm.c **** }
 120              		.loc 1 113 0
 121 0018 80BD     		pop	{r7, pc}
 122              		.cfi_endproc
 123              	.LFE58:
 124              		.size	USBUART_1_RestoreConfig, .-USBUART_1_RestoreConfig
 125 001a 00BF     		.section	.text.USBUART_1_Suspend,"ax",%progbits
 126              		.align	2
 127              		.global	USBUART_1_Suspend
 128              		.thumb
 129              		.thumb_func
 130              		.type	USBUART_1_Suspend, %function
 131              	USBUART_1_Suspend:
 132              	.LFB59:
 114:.\Generated_Source\PSoC5/USBUART_1_pm.c **** 
 115:.\Generated_Source\PSoC5/USBUART_1_pm.c **** 
 116:.\Generated_Source\PSoC5/USBUART_1_pm.c **** /*******************************************************************************
 117:.\Generated_Source\PSoC5/USBUART_1_pm.c **** * Function Name: USBUART_1_Suspend
 118:.\Generated_Source\PSoC5/USBUART_1_pm.c **** ********************************************************************************
 119:.\Generated_Source\PSoC5/USBUART_1_pm.c **** *
 120:.\Generated_Source\PSoC5/USBUART_1_pm.c **** * Summary:
 121:.\Generated_Source\PSoC5/USBUART_1_pm.c **** *  This function disables the USBFS block and prepares for power down mode.
 122:.\Generated_Source\PSoC5/USBUART_1_pm.c **** *
 123:.\Generated_Source\PSoC5/USBUART_1_pm.c **** * Parameters:
 124:.\Generated_Source\PSoC5/USBUART_1_pm.c **** *  None.
 125:.\Generated_Source\PSoC5/USBUART_1_pm.c **** *
 126:.\Generated_Source\PSoC5/USBUART_1_pm.c **** * Return:
 127:.\Generated_Source\PSoC5/USBUART_1_pm.c **** *   None.
 128:.\Generated_Source\PSoC5/USBUART_1_pm.c **** *
 129:.\Generated_Source\PSoC5/USBUART_1_pm.c **** * Global variables:
 130:.\Generated_Source\PSoC5/USBUART_1_pm.c **** *  USBUART_1_backup.enable:  modified.
 131:.\Generated_Source\PSoC5/USBUART_1_pm.c **** *
 132:.\Generated_Source\PSoC5/USBUART_1_pm.c **** * Reentrant:
 133:.\Generated_Source\PSoC5/USBUART_1_pm.c **** *  No.
 134:.\Generated_Source\PSoC5/USBUART_1_pm.c **** *
 135:.\Generated_Source\PSoC5/USBUART_1_pm.c **** *******************************************************************************/
 136:.\Generated_Source\PSoC5/USBUART_1_pm.c **** void USBUART_1_Suspend(void) 
 137:.\Generated_Source\PSoC5/USBUART_1_pm.c **** {
 133              		.loc 1 137 0
 134              		.cfi_startproc
 135              		@ args = 0, pretend = 0, frame = 8
 136              		@ frame_needed = 1, uses_anonymous_args = 0
 137 0000 80B5     		push	{r7, lr}
 138              	.LCFI6:
 139              		.cfi_def_cfa_offset 8
 140              		.cfi_offset 7, -8
 141              		.cfi_offset 14, -4
 142 0002 82B0     		sub	sp, sp, #8
 143              	.LCFI7:
 144              		.cfi_def_cfa_offset 16
 145 0004 00AF     		add	r7, sp, #0
 146              	.LCFI8:
 147              		.cfi_def_cfa_register 7
 138:.\Generated_Source\PSoC5/USBUART_1_pm.c ****     uint8 enableInterrupts;
ARM GAS  C:\Users\Robert\AppData\Local\Temp\ccGI9XoE.s 			page 6


 139:.\Generated_Source\PSoC5/USBUART_1_pm.c ****     enableInterrupts = CyEnterCriticalSection();
 148              		.loc 1 139 0
 149 0006 FFF7FEFF 		bl	CyEnterCriticalSection
 150 000a 0346     		mov	r3, r0
 151 000c FB71     		strb	r3, [r7, #7]
 140:.\Generated_Source\PSoC5/USBUART_1_pm.c **** 
 141:.\Generated_Source\PSoC5/USBUART_1_pm.c ****     if((CY_GET_REG8(USBUART_1_CR0_PTR) & USBUART_1_CR0_ENABLE) != 0u)
 152              		.loc 1 141 0
 153 000e 46F20803 		movw	r3, #24584
 154 0012 C4F20003 		movt	r3, 16384
 155 0016 1B78     		ldrb	r3, [r3, #0]
 156 0018 DBB2     		uxtb	r3, r3
 157 001a DBB2     		uxtb	r3, r3
 158 001c 5BB2     		sxtb	r3, r3
 159 001e 002B     		cmp	r3, #0
 160 0020 80F29680 		bge	.L6
 142:.\Generated_Source\PSoC5/USBUART_1_pm.c ****     {   /* USB block is enabled */
 143:.\Generated_Source\PSoC5/USBUART_1_pm.c ****         USBUART_1_backup.enableState = 1u;
 161              		.loc 1 143 0
 162 0024 40F20003 		movw	r3, #:lower16:USBUART_1_backup
 163 0028 C0F20003 		movt	r3, #:upper16:USBUART_1_backup
 164 002c 4FF00102 		mov	r2, #1
 165 0030 1A70     		strb	r2, [r3, #0]
 144:.\Generated_Source\PSoC5/USBUART_1_pm.c **** 
 145:.\Generated_Source\PSoC5/USBUART_1_pm.c ****         #if(USBUART_1_EP_MM != USBUART_1__EP_MANUAL)
 146:.\Generated_Source\PSoC5/USBUART_1_pm.c ****             USBUART_1_Stop_DMA(USBUART_1_MAX_EP);     /* Stop all DMAs */
 147:.\Generated_Source\PSoC5/USBUART_1_pm.c ****         #endif   /*  USBUART_1_EP_MM != USBUART_1__EP_MANUAL */
 148:.\Generated_Source\PSoC5/USBUART_1_pm.c **** 
 149:.\Generated_Source\PSoC5/USBUART_1_pm.c ****         /* Ensure USB transmit enable is low (USB_USBIO_CR0.ten). - Manual Transmission - Disabled 
 150:.\Generated_Source\PSoC5/USBUART_1_pm.c ****         USBUART_1_USBIO_CR0_REG &= (uint8)~USBUART_1_USBIO_CR0_TEN;
 166              		.loc 1 150 0
 167 0032 46F21003 		movw	r3, #24592
 168 0036 C4F20003 		movt	r3, 16384
 169 003a 46F21002 		movw	r2, #24592
 170 003e C4F20002 		movt	r2, 16384
 171 0042 1278     		ldrb	r2, [r2, #0]
 172 0044 D2B2     		uxtb	r2, r2
 173 0046 02F07F02 		and	r2, r2, #127
 174 004a D2B2     		uxtb	r2, r2
 175 004c 1A70     		strb	r2, [r3, #0]
 151:.\Generated_Source\PSoC5/USBUART_1_pm.c ****         CyDelayUs(0u);  /*~50ns delay */
 176              		.loc 1 151 0
 177 004e 4FF00000 		mov	r0, #0
 178 0052 FFF7FEFF 		bl	CyDelayUs
 152:.\Generated_Source\PSoC5/USBUART_1_pm.c **** 
 153:.\Generated_Source\PSoC5/USBUART_1_pm.c ****         /* Disable the USBIO by asserting PM.USB_CR0.fsusbio_pd_n(Inverted) and pd_pullup_hv(Invert
 154:.\Generated_Source\PSoC5/USBUART_1_pm.c ****         USBUART_1_PM_USB_CR0_REG &=
 179              		.loc 1 154 0
 180 0056 44F29433 		movw	r3, #17300
 181 005a C4F20003 		movt	r3, 16384
 182 005e 44F29432 		movw	r2, #17300
 183 0062 C4F20002 		movt	r2, 16384
 184 0066 1278     		ldrb	r2, [r2, #0]
 185 0068 D2B2     		uxtb	r2, r2
 186 006a 22F00602 		bic	r2, r2, #6
 187 006e D2B2     		uxtb	r2, r2
 188 0070 1A70     		strb	r2, [r3, #0]
ARM GAS  C:\Users\Robert\AppData\Local\Temp\ccGI9XoE.s 			page 7


 155:.\Generated_Source\PSoC5/USBUART_1_pm.c ****                                 (uint8)~(USBUART_1_PM_USB_CR0_PD_N | USBUART_1_PM_USB_CR0_PD_PULLUP
 156:.\Generated_Source\PSoC5/USBUART_1_pm.c **** 
 157:.\Generated_Source\PSoC5/USBUART_1_pm.c ****         /* Disable the SIE */
 158:.\Generated_Source\PSoC5/USBUART_1_pm.c ****         USBUART_1_CR0_REG &= (uint8)~USBUART_1_CR0_ENABLE;
 189              		.loc 1 158 0
 190 0072 46F20803 		movw	r3, #24584
 191 0076 C4F20003 		movt	r3, 16384
 192 007a 46F20802 		movw	r2, #24584
 193 007e C4F20002 		movt	r2, 16384
 194 0082 1278     		ldrb	r2, [r2, #0]
 195 0084 D2B2     		uxtb	r2, r2
 196 0086 02F07F02 		and	r2, r2, #127
 197 008a D2B2     		uxtb	r2, r2
 198 008c 1A70     		strb	r2, [r3, #0]
 159:.\Generated_Source\PSoC5/USBUART_1_pm.c **** 
 160:.\Generated_Source\PSoC5/USBUART_1_pm.c ****         CyDelayUs(0u);  /* ~50ns delay */
 199              		.loc 1 160 0
 200 008e 4FF00000 		mov	r0, #0
 201 0092 FFF7FEFF 		bl	CyDelayUs
 161:.\Generated_Source\PSoC5/USBUART_1_pm.c ****         /* Store mode and Disable VRegulator*/
 162:.\Generated_Source\PSoC5/USBUART_1_pm.c ****         USBUART_1_backup.mode = USBUART_1_CR1_REG & USBUART_1_CR1_REG_ENABLE;
 202              		.loc 1 162 0
 203 0096 46F20903 		movw	r3, #24585
 204 009a C4F20003 		movt	r3, 16384
 205 009e 1B78     		ldrb	r3, [r3, #0]
 206 00a0 DBB2     		uxtb	r3, r3
 207 00a2 03F00103 		and	r3, r3, #1
 208 00a6 DAB2     		uxtb	r2, r3
 209 00a8 40F20003 		movw	r3, #:lower16:USBUART_1_backup
 210 00ac C0F20003 		movt	r3, #:upper16:USBUART_1_backup
 211 00b0 5A70     		strb	r2, [r3, #1]
 163:.\Generated_Source\PSoC5/USBUART_1_pm.c ****         USBUART_1_CR1_REG &= (uint8)~USBUART_1_CR1_REG_ENABLE;
 212              		.loc 1 163 0
 213 00b2 46F20903 		movw	r3, #24585
 214 00b6 C4F20003 		movt	r3, 16384
 215 00ba 46F20902 		movw	r2, #24585
 216 00be C4F20002 		movt	r2, 16384
 217 00c2 1278     		ldrb	r2, [r2, #0]
 218 00c4 D2B2     		uxtb	r2, r2
 219 00c6 22F00102 		bic	r2, r2, #1
 220 00ca D2B2     		uxtb	r2, r2
 221 00cc 1A70     		strb	r2, [r3, #0]
 164:.\Generated_Source\PSoC5/USBUART_1_pm.c **** 
 165:.\Generated_Source\PSoC5/USBUART_1_pm.c ****         CyDelayUs(1u);  /* 0.5 us min delay */
 222              		.loc 1 165 0
 223 00ce 4FF00100 		mov	r0, #1
 224 00d2 FFF7FEFF 		bl	CyDelayUs
 166:.\Generated_Source\PSoC5/USBUART_1_pm.c ****         /* Disable the USBIO reference by setting PM.USB_CR0.fsusbio_ref_en.*/
 167:.\Generated_Source\PSoC5/USBUART_1_pm.c ****         USBUART_1_PM_USB_CR0_REG &= (uint8)~USBUART_1_PM_USB_CR0_REF_EN;
 225              		.loc 1 167 0
 226 00d6 44F29433 		movw	r3, #17300
 227 00da C4F20003 		movt	r3, 16384
 228 00de 44F29432 		movw	r2, #17300
 229 00e2 C4F20002 		movt	r2, 16384
 230 00e6 1278     		ldrb	r2, [r2, #0]
 231 00e8 D2B2     		uxtb	r2, r2
 232 00ea 22F00102 		bic	r2, r2, #1
ARM GAS  C:\Users\Robert\AppData\Local\Temp\ccGI9XoE.s 			page 8


 233 00ee D2B2     		uxtb	r2, r2
 234 00f0 1A70     		strb	r2, [r3, #0]
 168:.\Generated_Source\PSoC5/USBUART_1_pm.c **** 
 169:.\Generated_Source\PSoC5/USBUART_1_pm.c ****         /* Switch DP and DM terminals to GPIO mode and disconnect 1.5k pullup*/
 170:.\Generated_Source\PSoC5/USBUART_1_pm.c ****         USBUART_1_USBIO_CR1_REG |= USBUART_1_USBIO_CR1_IOMODE;
 235              		.loc 1 170 0
 236 00f2 46F21203 		movw	r3, #24594
 237 00f6 C4F20003 		movt	r3, 16384
 238 00fa 46F21202 		movw	r2, #24594
 239 00fe C4F20002 		movt	r2, 16384
 240 0102 1278     		ldrb	r2, [r2, #0]
 241 0104 D2B2     		uxtb	r2, r2
 242 0106 42F02002 		orr	r2, r2, #32
 243 010a D2B2     		uxtb	r2, r2
 244 010c 1A70     		strb	r2, [r3, #0]
 171:.\Generated_Source\PSoC5/USBUART_1_pm.c **** 
 172:.\Generated_Source\PSoC5/USBUART_1_pm.c ****         /* Disable USB in ACT PM */
 173:.\Generated_Source\PSoC5/USBUART_1_pm.c ****         USBUART_1_PM_ACT_CFG_REG &= (uint8)~USBUART_1_PM_ACT_EN_FSUSB;
 245              		.loc 1 173 0
 246 010e 44F2A533 		movw	r3, #17317
 247 0112 C4F20003 		movt	r3, 16384
 248 0116 44F2A532 		movw	r2, #17317
 249 011a C4F20002 		movt	r2, 16384
 250 011e 1278     		ldrb	r2, [r2, #0]
 251 0120 D2B2     		uxtb	r2, r2
 252 0122 22F00102 		bic	r2, r2, #1
 253 0126 D2B2     		uxtb	r2, r2
 254 0128 1A70     		strb	r2, [r3, #0]
 174:.\Generated_Source\PSoC5/USBUART_1_pm.c ****         /* Disable USB block for Standby Power Mode */
 175:.\Generated_Source\PSoC5/USBUART_1_pm.c ****         USBUART_1_PM_STBY_CFG_REG &= (uint8)~USBUART_1_PM_STBY_EN_FSUSB;
 255              		.loc 1 175 0
 256 012a 44F2B533 		movw	r3, #17333
 257 012e C4F20003 		movt	r3, 16384
 258 0132 44F2B532 		movw	r2, #17333
 259 0136 C4F20002 		movt	r2, 16384
 260 013a 1278     		ldrb	r2, [r2, #0]
 261 013c D2B2     		uxtb	r2, r2
 262 013e 22F00102 		bic	r2, r2, #1
 263 0142 D2B2     		uxtb	r2, r2
 264 0144 1A70     		strb	r2, [r3, #0]
 176:.\Generated_Source\PSoC5/USBUART_1_pm.c ****         CyDelayUs(1u); /* min  0.5us delay required */
 265              		.loc 1 176 0
 266 0146 4FF00100 		mov	r0, #1
 267 014a FFF7FEFF 		bl	CyDelayUs
 268 014e 06E0     		b	.L7
 269              	.L6:
 177:.\Generated_Source\PSoC5/USBUART_1_pm.c **** 
 178:.\Generated_Source\PSoC5/USBUART_1_pm.c ****     }
 179:.\Generated_Source\PSoC5/USBUART_1_pm.c ****     else
 180:.\Generated_Source\PSoC5/USBUART_1_pm.c ****     {
 181:.\Generated_Source\PSoC5/USBUART_1_pm.c ****         USBUART_1_backup.enableState = 0u;
 270              		.loc 1 181 0
 271 0150 40F20003 		movw	r3, #:lower16:USBUART_1_backup
 272 0154 C0F20003 		movt	r3, #:upper16:USBUART_1_backup
 273 0158 4FF00002 		mov	r2, #0
 274 015c 1A70     		strb	r2, [r3, #0]
 275              	.L7:
ARM GAS  C:\Users\Robert\AppData\Local\Temp\ccGI9XoE.s 			page 9


 182:.\Generated_Source\PSoC5/USBUART_1_pm.c ****     }
 183:.\Generated_Source\PSoC5/USBUART_1_pm.c ****     
 184:.\Generated_Source\PSoC5/USBUART_1_pm.c ****     CyExitCriticalSection(enableInterrupts);
 276              		.loc 1 184 0
 277 015e FB79     		ldrb	r3, [r7, #7]	@ zero_extendqisi2
 278 0160 1846     		mov	r0, r3
 279 0162 FFF7FEFF 		bl	CyExitCriticalSection
 185:.\Generated_Source\PSoC5/USBUART_1_pm.c **** 
 186:.\Generated_Source\PSoC5/USBUART_1_pm.c ****     /* Set the DP Interrupt for wake-up from sleep mode. */
 187:.\Generated_Source\PSoC5/USBUART_1_pm.c ****     #if(USBUART_1_DP_ISR_REMOVE == 0u)
 188:.\Generated_Source\PSoC5/USBUART_1_pm.c ****         (void) CyIntSetVector(USBUART_1_DP_INTC_VECT_NUM, &USBUART_1_DP_ISR);
 280              		.loc 1 188 0
 281 0166 4FF00C00 		mov	r0, #12
 282 016a 40F20001 		movw	r1, #:lower16:USBUART_1_DP_ISR
 283 016e C0F20001 		movt	r1, #:upper16:USBUART_1_DP_ISR
 284 0172 FFF7FEFF 		bl	CyIntSetVector
 189:.\Generated_Source\PSoC5/USBUART_1_pm.c ****         CyIntSetPriority(USBUART_1_DP_INTC_VECT_NUM, USBUART_1_DP_INTC_PRIOR);
 285              		.loc 1 189 0
 286 0176 4FF00C00 		mov	r0, #12
 287 017a 4FF00701 		mov	r1, #7
 288 017e FFF7FEFF 		bl	CyIntSetPriority
 190:.\Generated_Source\PSoC5/USBUART_1_pm.c ****         CyIntClearPending(USBUART_1_DP_INTC_VECT_NUM);
 289              		.loc 1 190 0
 290 0182 4EF28023 		movw	r3, #57984
 291 0186 CEF20003 		movt	r3, 57344
 292 018a 4FF48052 		mov	r2, #4096
 293 018e 1A60     		str	r2, [r3, #0]
 191:.\Generated_Source\PSoC5/USBUART_1_pm.c ****         CyIntEnable(USBUART_1_DP_INTC_VECT_NUM);
 294              		.loc 1 191 0
 295 0190 4FF46143 		mov	r3, #57600
 296 0194 CEF20003 		movt	r3, 57344
 297 0198 4FF48052 		mov	r2, #4096
 298 019c 1A60     		str	r2, [r3, #0]
 192:.\Generated_Source\PSoC5/USBUART_1_pm.c ****     #endif /* (USBUART_1_DP_ISR_REMOVE == 0u) */
 193:.\Generated_Source\PSoC5/USBUART_1_pm.c **** }
 299              		.loc 1 193 0
 300 019e 07F10807 		add	r7, r7, #8
 301 01a2 BD46     		mov	sp, r7
 302 01a4 80BD     		pop	{r7, pc}
 303              		.cfi_endproc
 304              	.LFE59:
 305              		.size	USBUART_1_Suspend, .-USBUART_1_Suspend
 306 01a6 00BF     		.section	.text.USBUART_1_Resume,"ax",%progbits
 307              		.align	2
 308              		.global	USBUART_1_Resume
 309              		.thumb
 310              		.thumb_func
 311              		.type	USBUART_1_Resume, %function
 312              	USBUART_1_Resume:
 313              	.LFB60:
 194:.\Generated_Source\PSoC5/USBUART_1_pm.c **** 
 195:.\Generated_Source\PSoC5/USBUART_1_pm.c **** 
 196:.\Generated_Source\PSoC5/USBUART_1_pm.c **** /*******************************************************************************
 197:.\Generated_Source\PSoC5/USBUART_1_pm.c **** * Function Name: USBUART_1_Resume
 198:.\Generated_Source\PSoC5/USBUART_1_pm.c **** ********************************************************************************
 199:.\Generated_Source\PSoC5/USBUART_1_pm.c **** *
 200:.\Generated_Source\PSoC5/USBUART_1_pm.c **** * Summary:
ARM GAS  C:\Users\Robert\AppData\Local\Temp\ccGI9XoE.s 			page 10


 201:.\Generated_Source\PSoC5/USBUART_1_pm.c **** *  This function enables the USBFS block after power down mode.
 202:.\Generated_Source\PSoC5/USBUART_1_pm.c **** *
 203:.\Generated_Source\PSoC5/USBUART_1_pm.c **** * Parameters:
 204:.\Generated_Source\PSoC5/USBUART_1_pm.c **** *  None.
 205:.\Generated_Source\PSoC5/USBUART_1_pm.c **** *
 206:.\Generated_Source\PSoC5/USBUART_1_pm.c **** * Return:
 207:.\Generated_Source\PSoC5/USBUART_1_pm.c **** *  None.
 208:.\Generated_Source\PSoC5/USBUART_1_pm.c **** *
 209:.\Generated_Source\PSoC5/USBUART_1_pm.c **** * Global variables:
 210:.\Generated_Source\PSoC5/USBUART_1_pm.c **** *  USBUART_1_backup - checked.
 211:.\Generated_Source\PSoC5/USBUART_1_pm.c **** *
 212:.\Generated_Source\PSoC5/USBUART_1_pm.c **** * Reentrant:
 213:.\Generated_Source\PSoC5/USBUART_1_pm.c **** *  No.
 214:.\Generated_Source\PSoC5/USBUART_1_pm.c **** *
 215:.\Generated_Source\PSoC5/USBUART_1_pm.c **** *******************************************************************************/
 216:.\Generated_Source\PSoC5/USBUART_1_pm.c **** void USBUART_1_Resume(void) 
 217:.\Generated_Source\PSoC5/USBUART_1_pm.c **** {
 314              		.loc 1 217 0
 315              		.cfi_startproc
 316              		@ args = 0, pretend = 0, frame = 8
 317              		@ frame_needed = 1, uses_anonymous_args = 0
 318 0000 80B5     		push	{r7, lr}
 319              	.LCFI9:
 320              		.cfi_def_cfa_offset 8
 321              		.cfi_offset 7, -8
 322              		.cfi_offset 14, -4
 323 0002 82B0     		sub	sp, sp, #8
 324              	.LCFI10:
 325              		.cfi_def_cfa_offset 16
 326 0004 00AF     		add	r7, sp, #0
 327              	.LCFI11:
 328              		.cfi_def_cfa_register 7
 218:.\Generated_Source\PSoC5/USBUART_1_pm.c ****     uint8 enableInterrupts;
 219:.\Generated_Source\PSoC5/USBUART_1_pm.c ****     enableInterrupts = CyEnterCriticalSection();
 329              		.loc 1 219 0
 330 0006 FFF7FEFF 		bl	CyEnterCriticalSection
 331 000a 0346     		mov	r3, r0
 332 000c FB71     		strb	r3, [r7, #7]
 220:.\Generated_Source\PSoC5/USBUART_1_pm.c **** 
 221:.\Generated_Source\PSoC5/USBUART_1_pm.c ****     if(USBUART_1_backup.enableState != 0u)
 333              		.loc 1 221 0
 334 000e 40F20003 		movw	r3, #:lower16:USBUART_1_backup
 335 0012 C0F20003 		movt	r3, #:upper16:USBUART_1_backup
 336 0016 1B78     		ldrb	r3, [r3, #0]	@ zero_extendqisi2
 337 0018 002B     		cmp	r3, #0
 338 001a 00F09B80 		beq	.L9
 222:.\Generated_Source\PSoC5/USBUART_1_pm.c ****     {
 223:.\Generated_Source\PSoC5/USBUART_1_pm.c ****         #if(USBUART_1_DP_ISR_REMOVE == 0u)
 224:.\Generated_Source\PSoC5/USBUART_1_pm.c ****             CyIntDisable(USBUART_1_DP_INTC_VECT_NUM);
 339              		.loc 1 224 0
 340 001e 4EF28013 		movw	r3, #57728
 341 0022 CEF20003 		movt	r3, 57344
 342 0026 4FF48052 		mov	r2, #4096
 343 002a 1A60     		str	r2, [r3, #0]
 225:.\Generated_Source\PSoC5/USBUART_1_pm.c ****         #endif /*  USBUART_1_DP_ISR_REMOVE */
 226:.\Generated_Source\PSoC5/USBUART_1_pm.c **** 
 227:.\Generated_Source\PSoC5/USBUART_1_pm.c ****         /* Enable USB block */
ARM GAS  C:\Users\Robert\AppData\Local\Temp\ccGI9XoE.s 			page 11


 228:.\Generated_Source\PSoC5/USBUART_1_pm.c ****         USBUART_1_PM_ACT_CFG_REG |= USBUART_1_PM_ACT_EN_FSUSB;
 344              		.loc 1 228 0
 345 002c 44F2A533 		movw	r3, #17317
 346 0030 C4F20003 		movt	r3, 16384
 347 0034 44F2A532 		movw	r2, #17317
 348 0038 C4F20002 		movt	r2, 16384
 349 003c 1278     		ldrb	r2, [r2, #0]
 350 003e D2B2     		uxtb	r2, r2
 351 0040 42F00102 		orr	r2, r2, #1
 352 0044 D2B2     		uxtb	r2, r2
 353 0046 1A70     		strb	r2, [r3, #0]
 229:.\Generated_Source\PSoC5/USBUART_1_pm.c ****         /* Enable USB block for Standby Power Mode */
 230:.\Generated_Source\PSoC5/USBUART_1_pm.c ****         USBUART_1_PM_STBY_CFG_REG |= USBUART_1_PM_STBY_EN_FSUSB;
 354              		.loc 1 230 0
 355 0048 44F2B533 		movw	r3, #17333
 356 004c C4F20003 		movt	r3, 16384
 357 0050 44F2B532 		movw	r2, #17333
 358 0054 C4F20002 		movt	r2, 16384
 359 0058 1278     		ldrb	r2, [r2, #0]
 360 005a D2B2     		uxtb	r2, r2
 361 005c 42F00102 		orr	r2, r2, #1
 362 0060 D2B2     		uxtb	r2, r2
 363 0062 1A70     		strb	r2, [r3, #0]
 231:.\Generated_Source\PSoC5/USBUART_1_pm.c ****         /* Enable core clock */
 232:.\Generated_Source\PSoC5/USBUART_1_pm.c ****         USBUART_1_USB_CLK_EN_REG |= USBUART_1_USB_CLK_ENABLE;
 364              		.loc 1 232 0
 365 0064 46F29D03 		movw	r3, #24733
 366 0068 C4F20003 		movt	r3, 16384
 367 006c 46F29D02 		movw	r2, #24733
 368 0070 C4F20002 		movt	r2, 16384
 369 0074 1278     		ldrb	r2, [r2, #0]
 370 0076 D2B2     		uxtb	r2, r2
 371 0078 42F00102 		orr	r2, r2, #1
 372 007c D2B2     		uxtb	r2, r2
 373 007e 1A70     		strb	r2, [r3, #0]
 233:.\Generated_Source\PSoC5/USBUART_1_pm.c **** 
 234:.\Generated_Source\PSoC5/USBUART_1_pm.c ****         /* Enable the USBIO reference by setting PM.USB_CR0.fsusbio_ref_en.*/
 235:.\Generated_Source\PSoC5/USBUART_1_pm.c ****         USBUART_1_PM_USB_CR0_REG |= USBUART_1_PM_USB_CR0_REF_EN;
 374              		.loc 1 235 0
 375 0080 44F29433 		movw	r3, #17300
 376 0084 C4F20003 		movt	r3, 16384
 377 0088 44F29432 		movw	r2, #17300
 378 008c C4F20002 		movt	r2, 16384
 379 0090 1278     		ldrb	r2, [r2, #0]
 380 0092 D2B2     		uxtb	r2, r2
 381 0094 42F00102 		orr	r2, r2, #1
 382 0098 D2B2     		uxtb	r2, r2
 383 009a 1A70     		strb	r2, [r3, #0]
 236:.\Generated_Source\PSoC5/USBUART_1_pm.c ****         /* The reference will be available ~40us after power restored */
 237:.\Generated_Source\PSoC5/USBUART_1_pm.c ****         CyDelayUs(40u);
 384              		.loc 1 237 0
 385 009c 4FF02800 		mov	r0, #40
 386 00a0 FFF7FEFF 		bl	CyDelayUs
 238:.\Generated_Source\PSoC5/USBUART_1_pm.c ****         /* Return VRegulator*/
 239:.\Generated_Source\PSoC5/USBUART_1_pm.c ****         USBUART_1_CR1_REG |= USBUART_1_backup.mode;
 387              		.loc 1 239 0
 388 00a4 46F20903 		movw	r3, #24585
ARM GAS  C:\Users\Robert\AppData\Local\Temp\ccGI9XoE.s 			page 12


 389 00a8 C4F20003 		movt	r3, 16384
 390 00ac 46F20902 		movw	r2, #24585
 391 00b0 C4F20002 		movt	r2, 16384
 392 00b4 1278     		ldrb	r2, [r2, #0]
 393 00b6 D1B2     		uxtb	r1, r2
 394 00b8 40F20002 		movw	r2, #:lower16:USBUART_1_backup
 395 00bc C0F20002 		movt	r2, #:upper16:USBUART_1_backup
 396 00c0 5278     		ldrb	r2, [r2, #1]	@ zero_extendqisi2
 397 00c2 0A43     		orrs	r2, r2, r1
 398 00c4 D2B2     		uxtb	r2, r2
 399 00c6 1A70     		strb	r2, [r3, #0]
 240:.\Generated_Source\PSoC5/USBUART_1_pm.c ****         CyDelayUs(0u);  /*~50ns delay */
 400              		.loc 1 240 0
 401 00c8 4FF00000 		mov	r0, #0
 402 00cc FFF7FEFF 		bl	CyDelayUs
 241:.\Generated_Source\PSoC5/USBUART_1_pm.c ****         /* Enable USBIO */
 242:.\Generated_Source\PSoC5/USBUART_1_pm.c ****         USBUART_1_PM_USB_CR0_REG |= USBUART_1_PM_USB_CR0_PD_N;
 403              		.loc 1 242 0
 404 00d0 44F29433 		movw	r3, #17300
 405 00d4 C4F20003 		movt	r3, 16384
 406 00d8 44F29432 		movw	r2, #17300
 407 00dc C4F20002 		movt	r2, 16384
 408 00e0 1278     		ldrb	r2, [r2, #0]
 409 00e2 D2B2     		uxtb	r2, r2
 410 00e4 42F00202 		orr	r2, r2, #2
 411 00e8 D2B2     		uxtb	r2, r2
 412 00ea 1A70     		strb	r2, [r3, #0]
 243:.\Generated_Source\PSoC5/USBUART_1_pm.c ****         CyDelayUs(2u);
 413              		.loc 1 243 0
 414 00ec 4FF00200 		mov	r0, #2
 415 00f0 FFF7FEFF 		bl	CyDelayUs
 244:.\Generated_Source\PSoC5/USBUART_1_pm.c ****         /* Set the USBIO pull-up enable */
 245:.\Generated_Source\PSoC5/USBUART_1_pm.c ****         USBUART_1_PM_USB_CR0_REG |= USBUART_1_PM_USB_CR0_PD_PULLUP_N;
 416              		.loc 1 245 0
 417 00f4 44F29433 		movw	r3, #17300
 418 00f8 C4F20003 		movt	r3, 16384
 419 00fc 44F29432 		movw	r2, #17300
 420 0100 C4F20002 		movt	r2, 16384
 421 0104 1278     		ldrb	r2, [r2, #0]
 422 0106 D2B2     		uxtb	r2, r2
 423 0108 42F00402 		orr	r2, r2, #4
 424 010c D2B2     		uxtb	r2, r2
 425 010e 1A70     		strb	r2, [r3, #0]
 246:.\Generated_Source\PSoC5/USBUART_1_pm.c **** 
 247:.\Generated_Source\PSoC5/USBUART_1_pm.c ****         /* Re-init Arbiter configuration for DMA transfers */
 248:.\Generated_Source\PSoC5/USBUART_1_pm.c ****         #if(USBUART_1_EP_MM != USBUART_1__EP_MANUAL)
 249:.\Generated_Source\PSoC5/USBUART_1_pm.c ****             /* Usb arb interrupt enable */
 250:.\Generated_Source\PSoC5/USBUART_1_pm.c ****             USBUART_1_ARB_INT_EN_REG = USBUART_1_ARB_INT_MASK;
 251:.\Generated_Source\PSoC5/USBUART_1_pm.c ****             #if(USBUART_1_EP_MM == USBUART_1__EP_DMAMANUAL)
 252:.\Generated_Source\PSoC5/USBUART_1_pm.c ****                 USBUART_1_ARB_CFG_REG = USBUART_1_ARB_CFG_MANUAL_DMA;
 253:.\Generated_Source\PSoC5/USBUART_1_pm.c ****             #endif   /*  USBUART_1_EP_MM == USBUART_1__EP_DMAMANUAL */
 254:.\Generated_Source\PSoC5/USBUART_1_pm.c ****             #if(USBUART_1_EP_MM == USBUART_1__EP_DMAAUTO)
 255:.\Generated_Source\PSoC5/USBUART_1_pm.c ****                 /*Set cfg cmplt this rises DMA request when the full configuration is done */
 256:.\Generated_Source\PSoC5/USBUART_1_pm.c ****                 USBUART_1_ARB_CFG_REG = USBUART_1_ARB_CFG_AUTO_DMA | USBUART_1_ARB_CFG_AUTO_MEM;
 257:.\Generated_Source\PSoC5/USBUART_1_pm.c ****             #endif   /*  USBUART_1_EP_MM == USBUART_1__EP_DMAAUTO */
 258:.\Generated_Source\PSoC5/USBUART_1_pm.c ****         #endif   /*  USBUART_1_EP_MM != USBUART_1__EP_MANUAL */
 259:.\Generated_Source\PSoC5/USBUART_1_pm.c **** 
ARM GAS  C:\Users\Robert\AppData\Local\Temp\ccGI9XoE.s 			page 13


 260:.\Generated_Source\PSoC5/USBUART_1_pm.c ****         /* STALL_IN_OUT */
 261:.\Generated_Source\PSoC5/USBUART_1_pm.c ****         CY_SET_REG8(USBUART_1_EP0_CR_PTR, USBUART_1_MODE_STALL_IN_OUT);
 426              		.loc 1 261 0
 427 0110 46F22803 		movw	r3, #24616
 428 0114 C4F20003 		movt	r3, 16384
 429 0118 4FF00302 		mov	r2, #3
 430 011c 1A70     		strb	r2, [r3, #0]
 262:.\Generated_Source\PSoC5/USBUART_1_pm.c ****         /* Enable the SIE with a last address */
 263:.\Generated_Source\PSoC5/USBUART_1_pm.c ****         USBUART_1_CR0_REG |= USBUART_1_CR0_ENABLE;
 431              		.loc 1 263 0
 432 011e 46F20803 		movw	r3, #24584
 433 0122 C4F20003 		movt	r3, 16384
 434 0126 46F20802 		movw	r2, #24584
 435 012a C4F20002 		movt	r2, 16384
 436 012e 1278     		ldrb	r2, [r2, #0]
 437 0130 D2B2     		uxtb	r2, r2
 438 0132 62F07F02 		orn	r2, r2, #127
 439 0136 D2B2     		uxtb	r2, r2
 440 0138 1A70     		strb	r2, [r3, #0]
 264:.\Generated_Source\PSoC5/USBUART_1_pm.c ****         CyDelayCycles(1u);
 441              		.loc 1 264 0
 442 013a 4FF00100 		mov	r0, #1
 443 013e FFF7FEFF 		bl	CyDelayCycles
 265:.\Generated_Source\PSoC5/USBUART_1_pm.c ****         /* Finally, Enable d+ pullup and select iomode to USB mode*/
 266:.\Generated_Source\PSoC5/USBUART_1_pm.c ****         CY_SET_REG8(USBUART_1_USBIO_CR1_PTR, USBUART_1_USBIO_CR1_USBPUEN);
 444              		.loc 1 266 0
 445 0142 46F21203 		movw	r3, #24594
 446 0146 C4F20003 		movt	r3, 16384
 447 014a 4FF00402 		mov	r2, #4
 448 014e 1A70     		strb	r2, [r3, #0]
 267:.\Generated_Source\PSoC5/USBUART_1_pm.c **** 
 268:.\Generated_Source\PSoC5/USBUART_1_pm.c ****         /* Restore USB register settings */
 269:.\Generated_Source\PSoC5/USBUART_1_pm.c ****         USBUART_1_RestoreConfig();
 449              		.loc 1 269 0
 450 0150 FFF7FEFF 		bl	USBUART_1_RestoreConfig
 451              	.L9:
 270:.\Generated_Source\PSoC5/USBUART_1_pm.c ****     }
 271:.\Generated_Source\PSoC5/USBUART_1_pm.c **** 
 272:.\Generated_Source\PSoC5/USBUART_1_pm.c ****     CyExitCriticalSection(enableInterrupts);
 452              		.loc 1 272 0
 453 0154 FB79     		ldrb	r3, [r7, #7]	@ zero_extendqisi2
 454 0156 1846     		mov	r0, r3
 455 0158 FFF7FEFF 		bl	CyExitCriticalSection
 273:.\Generated_Source\PSoC5/USBUART_1_pm.c **** }
 456              		.loc 1 273 0
 457 015c 07F10807 		add	r7, r7, #8
 458 0160 BD46     		mov	sp, r7
 459 0162 80BD     		pop	{r7, pc}
 460              		.cfi_endproc
 461              	.LFE60:
 462              		.size	USBUART_1_Resume, .-USBUART_1_Resume
 463              		.text
 464              	.Letext0:
 465              		.file 2 "c:\\program files (x86)\\cypress\\psoc creator\\3.0\\psoc creator\\import\\gnu_cs\\arm\\4
 466              		.file 3 "./Generated_Source/PSoC5/cytypes.h"
 467              		.file 4 "./Generated_Source/PSoC5/USBUART_1.h"
 468              		.file 5 "./Generated_Source/PSoC5/TFTSHIELD_1.h"
ARM GAS  C:\Users\Robert\AppData\Local\Temp\ccGI9XoE.s 			page 14


 469              		.file 6 "./Generated_Source/PSoC5/core_cm3.h"