ARM GAS  C:\Users\Brian\AppData\Local\Temp\ccqQdbjp.s 			page 1


   1              		.syntax unified
   2              		.cpu cortex-m3
   3              		.fpu softvfp
   4              		.eabi_attribute 20, 1
   5              		.eabi_attribute 21, 1
   6              		.eabi_attribute 23, 3
   7              		.eabi_attribute 24, 1
   8              		.eabi_attribute 25, 1
   9              		.eabi_attribute 26, 1
  10              		.eabi_attribute 30, 6
  11              		.eabi_attribute 34, 1
  12              		.eabi_attribute 18, 4
  13              		.thumb
  14              		.file	"main.c"
  15              		.text
  16              	.Ltext0:
  17              		.cfi_sections	.debug_frame
  18              		.comm	cursor_x,2,2
  19              		.comm	cursor_y,2,2
  20              		.comm	textcolor,2,2
  21              		.comm	textbgcolor,2,2
  22              		.comm	textsize,1,1
  23              		.comm	rotation,1,1
  24              		.comm	wrap,1,1
  25              		.comm	_width,4,4
  26              		.comm	_height,4,4
  27              		.comm	oldcolor,4,4
  28              		.comm	currentcolor,4,4
  29              		.section	.text.main,"ax",%progbits
  30              		.align	2
  31              		.global	main
  32              		.thumb
  33              		.thumb_func
  34              		.type	main, %function
  35              	main:
  36              	.LFB56:
  37              		.file 1 ".\\main.c"
   1:.\main.c      **** /*******************************************************************************
   2:.\main.c      **** * \file main.c
   3:.\main.c      **** * \brief This file is used to demonstrate the TFTSHIELD API.
   4:.\main.c      **** *
   5:.\main.c      **** * Version 1.0
   6:.\main.c      **** *
   7:.\main.c      **** * \author Robert Barron
   8:.\main.c      **** *
   9:.\main.c      **** * \bug 
  10:.\main.c      **** *******************************************************************************/
  11:.\main.c      **** #include <project.h>
  12:.\main.c      **** #include "stdio.h"
  13:.\main.c      **** 
  14:.\main.c      **** // This is calibration data for the raw touch data to the screen coordinates
  15:.\main.c      **** #define TS_MINX 150
  16:.\main.c      **** #define TS_MINY 130
  17:.\main.c      **** #define TS_MAXX 3800
  18:.\main.c      **** #define TS_MAXY 4000
  19:.\main.c      **** // Size of the color selection boxes and the paintbrush size
  20:.\main.c      **** #define BOXSIZE 40
ARM GAS  C:\Users\Brian\AppData\Local\Temp\ccqQdbjp.s 			page 2


  21:.\main.c      **** #define PENRADIUS 3
  22:.\main.c      **** int oldcolor, currentcolor;
  23:.\main.c      **** 
  24:.\main.c      **** long mapCoor(long x, long in_min, long in_max, long out_min, long out_max);
  25:.\main.c      **** 
  26:.\main.c      **** 
  27:.\main.c      **** int main()
  28:.\main.c      **** {   
  38              		.loc 1 28 0
  39              		.cfi_startproc
  40              		@ args = 0, pretend = 0, frame = 64
  41              		@ frame_needed = 1, uses_anonymous_args = 0
  42 0000 80B5     		push	{r7, lr}
  43              	.LCFI0:
  44              		.cfi_def_cfa_offset 8
  45              		.cfi_offset 7, -8
  46              		.cfi_offset 14, -4
  47 0002 92B0     		sub	sp, sp, #72
  48              	.LCFI1:
  49              		.cfi_def_cfa_offset 80
  50 0004 02AF     		add	r7, sp, #8
  51              	.LCFI2:
  52              		.cfi_def_cfa 7, 72
  29:.\main.c      ****     //initializes tft
  30:.\main.c      ****     CyDelay(1000);
  53              		.loc 1 30 0
  54 0006 4FF47A70 		mov	r0, #1000
  55 000a FFF7FEFF 		bl	CyDelay
  31:.\main.c      ****     Clock_1_SetDividerValue(24);
  56              		.loc 1 31 0
  57 000e 4FF01700 		mov	r0, #23
  58 0012 4FF00101 		mov	r1, #1
  59 0016 FFF7FEFF 		bl	Clock_1_SetDividerRegister
  32:.\main.c      ****     CyDelay(10);
  60              		.loc 1 32 0
  61 001a 4FF00A00 		mov	r0, #10
  62 001e FFF7FEFF 		bl	CyDelay
  33:.\main.c      ****     //TFTSHIELD_1_StartTouch();
  34:.\main.c      ****     bool touch_en = 0;
  63              		.loc 1 34 0
  64 0022 4FF00003 		mov	r3, #0
  65 0026 87F83F30 		strb	r3, [r7, #63]
  35:.\main.c      ****     
  36:.\main.c      ****     if(TFTSHIELD_1_StartTouch())
  66              		.loc 1 36 0
  67 002a FFF7FEFF 		bl	TFTSHIELD_1_StartTouch
  68 002e 0346     		mov	r3, r0
  69 0030 002B     		cmp	r3, #0
  70 0032 03D0     		beq	.L2
  37:.\main.c      ****     {
  38:.\main.c      ****        touch_en = 1;
  71              		.loc 1 38 0
  72 0034 4FF00103 		mov	r3, #1
  73 0038 87F83F30 		strb	r3, [r7, #63]
  74              	.L2:
  39:.\main.c      ****     }
  40:.\main.c      ****     
ARM GAS  C:\Users\Brian\AppData\Local\Temp\ccqQdbjp.s 			page 3


  41:.\main.c      ****     Clock_1_SetDividerValue(1);
  75              		.loc 1 41 0
  76 003c 4FF00000 		mov	r0, #0
  77 0040 4FF00101 		mov	r1, #1
  78 0044 FFF7FEFF 		bl	Clock_1_SetDividerRegister
  42:.\main.c      ****     CyDelay(10);
  79              		.loc 1 42 0
  80 0048 4FF00A00 		mov	r0, #10
  81 004c FFF7FEFF 		bl	CyDelay
  43:.\main.c      ****     TFTSHIELD_1_Start();
  82              		.loc 1 43 0
  83 0050 FFF7FEFF 		bl	TFTSHIELD_1_Start
  44:.\main.c      ****     
  45:.\main.c      ****     TFTSHIELD_1_FillScreen(BLACK);
  84              		.loc 1 45 0
  85 0054 4FF00000 		mov	r0, #0
  86 0058 FFF7FEFF 		bl	TFTSHIELD_1_FillScreen
  46:.\main.c      ****     //start at 0,0 for text
  47:.\main.c      ****     TFTSHIELD_1_SetCursor(0,0);
  87              		.loc 1 47 0
  88 005c 4FF00000 		mov	r0, #0
  89 0060 4FF00001 		mov	r1, #0
  90 0064 FFF7FEFF 		bl	TFTSHIELD_1_SetCursor
  48:.\main.c      ****     TFTSHIELD_1_SetTextColor(WHITE);  
  91              		.loc 1 48 0
  92 0068 4FF6FF70 		movw	r0, #65535
  93 006c FFF7FEFF 		bl	TFTSHIELD_1_SetTextColor
  49:.\main.c      ****     TFTSHIELD_1_SetTextSize(2);
  94              		.loc 1 49 0
  95 0070 4FF00200 		mov	r0, #2
  96 0074 FFF7FEFF 		bl	TFTSHIELD_1_SetTextSize
  50:.\main.c      ****     
  51:.\main.c      ****     //landscape orientation
  52:.\main.c      ****     //TFTSHIELD_1_SetRotation(1);
  53:.\main.c      ****     //TFTSHIELD_1_PrintString("tft lcd screen with word wrap working blah blah blah");
  54:.\main.c      ****     
  55:.\main.c      ****     //TFTSHIELD_1_DrawLine(50, 150, 100, 150, GREEN);
  56:.\main.c      ****    // TFTSHIELD_1_DrawLine(35, 100, 35 , 200, BLUE);
  57:.\main.c      ****     //TFTSHIELD_1_FillCircle(100,100,10,MAGENTA);
  58:.\main.c      ****     
  59:.\main.c      ****     //TFTSHIELD_1_FillRect(150, 150, 75,75, YELLOW);
  60:.\main.c      ****     if(touch_en)
  61:.\main.c      ****     {
  62:.\main.c      ****         //TFTSHIELD_1_PrintString("GO1");
  63:.\main.c      ****     }
  64:.\main.c      ****     //initializes touchscreen
  65:.\main.c      ****     //clock must be set to 1MHZ when polling the touchscreen..
  66:.\main.c      ****     Clock_1_SetDividerValue(24);
  97              		.loc 1 66 0
  98 0078 4FF01700 		mov	r0, #23
  99 007c 4FF00101 		mov	r1, #1
 100 0080 FFF7FEFF 		bl	Clock_1_SetDividerRegister
  67:.\main.c      ****     CyDelay(10);
 101              		.loc 1 67 0
 102 0084 4FF00A00 		mov	r0, #10
 103 0088 FFF7FEFF 		bl	CyDelay
  68:.\main.c      ****     
ARM GAS  C:\Users\Brian\AppData\Local\Temp\ccqQdbjp.s 			page 4


  69:.\main.c      ****     //int touchon = 0;
  70:.\main.c      ****     if(TFTSHIELD_1_StartTouch())
 104              		.loc 1 70 0
 105 008c FFF7FEFF 		bl	TFTSHIELD_1_StartTouch
  71:.\main.c      ****     {
  72:.\main.c      ****          //touchon = 1;  
  73:.\main.c      ****         /*Clock_1_SetDividerValue(1);
  74:.\main.c      ****         CyDelay(1);
  75:.\main.c      ****         TFTSHIELD_1_PrintString("     GO2");
  76:.\main.c      ****         Clock_1_SetDividerValue(24);*/
  77:.\main.c      ****     }
  78:.\main.c      ****     
  79:.\main.c      ****     Clock_1_SetDividerValue(1);
 106              		.loc 1 79 0
 107 0090 4FF00000 		mov	r0, #0
 108 0094 4FF00101 		mov	r1, #1
 109 0098 FFF7FEFF 		bl	Clock_1_SetDividerRegister
  80:.\main.c      ****     CyDelay(10);
 110              		.loc 1 80 0
 111 009c 4FF00A00 		mov	r0, #10
 112 00a0 FFF7FEFF 		bl	CyDelay
  81:.\main.c      ****     
  82:.\main.c      ****     //leds
  83:.\main.c      ****     TFTSHIELD_1_FillCircle(120,40,20,GRAY);
 113              		.loc 1 83 0
 114 00a4 4FF07800 		mov	r0, #120
 115 00a8 4FF02801 		mov	r1, #40
 116 00ac 4FF01402 		mov	r2, #20
 117 00b0 47F6EF33 		movw	r3, #31727
 118 00b4 FFF7FEFF 		bl	TFTSHIELD_1_FillCircle
  84:.\main.c      ****     TFTSHIELD_1_FillCircle(120,120,20,GRAY);
 119              		.loc 1 84 0
 120 00b8 4FF07800 		mov	r0, #120
 121 00bc 4FF07801 		mov	r1, #120
 122 00c0 4FF01402 		mov	r2, #20
 123 00c4 47F6EF33 		movw	r3, #31727
 124 00c8 FFF7FEFF 		bl	TFTSHIELD_1_FillCircle
  85:.\main.c      ****     TFTSHIELD_1_FillCircle(120,200,20,GRAY);
 125              		.loc 1 85 0
 126 00cc 4FF07800 		mov	r0, #120
 127 00d0 4FF0C801 		mov	r1, #200
 128 00d4 4FF01402 		mov	r2, #20
 129 00d8 47F6EF33 		movw	r3, #31727
 130 00dc FFF7FEFF 		bl	TFTSHIELD_1_FillCircle
  86:.\main.c      ****     TFTSHIELD_1_FillCircle(120,280,20,GRAY);
 131              		.loc 1 86 0
 132 00e0 4FF07800 		mov	r0, #120
 133 00e4 4FF48C71 		mov	r1, #280
 134 00e8 4FF01402 		mov	r2, #20
 135 00ec 47F6EF33 		movw	r3, #31727
 136 00f0 FFF7FEFF 		bl	TFTSHIELD_1_FillCircle
  87:.\main.c      ****     
  88:.\main.c      ****     //pushbuttons
  89:.\main.c      ****     TFTSHIELD_1_FillRect(175,15,50,50,GRAY);
 137              		.loc 1 89 0
 138 00f4 47F6EF33 		movw	r3, #31727
 139 00f8 0093     		str	r3, [sp, #0]
ARM GAS  C:\Users\Brian\AppData\Local\Temp\ccqQdbjp.s 			page 5


 140 00fa 4FF0AF00 		mov	r0, #175
 141 00fe 4FF00F01 		mov	r1, #15
 142 0102 4FF03202 		mov	r2, #50
 143 0106 4FF03203 		mov	r3, #50
 144 010a FFF7FEFF 		bl	TFTSHIELD_1_FillRect
  90:.\main.c      ****     TFTSHIELD_1_FillRect(175,95,50,50,GRAY);
 145              		.loc 1 90 0
 146 010e 47F6EF33 		movw	r3, #31727
 147 0112 0093     		str	r3, [sp, #0]
 148 0114 4FF0AF00 		mov	r0, #175
 149 0118 4FF05F01 		mov	r1, #95
 150 011c 4FF03202 		mov	r2, #50
 151 0120 4FF03203 		mov	r3, #50
 152 0124 FFF7FEFF 		bl	TFTSHIELD_1_FillRect
  91:.\main.c      ****     TFTSHIELD_1_FillRect(175,175,50,50,GRAY);
 153              		.loc 1 91 0
 154 0128 47F6EF33 		movw	r3, #31727
 155 012c 0093     		str	r3, [sp, #0]
 156 012e 4FF0AF00 		mov	r0, #175
 157 0132 4FF0AF01 		mov	r1, #175
 158 0136 4FF03202 		mov	r2, #50
 159 013a 4FF03203 		mov	r3, #50
 160 013e FFF7FEFF 		bl	TFTSHIELD_1_FillRect
  92:.\main.c      ****     TFTSHIELD_1_FillRect(175,255,50,50,GRAY);
 161              		.loc 1 92 0
 162 0142 47F6EF33 		movw	r3, #31727
 163 0146 0093     		str	r3, [sp, #0]
 164 0148 4FF0AF00 		mov	r0, #175
 165 014c 4FF0FF01 		mov	r1, #255
 166 0150 4FF03202 		mov	r2, #50
 167 0154 4FF03203 		mov	r3, #50
 168 0158 FFF7FEFF 		bl	TFTSHIELD_1_FillRect
  93:.\main.c      ****     TFTSHIELD_1_FillCircle(200,40,20,BLACK);
 169              		.loc 1 93 0
 170 015c 4FF0C800 		mov	r0, #200
 171 0160 4FF02801 		mov	r1, #40
 172 0164 4FF01402 		mov	r2, #20
 173 0168 4FF00003 		mov	r3, #0
 174 016c FFF7FEFF 		bl	TFTSHIELD_1_FillCircle
  94:.\main.c      ****     TFTSHIELD_1_FillCircle(200,120,20,BLACK);
 175              		.loc 1 94 0
 176 0170 4FF0C800 		mov	r0, #200
 177 0174 4FF07801 		mov	r1, #120
 178 0178 4FF01402 		mov	r2, #20
 179 017c 4FF00003 		mov	r3, #0
 180 0180 FFF7FEFF 		bl	TFTSHIELD_1_FillCircle
  95:.\main.c      ****     TFTSHIELD_1_FillCircle(200,200,20,BLACK);
 181              		.loc 1 95 0
 182 0184 4FF0C800 		mov	r0, #200
 183 0188 4FF0C801 		mov	r1, #200
 184 018c 4FF01402 		mov	r2, #20
 185 0190 4FF00003 		mov	r3, #0
 186 0194 FFF7FEFF 		bl	TFTSHIELD_1_FillCircle
  96:.\main.c      ****     TFTSHIELD_1_FillCircle(200,280,20,BLACK);
 187              		.loc 1 96 0
 188 0198 4FF0C800 		mov	r0, #200
 189 019c 4FF48C71 		mov	r1, #280
ARM GAS  C:\Users\Brian\AppData\Local\Temp\ccqQdbjp.s 			page 6


 190 01a0 4FF01402 		mov	r2, #20
 191 01a4 4FF00003 		mov	r3, #0
 192 01a8 FFF7FEFF 		bl	TFTSHIELD_1_FillCircle
 193              	.L15:
 194              	.LBB2:
  97:.\main.c      ****     
  98:.\main.c      ****     for(;;)
  99:.\main.c      ****     {
 100:.\main.c      ****         Clock_1_SetDividerValue(24);
 195              		.loc 1 100 0
 196 01ac 4FF01700 		mov	r0, #23
 197 01b0 4FF00101 		mov	r1, #1
 198 01b4 FFF7FEFF 		bl	Clock_1_SetDividerRegister
 101:.\main.c      ****         uint16_t x, y;
 102:.\main.c      ****         uint8_t z, buf;
 103:.\main.c      ****         char buffer[50];
 104:.\main.c      ****         //Clock_1_SetDividerValue(24);
 105:.\main.c      ****         CyDelay(1);
 199              		.loc 1 105 0
 200 01b8 4FF00100 		mov	r0, #1
 201 01bc FFF7FEFF 		bl	CyDelay
 106:.\main.c      ****         if(TFTSHIELD_1_Touched())
 202              		.loc 1 106 0
 203 01c0 FFF7FEFF 		bl	TFTSHIELD_1_Touched
 204 01c4 0346     		mov	r3, r0
 205 01c6 002B     		cmp	r3, #0
 206 01c8 00F0CF80 		beq	.L3
 107:.\main.c      ****         {
 108:.\main.c      ****            
 109:.\main.c      ****             TFTSHIELD_1_ReadData(&x,&y,&z);
 207              		.loc 1 109 0
 208 01cc 07F13C01 		add	r1, r7, #60
 209 01d0 07F13A02 		add	r2, r7, #58
 210 01d4 07F13903 		add	r3, r7, #57
 211 01d8 0846     		mov	r0, r1
 212 01da 1146     		mov	r1, r2
 213 01dc 1A46     		mov	r2, r3
 214 01de FFF7FEFF 		bl	TFTSHIELD_1_ReadData
 110:.\main.c      ****             x = mapCoor(x, TS_MINX, TS_MAXX, 0, 240);
 215              		.loc 1 110 0
 216 01e2 BB8F     		ldrh	r3, [r7, #60]
 217 01e4 4FF0F002 		mov	r2, #240
 218 01e8 0092     		str	r2, [sp, #0]
 219 01ea 1846     		mov	r0, r3
 220 01ec 4FF09601 		mov	r1, #150
 221 01f0 40F6D862 		movw	r2, #3800
 222 01f4 4FF00003 		mov	r3, #0
 223 01f8 FFF7FEFF 		bl	mapCoor
 224 01fc 0346     		mov	r3, r0
 225 01fe 9BB2     		uxth	r3, r3
 226 0200 BB87     		strh	r3, [r7, #60]	@ movhi
 111:.\main.c      ****             y = mapCoor(y, TS_MINY, TS_MAXY, 0, 320);
 227              		.loc 1 111 0
 228 0202 7B8F     		ldrh	r3, [r7, #58]
 229 0204 4FF4A072 		mov	r2, #320
 230 0208 0092     		str	r2, [sp, #0]
 231 020a 1846     		mov	r0, r3
ARM GAS  C:\Users\Brian\AppData\Local\Temp\ccqQdbjp.s 			page 7


 232 020c 4FF08201 		mov	r1, #130
 233 0210 4FF47A62 		mov	r2, #4000
 234 0214 4FF00003 		mov	r3, #0
 235 0218 FFF7FEFF 		bl	mapCoor
 236 021c 0346     		mov	r3, r0
 237 021e 9BB2     		uxth	r3, r3
 238 0220 7B87     		strh	r3, [r7, #58]	@ movhi
 112:.\main.c      ****             Clock_1_SetDividerValue(1);
 239              		.loc 1 112 0
 240 0222 4FF00000 		mov	r0, #0
 241 0226 4FF00101 		mov	r1, #1
 242 022a FFF7FEFF 		bl	Clock_1_SetDividerRegister
 113:.\main.c      ****             if(x > 175 && x < 225)
 243              		.loc 1 113 0
 244 022e BB8F     		ldrh	r3, [r7, #60]
 245 0230 AF2B     		cmp	r3, #175
 246 0232 70D9     		bls	.L4
 247              		.loc 1 113 0 is_stmt 0 discriminator 1
 248 0234 BB8F     		ldrh	r3, [r7, #60]
 249 0236 E02B     		cmp	r3, #224
 250 0238 6DD8     		bhi	.L4
 114:.\main.c      ****             {
 115:.\main.c      ****                 if(y > 15 && y < 65)
 251              		.loc 1 115 0 is_stmt 1
 252 023a 7B8F     		ldrh	r3, [r7, #58]
 253 023c 0F2B     		cmp	r3, #15
 254 023e 0DD9     		bls	.L5
 255              		.loc 1 115 0 is_stmt 0 discriminator 1
 256 0240 7B8F     		ldrh	r3, [r7, #58]
 257 0242 402B     		cmp	r3, #64
 258 0244 0AD8     		bhi	.L5
 116:.\main.c      ****                 {
 117:.\main.c      ****                     TFTSHIELD_1_FillCircle(120,40,20,RED);
 259              		.loc 1 117 0 is_stmt 1
 260 0246 4FF07800 		mov	r0, #120
 261 024a 4FF02801 		mov	r1, #40
 262 024e 4FF01402 		mov	r2, #20
 263 0252 4FF47843 		mov	r3, #63488
 264 0256 FFF7FEFF 		bl	TFTSHIELD_1_FillCircle
 265 025a 09E0     		b	.L6
 266              	.L5:
 118:.\main.c      ****                 }
 119:.\main.c      ****                 else
 120:.\main.c      ****                 {
 121:.\main.c      ****                     TFTSHIELD_1_FillCircle(120,40,20,GRAY);
 267              		.loc 1 121 0
 268 025c 4FF07800 		mov	r0, #120
 269 0260 4FF02801 		mov	r1, #40
 270 0264 4FF01402 		mov	r2, #20
 271 0268 47F6EF33 		movw	r3, #31727
 272 026c FFF7FEFF 		bl	TFTSHIELD_1_FillCircle
 273              	.L6:
 122:.\main.c      ****                 }
 123:.\main.c      ****                  if(y > 95 && y < 145)
 274              		.loc 1 123 0
 275 0270 7B8F     		ldrh	r3, [r7, #58]
 276 0272 5F2B     		cmp	r3, #95
ARM GAS  C:\Users\Brian\AppData\Local\Temp\ccqQdbjp.s 			page 8


 277 0274 0DD9     		bls	.L7
 278              		.loc 1 123 0 is_stmt 0 discriminator 1
 279 0276 7B8F     		ldrh	r3, [r7, #58]
 280 0278 902B     		cmp	r3, #144
 281 027a 0AD8     		bhi	.L7
 124:.\main.c      ****                 {
 125:.\main.c      ****                     TFTSHIELD_1_FillCircle(120,120,20,RED);
 282              		.loc 1 125 0 is_stmt 1
 283 027c 4FF07800 		mov	r0, #120
 284 0280 4FF07801 		mov	r1, #120
 285 0284 4FF01402 		mov	r2, #20
 286 0288 4FF47843 		mov	r3, #63488
 287 028c FFF7FEFF 		bl	TFTSHIELD_1_FillCircle
 288 0290 09E0     		b	.L8
 289              	.L7:
 126:.\main.c      ****                 }
 127:.\main.c      ****                 else
 128:.\main.c      ****                 {
 129:.\main.c      ****                     TFTSHIELD_1_FillCircle(120,120,20,GRAY);
 290              		.loc 1 129 0
 291 0292 4FF07800 		mov	r0, #120
 292 0296 4FF07801 		mov	r1, #120
 293 029a 4FF01402 		mov	r2, #20
 294 029e 47F6EF33 		movw	r3, #31727
 295 02a2 FFF7FEFF 		bl	TFTSHIELD_1_FillCircle
 296              	.L8:
 130:.\main.c      ****                  }
 131:.\main.c      ****                  if(y > 175 && y < 225)
 297              		.loc 1 131 0
 298 02a6 7B8F     		ldrh	r3, [r7, #58]
 299 02a8 AF2B     		cmp	r3, #175
 300 02aa 0DD9     		bls	.L9
 301              		.loc 1 131 0 is_stmt 0 discriminator 1
 302 02ac 7B8F     		ldrh	r3, [r7, #58]
 303 02ae E02B     		cmp	r3, #224
 304 02b0 0AD8     		bhi	.L9
 132:.\main.c      ****                 {
 133:.\main.c      ****                     TFTSHIELD_1_FillCircle(120,200,20,RED);
 305              		.loc 1 133 0 is_stmt 1
 306 02b2 4FF07800 		mov	r0, #120
 307 02b6 4FF0C801 		mov	r1, #200
 308 02ba 4FF01402 		mov	r2, #20
 309 02be 4FF47843 		mov	r3, #63488
 310 02c2 FFF7FEFF 		bl	TFTSHIELD_1_FillCircle
 311 02c6 09E0     		b	.L10
 312              	.L9:
 134:.\main.c      ****                 }
 135:.\main.c      ****                 else
 136:.\main.c      ****                 {
 137:.\main.c      ****                     TFTSHIELD_1_FillCircle(120,200,20,GRAY);
 313              		.loc 1 137 0
 314 02c8 4FF07800 		mov	r0, #120
 315 02cc 4FF0C801 		mov	r1, #200
 316 02d0 4FF01402 		mov	r2, #20
 317 02d4 47F6EF33 		movw	r3, #31727
 318 02d8 FFF7FEFF 		bl	TFTSHIELD_1_FillCircle
 319              	.L10:
ARM GAS  C:\Users\Brian\AppData\Local\Temp\ccqQdbjp.s 			page 9


 138:.\main.c      ****                  }
 139:.\main.c      ****                   if(y > 255 && y < 295)
 320              		.loc 1 139 0
 321 02dc 7B8F     		ldrh	r3, [r7, #58]
 322 02de FF2B     		cmp	r3, #255
 323 02e0 0ED9     		bls	.L11
 324              		.loc 1 139 0 is_stmt 0 discriminator 1
 325 02e2 7B8F     		ldrh	r3, [r7, #58]
 326 02e4 B3F5937F 		cmp	r3, #294
 327 02e8 0AD8     		bhi	.L11
 140:.\main.c      ****                 {
 141:.\main.c      ****                     TFTSHIELD_1_FillCircle(120,280,20,RED);
 328              		.loc 1 141 0 is_stmt 1
 329 02ea 4FF07800 		mov	r0, #120
 330 02ee 4FF48C71 		mov	r1, #280
 331 02f2 4FF01402 		mov	r2, #20
 332 02f6 4FF47843 		mov	r3, #63488
 333 02fa FFF7FEFF 		bl	TFTSHIELD_1_FillCircle
 139:.\main.c      ****                   if(y > 255 && y < 295)
 334              		.loc 1 139 0
 335 02fe 33E0     		b	.L13
 336              	.L11:
 142:.\main.c      ****                 }
 143:.\main.c      ****                 
 144:.\main.c      ****                 else
 145:.\main.c      ****                 {
 146:.\main.c      ****                      TFTSHIELD_1_FillCircle(120,280,20,GRAY);
 337              		.loc 1 146 0
 338 0300 4FF07800 		mov	r0, #120
 339 0304 4FF48C71 		mov	r1, #280
 340 0308 4FF01402 		mov	r2, #20
 341 030c 47F6EF33 		movw	r3, #31727
 342 0310 FFF7FEFF 		bl	TFTSHIELD_1_FillCircle
 139:.\main.c      ****                   if(y > 255 && y < 295)
 343              		.loc 1 139 0
 344 0314 28E0     		b	.L13
 345              	.L4:
 147:.\main.c      ****                  }
 148:.\main.c      ****                 
 149:.\main.c      ****             }
 150:.\main.c      ****             else
 151:.\main.c      ****             {
 152:.\main.c      ****             TFTSHIELD_1_FillCircle(120,40,20,GRAY);
 346              		.loc 1 152 0
 347 0316 4FF07800 		mov	r0, #120
 348 031a 4FF02801 		mov	r1, #40
 349 031e 4FF01402 		mov	r2, #20
 350 0322 47F6EF33 		movw	r3, #31727
 351 0326 FFF7FEFF 		bl	TFTSHIELD_1_FillCircle
 153:.\main.c      ****             TFTSHIELD_1_FillCircle(120,120,20,GRAY);
 352              		.loc 1 153 0
 353 032a 4FF07800 		mov	r0, #120
 354 032e 4FF07801 		mov	r1, #120
 355 0332 4FF01402 		mov	r2, #20
 356 0336 47F6EF33 		movw	r3, #31727
 357 033a FFF7FEFF 		bl	TFTSHIELD_1_FillCircle
 154:.\main.c      ****             TFTSHIELD_1_FillCircle(120,200,20,GRAY);
ARM GAS  C:\Users\Brian\AppData\Local\Temp\ccqQdbjp.s 			page 10


 358              		.loc 1 154 0
 359 033e 4FF07800 		mov	r0, #120
 360 0342 4FF0C801 		mov	r1, #200
 361 0346 4FF01402 		mov	r2, #20
 362 034a 47F6EF33 		movw	r3, #31727
 363 034e FFF7FEFF 		bl	TFTSHIELD_1_FillCircle
 155:.\main.c      ****             TFTSHIELD_1_FillCircle(120,280,20,GRAY);
 364              		.loc 1 155 0
 365 0352 4FF07800 		mov	r0, #120
 366 0356 4FF48C71 		mov	r1, #280
 367 035a 4FF01402 		mov	r2, #20
 368 035e 47F6EF33 		movw	r3, #31727
 369 0362 FFF7FEFF 		bl	TFTSHIELD_1_FillCircle
 370              	.LBE2:
 156:.\main.c      ****             }
 157:.\main.c      ****         }
 158:.\main.c      ****         else
 159:.\main.c      ****         {
 160:.\main.c      ****             TFTSHIELD_1_ResetBuffer();
 161:.\main.c      ****              Clock_1_SetDividerValue(1);
 162:.\main.c      ****             //leds
 163:.\main.c      ****             TFTSHIELD_1_FillCircle(120,40,20,GRAY);
 164:.\main.c      ****             TFTSHIELD_1_FillCircle(120,120,20,GRAY);
 165:.\main.c      ****             TFTSHIELD_1_FillCircle(120,200,20,GRAY);
 166:.\main.c      ****             TFTSHIELD_1_FillCircle(120,280,20,GRAY);
 167:.\main.c      ****         }
 168:.\main.c      ****     
 169:.\main.c      ****     }
 371              		.loc 1 169 0
 372 0366 21E7     		b	.L15
 373              	.L13:
 374 0368 20E7     		b	.L15
 375              	.L3:
 376              	.LBB3:
 160:.\main.c      ****             TFTSHIELD_1_ResetBuffer();
 377              		.loc 1 160 0
 378 036a FFF7FEFF 		bl	TFTSHIELD_1_ResetBuffer
 161:.\main.c      ****              Clock_1_SetDividerValue(1);
 379              		.loc 1 161 0
 380 036e 4FF00000 		mov	r0, #0
 381 0372 4FF00101 		mov	r1, #1
 382 0376 FFF7FEFF 		bl	Clock_1_SetDividerRegister
 163:.\main.c      ****             TFTSHIELD_1_FillCircle(120,40,20,GRAY);
 383              		.loc 1 163 0
 384 037a 4FF07800 		mov	r0, #120
 385 037e 4FF02801 		mov	r1, #40
 386 0382 4FF01402 		mov	r2, #20
 387 0386 47F6EF33 		movw	r3, #31727
 388 038a FFF7FEFF 		bl	TFTSHIELD_1_FillCircle
 164:.\main.c      ****             TFTSHIELD_1_FillCircle(120,120,20,GRAY);
 389              		.loc 1 164 0
 390 038e 4FF07800 		mov	r0, #120
 391 0392 4FF07801 		mov	r1, #120
 392 0396 4FF01402 		mov	r2, #20
 393 039a 47F6EF33 		movw	r3, #31727
 394 039e FFF7FEFF 		bl	TFTSHIELD_1_FillCircle
 165:.\main.c      ****             TFTSHIELD_1_FillCircle(120,200,20,GRAY);
ARM GAS  C:\Users\Brian\AppData\Local\Temp\ccqQdbjp.s 			page 11


 395              		.loc 1 165 0
 396 03a2 4FF07800 		mov	r0, #120
 397 03a6 4FF0C801 		mov	r1, #200
 398 03aa 4FF01402 		mov	r2, #20
 399 03ae 47F6EF33 		movw	r3, #31727
 400 03b2 FFF7FEFF 		bl	TFTSHIELD_1_FillCircle
 166:.\main.c      ****             TFTSHIELD_1_FillCircle(120,280,20,GRAY);
 401              		.loc 1 166 0
 402 03b6 4FF07800 		mov	r0, #120
 403 03ba 4FF48C71 		mov	r1, #280
 404 03be 4FF01402 		mov	r2, #20
 405 03c2 47F6EF33 		movw	r3, #31727
 406 03c6 FFF7FEFF 		bl	TFTSHIELD_1_FillCircle
 407              	.LBE3:
 408              		.loc 1 169 0
 409 03ca EFE6     		b	.L15
 410              		.cfi_endproc
 411              	.LFE56:
 412              		.size	main, .-main
 413              		.section	.text.mapCoor,"ax",%progbits
 414              		.align	2
 415              		.global	mapCoor
 416              		.thumb
 417              		.thumb_func
 418              		.type	mapCoor, %function
 419              	mapCoor:
 420              	.LFB57:
 170:.\main.c      ****     
 171:.\main.c      ****     
 172:.\main.c      **** }
 173:.\main.c      **** 
 174:.\main.c      **** long mapCoor(long x, long in_min, long in_max, long out_min, long out_max)
 175:.\main.c      **** {
 421              		.loc 1 175 0
 422              		.cfi_startproc
 423              		@ args = 4, pretend = 0, frame = 16
 424              		@ frame_needed = 1, uses_anonymous_args = 0
 425              		@ link register save eliminated.
 426 0000 80B4     		push	{r7}
 427              	.LCFI3:
 428              		.cfi_def_cfa_offset 4
 429              		.cfi_offset 7, -4
 430 0002 85B0     		sub	sp, sp, #20
 431              	.LCFI4:
 432              		.cfi_def_cfa_offset 24
 433 0004 00AF     		add	r7, sp, #0
 434              	.LCFI5:
 435              		.cfi_def_cfa_register 7
 436 0006 F860     		str	r0, [r7, #12]
 437 0008 B960     		str	r1, [r7, #8]
 438 000a 7A60     		str	r2, [r7, #4]
 439 000c 3B60     		str	r3, [r7, #0]
 176:.\main.c      ****   return (x - in_min) * (out_max - out_min) / (in_max - in_min) + out_min;
 440              		.loc 1 176 0
 441 000e FA68     		ldr	r2, [r7, #12]
 442 0010 BB68     		ldr	r3, [r7, #8]
 443 0012 D31A     		subs	r3, r2, r3
ARM GAS  C:\Users\Brian\AppData\Local\Temp\ccqQdbjp.s 			page 12


 444 0014 B969     		ldr	r1, [r7, #24]
 445 0016 3A68     		ldr	r2, [r7, #0]
 446 0018 8A1A     		subs	r2, r1, r2
 447 001a 02FB03F2 		mul	r2, r2, r3
 448 001e 7968     		ldr	r1, [r7, #4]
 449 0020 BB68     		ldr	r3, [r7, #8]
 450 0022 CB1A     		subs	r3, r1, r3
 451 0024 92FBF3F2 		sdiv	r2, r2, r3
 452 0028 3B68     		ldr	r3, [r7, #0]
 453 002a D318     		adds	r3, r2, r3
 177:.\main.c      **** }...
 454              		.loc 1 177 0
 455 002c 1846     		mov	r0, r3
 456 002e 07F11407 		add	r7, r7, #20
 457 0032 BD46     		mov	sp, r7
 458 0034 80BC     		pop	{r7}
 459 0036 7047     		bx	lr
 460              		.cfi_endproc
 461              	.LFE57:
 462              		.size	mapCoor, .-mapCoor
 463              		.text
 464              	.Letext0:
 465              		.file 2 "c:\\program files (x86)\\cypress\\psoc creator\\3.0\\psoc creator\\import\\gnu_cs\\arm\\4
 466              		.file 3 "./Generated_Source/PSoC5/TFTSHIELD_1.h"
 467              		.file 4 "./Generated_Source/PSoC5/core_cm3.h"