ARM GAS  C:\Users\barror2\AppData\Local\Temp\cc1QFQFc.s 			page 1


   1              		.syntax unified
   2              		.cpu cortex-m3
   3              		.fpu softvfp
   4              		.eabi_attribute 20, 1
   5              		.eabi_attribute 21, 1
   6              		.eabi_attribute 23, 3
   7              		.eabi_attribute 24, 1
   8              		.eabi_attribute 25, 1
   9              		.eabi_attribute 26, 1
  10              		.eabi_attribute 30, 6
  11              		.eabi_attribute 34, 1
  12              		.eabi_attribute 18, 4
  13              		.thumb
  14              		.file	"main.c"
  15              		.text
  16              	.Ltext0:
  17              		.cfi_sections	.debug_frame
  18              		.comm	cursor_x,2,2
  19              		.comm	cursor_y,2,2
  20              		.comm	textcolor,2,2
  21              		.comm	textbgcolor,2,2
  22              		.comm	textsize,1,1
  23              		.comm	rotation,1,1
  24              		.comm	wrap,1,1
  25              		.comm	_width,4,4
  26              		.comm	_height,4,4
  27              		.section	.rodata
  28              		.align	2
  29              	.LC0:
  30 0000 74667420 		.ascii	"tft lcd screen with word wrap working blah blah bla"
  30      6C636420 
  30      73637265 
  30      656E2077 
  30      69746820 
  31 0033 6800     		.ascii	"h\000"
  32 0035 000000   		.section	.text.main,"ax",%progbits
  33              		.align	2
  34              		.global	main
  35              		.thumb
  36              		.thumb_func
  37              		.type	main, %function
  38              	main:
  39              	.LFB56:
  40              		.file 1 ".\\main.c"
   1:.\main.c      **** /*******************************************************************************
   2:.\main.c      **** * \file main.c
   3:.\main.c      **** * \brief This file is used to demonstrate the TFTSHIELD API.
   4:.\main.c      **** *
   5:.\main.c      **** * Version 1.0
   6:.\main.c      **** *
   7:.\main.c      **** * \author Robert Barron
   8:.\main.c      **** *
   9:.\main.c      **** * \bug 
  10:.\main.c      **** *******************************************************************************/
  11:.\main.c      **** #include <project.h>
  12:.\main.c      **** 
  13:.\main.c      **** int main()
ARM GAS  C:\Users\barror2\AppData\Local\Temp\cc1QFQFc.s 			page 2


  14:.\main.c      **** {   
  41              		.loc 1 14 0
  42              		.cfi_startproc
  43              		@ args = 0, pretend = 0, frame = 0
  44              		@ frame_needed = 1, uses_anonymous_args = 0
  45 0000 80B5     		push	{r7, lr}
  46              	.LCFI0:
  47              		.cfi_def_cfa_offset 8
  48              		.cfi_offset 7, -8
  49              		.cfi_offset 14, -4
  50 0002 82B0     		sub	sp, sp, #8
  51              	.LCFI1:
  52              		.cfi_def_cfa_offset 16
  53 0004 02AF     		add	r7, sp, #8
  54              	.LCFI2:
  55              		.cfi_def_cfa 7, 8
  15:.\main.c      ****     //intializes tft
  16:.\main.c      ****     TFTSHIELD_1_Start();
  56              		.loc 1 16 0
  57 0006 FFF7FEFF 		bl	TFTSHIELD_1_Start
  17:.\main.c      ****     
  18:.\main.c      ****     TFTSHIELD_1_FillScreen(BLACK);
  58              		.loc 1 18 0
  59 000a 4FF00000 		mov	r0, #0
  60 000e FFF7FEFF 		bl	TFTSHIELD_1_FillScreen
  19:.\main.c      ****     //start at 0,0 for text
  20:.\main.c      ****     TFTSHIELD_1_SetCursor(0, 0);
  61              		.loc 1 20 0
  62 0012 4FF00000 		mov	r0, #0
  63 0016 4FF00001 		mov	r1, #0
  64 001a FFF7FEFF 		bl	TFTSHIELD_1_SetCursor
  21:.\main.c      ****     TFTSHIELD_1_SetTextColor(WHITE);  
  65              		.loc 1 21 0
  66 001e 4FF6FF70 		movw	r0, #65535
  67 0022 FFF7FEFF 		bl	TFTSHIELD_1_SetTextColor
  22:.\main.c      ****     TFTSHIELD_1_SetTextSize(2);
  68              		.loc 1 22 0
  69 0026 4FF00200 		mov	r0, #2
  70 002a FFF7FEFF 		bl	TFTSHIELD_1_SetTextSize
  23:.\main.c      ****     
  24:.\main.c      ****     //landscape orientation
  25:.\main.c      ****     TFTSHIELD_1_SetRotation(1);
  71              		.loc 1 25 0
  72 002e 4FF00100 		mov	r0, #1
  73 0032 FFF7FEFF 		bl	TFTSHIELD_1_SetRotation
  26:.\main.c      ****     TFTSHIELD_1_PrintString("tft lcd screen with word wrap working blah blah blah");
  74              		.loc 1 26 0
  75 0036 40F20000 		movw	r0, #:lower16:.LC0
  76 003a C0F20000 		movt	r0, #:upper16:.LC0
  77 003e FFF7FEFF 		bl	TFTSHIELD_1_PrintString
  27:.\main.c      ****     
  28:.\main.c      ****     TFTSHIELD_1_DrawLine(50, 150, 100, 150, GREEN);
  78              		.loc 1 28 0
  79 0042 4FF4FC63 		mov	r3, #2016
  80 0046 0093     		str	r3, [sp, #0]
  81 0048 4FF03200 		mov	r0, #50
  82 004c 4FF09601 		mov	r1, #150
ARM GAS  C:\Users\barror2\AppData\Local\Temp\cc1QFQFc.s 			page 3


  83 0050 4FF06402 		mov	r2, #100
  84 0054 4FF09603 		mov	r3, #150
  85 0058 FFF7FEFF 		bl	TFTSHIELD_1_DrawLine
  29:.\main.c      ****     TFTSHIELD_1_DrawLine(35, 100, 35 , 200, BLUE);
  86              		.loc 1 29 0
  87 005c 4FF01F03 		mov	r3, #31
  88 0060 0093     		str	r3, [sp, #0]
  89 0062 4FF02300 		mov	r0, #35
  90 0066 4FF06401 		mov	r1, #100
  91 006a 4FF02302 		mov	r2, #35
  92 006e 4FF0C803 		mov	r3, #200
  93 0072 FFF7FEFF 		bl	TFTSHIELD_1_DrawLine
  30:.\main.c      ****     
  31:.\main.c      ****     TFTSHIELD_1_FillRect(150, 150, 75,75, YELLOW);
  94              		.loc 1 31 0
  95 0076 4FF6E073 		movw	r3, #65504
  96 007a 0093     		str	r3, [sp, #0]
  97 007c 4FF09600 		mov	r0, #150
  98 0080 4FF09601 		mov	r1, #150
  99 0084 4FF04B02 		mov	r2, #75
 100 0088 4FF04B03 		mov	r3, #75
 101 008c FFF7FEFF 		bl	TFTSHIELD_1_FillRect
 102              	.L2:
  32:.\main.c      ****     
  33:.\main.c      ****     for(;;)
  34:.\main.c      ****     {
  35:.\main.c      ****         /* Place your application code here. */
  36:.\main.c      ****     }
 103              		.loc 1 36 0 discriminator 1
 104 0090 FEE7     		b	.L2
 105              		.cfi_endproc
 106              	.LFE56:
 107              		.size	main, .-main
 108 0092 00BF     		.text
 109              	.Letext0:
 110              		.file 2 "c:\\program files (x86)\\cypress\\psoc creator\\3.0\\psoc creator\\import\\gnu_cs\\arm\\4
 111              		.file 3 "./Generated_Source/PSoC5/TFTSHIELD_1.h"
 112              		.file 4 "./Generated_Source/PSoC5/core_cm3.h"