ARM GAS  C:\Users\LilRobby\AppData\Local\Temp\cczyjVY0.s 			page 1


   1              		.syntax unified
   2              		.cpu cortex-m3
   3              		.fpu softvfp
   4              		.eabi_attribute 20, 1
   5              		.eabi_attribute 21, 1
   6              		.eabi_attribute 23, 3
   7              		.eabi_attribute 24, 1
   8              		.eabi_attribute 25, 1
   9              		.eabi_attribute 26, 1
  10              		.eabi_attribute 30, 6
  11              		.eabi_attribute 34, 1
  12              		.eabi_attribute 18, 4
  13              		.thumb
  14              		.file	"main.c"
  15              		.text
  16              	.Ltext0:
  17              		.cfi_sections	.debug_frame
  18              		.comm	cursor_x,2,2
  19              		.comm	cursor_y,2,2
  20              		.comm	textcolor,2,2
  21              		.comm	textbgcolor,2,2
  22              		.comm	textsize,1,1
  23              		.comm	rotation,1,1
  24              		.comm	wrap,1,1
  25              		.comm	_width,4,4
  26              		.comm	_height,4,4
  27              		.section	.rodata
  28              		.align	2
  29              	.LC0:
  30 0000 FFFFFFFF 		.word	-1
  31 0004 FFFFFFFF 		.word	-1
  32 0008 FFFFFFFF 		.word	-1
  33 000c FFFFFFFF 		.word	-1
  34 0010 FFFFFFFF 		.word	-1
  35 0014 FFFFFFFF 		.word	-1
  36 0018 FFFFFFFF 		.word	-1
  37 001c FFFFFFFF 		.word	-1
  38              		.section	.text.main,"ax",%progbits
  39              		.align	2
  40              		.global	main
  41              		.thumb
  42              		.thumb_func
  43              		.type	main, %function
  44              	main:
  45              	.LFB56:
  46              		.file 1 "main.c"
   1:main.c        **** /*******************************************************************************
   2:main.c        **** * \file main.c
   3:main.c        **** * \brief This program generates functionality for TFT shield to be used as an input/output device f
   4:main.c        **** *
   5:main.c        **** * Version 1.0
   6:main.c        **** *
   7:main.c        **** * \author Brian Bradley
   8:main.c        **** *
   9:main.c        **** * \bug 
  10:main.c        **** *******************************************************************************/
  11:main.c        **** #include <project.h>
ARM GAS  C:\Users\LilRobby\AppData\Local\Temp\cczyjVY0.s 			page 2


  12:main.c        **** #include "stdio.h"
  13:main.c        **** 
  14:main.c        **** // This is calibration data for the raw touch data to the screen coordinates
  15:main.c        **** #define TS_MINX 150
  16:main.c        **** #define TS_MINY 130
  17:main.c        **** #define TS_MAXX 3800
  18:main.c        **** #define TS_MAXY 4000
  19:main.c        **** 
  20:main.c        **** #define x_max 240
  21:main.c        **** #define y_max 320 //screen resolution
  22:main.c        **** #define top_space 25
  23:main.c        **** #define push_buttons 4
  24:main.c        **** #define LEDs 4
  25:main.c        **** #define switches 4
  26:main.c        **** #define HEX 1
  27:main.c        **** 
  28:main.c        **** long mapCoor(long x, long in_min, long in_max, long out_min, long out_max);
  29:main.c        **** void DrawPushbutton(int i);
  30:main.c        **** void DrawLED(int i, int state);
  31:main.c        **** int InputTouched(); // -1 if PB not touched 0 for first PB
  32:main.c        **** void TFT_INIT();
  33:main.c        **** void DrawSlideSwitch(int i, int state);
  34:main.c        **** void DrawHex(int i, uint8 stat);
  35:main.c        **** void DrawHEX_a(int i, uint8 state);
  36:main.c        **** void DrawHEX_b(int i, uint8 state);
  37:main.c        **** void DrawHEX_c(int i, uint8 state);
  38:main.c        **** void DrawHEX_d(int i, uint8 state);
  39:main.c        **** void DrawHEX_e(int i, uint8 state);
  40:main.c        **** void DrawHEX_f(int i, uint8 state);
  41:main.c        **** void DrawHEX_g(int i, uint8 state);
  42:main.c        **** void DrawInputs();
  43:main.c        **** void DrawOutputs();
  44:main.c        **** //int EditLayout();
  45:main.c        **** void waiting();
  46:main.c        **** 
  47:main.c        **** int main()
  48:main.c        **** {   
  47              		.loc 1 48 0
  48              		.cfi_startproc
  49              		@ args = 0, pretend = 0, frame = 120
  50              		@ frame_needed = 1, uses_anonymous_args = 0
  51 0000 B0B5     		push	{r4, r5, r7, lr}
  52              		.cfi_def_cfa_offset 16
  53              		.cfi_offset 4, -16
  54              		.cfi_offset 5, -12
  55              		.cfi_offset 7, -8
  56              		.cfi_offset 14, -4
  57 0002 A0B0     		sub	sp, sp, #128
  58              		.cfi_def_cfa_offset 144
  59 0004 02AF     		add	r7, sp, #8
  60              		.cfi_def_cfa 7, 136
  49:main.c        ****     TFT_INIT();
  61              		.loc 1 49 0
  62 0006 FFF7FEFF 		bl	TFT_INIT
  50:main.c        ****     int SW_state[] = {-1,-1,-1,-1,-1,-1,-1,-1};//init data vessel for Switch states
  63              		.loc 1 50 0
  64 000a A04B     		ldr	r3, .L21
ARM GAS  C:\Users\LilRobby\AppData\Local\Temp\cczyjVY0.s 			page 3


  65 000c 07F13804 		add	r4, r7, #56
  66 0010 1D46     		mov	r5, r3
  67 0012 0FCD     		ldmia	r5!, {r0, r1, r2, r3}
  68 0014 0FC4     		stmia	r4!, {r0, r1, r2, r3}
  69 0016 95E80F00 		ldmia	r5, {r0, r1, r2, r3}
  70 001a 84E80F00 		stmia	r4, {r0, r1, r2, r3}
  51:main.c        ****     TFTSHIELD_1_FillRoundRect(0, 0, 25, 320, 5, RED);//Filling the top for menu access
  71              		.loc 1 51 0
  72 001e 0523     		movs	r3, #5
  73 0020 0093     		str	r3, [sp]
  74 0022 4FF47843 		mov	r3, #63488
  75 0026 0193     		str	r3, [sp, #4]
  76 0028 0020     		movs	r0, #0
  77 002a 0021     		movs	r1, #0
  78 002c 1922     		movs	r2, #25
  79 002e 4FF4A073 		mov	r3, #320
  80 0032 FFF7FEFF 		bl	TFTSHIELD_1_FillRoundRect
  52:main.c        ****     
  53:main.c        ****    // int Data=EditLayout();
  54:main.c        ****     DrawInputs();
  81              		.loc 1 54 0
  82 0036 FFF7FEFF 		bl	DrawInputs
  55:main.c        ****     DrawOutputs();
  83              		.loc 1 55 0
  84 003a FFF7FEFF 		bl	DrawOutputs
  85              	.L20:
  86              	.LBB2:
  56:main.c        ****    
  57:main.c        ****     for(;;) //program loop
  58:main.c        ****     {  int i =0;
  87              		.loc 1 58 0
  88 003e 0023     		movs	r3, #0
  89 0040 7B67     		str	r3, [r7, #116]
  59:main.c        ****        int SW_state_prev[8];
  60:main.c        ****        for (i = 0 ; i<8 ; i++){SW_state_prev[i]=SW_state[i];}
  90              		.loc 1 60 0
  91 0042 0023     		movs	r3, #0
  92 0044 7B67     		str	r3, [r7, #116]
  93 0046 10E0     		b	.L2
  94              	.L3:
  95              		.loc 1 60 0 is_stmt 0 discriminator 3
  96 0048 7B6F     		ldr	r3, [r7, #116]
  97 004a 9B00     		lsls	r3, r3, #2
  98 004c 07F17802 		add	r2, r7, #120
  99 0050 1344     		add	r3, r3, r2
 100 0052 53F8402C 		ldr	r2, [r3, #-64]
 101 0056 7B6F     		ldr	r3, [r7, #116]
 102 0058 9B00     		lsls	r3, r3, #2
 103 005a 07F17801 		add	r1, r7, #120
 104 005e 0B44     		add	r3, r3, r1
 105 0060 43F8742C 		str	r2, [r3, #-116]
 106 0064 7B6F     		ldr	r3, [r7, #116]
 107 0066 0133     		adds	r3, r3, #1
 108 0068 7B67     		str	r3, [r7, #116]
 109              	.L2:
 110              		.loc 1 60 0 discriminator 1
 111 006a 7B6F     		ldr	r3, [r7, #116]
ARM GAS  C:\Users\LilRobby\AppData\Local\Temp\cczyjVY0.s 			page 4


 112 006c 072B     		cmp	r3, #7
 113 006e EBDD     		ble	.L3
  61:main.c        ****        //for (i = switches; i < switches + push_buttons; i++){DrawLED(i,0);} 
  62:main.c        ****        PushButton_Register_Write(0x00);//clear PB states
 114              		.loc 1 62 0 is_stmt 1
 115 0070 0020     		movs	r0, #0
 116 0072 FFF7FEFF 		bl	PushButton_Register_Write
  63:main.c        **** 
  64:main.c        ****        int touched = InputTouched(); //returns which input was touched, -1 for none, 0 for first in
 117              		.loc 1 64 0
 118 0076 FFF7FEFF 		bl	InputTouched
 119 007a 7866     		str	r0, [r7, #100]
  65:main.c        ****        if (touched>=0 && touched<switches){SW_state[touched]*=-1;}//switch hit
 120              		.loc 1 65 0
 121 007c 7B6E     		ldr	r3, [r7, #100]
 122 007e 002B     		cmp	r3, #0
 123 0080 12DB     		blt	.L4
 124              		.loc 1 65 0 is_stmt 0 discriminator 1
 125 0082 7B6E     		ldr	r3, [r7, #100]
 126 0084 032B     		cmp	r3, #3
 127 0086 0FDC     		bgt	.L4
 128              		.loc 1 65 0 discriminator 2
 129 0088 7B6E     		ldr	r3, [r7, #100]
 130 008a 9B00     		lsls	r3, r3, #2
 131 008c 07F17802 		add	r2, r7, #120
 132 0090 1344     		add	r3, r3, r2
 133 0092 53F8403C 		ldr	r3, [r3, #-64]
 134 0096 5A42     		negs	r2, r3
 135 0098 7B6E     		ldr	r3, [r7, #100]
 136 009a 9B00     		lsls	r3, r3, #2
 137 009c 07F17801 		add	r1, r7, #120
 138 00a0 0B44     		add	r3, r3, r1
 139 00a2 43F8402C 		str	r2, [r3, #-64]
 140 00a6 0BE0     		b	.L5
 141              	.L4:
  66:main.c        ****        else if (touched>=switches){PushButton_Register_Write(0x01<<(touched - switches));}//PB hit
 142              		.loc 1 66 0 is_stmt 1
 143 00a8 7B6E     		ldr	r3, [r7, #100]
 144 00aa 032B     		cmp	r3, #3
 145 00ac 08DD     		ble	.L5
 146              		.loc 1 66 0 is_stmt 0 discriminator 1
 147 00ae 7B6E     		ldr	r3, [r7, #100]
 148 00b0 043B     		subs	r3, r3, #4
 149 00b2 0122     		movs	r2, #1
 150 00b4 02FA03F3 		lsl	r3, r2, r3
 151 00b8 DBB2     		uxtb	r3, r3
 152 00ba 1846     		mov	r0, r3
 153 00bc FFF7FEFF 		bl	PushButton_Register_Write
 154              	.L5:
  67:main.c        ****       
  68:main.c        ****        for (i=0 ; i<switches ; i++) //writing to switches
 155              		.loc 1 68 0 is_stmt 1
 156 00c0 0023     		movs	r3, #0
 157 00c2 7B67     		str	r3, [r7, #116]
 158 00c4 7DE0     		b	.L6
 159              	.L14:
  69:main.c        ****         {
ARM GAS  C:\Users\LilRobby\AppData\Local\Temp\cczyjVY0.s 			page 5


  70:main.c        ****         if (SW_state[i]!=SW_state_prev[i])
 160              		.loc 1 70 0
 161 00c6 7B6F     		ldr	r3, [r7, #116]
 162 00c8 9B00     		lsls	r3, r3, #2
 163 00ca 07F17802 		add	r2, r7, #120
 164 00ce 1344     		add	r3, r3, r2
 165 00d0 53F8402C 		ldr	r2, [r3, #-64]
 166 00d4 7B6F     		ldr	r3, [r7, #116]
 167 00d6 9B00     		lsls	r3, r3, #2
 168 00d8 07F17801 		add	r1, r7, #120
 169 00dc 0B44     		add	r3, r3, r1
 170 00de 53F8743C 		ldr	r3, [r3, #-116]
 171 00e2 9A42     		cmp	r2, r3
 172 00e4 6AD0     		beq	.L7
 173              	.LBB3:
  71:main.c        ****             {   
  72:main.c        ****                 uint16 sw_stat;
  73:main.c        ****                 uint16 new_sw_stat;
  74:main.c        ****                 uint16 mask_h;
  75:main.c        ****                 uint16 mask_l = 0x01;
 174              		.loc 1 75 0
 175 00e6 0123     		movs	r3, #1
 176 00e8 A7F87030 		strh	r3, [r7, #112]	@ movhi
  76:main.c        ****                 
  77:main.c        ****                 sw_stat = Switch_Register_Read();
 177              		.loc 1 77 0
 178 00ec FFF7FEFF 		bl	Switch_Register_Read
 179 00f0 0346     		mov	r3, r0
 180 00f2 A7F86230 		strh	r3, [r7, #98]	@ movhi
  78:main.c        ****                 char buffer[50];
  79:main.c        ****               
  80:main.c        ****             
  81:main.c        ****                 if (SW_state[i] == -1)
 181              		.loc 1 81 0
 182 00f6 7B6F     		ldr	r3, [r7, #116]
 183 00f8 9B00     		lsls	r3, r3, #2
 184 00fa 07F17802 		add	r2, r7, #120
 185 00fe 1344     		add	r3, r3, r2
 186 0100 53F8403C 		ldr	r3, [r3, #-64]
 187 0104 B3F1FF3F 		cmp	r3, #-1
 188 0108 38D1     		bne	.L8
 189              	.LBB4:
  82:main.c        ****                 {   DrawSlideSwitch(i, -1);
 190              		.loc 1 82 0
 191 010a 786F     		ldr	r0, [r7, #116]
 192 010c 4FF0FF31 		mov	r1, #-1
 193 0110 FFF7FEFF 		bl	DrawSlideSwitch
  83:main.c        ****                     mask_h=0xFF<<(i+1);
 194              		.loc 1 83 0
 195 0114 7B6F     		ldr	r3, [r7, #116]
 196 0116 0133     		adds	r3, r3, #1
 197 0118 FF22     		movs	r2, #255
 198 011a 02FA03F3 		lsl	r3, r2, r3
 199 011e A7F86030 		strh	r3, [r7, #96]	@ movhi
  84:main.c        ****                     int k =0;
 200              		.loc 1 84 0
 201 0122 0023     		movs	r3, #0
ARM GAS  C:\Users\LilRobby\AppData\Local\Temp\cczyjVY0.s 			page 6


 202 0124 FB66     		str	r3, [r7, #108]
  85:main.c        ****                     if (i!=0){for(k = 1 ; k<i ; k++){mask_l|=(0x01<<k);}}
 203              		.loc 1 85 0
 204 0126 7B6F     		ldr	r3, [r7, #116]
 205 0128 002B     		cmp	r3, #0
 206 012a 15D0     		beq	.L9
 207              		.loc 1 85 0 is_stmt 0 discriminator 1
 208 012c 0123     		movs	r3, #1
 209 012e FB66     		str	r3, [r7, #108]
 210 0130 0DE0     		b	.L10
 211              	.L11:
 212              		.loc 1 85 0 discriminator 4
 213 0132 0122     		movs	r2, #1
 214 0134 FB6E     		ldr	r3, [r7, #108]
 215 0136 02FA03F3 		lsl	r3, r2, r3
 216 013a 9AB2     		uxth	r2, r3
 217 013c B7F87030 		ldrh	r3, [r7, #112]
 218 0140 1343     		orrs	r3, r3, r2
 219 0142 9BB2     		uxth	r3, r3
 220 0144 A7F87030 		strh	r3, [r7, #112]	@ movhi
 221 0148 FB6E     		ldr	r3, [r7, #108]
 222 014a 0133     		adds	r3, r3, #1
 223 014c FB66     		str	r3, [r7, #108]
 224              	.L10:
 225              		.loc 1 85 0 discriminator 2
 226 014e FA6E     		ldr	r2, [r7, #108]
 227 0150 7B6F     		ldr	r3, [r7, #116]
 228 0152 9A42     		cmp	r2, r3
 229 0154 EDDB     		blt	.L11
 230 0156 02E0     		b	.L12
 231              	.L9:
  86:main.c        ****                     else {mask_l = 0x00;}
 232              		.loc 1 86 0 is_stmt 1
 233 0158 0023     		movs	r3, #0
 234 015a A7F87030 		strh	r3, [r7, #112]	@ movhi
 235              	.L12:
  87:main.c        ****                     uint16 mask = mask_h | mask_l;
 236              		.loc 1 87 0
 237 015e B7F86020 		ldrh	r2, [r7, #96]	@ movhi
 238 0162 B7F87030 		ldrh	r3, [r7, #112]	@ movhi
 239 0166 1343     		orrs	r3, r3, r2
 240 0168 A7F85E30 		strh	r3, [r7, #94]	@ movhi
  88:main.c        ****                     new_sw_stat = sw_stat&mask;
 241              		.loc 1 88 0
 242 016c B7F86220 		ldrh	r2, [r7, #98]	@ movhi
 243 0170 B7F85E30 		ldrh	r3, [r7, #94]	@ movhi
 244 0174 1340     		ands	r3, r3, r2
 245 0176 A7F87230 		strh	r3, [r7, #114]	@ movhi
 246              	.LBE4:
 247 017a 17E0     		b	.L13
 248              	.L8:
  89:main.c        ****                 }
  90:main.c        ****                 
  91:main.c        ****                 else if (SW_state[i] == 1)
 249              		.loc 1 91 0
 250 017c 7B6F     		ldr	r3, [r7, #116]
 251 017e 9B00     		lsls	r3, r3, #2
ARM GAS  C:\Users\LilRobby\AppData\Local\Temp\cczyjVY0.s 			page 7


 252 0180 07F17802 		add	r2, r7, #120
 253 0184 1344     		add	r3, r3, r2
 254 0186 53F8403C 		ldr	r3, [r3, #-64]
 255 018a 012B     		cmp	r3, #1
 256 018c 0ED1     		bne	.L13
  92:main.c        ****                 {
  93:main.c        ****                     DrawSlideSwitch(i, 1);
 257              		.loc 1 93 0
 258 018e 786F     		ldr	r0, [r7, #116]
 259 0190 0121     		movs	r1, #1
 260 0192 FFF7FEFF 		bl	DrawSlideSwitch
  94:main.c        ****                     new_sw_stat = (sw_stat) | (0x01 << i);
 261              		.loc 1 94 0
 262 0196 0122     		movs	r2, #1
 263 0198 7B6F     		ldr	r3, [r7, #116]
 264 019a 02FA03F3 		lsl	r3, r2, r3
 265 019e 9AB2     		uxth	r2, r3
 266 01a0 B7F86230 		ldrh	r3, [r7, #98]
 267 01a4 1343     		orrs	r3, r3, r2
 268 01a6 9BB2     		uxth	r3, r3
 269 01a8 A7F87230 		strh	r3, [r7, #114]	@ movhi
 270              	.L13:
  95:main.c        ****                 }
  96:main.c        ****                 
  97:main.c        ****                 Switch_Register_Write(new_sw_stat);
 271              		.loc 1 97 0
 272 01ac B7F87230 		ldrh	r3, [r7, #114]	@ movhi
 273 01b0 DBB2     		uxtb	r3, r3
 274 01b2 1846     		mov	r0, r3
 275 01b4 FFF7FEFF 		bl	Switch_Register_Write
  98:main.c        ****                 waiting();
 276              		.loc 1 98 0
 277 01b8 FFF7FEFF 		bl	waiting
 278              	.L7:
 279              	.LBE3:
  68:main.c        ****         {
 280              		.loc 1 68 0 discriminator 2
 281 01bc 7B6F     		ldr	r3, [r7, #116]
 282 01be 0133     		adds	r3, r3, #1
 283 01c0 7B67     		str	r3, [r7, #116]
 284              	.L6:
  68:main.c        ****         {
 285              		.loc 1 68 0 is_stmt 0 discriminator 1
 286 01c2 7B6F     		ldr	r3, [r7, #116]
 287 01c4 032B     		cmp	r3, #3
 288 01c6 7FF77EAF 		ble	.L14
  99:main.c        ****                 
 100:main.c        ****             }
 101:main.c        ****             
 102:main.c        ****              
 103:main.c        ****         }
 104:main.c        ****         
 105:main.c        ****         uint16 LED_stat = LED_Register_Read();
 289              		.loc 1 105 0 is_stmt 1
 290 01ca FFF7FEFF 		bl	LED_Register_Read
 291 01ce 0346     		mov	r3, r0
 292 01d0 A7F85C30 		strh	r3, [r7, #92]	@ movhi
ARM GAS  C:\Users\LilRobby\AppData\Local\Temp\cczyjVY0.s 			page 8


 106:main.c        ****         uint16 prev_LED_stat;   
 107:main.c        ****         
 108:main.c        ****         
 109:main.c        ****         for (i = 0 ; i< LEDs ; i++)
 293              		.loc 1 109 0
 294 01d4 0023     		movs	r3, #0
 295 01d6 7B67     		str	r3, [r7, #116]
 296 01d8 39E0     		b	.L15
 297              	.L18:
 298              	.LBB5:
 110:main.c        ****             {
 111:main.c        ****               uint8 LED_i_state = LED_stat&(0x01<<i);
 299              		.loc 1 111 0
 300 01da B7F85C30 		ldrh	r3, [r7, #92]	@ movhi
 301 01de D9B2     		uxtb	r1, r3
 302 01e0 0122     		movs	r2, #1
 303 01e2 7B6F     		ldr	r3, [r7, #116]
 304 01e4 02FA03F3 		lsl	r3, r2, r3
 305 01e8 DBB2     		uxtb	r3, r3
 306 01ea 0A46     		mov	r2, r1
 307 01ec 1340     		ands	r3, r3, r2
 308 01ee DBB2     		uxtb	r3, r3
 309 01f0 87F85B30 		strb	r3, [r7, #91]
 112:main.c        ****               uint8 prev_LED_i_stat = prev_LED_stat&(0x01<<i);
 310              		.loc 1 112 0
 311 01f4 B7F86A30 		ldrh	r3, [r7, #106]	@ movhi
 312 01f8 D9B2     		uxtb	r1, r3
 313 01fa 0122     		movs	r2, #1
 314 01fc 7B6F     		ldr	r3, [r7, #116]
 315 01fe 02FA03F3 		lsl	r3, r2, r3
 316 0202 DBB2     		uxtb	r3, r3
 317 0204 0A46     		mov	r2, r1
 318 0206 1340     		ands	r3, r3, r2
 319 0208 DBB2     		uxtb	r3, r3
 320 020a 87F85A30 		strb	r3, [r7, #90]
 113:main.c        ****               if (LED_i_state!=0 && prev_LED_i_stat == 0){DrawLED(i+HEX, 1);}
 321              		.loc 1 113 0
 322 020e 97F85B30 		ldrb	r3, [r7, #91]	@ zero_extendqisi2
 323 0212 002B     		cmp	r3, #0
 324 0214 0AD0     		beq	.L16
 325              		.loc 1 113 0 is_stmt 0 discriminator 1
 326 0216 97F85A30 		ldrb	r3, [r7, #90]	@ zero_extendqisi2
 327 021a 002B     		cmp	r3, #0
 328 021c 06D1     		bne	.L16
 329              		.loc 1 113 0 discriminator 2
 330 021e 7B6F     		ldr	r3, [r7, #116]
 331 0220 0133     		adds	r3, r3, #1
 332 0222 1846     		mov	r0, r3
 333 0224 0121     		movs	r1, #1
 334 0226 FFF7FEFF 		bl	DrawLED
 335 022a 0DE0     		b	.L17
 336              	.L16:
 114:main.c        ****               else if (LED_i_state == 0 && prev_LED_i_stat !=0){DrawLED(i+HEX, 0);}
 337              		.loc 1 114 0 is_stmt 1
 338 022c 97F85B30 		ldrb	r3, [r7, #91]	@ zero_extendqisi2
 339 0230 002B     		cmp	r3, #0
 340 0232 09D1     		bne	.L17
ARM GAS  C:\Users\LilRobby\AppData\Local\Temp\cczyjVY0.s 			page 9


 341              		.loc 1 114 0 is_stmt 0 discriminator 1
 342 0234 97F85A30 		ldrb	r3, [r7, #90]	@ zero_extendqisi2
 343 0238 002B     		cmp	r3, #0
 344 023a 05D0     		beq	.L17
 345              		.loc 1 114 0 discriminator 2
 346 023c 7B6F     		ldr	r3, [r7, #116]
 347 023e 0133     		adds	r3, r3, #1
 348 0240 1846     		mov	r0, r3
 349 0242 0021     		movs	r1, #0
 350 0244 FFF7FEFF 		bl	DrawLED
 351              	.L17:
 352              	.LBE5:
 109:main.c        ****             {
 353              		.loc 1 109 0 is_stmt 1 discriminator 2
 354 0248 7B6F     		ldr	r3, [r7, #116]
 355 024a 0133     		adds	r3, r3, #1
 356 024c 7B67     		str	r3, [r7, #116]
 357              	.L15:
 109:main.c        ****             {
 358              		.loc 1 109 0 is_stmt 0 discriminator 1
 359 024e 7B6F     		ldr	r3, [r7, #116]
 360 0250 032B     		cmp	r3, #3
 361 0252 C2DD     		ble	.L18
 115:main.c        ****             }
 116:main.c        ****          prev_LED_stat = LED_stat;   
 362              		.loc 1 116 0 is_stmt 1
 363 0254 B7F85C30 		ldrh	r3, [r7, #92]	@ movhi
 364 0258 A7F86A30 		strh	r3, [r7, #106]	@ movhi
 117:main.c        ****          
 118:main.c        ****         uint16 prev_hex_stat;
 119:main.c        ****         uint16 hex_stat = Seven_Segment_Register_Read();
 365              		.loc 1 119 0
 366 025c FFF7FEFF 		bl	Seven_Segment_Register_Read
 367 0260 0346     		mov	r3, r0
 368 0262 A7F85830 		strh	r3, [r7, #88]	@ movhi
 120:main.c        ****         if (hex_stat!=prev_hex_stat){DrawHex(0, hex_stat);}
 369              		.loc 1 120 0
 370 0266 B7F85820 		ldrh	r2, [r7, #88]
 371 026a B7F86830 		ldrh	r3, [r7, #104]
 372 026e 9A42     		cmp	r2, r3
 373 0270 06D0     		beq	.L19
 374              		.loc 1 120 0 is_stmt 0 discriminator 1
 375 0272 B7F85830 		ldrh	r3, [r7, #88]	@ movhi
 376 0276 DBB2     		uxtb	r3, r3
 377 0278 0020     		movs	r0, #0
 378 027a 1946     		mov	r1, r3
 379 027c FFF7FEFF 		bl	DrawHex
 380              	.L19:
 121:main.c        ****         prev_hex_stat = hex_stat;
 381              		.loc 1 121 0 is_stmt 1
 382 0280 B7F85830 		ldrh	r3, [r7, #88]	@ movhi
 383 0284 A7F86830 		strh	r3, [r7, #104]	@ movhi
 384              	.LBE2:
 122:main.c        ****         
 123:main.c        ****        
 124:main.c        ****     } 
 385              		.loc 1 124 0
ARM GAS  C:\Users\LilRobby\AppData\Local\Temp\cczyjVY0.s 			page 10


 386 0288 D9E6     		b	.L20
 387              	.L22:
 388 028a 00BF     		.align	2
 389              	.L21:
 390 028c 00000000 		.word	.LC0
 391              		.cfi_endproc
 392              	.LFE56:
 393              		.size	main, .-main
 394              		.global	__aeabi_i2d
 395              		.global	__aeabi_dcmpgt
 396              		.global	__aeabi_dmul
 397              		.global	__aeabi_dsub
 398              		.global	__aeabi_d2iz
 399              		.global	__aeabi_ddiv
 400              		.section	.text.DrawPushbutton,"ax",%progbits
 401              		.align	2
 402              		.global	DrawPushbutton
 403              		.thumb
 404              		.thumb_func
 405              		.type	DrawPushbutton, %function
 406              	DrawPushbutton:
 407              	.LFB57:
 125:main.c        ****  }
 126:main.c        ****  
 127:main.c        **** 
 128:main.c        **** void DrawPushbutton(int i)
 129:main.c        **** {
 408              		.loc 1 129 0
 409              		.cfi_startproc
 410              		@ args = 0, pretend = 0, frame = 48
 411              		@ frame_needed = 1, uses_anonymous_args = 0
 412 0000 90B5     		push	{r4, r7, lr}
 413              		.cfi_def_cfa_offset 12
 414              		.cfi_offset 4, -12
 415              		.cfi_offset 7, -8
 416              		.cfi_offset 14, -4
 417 0002 8FB0     		sub	sp, sp, #60
 418              		.cfi_def_cfa_offset 72
 419 0004 02AF     		add	r7, sp, #8
 420              		.cfi_def_cfa 7, 64
 421 0006 7860     		str	r0, [r7, #4]
 130:main.c        ****     int separation_PB;
 131:main.c        ****     int inputs = switches + push_buttons;
 422              		.loc 1 131 0
 423 0008 0823     		movs	r3, #8
 424 000a 3B62     		str	r3, [r7, #32]
 132:main.c        ****     
 133:main.c        ****     if (inputs>0){separation_PB = y_max/inputs;}//check for div by zero 
 425              		.loc 1 133 0
 426 000c 3B6A     		ldr	r3, [r7, #32]
 427 000e 002B     		cmp	r3, #0
 428 0010 06DD     		ble	.L24
 429              		.loc 1 133 0 is_stmt 0 discriminator 1
 430 0012 4FF4A072 		mov	r2, #320
 431 0016 3B6A     		ldr	r3, [r7, #32]
 432 0018 92FBF3F3 		sdiv	r3, r2, r3
 433 001c FB62     		str	r3, [r7, #44]
ARM GAS  C:\Users\LilRobby\AppData\Local\Temp\cczyjVY0.s 			page 11


 434 001e 02E0     		b	.L25
 435              	.L24:
 134:main.c        ****     else{separation_PB = y_max + 1;}
 436              		.loc 1 134 0 is_stmt 1
 437 0020 40F24113 		movw	r3, #321
 438 0024 FB62     		str	r3, [r7, #44]
 439              	.L25:
 135:main.c        ****     
 136:main.c        ****     int width_PB = separation_PB/2; //forcing width to be the same as width of the switches.
 440              		.loc 1 136 0
 441 0026 FB6A     		ldr	r3, [r7, #44]
 442 0028 DA0F     		lsrs	r2, r3, #31
 443 002a 1344     		add	r3, r3, r2
 444 002c 5B10     		asrs	r3, r3, #1
 445 002e BB62     		str	r3, [r7, #40]
 137:main.c        ****     int length_PB = width_PB;
 446              		.loc 1 137 0
 447 0030 BB6A     		ldr	r3, [r7, #40]
 448 0032 7B62     		str	r3, [r7, #36]
 138:main.c        ****     
 139:main.c        ****     if (length_PB>x_max/2.5 - top_space )
 449              		.loc 1 139 0
 450 0034 786A     		ldr	r0, [r7, #36]
 451 0036 FFF7FEFF 		bl	__aeabi_i2d
 452 003a 0246     		mov	r2, r0
 453 003c 0B46     		mov	r3, r1
 454 003e 1046     		mov	r0, r2
 455 0040 1946     		mov	r1, r3
 456 0042 51A3     		adr	r3, .L29
 457 0044 D3E90023 		ldrd	r2, [r3]
 458 0048 FFF7FEFF 		bl	__aeabi_dcmpgt
 459 004c 0346     		mov	r3, r0
 460 004e 002B     		cmp	r3, #0
 461 0050 06D0     		beq	.L26
 140:main.c        ****     {   
 141:main.c        ****         length_PB = x_max/2.5 - top_space;
 462              		.loc 1 141 0
 463 0052 4723     		movs	r3, #71
 464 0054 7B62     		str	r3, [r7, #36]
 142:main.c        ****         width_PB = length_PB;
 465              		.loc 1 142 0
 466 0056 7B6A     		ldr	r3, [r7, #36]
 467 0058 BB62     		str	r3, [r7, #40]
 143:main.c        ****         separation_PB = 2*width_PB;
 468              		.loc 1 143 0
 469 005a BB6A     		ldr	r3, [r7, #40]
 470 005c 5B00     		lsls	r3, r3, #1
 471 005e FB62     		str	r3, [r7, #44]
 472              	.L26:
 144:main.c        ****     }
 145:main.c        ****     
 146:main.c        ****     int empty_PB =y_max/(inputs+1) - width_PB/2;
 473              		.loc 1 146 0
 474 0060 3B6A     		ldr	r3, [r7, #32]
 475 0062 0133     		adds	r3, r3, #1
 476 0064 4FF4A072 		mov	r2, #320
 477 0068 92FBF3F2 		sdiv	r2, r2, r3
ARM GAS  C:\Users\LilRobby\AppData\Local\Temp\cczyjVY0.s 			page 12


 478 006c BB6A     		ldr	r3, [r7, #40]
 479 006e D90F     		lsrs	r1, r3, #31
 480 0070 0B44     		add	r3, r3, r1
 481 0072 5B10     		asrs	r3, r3, #1
 482 0074 D31A     		subs	r3, r2, r3
 483 0076 FB61     		str	r3, [r7, #28]
 147:main.c        ****     //needs to start drawing so it is centered with switches, length of switch is twice length of P
 148:main.c        ****     int x_PB = x_max - 2.5*length_PB;
 484              		.loc 1 148 0
 485 0078 786A     		ldr	r0, [r7, #36]
 486 007a FFF7FEFF 		bl	__aeabi_i2d
 487 007e 0246     		mov	r2, r0
 488 0080 0B46     		mov	r3, r1
 489 0082 1046     		mov	r0, r2
 490 0084 1946     		mov	r1, r3
 491 0086 4FF00002 		mov	r2, #0
 492 008a 414B     		ldr	r3, .L29+8
 493 008c FFF7FEFF 		bl	__aeabi_dmul
 494 0090 0246     		mov	r2, r0
 495 0092 0B46     		mov	r3, r1
 496 0094 4FF00000 		mov	r0, #0
 497 0098 3E49     		ldr	r1, .L29+12
 498 009a FFF7FEFF 		bl	__aeabi_dsub
 499 009e 0246     		mov	r2, r0
 500 00a0 0B46     		mov	r3, r1
 501 00a2 1046     		mov	r0, r2
 502 00a4 1946     		mov	r1, r3
 503 00a6 FFF7FEFF 		bl	__aeabi_d2iz
 504 00aa 0346     		mov	r3, r0
 505 00ac BB61     		str	r3, [r7, #24]
 149:main.c        ****  
 150:main.c        ****     TFTSHIELD_1_FillRect(x_PB, (i+1)*empty_PB + i*width_PB/2, length_PB, width_PB, GRAY);
 506              		.loc 1 150 0
 507 00ae BB69     		ldr	r3, [r7, #24]
 508 00b0 98B2     		uxth	r0, r3
 509 00b2 7B68     		ldr	r3, [r7, #4]
 510 00b4 0133     		adds	r3, r3, #1
 511 00b6 9BB2     		uxth	r3, r3
 512 00b8 FA69     		ldr	r2, [r7, #28]
 513 00ba 92B2     		uxth	r2, r2
 514 00bc 02FB03F3 		mul	r3, r2, r3
 515 00c0 9AB2     		uxth	r2, r3
 516 00c2 7B68     		ldr	r3, [r7, #4]
 517 00c4 B96A     		ldr	r1, [r7, #40]
 518 00c6 01FB03F3 		mul	r3, r1, r3
 519 00ca D90F     		lsrs	r1, r3, #31
 520 00cc 0B44     		add	r3, r3, r1
 521 00ce 5B10     		asrs	r3, r3, #1
 522 00d0 9BB2     		uxth	r3, r3
 523 00d2 1344     		add	r3, r3, r2
 524 00d4 9BB2     		uxth	r3, r3
 525 00d6 99B2     		uxth	r1, r3
 526 00d8 7B6A     		ldr	r3, [r7, #36]
 527 00da 9AB2     		uxth	r2, r3
 528 00dc BB6A     		ldr	r3, [r7, #40]
 529 00de 9BB2     		uxth	r3, r3
 530 00e0 00B2     		sxth	r0, r0
ARM GAS  C:\Users\LilRobby\AppData\Local\Temp\cczyjVY0.s 			page 13


 531 00e2 09B2     		sxth	r1, r1
 532 00e4 12B2     		sxth	r2, r2
 533 00e6 1CB2     		sxth	r4, r3
 534 00e8 47F6EF33 		movw	r3, #31727
 535 00ec 0093     		str	r3, [sp]
 536 00ee 2346     		mov	r3, r4
 537 00f0 FFF7FEFF 		bl	TFTSHIELD_1_FillRect
 151:main.c        ****     
 152:main.c        ****     int center_PB_x = x_PB + length_PB/2;
 538              		.loc 1 152 0
 539 00f4 7B6A     		ldr	r3, [r7, #36]
 540 00f6 DA0F     		lsrs	r2, r3, #31
 541 00f8 1344     		add	r3, r3, r2
 542 00fa 5B10     		asrs	r3, r3, #1
 543 00fc 1A46     		mov	r2, r3
 544 00fe BB69     		ldr	r3, [r7, #24]
 545 0100 1344     		add	r3, r3, r2
 546 0102 7B61     		str	r3, [r7, #20]
 153:main.c        ****     int radius_PB = (width_PB*0.75)/2;
 547              		.loc 1 153 0
 548 0104 B86A     		ldr	r0, [r7, #40]
 549 0106 FFF7FEFF 		bl	__aeabi_i2d
 550 010a 0246     		mov	r2, r0
 551 010c 0B46     		mov	r3, r1
 552 010e 1046     		mov	r0, r2
 553 0110 1946     		mov	r1, r3
 554 0112 4FF00002 		mov	r2, #0
 555 0116 204B     		ldr	r3, .L29+16
 556 0118 FFF7FEFF 		bl	__aeabi_dmul
 557 011c 0246     		mov	r2, r0
 558 011e 0B46     		mov	r3, r1
 559 0120 1046     		mov	r0, r2
 560 0122 1946     		mov	r1, r3
 561 0124 4FF00002 		mov	r2, #0
 562 0128 4FF08043 		mov	r3, #1073741824
 563 012c FFF7FEFF 		bl	__aeabi_ddiv
 564 0130 0246     		mov	r2, r0
 565 0132 0B46     		mov	r3, r1
 566 0134 1046     		mov	r0, r2
 567 0136 1946     		mov	r1, r3
 568 0138 FFF7FEFF 		bl	__aeabi_d2iz
 569 013c 0346     		mov	r3, r0
 570 013e 3B61     		str	r3, [r7, #16]
 154:main.c        ****     int center_PB_y = (i+1)*empty_PB + (i+1)*width_PB/2;
 571              		.loc 1 154 0
 572 0140 7B68     		ldr	r3, [r7, #4]
 573 0142 0133     		adds	r3, r3, #1
 574 0144 FA69     		ldr	r2, [r7, #28]
 575 0146 02FB03F2 		mul	r2, r2, r3
 576 014a 7B68     		ldr	r3, [r7, #4]
 577 014c 0133     		adds	r3, r3, #1
 578 014e B96A     		ldr	r1, [r7, #40]
 579 0150 01FB03F3 		mul	r3, r1, r3
 580 0154 D90F     		lsrs	r1, r3, #31
 581 0156 0B44     		add	r3, r3, r1
 582 0158 5B10     		asrs	r3, r3, #1
 583 015a 1344     		add	r3, r3, r2
ARM GAS  C:\Users\LilRobby\AppData\Local\Temp\cczyjVY0.s 			page 14


 584 015c FB60     		str	r3, [r7, #12]
 155:main.c        ****     TFTSHIELD_1_FillCircle(center_PB_x, center_PB_y, radius_PB, BLACK);
 585              		.loc 1 155 0
 586 015e 7B69     		ldr	r3, [r7, #20]
 587 0160 99B2     		uxth	r1, r3
 588 0162 FB68     		ldr	r3, [r7, #12]
 589 0164 9AB2     		uxth	r2, r3
 590 0166 3B69     		ldr	r3, [r7, #16]
 591 0168 9BB2     		uxth	r3, r3
 592 016a 09B2     		sxth	r1, r1
 593 016c 12B2     		sxth	r2, r2
 594 016e 1BB2     		sxth	r3, r3
 595 0170 0846     		mov	r0, r1
 596 0172 1146     		mov	r1, r2
 597 0174 1A46     		mov	r2, r3
 598 0176 0023     		movs	r3, #0
 599 0178 FFF7FEFF 		bl	TFTSHIELD_1_FillCircle
 156:main.c        **** }
 600              		.loc 1 156 0
 601 017c 3437     		adds	r7, r7, #52
 602              		.cfi_def_cfa_offset 12
 603 017e BD46     		mov	sp, r7
 604              		.cfi_def_cfa_register 13
 605              		@ sp needed
 606 0180 90BD     		pop	{r4, r7, pc}
 607              	.L30:
 608 0182 00BFAFF3 		.align	3
 608      0080
 609              	.L29:
 610 0188 00000000 		.word	0
 611 018c 00C05140 		.word	1079099392
 612 0190 00000440 		.word	1074003968
 613 0194 00006E40 		.word	1080950784
 614 0198 0000E83F 		.word	1072168960
 615              		.cfi_endproc
 616              	.LFE57:
 617              		.size	DrawPushbutton, .-DrawPushbutton
 618 019c AFF30080 		.section	.text.waiting,"ax",%progbits
 619              		.align	2
 620              		.global	waiting
 621              		.thumb
 622              		.thumb_func
 623              		.type	waiting, %function
 624              	waiting:
 625              	.LFB58:
 157:main.c        **** void waiting()//if the TFT is touched, wait until it is released.
 158:main.c        **** {
 626              		.loc 1 158 0
 627              		.cfi_startproc
 628              		@ args = 0, pretend = 0, frame = 0
 629              		@ frame_needed = 1, uses_anonymous_args = 0
 630 0000 80B5     		push	{r7, lr}
 631              		.cfi_def_cfa_offset 8
 632              		.cfi_offset 7, -8
 633              		.cfi_offset 14, -4
 634 0002 00AF     		add	r7, sp, #0
 635              		.cfi_def_cfa_register 7
ARM GAS  C:\Users\LilRobby\AppData\Local\Temp\cczyjVY0.s 			page 15


 159:main.c        ****     Clock_1_SetDividerValue(24);//Clock division needed for touch
 636              		.loc 1 159 0
 637 0004 1720     		movs	r0, #23
 638 0006 0121     		movs	r1, #1
 639 0008 FFF7FEFF 		bl	Clock_1_SetDividerRegister
 160:main.c        ****     if (TFTSHIELD_1_Touched()){while (TFTSHIELD_1_Touched()){}} //waiting until PB is released
 640              		.loc 1 160 0
 641 000c FFF7FEFF 		bl	TFTSHIELD_1_Touched
 642 0010 0346     		mov	r3, r0
 643 0012 002B     		cmp	r3, #0
 644 0014 05D0     		beq	.L32
 645 0016 00BF     		nop
 646              	.L33:
 647              		.loc 1 160 0 is_stmt 0 discriminator 1
 648 0018 FFF7FEFF 		bl	TFTSHIELD_1_Touched
 649 001c 0346     		mov	r3, r0
 650 001e 002B     		cmp	r3, #0
 651 0020 FAD1     		bne	.L33
 652              	.L32:
 161:main.c        ****     Clock_1_SetDividerValue(1);//reset clock divider
 653              		.loc 1 161 0 is_stmt 1
 654 0022 0020     		movs	r0, #0
 655 0024 0121     		movs	r1, #1
 656 0026 FFF7FEFF 		bl	Clock_1_SetDividerRegister
 162:main.c        **** }
 657              		.loc 1 162 0
 658 002a 80BD     		pop	{r7, pc}
 659              		.cfi_endproc
 660              	.LFE58:
 661              		.size	waiting, .-waiting
 662              		.global	__aeabi_dadd
 663              		.global	__aeabi_dcmplt
 664              		.section	.text.DrawSlideSwitch,"ax",%progbits
 665              		.align	2
 666              		.global	DrawSlideSwitch
 667              		.thumb
 668              		.thumb_func
 669              		.type	DrawSlideSwitch, %function
 670              	DrawSlideSwitch:
 671              	.LFB59:
 163:main.c        **** void DrawSlideSwitch(int i, int state)
 164:main.c        **** {
 672              		.loc 1 164 0
 673              		.cfi_startproc
 674              		@ args = 0, pretend = 0, frame = 40
 675              		@ frame_needed = 1, uses_anonymous_args = 0
 676 0000 2DE9F041 		push	{r4, r5, r6, r7, r8, lr}
 677              		.cfi_def_cfa_offset 24
 678              		.cfi_offset 4, -24
 679              		.cfi_offset 5, -20
 680              		.cfi_offset 6, -16
 681              		.cfi_offset 7, -12
 682              		.cfi_offset 8, -8
 683              		.cfi_offset 14, -4
 684 0004 8CB0     		sub	sp, sp, #48
 685              		.cfi_def_cfa_offset 72
 686 0006 02AF     		add	r7, sp, #8
ARM GAS  C:\Users\LilRobby\AppData\Local\Temp\cczyjVY0.s 			page 16


 687              		.cfi_def_cfa 7, 64
 688 0008 7860     		str	r0, [r7, #4]
 689 000a 3960     		str	r1, [r7]
 165:main.c        ****     // slideswitches
 166:main.c        ****     int separation_SW;
 167:main.c        ****     int inputs = switches + push_buttons;
 690              		.loc 1 167 0
 691 000c 0823     		movs	r3, #8
 692 000e 3B61     		str	r3, [r7, #16]
 168:main.c        ****     
 169:main.c        ****     if (inputs > 0){ separation_SW = y_max/inputs;} // check for division by zero
 693              		.loc 1 169 0
 694 0010 3B69     		ldr	r3, [r7, #16]
 695 0012 002B     		cmp	r3, #0
 696 0014 06DD     		ble	.L35
 697              		.loc 1 169 0 is_stmt 0 discriminator 1
 698 0016 4FF4A072 		mov	r2, #320
 699 001a 3B69     		ldr	r3, [r7, #16]
 700 001c 92FBF3F3 		sdiv	r3, r2, r3
 701 0020 7B62     		str	r3, [r7, #36]
 702 0022 02E0     		b	.L36
 703              	.L35:
 170:main.c        ****     else {separation_SW = y_max + 1;}
 704              		.loc 1 170 0 is_stmt 1
 705 0024 40F24113 		movw	r3, #321
 706 0028 7B62     		str	r3, [r7, #36]
 707              	.L36:
 171:main.c        ****     
 172:main.c        ****     int width_SW = separation_SW/2;
 708              		.loc 1 172 0
 709 002a 7B6A     		ldr	r3, [r7, #36]
 710 002c DA0F     		lsrs	r2, r3, #31
 711 002e 1344     		add	r3, r3, r2
 712 0030 5B10     		asrs	r3, r3, #1
 713 0032 3B62     		str	r3, [r7, #32]
 173:main.c        ****     int length_SW = width_SW*2;
 714              		.loc 1 173 0
 715 0034 3B6A     		ldr	r3, [r7, #32]
 716 0036 5B00     		lsls	r3, r3, #1
 717 0038 FB61     		str	r3, [r7, #28]
 174:main.c        ****     if (length_SW>x_max/2.5 - top_space )
 718              		.loc 1 174 0
 719 003a F869     		ldr	r0, [r7, #28]
 720 003c FFF7FEFF 		bl	__aeabi_i2d
 721 0040 0246     		mov	r2, r0
 722 0042 0B46     		mov	r3, r1
 723 0044 1046     		mov	r0, r2
 724 0046 1946     		mov	r1, r3
 725 0048 35A3     		adr	r3, .L47
 726 004a D3E90023 		ldrd	r2, [r3]
 727 004e FFF7FEFF 		bl	__aeabi_dcmpgt
 728 0052 0346     		mov	r3, r0
 729 0054 002B     		cmp	r3, #0
 730 0056 09D0     		beq	.L37
 175:main.c        ****     {   
 176:main.c        ****         length_SW = x_max/2.5 - top_space;
 731              		.loc 1 176 0
ARM GAS  C:\Users\LilRobby\AppData\Local\Temp\cczyjVY0.s 			page 17


 732 0058 4723     		movs	r3, #71
 733 005a FB61     		str	r3, [r7, #28]
 177:main.c        ****         width_SW = length_SW/2;
 734              		.loc 1 177 0
 735 005c FB69     		ldr	r3, [r7, #28]
 736 005e DA0F     		lsrs	r2, r3, #31
 737 0060 1344     		add	r3, r3, r2
 738 0062 5B10     		asrs	r3, r3, #1
 739 0064 3B62     		str	r3, [r7, #32]
 178:main.c        ****         separation_SW = 2*width_SW;
 740              		.loc 1 178 0
 741 0066 3B6A     		ldr	r3, [r7, #32]
 742 0068 5B00     		lsls	r3, r3, #1
 743 006a 7B62     		str	r3, [r7, #36]
 744              	.L37:
 179:main.c        ****     }
 180:main.c        ****     
 181:main.c        ****     int empty_SW =y_max/(inputs+1) - width_SW/2;
 745              		.loc 1 181 0
 746 006c 3B69     		ldr	r3, [r7, #16]
 747 006e 0133     		adds	r3, r3, #1
 748 0070 4FF4A072 		mov	r2, #320
 749 0074 92FBF3F2 		sdiv	r2, r2, r3
 750 0078 3B6A     		ldr	r3, [r7, #32]
 751 007a D90F     		lsrs	r1, r3, #31
 752 007c 0B44     		add	r3, r3, r1
 753 007e 5B10     		asrs	r3, r3, #1
 754 0080 D31A     		subs	r3, r2, r3
 755 0082 FB60     		str	r3, [r7, #12]
 182:main.c        ****     int x_SW = x_max - 1.5*length_SW;
 756              		.loc 1 182 0
 757 0084 F869     		ldr	r0, [r7, #28]
 758 0086 FFF7FEFF 		bl	__aeabi_i2d
 759 008a 0246     		mov	r2, r0
 760 008c 0B46     		mov	r3, r1
 761 008e 1046     		mov	r0, r2
 762 0090 1946     		mov	r1, r3
 763 0092 4FF00002 		mov	r2, #0
 764 0096 244B     		ldr	r3, .L47+8
 765 0098 FFF7FEFF 		bl	__aeabi_dmul
 766 009c 0246     		mov	r2, r0
 767 009e 0B46     		mov	r3, r1
 768 00a0 4FF00000 		mov	r0, #0
 769 00a4 2149     		ldr	r1, .L47+12
 770 00a6 FFF7FEFF 		bl	__aeabi_dsub
 771 00aa 0246     		mov	r2, r0
 772 00ac 0B46     		mov	r3, r1
 773 00ae 1046     		mov	r0, r2
 774 00b0 1946     		mov	r1, r3
 775 00b2 FFF7FEFF 		bl	__aeabi_d2iz
 776 00b6 0346     		mov	r3, r0
 777 00b8 BB60     		str	r3, [r7, #8]
 183:main.c        ****  
 184:main.c        ****     TFTSHIELD_1_FillRoundRect(x_SW, (i+1)*empty_SW + i*width_SW/2, length_SW, width_SW, width_SW/4,
 778              		.loc 1 184 0
 779 00ba BB68     		ldr	r3, [r7, #8]
 780 00bc 98B2     		uxth	r0, r3
ARM GAS  C:\Users\LilRobby\AppData\Local\Temp\cczyjVY0.s 			page 18


 781 00be 7B68     		ldr	r3, [r7, #4]
 782 00c0 0133     		adds	r3, r3, #1
 783 00c2 9BB2     		uxth	r3, r3
 784 00c4 FA68     		ldr	r2, [r7, #12]
 785 00c6 92B2     		uxth	r2, r2
 786 00c8 02FB03F3 		mul	r3, r2, r3
 787 00cc 9AB2     		uxth	r2, r3
 788 00ce 7B68     		ldr	r3, [r7, #4]
 789 00d0 396A     		ldr	r1, [r7, #32]
 790 00d2 01FB03F3 		mul	r3, r1, r3
 791 00d6 D90F     		lsrs	r1, r3, #31
 792 00d8 0B44     		add	r3, r3, r1
 793 00da 5B10     		asrs	r3, r3, #1
 794 00dc 9BB2     		uxth	r3, r3
 795 00de 1344     		add	r3, r3, r2
 796 00e0 9BB2     		uxth	r3, r3
 797 00e2 99B2     		uxth	r1, r3
 798 00e4 FB69     		ldr	r3, [r7, #28]
 799 00e6 9AB2     		uxth	r2, r3
 800 00e8 3B6A     		ldr	r3, [r7, #32]
 801 00ea 9CB2     		uxth	r4, r3
 802 00ec 3B6A     		ldr	r3, [r7, #32]
 803 00ee 002B     		cmp	r3, #0
 804 00f0 00DA     		bge	.L39
 805 00f2 0333     		adds	r3, r3, #3
 806              	.L39:
 807 00f4 9B10     		asrs	r3, r3, #2
 808 00f6 9BB2     		uxth	r3, r3
 809 00f8 00B2     		sxth	r0, r0
 810 00fa 09B2     		sxth	r1, r1
 811 00fc 12B2     		sxth	r2, r2
 812 00fe 24B2     		sxth	r4, r4
 813 0100 1BB2     		sxth	r3, r3
 814 0102 0093     		str	r3, [sp]
 815 0104 47F6EF33 		movw	r3, #31727
 816 0108 0193     		str	r3, [sp, #4]
 817 010a 2346     		mov	r3, r4
 818 010c FFF7FEFF 		bl	TFTSHIELD_1_FillRoundRect
 185:main.c        ****     
 186:main.c        ****     if (state == 1) //turning on animation
 819              		.loc 1 186 0
 820 0110 3B68     		ldr	r3, [r7]
 821 0112 012B     		cmp	r3, #1
 822 0114 40F02985 		bne	.L40
 823              	.LBB6:
 187:main.c        ****     {
 188:main.c        ****     int k = 0;
 824              		.loc 1 188 0
 825 0118 0023     		movs	r3, #0
 826 011a BB61     		str	r3, [r7, #24]
 189:main.c        ****     while (k < .85*length_SW/2 )
 827              		.loc 1 189 0
 828 011c C9E2     		b	.L41
 829              	.L48:
 830 011e 00BF     		.align	3
 831              	.L47:
 832 0120 00000000 		.word	0
ARM GAS  C:\Users\LilRobby\AppData\Local\Temp\cczyjVY0.s 			page 19


 833 0124 00C05140 		.word	1079099392
 834 0128 0000F83F 		.word	1073217536
 835 012c 00006E40 		.word	1080950784
 836              	.L42:
 190:main.c        ****     {
 191:main.c        ****     TFTSHIELD_1_FillRoundRect(x_SW + ((.15*length_SW)/2), (i+1)*empty_SW + i*width_SW/2 + (.15*widt
 837              		.loc 1 191 0
 838 0130 B868     		ldr	r0, [r7, #8]
 839 0132 FFF7FEFF 		bl	__aeabi_i2d
 840 0136 0446     		mov	r4, r0
 841 0138 0D46     		mov	r5, r1
 842 013a F869     		ldr	r0, [r7, #28]
 843 013c FFF7FEFF 		bl	__aeabi_i2d
 844 0140 0246     		mov	r2, r0
 845 0142 0B46     		mov	r3, r1
 846 0144 1046     		mov	r0, r2
 847 0146 1946     		mov	r1, r3
 848 0148 DDA3     		adr	r3, .L49
 849 014a D3E90023 		ldrd	r2, [r3]
 850 014e FFF7FEFF 		bl	__aeabi_dmul
 851 0152 0246     		mov	r2, r0
 852 0154 0B46     		mov	r3, r1
 853 0156 1046     		mov	r0, r2
 854 0158 1946     		mov	r1, r3
 855 015a 4FF00002 		mov	r2, #0
 856 015e 4FF08043 		mov	r3, #1073741824
 857 0162 FFF7FEFF 		bl	__aeabi_ddiv
 858 0166 0246     		mov	r2, r0
 859 0168 0B46     		mov	r3, r1
 860 016a 2046     		mov	r0, r4
 861 016c 2946     		mov	r1, r5
 862 016e FFF7FEFF 		bl	__aeabi_dadd
 863 0172 0246     		mov	r2, r0
 864 0174 0B46     		mov	r3, r1
 865 0176 1046     		mov	r0, r2
 866 0178 1946     		mov	r1, r3
 867 017a FFF7FEFF 		bl	__aeabi_d2iz
 868 017e 0346     		mov	r3, r0
 869 0180 1FFA83F8 		uxth	r8, r3
 870 0184 7B68     		ldr	r3, [r7, #4]
 871 0186 0133     		adds	r3, r3, #1
 872 0188 FA68     		ldr	r2, [r7, #12]
 873 018a 02FB03F2 		mul	r2, r2, r3
 874 018e 7B68     		ldr	r3, [r7, #4]
 875 0190 396A     		ldr	r1, [r7, #32]
 876 0192 01FB03F3 		mul	r3, r1, r3
 877 0196 D90F     		lsrs	r1, r3, #31
 878 0198 0B44     		add	r3, r3, r1
 879 019a 5B10     		asrs	r3, r3, #1
 880 019c 1344     		add	r3, r3, r2
 881 019e 1846     		mov	r0, r3
 882 01a0 FFF7FEFF 		bl	__aeabi_i2d
 883 01a4 0446     		mov	r4, r0
 884 01a6 0D46     		mov	r5, r1
 885 01a8 386A     		ldr	r0, [r7, #32]
 886 01aa FFF7FEFF 		bl	__aeabi_i2d
 887 01ae 0246     		mov	r2, r0
ARM GAS  C:\Users\LilRobby\AppData\Local\Temp\cczyjVY0.s 			page 20


 888 01b0 0B46     		mov	r3, r1
 889 01b2 1046     		mov	r0, r2
 890 01b4 1946     		mov	r1, r3
 891 01b6 C2A3     		adr	r3, .L49
 892 01b8 D3E90023 		ldrd	r2, [r3]
 893 01bc FFF7FEFF 		bl	__aeabi_dmul
 894 01c0 0246     		mov	r2, r0
 895 01c2 0B46     		mov	r3, r1
 896 01c4 1046     		mov	r0, r2
 897 01c6 1946     		mov	r1, r3
 898 01c8 4FF00002 		mov	r2, #0
 899 01cc 4FF08043 		mov	r3, #1073741824
 900 01d0 FFF7FEFF 		bl	__aeabi_ddiv
 901 01d4 0246     		mov	r2, r0
 902 01d6 0B46     		mov	r3, r1
 903 01d8 2046     		mov	r0, r4
 904 01da 2946     		mov	r1, r5
 905 01dc FFF7FEFF 		bl	__aeabi_dadd
 906 01e0 0246     		mov	r2, r0
 907 01e2 0B46     		mov	r3, r1
 908 01e4 1046     		mov	r0, r2
 909 01e6 1946     		mov	r1, r3
 910 01e8 FFF7FEFF 		bl	__aeabi_d2iz
 911 01ec 0346     		mov	r3, r0
 912 01ee 9EB2     		uxth	r6, r3
 913 01f0 F869     		ldr	r0, [r7, #28]
 914 01f2 FFF7FEFF 		bl	__aeabi_i2d
 915 01f6 0246     		mov	r2, r0
 916 01f8 0B46     		mov	r3, r1
 917 01fa 1046     		mov	r0, r2
 918 01fc 1946     		mov	r1, r3
 919 01fe B2A3     		adr	r3, .L49+8
 920 0200 D3E90023 		ldrd	r2, [r3]
 921 0204 FFF7FEFF 		bl	__aeabi_dmul
 922 0208 0246     		mov	r2, r0
 923 020a 0B46     		mov	r3, r1
 924 020c 1046     		mov	r0, r2
 925 020e 1946     		mov	r1, r3
 926 0210 FFF7FEFF 		bl	__aeabi_d2iz
 927 0214 0346     		mov	r3, r0
 928 0216 9DB2     		uxth	r5, r3
 929 0218 386A     		ldr	r0, [r7, #32]
 930 021a FFF7FEFF 		bl	__aeabi_i2d
 931 021e 0246     		mov	r2, r0
 932 0220 0B46     		mov	r3, r1
 933 0222 1046     		mov	r0, r2
 934 0224 1946     		mov	r1, r3
 935 0226 A8A3     		adr	r3, .L49+8
 936 0228 D3E90023 		ldrd	r2, [r3]
 937 022c FFF7FEFF 		bl	__aeabi_dmul
 938 0230 0246     		mov	r2, r0
 939 0232 0B46     		mov	r3, r1
 940 0234 1046     		mov	r0, r2
 941 0236 1946     		mov	r1, r3
 942 0238 FFF7FEFF 		bl	__aeabi_d2iz
 943 023c 0346     		mov	r3, r0
 944 023e 9CB2     		uxth	r4, r3
ARM GAS  C:\Users\LilRobby\AppData\Local\Temp\cczyjVY0.s 			page 21


 945 0240 386A     		ldr	r0, [r7, #32]
 946 0242 FFF7FEFF 		bl	__aeabi_i2d
 947 0246 0246     		mov	r2, r0
 948 0248 0B46     		mov	r3, r1
 949 024a 1046     		mov	r0, r2
 950 024c 1946     		mov	r1, r3
 951 024e 9EA3     		adr	r3, .L49+8
 952 0250 D3E90023 		ldrd	r2, [r3]
 953 0254 FFF7FEFF 		bl	__aeabi_dmul
 954 0258 0246     		mov	r2, r0
 955 025a 0B46     		mov	r3, r1
 956 025c 1046     		mov	r0, r2
 957 025e 1946     		mov	r1, r3
 958 0260 4FF00002 		mov	r2, #0
 959 0264 9A4B     		ldr	r3, .L49+16
 960 0266 FFF7FEFF 		bl	__aeabi_ddiv
 961 026a 0246     		mov	r2, r0
 962 026c 0B46     		mov	r3, r1
 963 026e 1046     		mov	r0, r2
 964 0270 1946     		mov	r1, r3
 965 0272 FFF7FEFF 		bl	__aeabi_d2iz
 966 0276 0346     		mov	r3, r0
 967 0278 9BB2     		uxth	r3, r3
 968 027a 0FFA88F0 		sxth	r0, r8
 969 027e 31B2     		sxth	r1, r6
 970 0280 2AB2     		sxth	r2, r5
 971 0282 24B2     		sxth	r4, r4
 972 0284 1BB2     		sxth	r3, r3
 973 0286 0093     		str	r3, [sp]
 974 0288 0023     		movs	r3, #0
 975 028a 0193     		str	r3, [sp, #4]
 976 028c 2346     		mov	r3, r4
 977 028e FFF7FEFF 		bl	TFTSHIELD_1_FillRoundRect
 192:main.c        ****     TFTSHIELD_1_FillRoundRect(x_SW + ((.15*length_SW)/2) + (.85*length_SW/2) - k,  (i+1)*empty_SW +
 978              		.loc 1 192 0
 979 0292 B868     		ldr	r0, [r7, #8]
 980 0294 FFF7FEFF 		bl	__aeabi_i2d
 981 0298 0446     		mov	r4, r0
 982 029a 0D46     		mov	r5, r1
 983 029c F869     		ldr	r0, [r7, #28]
 984 029e FFF7FEFF 		bl	__aeabi_i2d
 985 02a2 0246     		mov	r2, r0
 986 02a4 0B46     		mov	r3, r1
 987 02a6 1046     		mov	r0, r2
 988 02a8 1946     		mov	r1, r3
 989 02aa 85A3     		adr	r3, .L49
 990 02ac D3E90023 		ldrd	r2, [r3]
 991 02b0 FFF7FEFF 		bl	__aeabi_dmul
 992 02b4 0246     		mov	r2, r0
 993 02b6 0B46     		mov	r3, r1
 994 02b8 1046     		mov	r0, r2
 995 02ba 1946     		mov	r1, r3
 996 02bc 4FF00002 		mov	r2, #0
 997 02c0 4FF08043 		mov	r3, #1073741824
 998 02c4 FFF7FEFF 		bl	__aeabi_ddiv
 999 02c8 0246     		mov	r2, r0
 1000 02ca 0B46     		mov	r3, r1
ARM GAS  C:\Users\LilRobby\AppData\Local\Temp\cczyjVY0.s 			page 22


 1001 02cc 2046     		mov	r0, r4
 1002 02ce 2946     		mov	r1, r5
 1003 02d0 FFF7FEFF 		bl	__aeabi_dadd
 1004 02d4 0246     		mov	r2, r0
 1005 02d6 0B46     		mov	r3, r1
 1006 02d8 1446     		mov	r4, r2
 1007 02da 1D46     		mov	r5, r3
 1008 02dc F869     		ldr	r0, [r7, #28]
 1009 02de FFF7FEFF 		bl	__aeabi_i2d
 1010 02e2 0246     		mov	r2, r0
 1011 02e4 0B46     		mov	r3, r1
 1012 02e6 1046     		mov	r0, r2
 1013 02e8 1946     		mov	r1, r3
 1014 02ea 77A3     		adr	r3, .L49+8
 1015 02ec D3E90023 		ldrd	r2, [r3]
 1016 02f0 FFF7FEFF 		bl	__aeabi_dmul
 1017 02f4 0246     		mov	r2, r0
 1018 02f6 0B46     		mov	r3, r1
 1019 02f8 1046     		mov	r0, r2
 1020 02fa 1946     		mov	r1, r3
 1021 02fc 4FF00002 		mov	r2, #0
 1022 0300 4FF08043 		mov	r3, #1073741824
 1023 0304 FFF7FEFF 		bl	__aeabi_ddiv
 1024 0308 0246     		mov	r2, r0
 1025 030a 0B46     		mov	r3, r1
 1026 030c 2046     		mov	r0, r4
 1027 030e 2946     		mov	r1, r5
 1028 0310 FFF7FEFF 		bl	__aeabi_dadd
 1029 0314 0246     		mov	r2, r0
 1030 0316 0B46     		mov	r3, r1
 1031 0318 1446     		mov	r4, r2
 1032 031a 1D46     		mov	r5, r3
 1033 031c B869     		ldr	r0, [r7, #24]
 1034 031e FFF7FEFF 		bl	__aeabi_i2d
 1035 0322 0246     		mov	r2, r0
 1036 0324 0B46     		mov	r3, r1
 1037 0326 2046     		mov	r0, r4
 1038 0328 2946     		mov	r1, r5
 1039 032a FFF7FEFF 		bl	__aeabi_dsub
 1040 032e 0246     		mov	r2, r0
 1041 0330 0B46     		mov	r3, r1
 1042 0332 1046     		mov	r0, r2
 1043 0334 1946     		mov	r1, r3
 1044 0336 FFF7FEFF 		bl	__aeabi_d2iz
 1045 033a 0346     		mov	r3, r0
 1046 033c 1FFA83F8 		uxth	r8, r3
 1047 0340 7B68     		ldr	r3, [r7, #4]
 1048 0342 0133     		adds	r3, r3, #1
 1049 0344 FA68     		ldr	r2, [r7, #12]
 1050 0346 02FB03F2 		mul	r2, r2, r3
 1051 034a 7B68     		ldr	r3, [r7, #4]
 1052 034c 396A     		ldr	r1, [r7, #32]
 1053 034e 01FB03F3 		mul	r3, r1, r3
 1054 0352 D90F     		lsrs	r1, r3, #31
 1055 0354 0B44     		add	r3, r3, r1
 1056 0356 5B10     		asrs	r3, r3, #1
 1057 0358 1344     		add	r3, r3, r2
ARM GAS  C:\Users\LilRobby\AppData\Local\Temp\cczyjVY0.s 			page 23


 1058 035a 1846     		mov	r0, r3
 1059 035c FFF7FEFF 		bl	__aeabi_i2d
 1060 0360 0446     		mov	r4, r0
 1061 0362 0D46     		mov	r5, r1
 1062 0364 386A     		ldr	r0, [r7, #32]
 1063 0366 FFF7FEFF 		bl	__aeabi_i2d
 1064 036a 0246     		mov	r2, r0
 1065 036c 0B46     		mov	r3, r1
 1066 036e 1046     		mov	r0, r2
 1067 0370 1946     		mov	r1, r3
 1068 0372 53A3     		adr	r3, .L49
 1069 0374 D3E90023 		ldrd	r2, [r3]
 1070 0378 FFF7FEFF 		bl	__aeabi_dmul
 1071 037c 0246     		mov	r2, r0
 1072 037e 0B46     		mov	r3, r1
 1073 0380 1046     		mov	r0, r2
 1074 0382 1946     		mov	r1, r3
 1075 0384 4FF00002 		mov	r2, #0
 1076 0388 4FF08043 		mov	r3, #1073741824
 1077 038c FFF7FEFF 		bl	__aeabi_ddiv
 1078 0390 0246     		mov	r2, r0
 1079 0392 0B46     		mov	r3, r1
 1080 0394 2046     		mov	r0, r4
 1081 0396 2946     		mov	r1, r5
 1082 0398 FFF7FEFF 		bl	__aeabi_dadd
 1083 039c 0246     		mov	r2, r0
 1084 039e 0B46     		mov	r3, r1
 1085 03a0 1046     		mov	r0, r2
 1086 03a2 1946     		mov	r1, r3
 1087 03a4 FFF7FEFF 		bl	__aeabi_d2iz
 1088 03a8 0346     		mov	r3, r0
 1089 03aa 9EB2     		uxth	r6, r3
 1090 03ac F869     		ldr	r0, [r7, #28]
 1091 03ae FFF7FEFF 		bl	__aeabi_i2d
 1092 03b2 0246     		mov	r2, r0
 1093 03b4 0B46     		mov	r3, r1
 1094 03b6 1046     		mov	r0, r2
 1095 03b8 1946     		mov	r1, r3
 1096 03ba 43A3     		adr	r3, .L49+8
 1097 03bc D3E90023 		ldrd	r2, [r3]
 1098 03c0 FFF7FEFF 		bl	__aeabi_dmul
 1099 03c4 0246     		mov	r2, r0
 1100 03c6 0B46     		mov	r3, r1
 1101 03c8 1046     		mov	r0, r2
 1102 03ca 1946     		mov	r1, r3
 1103 03cc 4FF00002 		mov	r2, #0
 1104 03d0 4FF08043 		mov	r3, #1073741824
 1105 03d4 FFF7FEFF 		bl	__aeabi_ddiv
 1106 03d8 0246     		mov	r2, r0
 1107 03da 0B46     		mov	r3, r1
 1108 03dc 1046     		mov	r0, r2
 1109 03de 1946     		mov	r1, r3
 1110 03e0 FFF7FEFF 		bl	__aeabi_d2iz
 1111 03e4 0346     		mov	r3, r0
 1112 03e6 9DB2     		uxth	r5, r3
 1113 03e8 386A     		ldr	r0, [r7, #32]
 1114 03ea FFF7FEFF 		bl	__aeabi_i2d
ARM GAS  C:\Users\LilRobby\AppData\Local\Temp\cczyjVY0.s 			page 24


 1115 03ee 0246     		mov	r2, r0
 1116 03f0 0B46     		mov	r3, r1
 1117 03f2 1046     		mov	r0, r2
 1118 03f4 1946     		mov	r1, r3
 1119 03f6 34A3     		adr	r3, .L49+8
 1120 03f8 D3E90023 		ldrd	r2, [r3]
 1121 03fc FFF7FEFF 		bl	__aeabi_dmul
 1122 0400 0246     		mov	r2, r0
 1123 0402 0B46     		mov	r3, r1
 1124 0404 1046     		mov	r0, r2
 1125 0406 1946     		mov	r1, r3
 1126 0408 FFF7FEFF 		bl	__aeabi_d2iz
 1127 040c 0346     		mov	r3, r0
 1128 040e 9CB2     		uxth	r4, r3
 1129 0410 386A     		ldr	r0, [r7, #32]
 1130 0412 FFF7FEFF 		bl	__aeabi_i2d
 1131 0416 0246     		mov	r2, r0
 1132 0418 0B46     		mov	r3, r1
 1133 041a 1046     		mov	r0, r2
 1134 041c 1946     		mov	r1, r3
 1135 041e 2AA3     		adr	r3, .L49+8
 1136 0420 D3E90023 		ldrd	r2, [r3]
 1137 0424 FFF7FEFF 		bl	__aeabi_dmul
 1138 0428 0246     		mov	r2, r0
 1139 042a 0B46     		mov	r3, r1
 1140 042c 1046     		mov	r0, r2
 1141 042e 1946     		mov	r1, r3
 1142 0430 4FF00002 		mov	r2, #0
 1143 0434 264B     		ldr	r3, .L49+16
 1144 0436 FFF7FEFF 		bl	__aeabi_ddiv
 1145 043a 0246     		mov	r2, r0
 1146 043c 0B46     		mov	r3, r1
 1147 043e 1046     		mov	r0, r2
 1148 0440 1946     		mov	r1, r3
 1149 0442 FFF7FEFF 		bl	__aeabi_d2iz
 1150 0446 0346     		mov	r3, r0
 1151 0448 9BB2     		uxth	r3, r3
 1152 044a 0FFA88F0 		sxth	r0, r8
 1153 044e 31B2     		sxth	r1, r6
 1154 0450 2AB2     		sxth	r2, r5
 1155 0452 24B2     		sxth	r4, r4
 1156 0454 1BB2     		sxth	r3, r3
 1157 0456 0093     		str	r3, [sp]
 1158 0458 4FF6FF73 		movw	r3, #65535
 1159 045c 0193     		str	r3, [sp, #4]
 1160 045e 2346     		mov	r3, r4
 1161 0460 FFF7FEFF 		bl	TFTSHIELD_1_FillRoundRect
 193:main.c        ****     TFTSHIELD_1_DrawRoundRect(x_SW + ((.15*length_SW)/2) + (.85*length_SW/2) - k, (i+1)*empty_SW + 
 1162              		.loc 1 193 0
 1163 0464 B868     		ldr	r0, [r7, #8]
 1164 0466 FFF7FEFF 		bl	__aeabi_i2d
 1165 046a 0446     		mov	r4, r0
 1166 046c 0D46     		mov	r5, r1
 1167 046e F869     		ldr	r0, [r7, #28]
 1168 0470 FFF7FEFF 		bl	__aeabi_i2d
 1169 0474 0246     		mov	r2, r0
 1170 0476 0B46     		mov	r3, r1
ARM GAS  C:\Users\LilRobby\AppData\Local\Temp\cczyjVY0.s 			page 25


 1171 0478 1046     		mov	r0, r2
 1172 047a 1946     		mov	r1, r3
 1173 047c 10A3     		adr	r3, .L49
 1174 047e D3E90023 		ldrd	r2, [r3]
 1175 0482 FFF7FEFF 		bl	__aeabi_dmul
 1176 0486 0246     		mov	r2, r0
 1177 0488 0B46     		mov	r3, r1
 1178 048a 1046     		mov	r0, r2
 1179 048c 1946     		mov	r1, r3
 1180 048e 4FF00002 		mov	r2, #0
 1181 0492 4FF08043 		mov	r3, #1073741824
 1182 0496 FFF7FEFF 		bl	__aeabi_ddiv
 1183 049a 0246     		mov	r2, r0
 1184 049c 0B46     		mov	r3, r1
 1185 049e 2046     		mov	r0, r4
 1186 04a0 2946     		mov	r1, r5
 1187 04a2 FFF7FEFF 		bl	__aeabi_dadd
 1188 04a6 0246     		mov	r2, r0
 1189 04a8 0B46     		mov	r3, r1
 1190 04aa 1446     		mov	r4, r2
 1191 04ac 1D46     		mov	r5, r3
 1192 04ae F869     		ldr	r0, [r7, #28]
 1193 04b0 FFF7FEFF 		bl	__aeabi_i2d
 1194 04b4 0246     		mov	r2, r0
 1195 04b6 0B46     		mov	r3, r1
 1196 04b8 1046     		mov	r0, r2
 1197 04ba 1946     		mov	r1, r3
 1198 04bc 0AE0     		b	.L50
 1199              	.L51:
 1200 04be 00BF     		.align	3
 1201              	.L49:
 1202 04c0 33333333 		.word	858993459
 1203 04c4 3333C33F 		.word	1069757235
 1204 04c8 33333333 		.word	858993459
 1205 04cc 3333EB3F 		.word	1072378675
 1206 04d0 00001040 		.word	1074790400
 1207              	.L50:
 1208 04d4 E0A3     		adr	r3, .L52
 1209 04d6 D3E90023 		ldrd	r2, [r3]
 1210 04da FFF7FEFF 		bl	__aeabi_dmul
 1211 04de 0246     		mov	r2, r0
 1212 04e0 0B46     		mov	r3, r1
 1213 04e2 1046     		mov	r0, r2
 1214 04e4 1946     		mov	r1, r3
 1215 04e6 4FF00002 		mov	r2, #0
 1216 04ea 4FF08043 		mov	r3, #1073741824
 1217 04ee FFF7FEFF 		bl	__aeabi_ddiv
 1218 04f2 0246     		mov	r2, r0
 1219 04f4 0B46     		mov	r3, r1
 1220 04f6 2046     		mov	r0, r4
 1221 04f8 2946     		mov	r1, r5
 1222 04fa FFF7FEFF 		bl	__aeabi_dadd
 1223 04fe 0246     		mov	r2, r0
 1224 0500 0B46     		mov	r3, r1
 1225 0502 1446     		mov	r4, r2
 1226 0504 1D46     		mov	r5, r3
 1227 0506 B869     		ldr	r0, [r7, #24]
ARM GAS  C:\Users\LilRobby\AppData\Local\Temp\cczyjVY0.s 			page 26


 1228 0508 FFF7FEFF 		bl	__aeabi_i2d
 1229 050c 0246     		mov	r2, r0
 1230 050e 0B46     		mov	r3, r1
 1231 0510 2046     		mov	r0, r4
 1232 0512 2946     		mov	r1, r5
 1233 0514 FFF7FEFF 		bl	__aeabi_dsub
 1234 0518 0246     		mov	r2, r0
 1235 051a 0B46     		mov	r3, r1
 1236 051c 1046     		mov	r0, r2
 1237 051e 1946     		mov	r1, r3
 1238 0520 FFF7FEFF 		bl	__aeabi_d2iz
 1239 0524 0346     		mov	r3, r0
 1240 0526 1FFA83F8 		uxth	r8, r3
 1241 052a 7B68     		ldr	r3, [r7, #4]
 1242 052c 0133     		adds	r3, r3, #1
 1243 052e FA68     		ldr	r2, [r7, #12]
 1244 0530 02FB03F2 		mul	r2, r2, r3
 1245 0534 7B68     		ldr	r3, [r7, #4]
 1246 0536 396A     		ldr	r1, [r7, #32]
 1247 0538 01FB03F3 		mul	r3, r1, r3
 1248 053c D90F     		lsrs	r1, r3, #31
 1249 053e 0B44     		add	r3, r3, r1
 1250 0540 5B10     		asrs	r3, r3, #1
 1251 0542 1344     		add	r3, r3, r2
 1252 0544 1846     		mov	r0, r3
 1253 0546 FFF7FEFF 		bl	__aeabi_i2d
 1254 054a 0446     		mov	r4, r0
 1255 054c 0D46     		mov	r5, r1
 1256 054e 386A     		ldr	r0, [r7, #32]
 1257 0550 FFF7FEFF 		bl	__aeabi_i2d
 1258 0554 0246     		mov	r2, r0
 1259 0556 0B46     		mov	r3, r1
 1260 0558 1046     		mov	r0, r2
 1261 055a 1946     		mov	r1, r3
 1262 055c C0A3     		adr	r3, .L52+8
 1263 055e D3E90023 		ldrd	r2, [r3]
 1264 0562 FFF7FEFF 		bl	__aeabi_dmul
 1265 0566 0246     		mov	r2, r0
 1266 0568 0B46     		mov	r3, r1
 1267 056a 1046     		mov	r0, r2
 1268 056c 1946     		mov	r1, r3
 1269 056e 4FF00002 		mov	r2, #0
 1270 0572 4FF08043 		mov	r3, #1073741824
 1271 0576 FFF7FEFF 		bl	__aeabi_ddiv
 1272 057a 0246     		mov	r2, r0
 1273 057c 0B46     		mov	r3, r1
 1274 057e 2046     		mov	r0, r4
 1275 0580 2946     		mov	r1, r5
 1276 0582 FFF7FEFF 		bl	__aeabi_dadd
 1277 0586 0246     		mov	r2, r0
 1278 0588 0B46     		mov	r3, r1
 1279 058a 1046     		mov	r0, r2
 1280 058c 1946     		mov	r1, r3
 1281 058e FFF7FEFF 		bl	__aeabi_d2iz
 1282 0592 0346     		mov	r3, r0
 1283 0594 9EB2     		uxth	r6, r3
 1284 0596 F869     		ldr	r0, [r7, #28]
ARM GAS  C:\Users\LilRobby\AppData\Local\Temp\cczyjVY0.s 			page 27


 1285 0598 FFF7FEFF 		bl	__aeabi_i2d
 1286 059c 0246     		mov	r2, r0
 1287 059e 0B46     		mov	r3, r1
 1288 05a0 1046     		mov	r0, r2
 1289 05a2 1946     		mov	r1, r3
 1290 05a4 ACA3     		adr	r3, .L52
 1291 05a6 D3E90023 		ldrd	r2, [r3]
 1292 05aa FFF7FEFF 		bl	__aeabi_dmul
 1293 05ae 0246     		mov	r2, r0
 1294 05b0 0B46     		mov	r3, r1
 1295 05b2 1046     		mov	r0, r2
 1296 05b4 1946     		mov	r1, r3
 1297 05b6 4FF00002 		mov	r2, #0
 1298 05ba 4FF08043 		mov	r3, #1073741824
 1299 05be FFF7FEFF 		bl	__aeabi_ddiv
 1300 05c2 0246     		mov	r2, r0
 1301 05c4 0B46     		mov	r3, r1
 1302 05c6 1046     		mov	r0, r2
 1303 05c8 1946     		mov	r1, r3
 1304 05ca FFF7FEFF 		bl	__aeabi_d2iz
 1305 05ce 0346     		mov	r3, r0
 1306 05d0 9DB2     		uxth	r5, r3
 1307 05d2 386A     		ldr	r0, [r7, #32]
 1308 05d4 FFF7FEFF 		bl	__aeabi_i2d
 1309 05d8 0246     		mov	r2, r0
 1310 05da 0B46     		mov	r3, r1
 1311 05dc 1046     		mov	r0, r2
 1312 05de 1946     		mov	r1, r3
 1313 05e0 9DA3     		adr	r3, .L52
 1314 05e2 D3E90023 		ldrd	r2, [r3]
 1315 05e6 FFF7FEFF 		bl	__aeabi_dmul
 1316 05ea 0246     		mov	r2, r0
 1317 05ec 0B46     		mov	r3, r1
 1318 05ee 1046     		mov	r0, r2
 1319 05f0 1946     		mov	r1, r3
 1320 05f2 FFF7FEFF 		bl	__aeabi_d2iz
 1321 05f6 0346     		mov	r3, r0
 1322 05f8 9CB2     		uxth	r4, r3
 1323 05fa 386A     		ldr	r0, [r7, #32]
 1324 05fc FFF7FEFF 		bl	__aeabi_i2d
 1325 0600 0246     		mov	r2, r0
 1326 0602 0B46     		mov	r3, r1
 1327 0604 1046     		mov	r0, r2
 1328 0606 1946     		mov	r1, r3
 1329 0608 93A3     		adr	r3, .L52
 1330 060a D3E90023 		ldrd	r2, [r3]
 1331 060e FFF7FEFF 		bl	__aeabi_dmul
 1332 0612 0246     		mov	r2, r0
 1333 0614 0B46     		mov	r3, r1
 1334 0616 1046     		mov	r0, r2
 1335 0618 1946     		mov	r1, r3
 1336 061a 4FF00002 		mov	r2, #0
 1337 061e 924B     		ldr	r3, .L52+16
 1338 0620 FFF7FEFF 		bl	__aeabi_ddiv
 1339 0624 0246     		mov	r2, r0
 1340 0626 0B46     		mov	r3, r1
 1341 0628 1046     		mov	r0, r2
ARM GAS  C:\Users\LilRobby\AppData\Local\Temp\cczyjVY0.s 			page 28


 1342 062a 1946     		mov	r1, r3
 1343 062c FFF7FEFF 		bl	__aeabi_d2iz
 1344 0630 0346     		mov	r3, r0
 1345 0632 9BB2     		uxth	r3, r3
 1346 0634 0FFA88F0 		sxth	r0, r8
 1347 0638 31B2     		sxth	r1, r6
 1348 063a 2AB2     		sxth	r2, r5
 1349 063c 24B2     		sxth	r4, r4
 1350 063e 1BB2     		sxth	r3, r3
 1351 0640 0093     		str	r3, [sp]
 1352 0642 0023     		movs	r3, #0
 1353 0644 0193     		str	r3, [sp, #4]
 1354 0646 2346     		mov	r3, r4
 1355 0648 FFF7FEFF 		bl	TFTSHIELD_1_DrawRoundRect
 194:main.c        ****     k = k + (.85*length_SW/2)/2;
 1356              		.loc 1 194 0
 1357 064c B869     		ldr	r0, [r7, #24]
 1358 064e FFF7FEFF 		bl	__aeabi_i2d
 1359 0652 0446     		mov	r4, r0
 1360 0654 0D46     		mov	r5, r1
 1361 0656 F869     		ldr	r0, [r7, #28]
 1362 0658 FFF7FEFF 		bl	__aeabi_i2d
 1363 065c 0246     		mov	r2, r0
 1364 065e 0B46     		mov	r3, r1
 1365 0660 1046     		mov	r0, r2
 1366 0662 1946     		mov	r1, r3
 1367 0664 7CA3     		adr	r3, .L52
 1368 0666 D3E90023 		ldrd	r2, [r3]
 1369 066a FFF7FEFF 		bl	__aeabi_dmul
 1370 066e 0246     		mov	r2, r0
 1371 0670 0B46     		mov	r3, r1
 1372 0672 1046     		mov	r0, r2
 1373 0674 1946     		mov	r1, r3
 1374 0676 4FF00002 		mov	r2, #0
 1375 067a 4FF08043 		mov	r3, #1073741824
 1376 067e FFF7FEFF 		bl	__aeabi_ddiv
 1377 0682 0246     		mov	r2, r0
 1378 0684 0B46     		mov	r3, r1
 1379 0686 1046     		mov	r0, r2
 1380 0688 1946     		mov	r1, r3
 1381 068a 4FF00002 		mov	r2, #0
 1382 068e 4FF08043 		mov	r3, #1073741824
 1383 0692 FFF7FEFF 		bl	__aeabi_ddiv
 1384 0696 0246     		mov	r2, r0
 1385 0698 0B46     		mov	r3, r1
 1386 069a 2046     		mov	r0, r4
 1387 069c 2946     		mov	r1, r5
 1388 069e FFF7FEFF 		bl	__aeabi_dadd
 1389 06a2 0246     		mov	r2, r0
 1390 06a4 0B46     		mov	r3, r1
 1391 06a6 1046     		mov	r0, r2
 1392 06a8 1946     		mov	r1, r3
 1393 06aa FFF7FEFF 		bl	__aeabi_d2iz
 1394 06ae 0346     		mov	r3, r0
 1395 06b0 BB61     		str	r3, [r7, #24]
 1396              	.L41:
 189:main.c        ****     {
ARM GAS  C:\Users\LilRobby\AppData\Local\Temp\cczyjVY0.s 			page 29


 1397              		.loc 1 189 0
 1398 06b2 B869     		ldr	r0, [r7, #24]
 1399 06b4 FFF7FEFF 		bl	__aeabi_i2d
 1400 06b8 0446     		mov	r4, r0
 1401 06ba 0D46     		mov	r5, r1
 1402 06bc F869     		ldr	r0, [r7, #28]
 1403 06be FFF7FEFF 		bl	__aeabi_i2d
 1404 06c2 0246     		mov	r2, r0
 1405 06c4 0B46     		mov	r3, r1
 1406 06c6 1046     		mov	r0, r2
 1407 06c8 1946     		mov	r1, r3
 1408 06ca 63A3     		adr	r3, .L52
 1409 06cc D3E90023 		ldrd	r2, [r3]
 1410 06d0 FFF7FEFF 		bl	__aeabi_dmul
 1411 06d4 0246     		mov	r2, r0
 1412 06d6 0B46     		mov	r3, r1
 1413 06d8 1046     		mov	r0, r2
 1414 06da 1946     		mov	r1, r3
 1415 06dc 4FF00002 		mov	r2, #0
 1416 06e0 4FF08043 		mov	r3, #1073741824
 1417 06e4 FFF7FEFF 		bl	__aeabi_ddiv
 1418 06e8 0246     		mov	r2, r0
 1419 06ea 0B46     		mov	r3, r1
 1420 06ec 2046     		mov	r0, r4
 1421 06ee 2946     		mov	r1, r5
 1422 06f0 FFF7FEFF 		bl	__aeabi_dcmplt
 1423 06f4 0346     		mov	r3, r0
 1424 06f6 002B     		cmp	r3, #0
 1425 06f8 7FF41AAD 		bne	.L42
 195:main.c        ****     }
 196:main.c        ****   
 197:main.c        ****     TFTSHIELD_1_FillRoundRect(x_SW + ((.15*length_SW)/2), (i+1)*empty_SW + i*width_SW/2 + (.15*widt
 1426              		.loc 1 197 0
 1427 06fc B868     		ldr	r0, [r7, #8]
 1428 06fe FFF7FEFF 		bl	__aeabi_i2d
 1429 0702 0446     		mov	r4, r0
 1430 0704 0D46     		mov	r5, r1
 1431 0706 F869     		ldr	r0, [r7, #28]
 1432 0708 FFF7FEFF 		bl	__aeabi_i2d
 1433 070c 0246     		mov	r2, r0
 1434 070e 0B46     		mov	r3, r1
 1435 0710 1046     		mov	r0, r2
 1436 0712 1946     		mov	r1, r3
 1437 0714 52A3     		adr	r3, .L52+8
 1438 0716 D3E90023 		ldrd	r2, [r3]
 1439 071a FFF7FEFF 		bl	__aeabi_dmul
 1440 071e 0246     		mov	r2, r0
 1441 0720 0B46     		mov	r3, r1
 1442 0722 1046     		mov	r0, r2
 1443 0724 1946     		mov	r1, r3
 1444 0726 4FF00002 		mov	r2, #0
 1445 072a 4FF08043 		mov	r3, #1073741824
 1446 072e FFF7FEFF 		bl	__aeabi_ddiv
 1447 0732 0246     		mov	r2, r0
 1448 0734 0B46     		mov	r3, r1
 1449 0736 2046     		mov	r0, r4
 1450 0738 2946     		mov	r1, r5
ARM GAS  C:\Users\LilRobby\AppData\Local\Temp\cczyjVY0.s 			page 30


 1451 073a FFF7FEFF 		bl	__aeabi_dadd
 1452 073e 0246     		mov	r2, r0
 1453 0740 0B46     		mov	r3, r1
 1454 0742 1046     		mov	r0, r2
 1455 0744 1946     		mov	r1, r3
 1456 0746 FFF7FEFF 		bl	__aeabi_d2iz
 1457 074a 0346     		mov	r3, r0
 1458 074c 1FFA83F8 		uxth	r8, r3
 1459 0750 7B68     		ldr	r3, [r7, #4]
 1460 0752 0133     		adds	r3, r3, #1
 1461 0754 FA68     		ldr	r2, [r7, #12]
 1462 0756 02FB03F2 		mul	r2, r2, r3
 1463 075a 7B68     		ldr	r3, [r7, #4]
 1464 075c 396A     		ldr	r1, [r7, #32]
 1465 075e 01FB03F3 		mul	r3, r1, r3
 1466 0762 D90F     		lsrs	r1, r3, #31
 1467 0764 0B44     		add	r3, r3, r1
 1468 0766 5B10     		asrs	r3, r3, #1
 1469 0768 1344     		add	r3, r3, r2
 1470 076a 1846     		mov	r0, r3
 1471 076c FFF7FEFF 		bl	__aeabi_i2d
 1472 0770 0446     		mov	r4, r0
 1473 0772 0D46     		mov	r5, r1
 1474 0774 386A     		ldr	r0, [r7, #32]
 1475 0776 FFF7FEFF 		bl	__aeabi_i2d
 1476 077a 0246     		mov	r2, r0
 1477 077c 0B46     		mov	r3, r1
 1478 077e 1046     		mov	r0, r2
 1479 0780 1946     		mov	r1, r3
 1480 0782 37A3     		adr	r3, .L52+8
 1481 0784 D3E90023 		ldrd	r2, [r3]
 1482 0788 FFF7FEFF 		bl	__aeabi_dmul
 1483 078c 0246     		mov	r2, r0
 1484 078e 0B46     		mov	r3, r1
 1485 0790 1046     		mov	r0, r2
 1486 0792 1946     		mov	r1, r3
 1487 0794 4FF00002 		mov	r2, #0
 1488 0798 4FF08043 		mov	r3, #1073741824
 1489 079c FFF7FEFF 		bl	__aeabi_ddiv
 1490 07a0 0246     		mov	r2, r0
 1491 07a2 0B46     		mov	r3, r1
 1492 07a4 2046     		mov	r0, r4
 1493 07a6 2946     		mov	r1, r5
 1494 07a8 FFF7FEFF 		bl	__aeabi_dadd
 1495 07ac 0246     		mov	r2, r0
 1496 07ae 0B46     		mov	r3, r1
 1497 07b0 1046     		mov	r0, r2
 1498 07b2 1946     		mov	r1, r3
 1499 07b4 FFF7FEFF 		bl	__aeabi_d2iz
 1500 07b8 0346     		mov	r3, r0
 1501 07ba 9EB2     		uxth	r6, r3
 1502 07bc F869     		ldr	r0, [r7, #28]
 1503 07be FFF7FEFF 		bl	__aeabi_i2d
 1504 07c2 0246     		mov	r2, r0
 1505 07c4 0B46     		mov	r3, r1
 1506 07c6 1046     		mov	r0, r2
 1507 07c8 1946     		mov	r1, r3
ARM GAS  C:\Users\LilRobby\AppData\Local\Temp\cczyjVY0.s 			page 31


 1508 07ca 23A3     		adr	r3, .L52
 1509 07cc D3E90023 		ldrd	r2, [r3]
 1510 07d0 FFF7FEFF 		bl	__aeabi_dmul
 1511 07d4 0246     		mov	r2, r0
 1512 07d6 0B46     		mov	r3, r1
 1513 07d8 1046     		mov	r0, r2
 1514 07da 1946     		mov	r1, r3
 1515 07dc FFF7FEFF 		bl	__aeabi_d2iz
 1516 07e0 0346     		mov	r3, r0
 1517 07e2 9DB2     		uxth	r5, r3
 1518 07e4 386A     		ldr	r0, [r7, #32]
 1519 07e6 FFF7FEFF 		bl	__aeabi_i2d
 1520 07ea 0246     		mov	r2, r0
 1521 07ec 0B46     		mov	r3, r1
 1522 07ee 1046     		mov	r0, r2
 1523 07f0 1946     		mov	r1, r3
 1524 07f2 19A3     		adr	r3, .L52
 1525 07f4 D3E90023 		ldrd	r2, [r3]
 1526 07f8 FFF7FEFF 		bl	__aeabi_dmul
 1527 07fc 0246     		mov	r2, r0
 1528 07fe 0B46     		mov	r3, r1
 1529 0800 1046     		mov	r0, r2
 1530 0802 1946     		mov	r1, r3
 1531 0804 FFF7FEFF 		bl	__aeabi_d2iz
 1532 0808 0346     		mov	r3, r0
 1533 080a 9CB2     		uxth	r4, r3
 1534 080c 386A     		ldr	r0, [r7, #32]
 1535 080e FFF7FEFF 		bl	__aeabi_i2d
 1536 0812 0246     		mov	r2, r0
 1537 0814 0B46     		mov	r3, r1
 1538 0816 1046     		mov	r0, r2
 1539 0818 1946     		mov	r1, r3
 1540 081a 0FA3     		adr	r3, .L52
 1541 081c D3E90023 		ldrd	r2, [r3]
 1542 0820 FFF7FEFF 		bl	__aeabi_dmul
 1543 0824 0246     		mov	r2, r0
 1544 0826 0B46     		mov	r3, r1
 1545 0828 1046     		mov	r0, r2
 1546 082a 1946     		mov	r1, r3
 1547 082c 4FF00002 		mov	r2, #0
 1548 0830 0D4B     		ldr	r3, .L52+16
 1549 0832 FFF7FEFF 		bl	__aeabi_ddiv
 1550 0836 0246     		mov	r2, r0
 1551 0838 0B46     		mov	r3, r1
 1552 083a 1046     		mov	r0, r2
 1553 083c 1946     		mov	r1, r3
 1554 083e FFF7FEFF 		bl	__aeabi_d2iz
 1555 0842 0346     		mov	r3, r0
 1556 0844 9BB2     		uxth	r3, r3
 1557 0846 0FFA88F0 		sxth	r0, r8
 1558 084a 31B2     		sxth	r1, r6
 1559 084c 2AB2     		sxth	r2, r5
 1560 084e 24B2     		sxth	r4, r4
 1561 0850 1BB2     		sxth	r3, r3
 1562 0852 0093     		str	r3, [sp]
 1563 0854 0AE0     		b	.L53
 1564              	.L54:
ARM GAS  C:\Users\LilRobby\AppData\Local\Temp\cczyjVY0.s 			page 32


 1565 0856 00BF     		.align	3
 1566              	.L52:
 1567 0858 33333333 		.word	858993459
 1568 085c 3333EB3F 		.word	1072378675
 1569 0860 33333333 		.word	858993459
 1570 0864 3333C33F 		.word	1069757235
 1571 0868 00001040 		.word	1074790400
 1572              	.L53:
 1573 086c 4FF4FC63 		mov	r3, #2016
 1574 0870 0193     		str	r3, [sp, #4]
 1575 0872 2346     		mov	r3, r4
 1576 0874 FFF7FEFF 		bl	TFTSHIELD_1_FillRoundRect
 198:main.c        ****     TFTSHIELD_1_FillRoundRect(x_SW + ((.15*length_SW)/2), (i+1)*empty_SW + i*width_SW/2 + (.15*widt
 1577              		.loc 1 198 0
 1578 0878 B868     		ldr	r0, [r7, #8]
 1579 087a FFF7FEFF 		bl	__aeabi_i2d
 1580 087e 0446     		mov	r4, r0
 1581 0880 0D46     		mov	r5, r1
 1582 0882 F869     		ldr	r0, [r7, #28]
 1583 0884 FFF7FEFF 		bl	__aeabi_i2d
 1584 0888 0246     		mov	r2, r0
 1585 088a 0B46     		mov	r3, r1
 1586 088c 1046     		mov	r0, r2
 1587 088e 1946     		mov	r1, r3
 1588 0890 BBA3     		adr	r3, .L55
 1589 0892 D3E90023 		ldrd	r2, [r3]
 1590 0896 FFF7FEFF 		bl	__aeabi_dmul
 1591 089a 0246     		mov	r2, r0
 1592 089c 0B46     		mov	r3, r1
 1593 089e 1046     		mov	r0, r2
 1594 08a0 1946     		mov	r1, r3
 1595 08a2 4FF00002 		mov	r2, #0
 1596 08a6 4FF08043 		mov	r3, #1073741824
 1597 08aa FFF7FEFF 		bl	__aeabi_ddiv
 1598 08ae 0246     		mov	r2, r0
 1599 08b0 0B46     		mov	r3, r1
 1600 08b2 2046     		mov	r0, r4
 1601 08b4 2946     		mov	r1, r5
 1602 08b6 FFF7FEFF 		bl	__aeabi_dadd
 1603 08ba 0246     		mov	r2, r0
 1604 08bc 0B46     		mov	r3, r1
 1605 08be 1046     		mov	r0, r2
 1606 08c0 1946     		mov	r1, r3
 1607 08c2 FFF7FEFF 		bl	__aeabi_d2iz
 1608 08c6 0346     		mov	r3, r0
 1609 08c8 1FFA83F8 		uxth	r8, r3
 1610 08cc 7B68     		ldr	r3, [r7, #4]
 1611 08ce 0133     		adds	r3, r3, #1
 1612 08d0 FA68     		ldr	r2, [r7, #12]
 1613 08d2 02FB03F2 		mul	r2, r2, r3
 1614 08d6 7B68     		ldr	r3, [r7, #4]
 1615 08d8 396A     		ldr	r1, [r7, #32]
 1616 08da 01FB03F3 		mul	r3, r1, r3
 1617 08de D90F     		lsrs	r1, r3, #31
 1618 08e0 0B44     		add	r3, r3, r1
 1619 08e2 5B10     		asrs	r3, r3, #1
 1620 08e4 1344     		add	r3, r3, r2
ARM GAS  C:\Users\LilRobby\AppData\Local\Temp\cczyjVY0.s 			page 33


 1621 08e6 1846     		mov	r0, r3
 1622 08e8 FFF7FEFF 		bl	__aeabi_i2d
 1623 08ec 0446     		mov	r4, r0
 1624 08ee 0D46     		mov	r5, r1
 1625 08f0 386A     		ldr	r0, [r7, #32]
 1626 08f2 FFF7FEFF 		bl	__aeabi_i2d
 1627 08f6 0246     		mov	r2, r0
 1628 08f8 0B46     		mov	r3, r1
 1629 08fa 1046     		mov	r0, r2
 1630 08fc 1946     		mov	r1, r3
 1631 08fe A0A3     		adr	r3, .L55
 1632 0900 D3E90023 		ldrd	r2, [r3]
 1633 0904 FFF7FEFF 		bl	__aeabi_dmul
 1634 0908 0246     		mov	r2, r0
 1635 090a 0B46     		mov	r3, r1
 1636 090c 1046     		mov	r0, r2
 1637 090e 1946     		mov	r1, r3
 1638 0910 4FF00002 		mov	r2, #0
 1639 0914 4FF08043 		mov	r3, #1073741824
 1640 0918 FFF7FEFF 		bl	__aeabi_ddiv
 1641 091c 0246     		mov	r2, r0
 1642 091e 0B46     		mov	r3, r1
 1643 0920 2046     		mov	r0, r4
 1644 0922 2946     		mov	r1, r5
 1645 0924 FFF7FEFF 		bl	__aeabi_dadd
 1646 0928 0246     		mov	r2, r0
 1647 092a 0B46     		mov	r3, r1
 1648 092c 1046     		mov	r0, r2
 1649 092e 1946     		mov	r1, r3
 1650 0930 FFF7FEFF 		bl	__aeabi_d2iz
 1651 0934 0346     		mov	r3, r0
 1652 0936 9EB2     		uxth	r6, r3
 1653 0938 F869     		ldr	r0, [r7, #28]
 1654 093a FFF7FEFF 		bl	__aeabi_i2d
 1655 093e 0246     		mov	r2, r0
 1656 0940 0B46     		mov	r3, r1
 1657 0942 1046     		mov	r0, r2
 1658 0944 1946     		mov	r1, r3
 1659 0946 90A3     		adr	r3, .L55+8
 1660 0948 D3E90023 		ldrd	r2, [r3]
 1661 094c FFF7FEFF 		bl	__aeabi_dmul
 1662 0950 0246     		mov	r2, r0
 1663 0952 0B46     		mov	r3, r1
 1664 0954 1046     		mov	r0, r2
 1665 0956 1946     		mov	r1, r3
 1666 0958 4FF00002 		mov	r2, #0
 1667 095c 4FF08043 		mov	r3, #1073741824
 1668 0960 FFF7FEFF 		bl	__aeabi_ddiv
 1669 0964 0246     		mov	r2, r0
 1670 0966 0B46     		mov	r3, r1
 1671 0968 1046     		mov	r0, r2
 1672 096a 1946     		mov	r1, r3
 1673 096c FFF7FEFF 		bl	__aeabi_d2iz
 1674 0970 0346     		mov	r3, r0
 1675 0972 9DB2     		uxth	r5, r3
 1676 0974 386A     		ldr	r0, [r7, #32]
 1677 0976 FFF7FEFF 		bl	__aeabi_i2d
ARM GAS  C:\Users\LilRobby\AppData\Local\Temp\cczyjVY0.s 			page 34


 1678 097a 0246     		mov	r2, r0
 1679 097c 0B46     		mov	r3, r1
 1680 097e 1046     		mov	r0, r2
 1681 0980 1946     		mov	r1, r3
 1682 0982 81A3     		adr	r3, .L55+8
 1683 0984 D3E90023 		ldrd	r2, [r3]
 1684 0988 FFF7FEFF 		bl	__aeabi_dmul
 1685 098c 0246     		mov	r2, r0
 1686 098e 0B46     		mov	r3, r1
 1687 0990 1046     		mov	r0, r2
 1688 0992 1946     		mov	r1, r3
 1689 0994 FFF7FEFF 		bl	__aeabi_d2iz
 1690 0998 0346     		mov	r3, r0
 1691 099a 9CB2     		uxth	r4, r3
 1692 099c 386A     		ldr	r0, [r7, #32]
 1693 099e FFF7FEFF 		bl	__aeabi_i2d
 1694 09a2 0246     		mov	r2, r0
 1695 09a4 0B46     		mov	r3, r1
 1696 09a6 1046     		mov	r0, r2
 1697 09a8 1946     		mov	r1, r3
 1698 09aa 77A3     		adr	r3, .L55+8
 1699 09ac D3E90023 		ldrd	r2, [r3]
 1700 09b0 FFF7FEFF 		bl	__aeabi_dmul
 1701 09b4 0246     		mov	r2, r0
 1702 09b6 0B46     		mov	r3, r1
 1703 09b8 1046     		mov	r0, r2
 1704 09ba 1946     		mov	r1, r3
 1705 09bc 4FF00002 		mov	r2, #0
 1706 09c0 734B     		ldr	r3, .L55+16
 1707 09c2 FFF7FEFF 		bl	__aeabi_ddiv
 1708 09c6 0246     		mov	r2, r0
 1709 09c8 0B46     		mov	r3, r1
 1710 09ca 1046     		mov	r0, r2
 1711 09cc 1946     		mov	r1, r3
 1712 09ce FFF7FEFF 		bl	__aeabi_d2iz
 1713 09d2 0346     		mov	r3, r0
 1714 09d4 9BB2     		uxth	r3, r3
 1715 09d6 0FFA88F0 		sxth	r0, r8
 1716 09da 31B2     		sxth	r1, r6
 1717 09dc 2AB2     		sxth	r2, r5
 1718 09de 24B2     		sxth	r4, r4
 1719 09e0 1BB2     		sxth	r3, r3
 1720 09e2 0093     		str	r3, [sp]
 1721 09e4 4FF6FF73 		movw	r3, #65535
 1722 09e8 0193     		str	r3, [sp, #4]
 1723 09ea 2346     		mov	r3, r4
 1724 09ec FFF7FEFF 		bl	TFTSHIELD_1_FillRoundRect
 199:main.c        ****     TFTSHIELD_1_DrawRoundRect(x_SW + ((.15*length_SW)/2), (i+1)*empty_SW + i*width_SW/2 + (.15*widt
 1725              		.loc 1 199 0
 1726 09f0 B868     		ldr	r0, [r7, #8]
 1727 09f2 FFF7FEFF 		bl	__aeabi_i2d
 1728 09f6 0446     		mov	r4, r0
 1729 09f8 0D46     		mov	r5, r1
 1730 09fa F869     		ldr	r0, [r7, #28]
 1731 09fc FFF7FEFF 		bl	__aeabi_i2d
 1732 0a00 0246     		mov	r2, r0
 1733 0a02 0B46     		mov	r3, r1
ARM GAS  C:\Users\LilRobby\AppData\Local\Temp\cczyjVY0.s 			page 35


 1734 0a04 1046     		mov	r0, r2
 1735 0a06 1946     		mov	r1, r3
 1736 0a08 5DA3     		adr	r3, .L55
 1737 0a0a D3E90023 		ldrd	r2, [r3]
 1738 0a0e FFF7FEFF 		bl	__aeabi_dmul
 1739 0a12 0246     		mov	r2, r0
 1740 0a14 0B46     		mov	r3, r1
 1741 0a16 1046     		mov	r0, r2
 1742 0a18 1946     		mov	r1, r3
 1743 0a1a 4FF00002 		mov	r2, #0
 1744 0a1e 4FF08043 		mov	r3, #1073741824
 1745 0a22 FFF7FEFF 		bl	__aeabi_ddiv
 1746 0a26 0246     		mov	r2, r0
 1747 0a28 0B46     		mov	r3, r1
 1748 0a2a 2046     		mov	r0, r4
 1749 0a2c 2946     		mov	r1, r5
 1750 0a2e FFF7FEFF 		bl	__aeabi_dadd
 1751 0a32 0246     		mov	r2, r0
 1752 0a34 0B46     		mov	r3, r1
 1753 0a36 1046     		mov	r0, r2
 1754 0a38 1946     		mov	r1, r3
 1755 0a3a FFF7FEFF 		bl	__aeabi_d2iz
 1756 0a3e 0346     		mov	r3, r0
 1757 0a40 1FFA83F8 		uxth	r8, r3
 1758 0a44 7B68     		ldr	r3, [r7, #4]
 1759 0a46 0133     		adds	r3, r3, #1
 1760 0a48 FA68     		ldr	r2, [r7, #12]
 1761 0a4a 02FB03F2 		mul	r2, r2, r3
 1762 0a4e 7B68     		ldr	r3, [r7, #4]
 1763 0a50 396A     		ldr	r1, [r7, #32]
 1764 0a52 01FB03F3 		mul	r3, r1, r3
 1765 0a56 D90F     		lsrs	r1, r3, #31
 1766 0a58 0B44     		add	r3, r3, r1
 1767 0a5a 5B10     		asrs	r3, r3, #1
 1768 0a5c 1344     		add	r3, r3, r2
 1769 0a5e 1846     		mov	r0, r3
 1770 0a60 FFF7FEFF 		bl	__aeabi_i2d
 1771 0a64 0446     		mov	r4, r0
 1772 0a66 0D46     		mov	r5, r1
 1773 0a68 386A     		ldr	r0, [r7, #32]
 1774 0a6a FFF7FEFF 		bl	__aeabi_i2d
 1775 0a6e 0246     		mov	r2, r0
 1776 0a70 0B46     		mov	r3, r1
 1777 0a72 1046     		mov	r0, r2
 1778 0a74 1946     		mov	r1, r3
 1779 0a76 42A3     		adr	r3, .L55
 1780 0a78 D3E90023 		ldrd	r2, [r3]
 1781 0a7c FFF7FEFF 		bl	__aeabi_dmul
 1782 0a80 0246     		mov	r2, r0
 1783 0a82 0B46     		mov	r3, r1
 1784 0a84 1046     		mov	r0, r2
 1785 0a86 1946     		mov	r1, r3
 1786 0a88 4FF00002 		mov	r2, #0
 1787 0a8c 4FF08043 		mov	r3, #1073741824
 1788 0a90 FFF7FEFF 		bl	__aeabi_ddiv
 1789 0a94 0246     		mov	r2, r0
 1790 0a96 0B46     		mov	r3, r1
ARM GAS  C:\Users\LilRobby\AppData\Local\Temp\cczyjVY0.s 			page 36


 1791 0a98 2046     		mov	r0, r4
 1792 0a9a 2946     		mov	r1, r5
 1793 0a9c FFF7FEFF 		bl	__aeabi_dadd
 1794 0aa0 0246     		mov	r2, r0
 1795 0aa2 0B46     		mov	r3, r1
 1796 0aa4 1046     		mov	r0, r2
 1797 0aa6 1946     		mov	r1, r3
 1798 0aa8 FFF7FEFF 		bl	__aeabi_d2iz
 1799 0aac 0346     		mov	r3, r0
 1800 0aae 9EB2     		uxth	r6, r3
 1801 0ab0 F869     		ldr	r0, [r7, #28]
 1802 0ab2 FFF7FEFF 		bl	__aeabi_i2d
 1803 0ab6 0246     		mov	r2, r0
 1804 0ab8 0B46     		mov	r3, r1
 1805 0aba 1046     		mov	r0, r2
 1806 0abc 1946     		mov	r1, r3
 1807 0abe 32A3     		adr	r3, .L55+8
 1808 0ac0 D3E90023 		ldrd	r2, [r3]
 1809 0ac4 FFF7FEFF 		bl	__aeabi_dmul
 1810 0ac8 0246     		mov	r2, r0
 1811 0aca 0B46     		mov	r3, r1
 1812 0acc 1046     		mov	r0, r2
 1813 0ace 1946     		mov	r1, r3
 1814 0ad0 4FF00002 		mov	r2, #0
 1815 0ad4 4FF08043 		mov	r3, #1073741824
 1816 0ad8 FFF7FEFF 		bl	__aeabi_ddiv
 1817 0adc 0246     		mov	r2, r0
 1818 0ade 0B46     		mov	r3, r1
 1819 0ae0 1046     		mov	r0, r2
 1820 0ae2 1946     		mov	r1, r3
 1821 0ae4 FFF7FEFF 		bl	__aeabi_d2iz
 1822 0ae8 0346     		mov	r3, r0
 1823 0aea 9DB2     		uxth	r5, r3
 1824 0aec 386A     		ldr	r0, [r7, #32]
 1825 0aee FFF7FEFF 		bl	__aeabi_i2d
 1826 0af2 0246     		mov	r2, r0
 1827 0af4 0B46     		mov	r3, r1
 1828 0af6 1046     		mov	r0, r2
 1829 0af8 1946     		mov	r1, r3
 1830 0afa 23A3     		adr	r3, .L55+8
 1831 0afc D3E90023 		ldrd	r2, [r3]
 1832 0b00 FFF7FEFF 		bl	__aeabi_dmul
 1833 0b04 0246     		mov	r2, r0
 1834 0b06 0B46     		mov	r3, r1
 1835 0b08 1046     		mov	r0, r2
 1836 0b0a 1946     		mov	r1, r3
 1837 0b0c FFF7FEFF 		bl	__aeabi_d2iz
 1838 0b10 0346     		mov	r3, r0
 1839 0b12 9CB2     		uxth	r4, r3
 1840 0b14 386A     		ldr	r0, [r7, #32]
 1841 0b16 FFF7FEFF 		bl	__aeabi_i2d
 1842 0b1a 0246     		mov	r2, r0
 1843 0b1c 0B46     		mov	r3, r1
 1844 0b1e 1046     		mov	r0, r2
 1845 0b20 1946     		mov	r1, r3
 1846 0b22 19A3     		adr	r3, .L55+8
 1847 0b24 D3E90023 		ldrd	r2, [r3]
ARM GAS  C:\Users\LilRobby\AppData\Local\Temp\cczyjVY0.s 			page 37


 1848 0b28 FFF7FEFF 		bl	__aeabi_dmul
 1849 0b2c 0246     		mov	r2, r0
 1850 0b2e 0B46     		mov	r3, r1
 1851 0b30 1046     		mov	r0, r2
 1852 0b32 1946     		mov	r1, r3
 1853 0b34 4FF00002 		mov	r2, #0
 1854 0b38 154B     		ldr	r3, .L55+16
 1855 0b3a FFF7FEFF 		bl	__aeabi_ddiv
 1856 0b3e 0246     		mov	r2, r0
 1857 0b40 0B46     		mov	r3, r1
 1858 0b42 1046     		mov	r0, r2
 1859 0b44 1946     		mov	r1, r3
 1860 0b46 FFF7FEFF 		bl	__aeabi_d2iz
 1861 0b4a 0346     		mov	r3, r0
 1862 0b4c 9BB2     		uxth	r3, r3
 1863 0b4e 0FFA88F0 		sxth	r0, r8
 1864 0b52 31B2     		sxth	r1, r6
 1865 0b54 2AB2     		sxth	r2, r5
 1866 0b56 24B2     		sxth	r4, r4
 1867 0b58 1BB2     		sxth	r3, r3
 1868 0b5a 0093     		str	r3, [sp]
 1869 0b5c 0023     		movs	r3, #0
 1870 0b5e 0193     		str	r3, [sp, #4]
 1871 0b60 2346     		mov	r3, r4
 1872 0b62 FFF7FEFF 		bl	TFTSHIELD_1_DrawRoundRect
 1873              	.LBE6:
 1874 0b66 00F066BD 		b	.L34
 1875              	.L40:
 200:main.c        ****     }
 201:main.c        ****     
 202:main.c        ****     
 203:main.c        ****     else if (state == -1)//turning off animation
 1876              		.loc 1 203 0
 1877 0b6a 3B68     		ldr	r3, [r7]
 1878 0b6c B3F1FF3F 		cmp	r3, #-1
 1879 0b70 40F06185 		bne	.L34
 1880              	.LBB7:
 204:main.c        ****     {
 205:main.c        ****         int k = 0;
 1881              		.loc 1 205 0
 1882 0b74 0023     		movs	r3, #0
 1883 0b76 7B61     		str	r3, [r7, #20]
 206:main.c        ****         while (k<(.85*length_SW/2))
 1884              		.loc 1 206 0
 1885 0b78 90E2     		b	.L44
 1886              	.L56:
 1887 0b7a 00BFAFF3 		.align	3
 1887      0080
 1888              	.L55:
 1889 0b80 33333333 		.word	858993459
 1890 0b84 3333C33F 		.word	1069757235
 1891 0b88 33333333 		.word	858993459
 1892 0b8c 3333EB3F 		.word	1072378675
 1893 0b90 00001040 		.word	1074790400
 1894              	.L45:
 207:main.c        ****     {
 208:main.c        ****     TFTSHIELD_1_FillRoundRect(x_SW + ((.15*length_SW)/2), (i+1)*empty_SW + i*width_SW/2 + (.15*widt
ARM GAS  C:\Users\LilRobby\AppData\Local\Temp\cczyjVY0.s 			page 38


 1895              		.loc 1 208 0
 1896 0b94 B868     		ldr	r0, [r7, #8]
 1897 0b96 FFF7FEFF 		bl	__aeabi_i2d
 1898 0b9a 0446     		mov	r4, r0
 1899 0b9c 0D46     		mov	r5, r1
 1900 0b9e F869     		ldr	r0, [r7, #28]
 1901 0ba0 FFF7FEFF 		bl	__aeabi_i2d
 1902 0ba4 0246     		mov	r2, r0
 1903 0ba6 0B46     		mov	r3, r1
 1904 0ba8 1046     		mov	r0, r2
 1905 0baa 1946     		mov	r1, r3
 1906 0bac E0A3     		adr	r3, .L57
 1907 0bae D3E90023 		ldrd	r2, [r3]
 1908 0bb2 FFF7FEFF 		bl	__aeabi_dmul
 1909 0bb6 0246     		mov	r2, r0
 1910 0bb8 0B46     		mov	r3, r1
 1911 0bba 1046     		mov	r0, r2
 1912 0bbc 1946     		mov	r1, r3
 1913 0bbe 4FF00002 		mov	r2, #0
 1914 0bc2 4FF08043 		mov	r3, #1073741824
 1915 0bc6 FFF7FEFF 		bl	__aeabi_ddiv
 1916 0bca 0246     		mov	r2, r0
 1917 0bcc 0B46     		mov	r3, r1
 1918 0bce 2046     		mov	r0, r4
 1919 0bd0 2946     		mov	r1, r5
 1920 0bd2 FFF7FEFF 		bl	__aeabi_dadd
 1921 0bd6 0246     		mov	r2, r0
 1922 0bd8 0B46     		mov	r3, r1
 1923 0bda 1046     		mov	r0, r2
 1924 0bdc 1946     		mov	r1, r3
 1925 0bde FFF7FEFF 		bl	__aeabi_d2iz
 1926 0be2 0346     		mov	r3, r0
 1927 0be4 1FFA83F8 		uxth	r8, r3
 1928 0be8 7B68     		ldr	r3, [r7, #4]
 1929 0bea 0133     		adds	r3, r3, #1
 1930 0bec FA68     		ldr	r2, [r7, #12]
 1931 0bee 02FB03F2 		mul	r2, r2, r3
 1932 0bf2 7B68     		ldr	r3, [r7, #4]
 1933 0bf4 396A     		ldr	r1, [r7, #32]
 1934 0bf6 01FB03F3 		mul	r3, r1, r3
 1935 0bfa D90F     		lsrs	r1, r3, #31
 1936 0bfc 0B44     		add	r3, r3, r1
 1937 0bfe 5B10     		asrs	r3, r3, #1
 1938 0c00 1344     		add	r3, r3, r2
 1939 0c02 1846     		mov	r0, r3
 1940 0c04 FFF7FEFF 		bl	__aeabi_i2d
 1941 0c08 0446     		mov	r4, r0
 1942 0c0a 0D46     		mov	r5, r1
 1943 0c0c 386A     		ldr	r0, [r7, #32]
 1944 0c0e FFF7FEFF 		bl	__aeabi_i2d
 1945 0c12 0246     		mov	r2, r0
 1946 0c14 0B46     		mov	r3, r1
 1947 0c16 1046     		mov	r0, r2
 1948 0c18 1946     		mov	r1, r3
 1949 0c1a C5A3     		adr	r3, .L57
 1950 0c1c D3E90023 		ldrd	r2, [r3]
 1951 0c20 FFF7FEFF 		bl	__aeabi_dmul
ARM GAS  C:\Users\LilRobby\AppData\Local\Temp\cczyjVY0.s 			page 39


 1952 0c24 0246     		mov	r2, r0
 1953 0c26 0B46     		mov	r3, r1
 1954 0c28 1046     		mov	r0, r2
 1955 0c2a 1946     		mov	r1, r3
 1956 0c2c 4FF00002 		mov	r2, #0
 1957 0c30 4FF08043 		mov	r3, #1073741824
 1958 0c34 FFF7FEFF 		bl	__aeabi_ddiv
 1959 0c38 0246     		mov	r2, r0
 1960 0c3a 0B46     		mov	r3, r1
 1961 0c3c 2046     		mov	r0, r4
 1962 0c3e 2946     		mov	r1, r5
 1963 0c40 FFF7FEFF 		bl	__aeabi_dadd
 1964 0c44 0246     		mov	r2, r0
 1965 0c46 0B46     		mov	r3, r1
 1966 0c48 1046     		mov	r0, r2
 1967 0c4a 1946     		mov	r1, r3
 1968 0c4c FFF7FEFF 		bl	__aeabi_d2iz
 1969 0c50 0346     		mov	r3, r0
 1970 0c52 9EB2     		uxth	r6, r3
 1971 0c54 F869     		ldr	r0, [r7, #28]
 1972 0c56 FFF7FEFF 		bl	__aeabi_i2d
 1973 0c5a 0246     		mov	r2, r0
 1974 0c5c 0B46     		mov	r3, r1
 1975 0c5e 1046     		mov	r0, r2
 1976 0c60 1946     		mov	r1, r3
 1977 0c62 B5A3     		adr	r3, .L57+8
 1978 0c64 D3E90023 		ldrd	r2, [r3]
 1979 0c68 FFF7FEFF 		bl	__aeabi_dmul
 1980 0c6c 0246     		mov	r2, r0
 1981 0c6e 0B46     		mov	r3, r1
 1982 0c70 1046     		mov	r0, r2
 1983 0c72 1946     		mov	r1, r3
 1984 0c74 FFF7FEFF 		bl	__aeabi_d2iz
 1985 0c78 0346     		mov	r3, r0
 1986 0c7a 9DB2     		uxth	r5, r3
 1987 0c7c 386A     		ldr	r0, [r7, #32]
 1988 0c7e FFF7FEFF 		bl	__aeabi_i2d
 1989 0c82 0246     		mov	r2, r0
 1990 0c84 0B46     		mov	r3, r1
 1991 0c86 1046     		mov	r0, r2
 1992 0c88 1946     		mov	r1, r3
 1993 0c8a ABA3     		adr	r3, .L57+8
 1994 0c8c D3E90023 		ldrd	r2, [r3]
 1995 0c90 FFF7FEFF 		bl	__aeabi_dmul
 1996 0c94 0246     		mov	r2, r0
 1997 0c96 0B46     		mov	r3, r1
 1998 0c98 1046     		mov	r0, r2
 1999 0c9a 1946     		mov	r1, r3
 2000 0c9c FFF7FEFF 		bl	__aeabi_d2iz
 2001 0ca0 0346     		mov	r3, r0
 2002 0ca2 9CB2     		uxth	r4, r3
 2003 0ca4 386A     		ldr	r0, [r7, #32]
 2004 0ca6 FFF7FEFF 		bl	__aeabi_i2d
 2005 0caa 0246     		mov	r2, r0
 2006 0cac 0B46     		mov	r3, r1
 2007 0cae 1046     		mov	r0, r2
 2008 0cb0 1946     		mov	r1, r3
ARM GAS  C:\Users\LilRobby\AppData\Local\Temp\cczyjVY0.s 			page 40


 2009 0cb2 A1A3     		adr	r3, .L57+8
 2010 0cb4 D3E90023 		ldrd	r2, [r3]
 2011 0cb8 FFF7FEFF 		bl	__aeabi_dmul
 2012 0cbc 0246     		mov	r2, r0
 2013 0cbe 0B46     		mov	r3, r1
 2014 0cc0 1046     		mov	r0, r2
 2015 0cc2 1946     		mov	r1, r3
 2016 0cc4 4FF00002 		mov	r2, #0
 2017 0cc8 9D4B     		ldr	r3, .L57+16
 2018 0cca FFF7FEFF 		bl	__aeabi_ddiv
 2019 0cce 0246     		mov	r2, r0
 2020 0cd0 0B46     		mov	r3, r1
 2021 0cd2 1046     		mov	r0, r2
 2022 0cd4 1946     		mov	r1, r3
 2023 0cd6 FFF7FEFF 		bl	__aeabi_d2iz
 2024 0cda 0346     		mov	r3, r0
 2025 0cdc 9BB2     		uxth	r3, r3
 2026 0cde 0FFA88F0 		sxth	r0, r8
 2027 0ce2 31B2     		sxth	r1, r6
 2028 0ce4 2AB2     		sxth	r2, r5
 2029 0ce6 24B2     		sxth	r4, r4
 2030 0ce8 1BB2     		sxth	r3, r3
 2031 0cea 0093     		str	r3, [sp]
 2032 0cec 4FF4FC63 		mov	r3, #2016
 2033 0cf0 0193     		str	r3, [sp, #4]
 2034 0cf2 2346     		mov	r3, r4
 2035 0cf4 FFF7FEFF 		bl	TFTSHIELD_1_FillRoundRect
 209:main.c        ****     TFTSHIELD_1_FillRoundRect(x_SW + ((.15*length_SW)/2) + k, (i+1)*empty_SW + i*width_SW/2 + (.15*
 2036              		.loc 1 209 0
 2037 0cf8 B868     		ldr	r0, [r7, #8]
 2038 0cfa FFF7FEFF 		bl	__aeabi_i2d
 2039 0cfe 0446     		mov	r4, r0
 2040 0d00 0D46     		mov	r5, r1
 2041 0d02 F869     		ldr	r0, [r7, #28]
 2042 0d04 FFF7FEFF 		bl	__aeabi_i2d
 2043 0d08 0246     		mov	r2, r0
 2044 0d0a 0B46     		mov	r3, r1
 2045 0d0c 1046     		mov	r0, r2
 2046 0d0e 1946     		mov	r1, r3
 2047 0d10 87A3     		adr	r3, .L57
 2048 0d12 D3E90023 		ldrd	r2, [r3]
 2049 0d16 FFF7FEFF 		bl	__aeabi_dmul
 2050 0d1a 0246     		mov	r2, r0
 2051 0d1c 0B46     		mov	r3, r1
 2052 0d1e 1046     		mov	r0, r2
 2053 0d20 1946     		mov	r1, r3
 2054 0d22 4FF00002 		mov	r2, #0
 2055 0d26 4FF08043 		mov	r3, #1073741824
 2056 0d2a FFF7FEFF 		bl	__aeabi_ddiv
 2057 0d2e 0246     		mov	r2, r0
 2058 0d30 0B46     		mov	r3, r1
 2059 0d32 2046     		mov	r0, r4
 2060 0d34 2946     		mov	r1, r5
 2061 0d36 FFF7FEFF 		bl	__aeabi_dadd
 2062 0d3a 0246     		mov	r2, r0
 2063 0d3c 0B46     		mov	r3, r1
 2064 0d3e 1446     		mov	r4, r2
ARM GAS  C:\Users\LilRobby\AppData\Local\Temp\cczyjVY0.s 			page 41


 2065 0d40 1D46     		mov	r5, r3
 2066 0d42 7869     		ldr	r0, [r7, #20]
 2067 0d44 FFF7FEFF 		bl	__aeabi_i2d
 2068 0d48 0246     		mov	r2, r0
 2069 0d4a 0B46     		mov	r3, r1
 2070 0d4c 2046     		mov	r0, r4
 2071 0d4e 2946     		mov	r1, r5
 2072 0d50 FFF7FEFF 		bl	__aeabi_dadd
 2073 0d54 0246     		mov	r2, r0
 2074 0d56 0B46     		mov	r3, r1
 2075 0d58 1046     		mov	r0, r2
 2076 0d5a 1946     		mov	r1, r3
 2077 0d5c FFF7FEFF 		bl	__aeabi_d2iz
 2078 0d60 0346     		mov	r3, r0
 2079 0d62 1FFA83F8 		uxth	r8, r3
 2080 0d66 7B68     		ldr	r3, [r7, #4]
 2081 0d68 0133     		adds	r3, r3, #1
 2082 0d6a FA68     		ldr	r2, [r7, #12]
 2083 0d6c 02FB03F2 		mul	r2, r2, r3
 2084 0d70 7B68     		ldr	r3, [r7, #4]
 2085 0d72 396A     		ldr	r1, [r7, #32]
 2086 0d74 01FB03F3 		mul	r3, r1, r3
 2087 0d78 D90F     		lsrs	r1, r3, #31
 2088 0d7a 0B44     		add	r3, r3, r1
 2089 0d7c 5B10     		asrs	r3, r3, #1
 2090 0d7e 1344     		add	r3, r3, r2
 2091 0d80 1846     		mov	r0, r3
 2092 0d82 FFF7FEFF 		bl	__aeabi_i2d
 2093 0d86 0446     		mov	r4, r0
 2094 0d88 0D46     		mov	r5, r1
 2095 0d8a 386A     		ldr	r0, [r7, #32]
 2096 0d8c FFF7FEFF 		bl	__aeabi_i2d
 2097 0d90 0246     		mov	r2, r0
 2098 0d92 0B46     		mov	r3, r1
 2099 0d94 1046     		mov	r0, r2
 2100 0d96 1946     		mov	r1, r3
 2101 0d98 65A3     		adr	r3, .L57
 2102 0d9a D3E90023 		ldrd	r2, [r3]
 2103 0d9e FFF7FEFF 		bl	__aeabi_dmul
 2104 0da2 0246     		mov	r2, r0
 2105 0da4 0B46     		mov	r3, r1
 2106 0da6 1046     		mov	r0, r2
 2107 0da8 1946     		mov	r1, r3
 2108 0daa 4FF00002 		mov	r2, #0
 2109 0dae 4FF08043 		mov	r3, #1073741824
 2110 0db2 FFF7FEFF 		bl	__aeabi_ddiv
 2111 0db6 0246     		mov	r2, r0
 2112 0db8 0B46     		mov	r3, r1
 2113 0dba 2046     		mov	r0, r4
 2114 0dbc 2946     		mov	r1, r5
 2115 0dbe FFF7FEFF 		bl	__aeabi_dadd
 2116 0dc2 0246     		mov	r2, r0
 2117 0dc4 0B46     		mov	r3, r1
 2118 0dc6 1046     		mov	r0, r2
 2119 0dc8 1946     		mov	r1, r3
 2120 0dca FFF7FEFF 		bl	__aeabi_d2iz
 2121 0dce 0346     		mov	r3, r0
ARM GAS  C:\Users\LilRobby\AppData\Local\Temp\cczyjVY0.s 			page 42


 2122 0dd0 9EB2     		uxth	r6, r3
 2123 0dd2 F869     		ldr	r0, [r7, #28]
 2124 0dd4 FFF7FEFF 		bl	__aeabi_i2d
 2125 0dd8 0246     		mov	r2, r0
 2126 0dda 0B46     		mov	r3, r1
 2127 0ddc 1046     		mov	r0, r2
 2128 0dde 1946     		mov	r1, r3
 2129 0de0 55A3     		adr	r3, .L57+8
 2130 0de2 D3E90023 		ldrd	r2, [r3]
 2131 0de6 FFF7FEFF 		bl	__aeabi_dmul
 2132 0dea 0246     		mov	r2, r0
 2133 0dec 0B46     		mov	r3, r1
 2134 0dee 1046     		mov	r0, r2
 2135 0df0 1946     		mov	r1, r3
 2136 0df2 4FF00002 		mov	r2, #0
 2137 0df6 4FF08043 		mov	r3, #1073741824
 2138 0dfa FFF7FEFF 		bl	__aeabi_ddiv
 2139 0dfe 0246     		mov	r2, r0
 2140 0e00 0B46     		mov	r3, r1
 2141 0e02 1046     		mov	r0, r2
 2142 0e04 1946     		mov	r1, r3
 2143 0e06 FFF7FEFF 		bl	__aeabi_d2iz
 2144 0e0a 0346     		mov	r3, r0
 2145 0e0c 9DB2     		uxth	r5, r3
 2146 0e0e 386A     		ldr	r0, [r7, #32]
 2147 0e10 FFF7FEFF 		bl	__aeabi_i2d
 2148 0e14 0246     		mov	r2, r0
 2149 0e16 0B46     		mov	r3, r1
 2150 0e18 1046     		mov	r0, r2
 2151 0e1a 1946     		mov	r1, r3
 2152 0e1c 46A3     		adr	r3, .L57+8
 2153 0e1e D3E90023 		ldrd	r2, [r3]
 2154 0e22 FFF7FEFF 		bl	__aeabi_dmul
 2155 0e26 0246     		mov	r2, r0
 2156 0e28 0B46     		mov	r3, r1
 2157 0e2a 1046     		mov	r0, r2
 2158 0e2c 1946     		mov	r1, r3
 2159 0e2e FFF7FEFF 		bl	__aeabi_d2iz
 2160 0e32 0346     		mov	r3, r0
 2161 0e34 9CB2     		uxth	r4, r3
 2162 0e36 386A     		ldr	r0, [r7, #32]
 2163 0e38 FFF7FEFF 		bl	__aeabi_i2d
 2164 0e3c 0246     		mov	r2, r0
 2165 0e3e 0B46     		mov	r3, r1
 2166 0e40 1046     		mov	r0, r2
 2167 0e42 1946     		mov	r1, r3
 2168 0e44 3CA3     		adr	r3, .L57+8
 2169 0e46 D3E90023 		ldrd	r2, [r3]
 2170 0e4a FFF7FEFF 		bl	__aeabi_dmul
 2171 0e4e 0246     		mov	r2, r0
 2172 0e50 0B46     		mov	r3, r1
 2173 0e52 1046     		mov	r0, r2
 2174 0e54 1946     		mov	r1, r3
 2175 0e56 4FF00002 		mov	r2, #0
 2176 0e5a 394B     		ldr	r3, .L57+16
 2177 0e5c FFF7FEFF 		bl	__aeabi_ddiv
 2178 0e60 0246     		mov	r2, r0
ARM GAS  C:\Users\LilRobby\AppData\Local\Temp\cczyjVY0.s 			page 43


 2179 0e62 0B46     		mov	r3, r1
 2180 0e64 1046     		mov	r0, r2
 2181 0e66 1946     		mov	r1, r3
 2182 0e68 FFF7FEFF 		bl	__aeabi_d2iz
 2183 0e6c 0346     		mov	r3, r0
 2184 0e6e 9BB2     		uxth	r3, r3
 2185 0e70 0FFA88F0 		sxth	r0, r8
 2186 0e74 31B2     		sxth	r1, r6
 2187 0e76 2AB2     		sxth	r2, r5
 2188 0e78 24B2     		sxth	r4, r4
 2189 0e7a 1BB2     		sxth	r3, r3
 2190 0e7c 0093     		str	r3, [sp]
 2191 0e7e 4FF6FF73 		movw	r3, #65535
 2192 0e82 0193     		str	r3, [sp, #4]
 2193 0e84 2346     		mov	r3, r4
 2194 0e86 FFF7FEFF 		bl	TFTSHIELD_1_FillRoundRect
 210:main.c        ****     TFTSHIELD_1_DrawRoundRect(x_SW + ((.15*length_SW)/2) + k, (i+1)*empty_SW + i*width_SW/2 + (.15*
 2195              		.loc 1 210 0
 2196 0e8a B868     		ldr	r0, [r7, #8]
 2197 0e8c FFF7FEFF 		bl	__aeabi_i2d
 2198 0e90 0446     		mov	r4, r0
 2199 0e92 0D46     		mov	r5, r1
 2200 0e94 F869     		ldr	r0, [r7, #28]
 2201 0e96 FFF7FEFF 		bl	__aeabi_i2d
 2202 0e9a 0246     		mov	r2, r0
 2203 0e9c 0B46     		mov	r3, r1
 2204 0e9e 1046     		mov	r0, r2
 2205 0ea0 1946     		mov	r1, r3
 2206 0ea2 23A3     		adr	r3, .L57
 2207 0ea4 D3E90023 		ldrd	r2, [r3]
 2208 0ea8 FFF7FEFF 		bl	__aeabi_dmul
 2209 0eac 0246     		mov	r2, r0
 2210 0eae 0B46     		mov	r3, r1
 2211 0eb0 1046     		mov	r0, r2
 2212 0eb2 1946     		mov	r1, r3
 2213 0eb4 4FF00002 		mov	r2, #0
 2214 0eb8 4FF08043 		mov	r3, #1073741824
 2215 0ebc FFF7FEFF 		bl	__aeabi_ddiv
 2216 0ec0 0246     		mov	r2, r0
 2217 0ec2 0B46     		mov	r3, r1
 2218 0ec4 2046     		mov	r0, r4
 2219 0ec6 2946     		mov	r1, r5
 2220 0ec8 FFF7FEFF 		bl	__aeabi_dadd
 2221 0ecc 0246     		mov	r2, r0
 2222 0ece 0B46     		mov	r3, r1
 2223 0ed0 1446     		mov	r4, r2
 2224 0ed2 1D46     		mov	r5, r3
 2225 0ed4 7869     		ldr	r0, [r7, #20]
 2226 0ed6 FFF7FEFF 		bl	__aeabi_i2d
 2227 0eda 0246     		mov	r2, r0
 2228 0edc 0B46     		mov	r3, r1
 2229 0ede 2046     		mov	r0, r4
 2230 0ee0 2946     		mov	r1, r5
 2231 0ee2 FFF7FEFF 		bl	__aeabi_dadd
 2232 0ee6 0246     		mov	r2, r0
 2233 0ee8 0B46     		mov	r3, r1
 2234 0eea 1046     		mov	r0, r2
ARM GAS  C:\Users\LilRobby\AppData\Local\Temp\cczyjVY0.s 			page 44


 2235 0eec 1946     		mov	r1, r3
 2236 0eee FFF7FEFF 		bl	__aeabi_d2iz
 2237 0ef2 0346     		mov	r3, r0
 2238 0ef4 1FFA83F8 		uxth	r8, r3
 2239 0ef8 7B68     		ldr	r3, [r7, #4]
 2240 0efa 0133     		adds	r3, r3, #1
 2241 0efc FA68     		ldr	r2, [r7, #12]
 2242 0efe 02FB03F2 		mul	r2, r2, r3
 2243 0f02 7B68     		ldr	r3, [r7, #4]
 2244 0f04 396A     		ldr	r1, [r7, #32]
 2245 0f06 01FB03F3 		mul	r3, r1, r3
 2246 0f0a D90F     		lsrs	r1, r3, #31
 2247 0f0c 0B44     		add	r3, r3, r1
 2248 0f0e 5B10     		asrs	r3, r3, #1
 2249 0f10 1344     		add	r3, r3, r2
 2250 0f12 1846     		mov	r0, r3
 2251 0f14 FFF7FEFF 		bl	__aeabi_i2d
 2252 0f18 0446     		mov	r4, r0
 2253 0f1a 0D46     		mov	r5, r1
 2254 0f1c 386A     		ldr	r0, [r7, #32]
 2255 0f1e FFF7FEFF 		bl	__aeabi_i2d
 2256 0f22 0246     		mov	r2, r0
 2257 0f24 0B46     		mov	r3, r1
 2258 0f26 1046     		mov	r0, r2
 2259 0f28 0CE0     		b	.L58
 2260              	.L59:
 2261 0f2a 00BFAFF3 		.align	3
 2261      0080
 2262              	.L57:
 2263 0f30 33333333 		.word	858993459
 2264 0f34 3333C33F 		.word	1069757235
 2265 0f38 33333333 		.word	858993459
 2266 0f3c 3333EB3F 		.word	1072378675
 2267 0f40 00001040 		.word	1074790400
 2268              	.L58:
 2269 0f44 1946     		mov	r1, r3
 2270 0f46 E2A3     		adr	r3, .L60
 2271 0f48 D3E90023 		ldrd	r2, [r3]
 2272 0f4c FFF7FEFF 		bl	__aeabi_dmul
 2273 0f50 0246     		mov	r2, r0
 2274 0f52 0B46     		mov	r3, r1
 2275 0f54 1046     		mov	r0, r2
 2276 0f56 1946     		mov	r1, r3
 2277 0f58 4FF00002 		mov	r2, #0
 2278 0f5c 4FF08043 		mov	r3, #1073741824
 2279 0f60 FFF7FEFF 		bl	__aeabi_ddiv
 2280 0f64 0246     		mov	r2, r0
 2281 0f66 0B46     		mov	r3, r1
 2282 0f68 2046     		mov	r0, r4
 2283 0f6a 2946     		mov	r1, r5
 2284 0f6c FFF7FEFF 		bl	__aeabi_dadd
 2285 0f70 0246     		mov	r2, r0
 2286 0f72 0B46     		mov	r3, r1
 2287 0f74 1046     		mov	r0, r2
 2288 0f76 1946     		mov	r1, r3
 2289 0f78 FFF7FEFF 		bl	__aeabi_d2iz
 2290 0f7c 0346     		mov	r3, r0
ARM GAS  C:\Users\LilRobby\AppData\Local\Temp\cczyjVY0.s 			page 45


 2291 0f7e 9EB2     		uxth	r6, r3
 2292 0f80 F869     		ldr	r0, [r7, #28]
 2293 0f82 FFF7FEFF 		bl	__aeabi_i2d
 2294 0f86 0246     		mov	r2, r0
 2295 0f88 0B46     		mov	r3, r1
 2296 0f8a 1046     		mov	r0, r2
 2297 0f8c 1946     		mov	r1, r3
 2298 0f8e D2A3     		adr	r3, .L60+8
 2299 0f90 D3E90023 		ldrd	r2, [r3]
 2300 0f94 FFF7FEFF 		bl	__aeabi_dmul
 2301 0f98 0246     		mov	r2, r0
 2302 0f9a 0B46     		mov	r3, r1
 2303 0f9c 1046     		mov	r0, r2
 2304 0f9e 1946     		mov	r1, r3
 2305 0fa0 4FF00002 		mov	r2, #0
 2306 0fa4 4FF08043 		mov	r3, #1073741824
 2307 0fa8 FFF7FEFF 		bl	__aeabi_ddiv
 2308 0fac 0246     		mov	r2, r0
 2309 0fae 0B46     		mov	r3, r1
 2310 0fb0 1046     		mov	r0, r2
 2311 0fb2 1946     		mov	r1, r3
 2312 0fb4 FFF7FEFF 		bl	__aeabi_d2iz
 2313 0fb8 0346     		mov	r3, r0
 2314 0fba 9DB2     		uxth	r5, r3
 2315 0fbc 386A     		ldr	r0, [r7, #32]
 2316 0fbe FFF7FEFF 		bl	__aeabi_i2d
 2317 0fc2 0246     		mov	r2, r0
 2318 0fc4 0B46     		mov	r3, r1
 2319 0fc6 1046     		mov	r0, r2
 2320 0fc8 1946     		mov	r1, r3
 2321 0fca C3A3     		adr	r3, .L60+8
 2322 0fcc D3E90023 		ldrd	r2, [r3]
 2323 0fd0 FFF7FEFF 		bl	__aeabi_dmul
 2324 0fd4 0246     		mov	r2, r0
 2325 0fd6 0B46     		mov	r3, r1
 2326 0fd8 1046     		mov	r0, r2
 2327 0fda 1946     		mov	r1, r3
 2328 0fdc FFF7FEFF 		bl	__aeabi_d2iz
 2329 0fe0 0346     		mov	r3, r0
 2330 0fe2 9CB2     		uxth	r4, r3
 2331 0fe4 386A     		ldr	r0, [r7, #32]
 2332 0fe6 FFF7FEFF 		bl	__aeabi_i2d
 2333 0fea 0246     		mov	r2, r0
 2334 0fec 0B46     		mov	r3, r1
 2335 0fee 1046     		mov	r0, r2
 2336 0ff0 1946     		mov	r1, r3
 2337 0ff2 B9A3     		adr	r3, .L60+8
 2338 0ff4 D3E90023 		ldrd	r2, [r3]
 2339 0ff8 FFF7FEFF 		bl	__aeabi_dmul
 2340 0ffc 0246     		mov	r2, r0
 2341 0ffe 0B46     		mov	r3, r1
 2342 1000 1046     		mov	r0, r2
 2343 1002 1946     		mov	r1, r3
 2344 1004 4FF00002 		mov	r2, #0
 2345 1008 B54B     		ldr	r3, .L60+16
 2346 100a FFF7FEFF 		bl	__aeabi_ddiv
 2347 100e 0246     		mov	r2, r0
ARM GAS  C:\Users\LilRobby\AppData\Local\Temp\cczyjVY0.s 			page 46


 2348 1010 0B46     		mov	r3, r1
 2349 1012 1046     		mov	r0, r2
 2350 1014 1946     		mov	r1, r3
 2351 1016 FFF7FEFF 		bl	__aeabi_d2iz
 2352 101a 0346     		mov	r3, r0
 2353 101c 9BB2     		uxth	r3, r3
 2354 101e 0FFA88F0 		sxth	r0, r8
 2355 1022 31B2     		sxth	r1, r6
 2356 1024 2AB2     		sxth	r2, r5
 2357 1026 24B2     		sxth	r4, r4
 2358 1028 1BB2     		sxth	r3, r3
 2359 102a 0093     		str	r3, [sp]
 2360 102c 0023     		movs	r3, #0
 2361 102e 0193     		str	r3, [sp, #4]
 2362 1030 2346     		mov	r3, r4
 2363 1032 FFF7FEFF 		bl	TFTSHIELD_1_DrawRoundRect
 211:main.c        ****     k = k+ (.85*length_SW/2)/2;
 2364              		.loc 1 211 0
 2365 1036 7869     		ldr	r0, [r7, #20]
 2366 1038 FFF7FEFF 		bl	__aeabi_i2d
 2367 103c 0446     		mov	r4, r0
 2368 103e 0D46     		mov	r5, r1
 2369 1040 F869     		ldr	r0, [r7, #28]
 2370 1042 FFF7FEFF 		bl	__aeabi_i2d
 2371 1046 0246     		mov	r2, r0
 2372 1048 0B46     		mov	r3, r1
 2373 104a 1046     		mov	r0, r2
 2374 104c 1946     		mov	r1, r3
 2375 104e A2A3     		adr	r3, .L60+8
 2376 1050 D3E90023 		ldrd	r2, [r3]
 2377 1054 FFF7FEFF 		bl	__aeabi_dmul
 2378 1058 0246     		mov	r2, r0
 2379 105a 0B46     		mov	r3, r1
 2380 105c 1046     		mov	r0, r2
 2381 105e 1946     		mov	r1, r3
 2382 1060 4FF00002 		mov	r2, #0
 2383 1064 4FF08043 		mov	r3, #1073741824
 2384 1068 FFF7FEFF 		bl	__aeabi_ddiv
 2385 106c 0246     		mov	r2, r0
 2386 106e 0B46     		mov	r3, r1
 2387 1070 1046     		mov	r0, r2
 2388 1072 1946     		mov	r1, r3
 2389 1074 4FF00002 		mov	r2, #0
 2390 1078 4FF08043 		mov	r3, #1073741824
 2391 107c FFF7FEFF 		bl	__aeabi_ddiv
 2392 1080 0246     		mov	r2, r0
 2393 1082 0B46     		mov	r3, r1
 2394 1084 2046     		mov	r0, r4
 2395 1086 2946     		mov	r1, r5
 2396 1088 FFF7FEFF 		bl	__aeabi_dadd
 2397 108c 0246     		mov	r2, r0
 2398 108e 0B46     		mov	r3, r1
 2399 1090 1046     		mov	r0, r2
 2400 1092 1946     		mov	r1, r3
 2401 1094 FFF7FEFF 		bl	__aeabi_d2iz
 2402 1098 0346     		mov	r3, r0
 2403 109a 7B61     		str	r3, [r7, #20]
ARM GAS  C:\Users\LilRobby\AppData\Local\Temp\cczyjVY0.s 			page 47


 2404              	.L44:
 206:main.c        ****     {
 2405              		.loc 1 206 0
 2406 109c 7869     		ldr	r0, [r7, #20]
 2407 109e FFF7FEFF 		bl	__aeabi_i2d
 2408 10a2 0446     		mov	r4, r0
 2409 10a4 0D46     		mov	r5, r1
 2410 10a6 F869     		ldr	r0, [r7, #28]
 2411 10a8 FFF7FEFF 		bl	__aeabi_i2d
 2412 10ac 0246     		mov	r2, r0
 2413 10ae 0B46     		mov	r3, r1
 2414 10b0 1046     		mov	r0, r2
 2415 10b2 1946     		mov	r1, r3
 2416 10b4 88A3     		adr	r3, .L60+8
 2417 10b6 D3E90023 		ldrd	r2, [r3]
 2418 10ba FFF7FEFF 		bl	__aeabi_dmul
 2419 10be 0246     		mov	r2, r0
 2420 10c0 0B46     		mov	r3, r1
 2421 10c2 1046     		mov	r0, r2
 2422 10c4 1946     		mov	r1, r3
 2423 10c6 4FF00002 		mov	r2, #0
 2424 10ca 4FF08043 		mov	r3, #1073741824
 2425 10ce FFF7FEFF 		bl	__aeabi_ddiv
 2426 10d2 0246     		mov	r2, r0
 2427 10d4 0B46     		mov	r3, r1
 2428 10d6 2046     		mov	r0, r4
 2429 10d8 2946     		mov	r1, r5
 2430 10da FFF7FEFF 		bl	__aeabi_dcmplt
 2431 10de 0346     		mov	r3, r0
 2432 10e0 002B     		cmp	r3, #0
 2433 10e2 7FF457AD 		bne	.L45
 212:main.c        ****     
 213:main.c        ****     }
 214:main.c        ****     
 215:main.c        ****      
 216:main.c        ****     TFTSHIELD_1_FillRoundRect(x_SW + ((.15*length_SW)/2), (i+1)*empty_SW + i*width_SW/2 + (.15*widt
 2434              		.loc 1 216 0
 2435 10e6 B868     		ldr	r0, [r7, #8]
 2436 10e8 FFF7FEFF 		bl	__aeabi_i2d
 2437 10ec 0446     		mov	r4, r0
 2438 10ee 0D46     		mov	r5, r1
 2439 10f0 F869     		ldr	r0, [r7, #28]
 2440 10f2 FFF7FEFF 		bl	__aeabi_i2d
 2441 10f6 0246     		mov	r2, r0
 2442 10f8 0B46     		mov	r3, r1
 2443 10fa 1046     		mov	r0, r2
 2444 10fc 1946     		mov	r1, r3
 2445 10fe 74A3     		adr	r3, .L60
 2446 1100 D3E90023 		ldrd	r2, [r3]
 2447 1104 FFF7FEFF 		bl	__aeabi_dmul
 2448 1108 0246     		mov	r2, r0
 2449 110a 0B46     		mov	r3, r1
 2450 110c 1046     		mov	r0, r2
 2451 110e 1946     		mov	r1, r3
 2452 1110 4FF00002 		mov	r2, #0
 2453 1114 4FF08043 		mov	r3, #1073741824
 2454 1118 FFF7FEFF 		bl	__aeabi_ddiv
ARM GAS  C:\Users\LilRobby\AppData\Local\Temp\cczyjVY0.s 			page 48


 2455 111c 0246     		mov	r2, r0
 2456 111e 0B46     		mov	r3, r1
 2457 1120 2046     		mov	r0, r4
 2458 1122 2946     		mov	r1, r5
 2459 1124 FFF7FEFF 		bl	__aeabi_dadd
 2460 1128 0246     		mov	r2, r0
 2461 112a 0B46     		mov	r3, r1
 2462 112c 1046     		mov	r0, r2
 2463 112e 1946     		mov	r1, r3
 2464 1130 FFF7FEFF 		bl	__aeabi_d2iz
 2465 1134 0346     		mov	r3, r0
 2466 1136 1FFA83F8 		uxth	r8, r3
 2467 113a 7B68     		ldr	r3, [r7, #4]
 2468 113c 0133     		adds	r3, r3, #1
 2469 113e FA68     		ldr	r2, [r7, #12]
 2470 1140 02FB03F2 		mul	r2, r2, r3
 2471 1144 7B68     		ldr	r3, [r7, #4]
 2472 1146 396A     		ldr	r1, [r7, #32]
 2473 1148 01FB03F3 		mul	r3, r1, r3
 2474 114c D90F     		lsrs	r1, r3, #31
 2475 114e 0B44     		add	r3, r3, r1
 2476 1150 5B10     		asrs	r3, r3, #1
 2477 1152 1344     		add	r3, r3, r2
 2478 1154 1846     		mov	r0, r3
 2479 1156 FFF7FEFF 		bl	__aeabi_i2d
 2480 115a 0446     		mov	r4, r0
 2481 115c 0D46     		mov	r5, r1
 2482 115e 386A     		ldr	r0, [r7, #32]
 2483 1160 FFF7FEFF 		bl	__aeabi_i2d
 2484 1164 0246     		mov	r2, r0
 2485 1166 0B46     		mov	r3, r1
 2486 1168 1046     		mov	r0, r2
 2487 116a 1946     		mov	r1, r3
 2488 116c 58A3     		adr	r3, .L60
 2489 116e D3E90023 		ldrd	r2, [r3]
 2490 1172 FFF7FEFF 		bl	__aeabi_dmul
 2491 1176 0246     		mov	r2, r0
 2492 1178 0B46     		mov	r3, r1
 2493 117a 1046     		mov	r0, r2
 2494 117c 1946     		mov	r1, r3
 2495 117e 4FF00002 		mov	r2, #0
 2496 1182 4FF08043 		mov	r3, #1073741824
 2497 1186 FFF7FEFF 		bl	__aeabi_ddiv
 2498 118a 0246     		mov	r2, r0
 2499 118c 0B46     		mov	r3, r1
 2500 118e 2046     		mov	r0, r4
 2501 1190 2946     		mov	r1, r5
 2502 1192 FFF7FEFF 		bl	__aeabi_dadd
 2503 1196 0246     		mov	r2, r0
 2504 1198 0B46     		mov	r3, r1
 2505 119a 1046     		mov	r0, r2
 2506 119c 1946     		mov	r1, r3
 2507 119e FFF7FEFF 		bl	__aeabi_d2iz
 2508 11a2 0346     		mov	r3, r0
 2509 11a4 9EB2     		uxth	r6, r3
 2510 11a6 F869     		ldr	r0, [r7, #28]
 2511 11a8 FFF7FEFF 		bl	__aeabi_i2d
ARM GAS  C:\Users\LilRobby\AppData\Local\Temp\cczyjVY0.s 			page 49


 2512 11ac 0246     		mov	r2, r0
 2513 11ae 0B46     		mov	r3, r1
 2514 11b0 1046     		mov	r0, r2
 2515 11b2 1946     		mov	r1, r3
 2516 11b4 48A3     		adr	r3, .L60+8
 2517 11b6 D3E90023 		ldrd	r2, [r3]
 2518 11ba FFF7FEFF 		bl	__aeabi_dmul
 2519 11be 0246     		mov	r2, r0
 2520 11c0 0B46     		mov	r3, r1
 2521 11c2 1046     		mov	r0, r2
 2522 11c4 1946     		mov	r1, r3
 2523 11c6 FFF7FEFF 		bl	__aeabi_d2iz
 2524 11ca 0346     		mov	r3, r0
 2525 11cc 9DB2     		uxth	r5, r3
 2526 11ce 386A     		ldr	r0, [r7, #32]
 2527 11d0 FFF7FEFF 		bl	__aeabi_i2d
 2528 11d4 0246     		mov	r2, r0
 2529 11d6 0B46     		mov	r3, r1
 2530 11d8 1046     		mov	r0, r2
 2531 11da 1946     		mov	r1, r3
 2532 11dc 3EA3     		adr	r3, .L60+8
 2533 11de D3E90023 		ldrd	r2, [r3]
 2534 11e2 FFF7FEFF 		bl	__aeabi_dmul
 2535 11e6 0246     		mov	r2, r0
 2536 11e8 0B46     		mov	r3, r1
 2537 11ea 1046     		mov	r0, r2
 2538 11ec 1946     		mov	r1, r3
 2539 11ee FFF7FEFF 		bl	__aeabi_d2iz
 2540 11f2 0346     		mov	r3, r0
 2541 11f4 9CB2     		uxth	r4, r3
 2542 11f6 386A     		ldr	r0, [r7, #32]
 2543 11f8 FFF7FEFF 		bl	__aeabi_i2d
 2544 11fc 0246     		mov	r2, r0
 2545 11fe 0B46     		mov	r3, r1
 2546 1200 1046     		mov	r0, r2
 2547 1202 1946     		mov	r1, r3
 2548 1204 34A3     		adr	r3, .L60+8
 2549 1206 D3E90023 		ldrd	r2, [r3]
 2550 120a FFF7FEFF 		bl	__aeabi_dmul
 2551 120e 0246     		mov	r2, r0
 2552 1210 0B46     		mov	r3, r1
 2553 1212 1046     		mov	r0, r2
 2554 1214 1946     		mov	r1, r3
 2555 1216 4FF00002 		mov	r2, #0
 2556 121a 314B     		ldr	r3, .L60+16
 2557 121c FFF7FEFF 		bl	__aeabi_ddiv
 2558 1220 0246     		mov	r2, r0
 2559 1222 0B46     		mov	r3, r1
 2560 1224 1046     		mov	r0, r2
 2561 1226 1946     		mov	r1, r3
 2562 1228 FFF7FEFF 		bl	__aeabi_d2iz
 2563 122c 0346     		mov	r3, r0
 2564 122e 9BB2     		uxth	r3, r3
 2565 1230 0FFA88F0 		sxth	r0, r8
 2566 1234 31B2     		sxth	r1, r6
 2567 1236 2AB2     		sxth	r2, r5
 2568 1238 24B2     		sxth	r4, r4
ARM GAS  C:\Users\LilRobby\AppData\Local\Temp\cczyjVY0.s 			page 50


 2569 123a 1BB2     		sxth	r3, r3
 2570 123c 0093     		str	r3, [sp]
 2571 123e 0023     		movs	r3, #0
 2572 1240 0193     		str	r3, [sp, #4]
 2573 1242 2346     		mov	r3, r4
 2574 1244 FFF7FEFF 		bl	TFTSHIELD_1_FillRoundRect
 217:main.c        ****     TFTSHIELD_1_FillRoundRect(x_SW + ((.15*length_SW)/2) + (.85*length_SW/2), (i+1)*empty_SW + i*wi
 2575              		.loc 1 217 0
 2576 1248 B868     		ldr	r0, [r7, #8]
 2577 124a FFF7FEFF 		bl	__aeabi_i2d
 2578 124e 0446     		mov	r4, r0
 2579 1250 0D46     		mov	r5, r1
 2580 1252 F869     		ldr	r0, [r7, #28]
 2581 1254 FFF7FEFF 		bl	__aeabi_i2d
 2582 1258 0246     		mov	r2, r0
 2583 125a 0B46     		mov	r3, r1
 2584 125c 1046     		mov	r0, r2
 2585 125e 1946     		mov	r1, r3
 2586 1260 1BA3     		adr	r3, .L60
 2587 1262 D3E90023 		ldrd	r2, [r3]
 2588 1266 FFF7FEFF 		bl	__aeabi_dmul
 2589 126a 0246     		mov	r2, r0
 2590 126c 0B46     		mov	r3, r1
 2591 126e 1046     		mov	r0, r2
 2592 1270 1946     		mov	r1, r3
 2593 1272 4FF00002 		mov	r2, #0
 2594 1276 4FF08043 		mov	r3, #1073741824
 2595 127a FFF7FEFF 		bl	__aeabi_ddiv
 2596 127e 0246     		mov	r2, r0
 2597 1280 0B46     		mov	r3, r1
 2598 1282 2046     		mov	r0, r4
 2599 1284 2946     		mov	r1, r5
 2600 1286 FFF7FEFF 		bl	__aeabi_dadd
 2601 128a 0246     		mov	r2, r0
 2602 128c 0B46     		mov	r3, r1
 2603 128e 1446     		mov	r4, r2
 2604 1290 1D46     		mov	r5, r3
 2605 1292 F869     		ldr	r0, [r7, #28]
 2606 1294 FFF7FEFF 		bl	__aeabi_i2d
 2607 1298 0246     		mov	r2, r0
 2608 129a 0B46     		mov	r3, r1
 2609 129c 1046     		mov	r0, r2
 2610 129e 1946     		mov	r1, r3
 2611 12a0 0DA3     		adr	r3, .L60+8
 2612 12a2 D3E90023 		ldrd	r2, [r3]
 2613 12a6 FFF7FEFF 		bl	__aeabi_dmul
 2614 12aa 0246     		mov	r2, r0
 2615 12ac 0B46     		mov	r3, r1
 2616 12ae 1046     		mov	r0, r2
 2617 12b0 1946     		mov	r1, r3
 2618 12b2 4FF00002 		mov	r2, #0
 2619 12b6 4FF08043 		mov	r3, #1073741824
 2620 12ba FFF7FEFF 		bl	__aeabi_ddiv
 2621 12be 0246     		mov	r2, r0
 2622 12c0 0B46     		mov	r3, r1
 2623 12c2 2046     		mov	r0, r4
 2624 12c4 2946     		mov	r1, r5
ARM GAS  C:\Users\LilRobby\AppData\Local\Temp\cczyjVY0.s 			page 51


 2625 12c6 FFF7FEFF 		bl	__aeabi_dadd
 2626 12ca 0BE0     		b	.L61
 2627              	.L62:
 2628 12cc AFF30080 		.align	3
 2629              	.L60:
 2630 12d0 33333333 		.word	858993459
 2631 12d4 3333C33F 		.word	1069757235
 2632 12d8 33333333 		.word	858993459
 2633 12dc 3333EB3F 		.word	1072378675
 2634 12e0 00001040 		.word	1074790400
 2635              	.L61:
 2636 12e4 0246     		mov	r2, r0
 2637 12e6 0B46     		mov	r3, r1
 2638 12e8 1046     		mov	r0, r2
 2639 12ea 1946     		mov	r1, r3
 2640 12ec FFF7FEFF 		bl	__aeabi_d2iz
 2641 12f0 0346     		mov	r3, r0
 2642 12f2 1FFA83F8 		uxth	r8, r3
 2643 12f6 7B68     		ldr	r3, [r7, #4]
 2644 12f8 0133     		adds	r3, r3, #1
 2645 12fa FA68     		ldr	r2, [r7, #12]
 2646 12fc 02FB03F2 		mul	r2, r2, r3
 2647 1300 7B68     		ldr	r3, [r7, #4]
 2648 1302 396A     		ldr	r1, [r7, #32]
 2649 1304 01FB03F3 		mul	r3, r1, r3
 2650 1308 D90F     		lsrs	r1, r3, #31
 2651 130a 0B44     		add	r3, r3, r1
 2652 130c 5B10     		asrs	r3, r3, #1
 2653 130e 1344     		add	r3, r3, r2
 2654 1310 1846     		mov	r0, r3
 2655 1312 FFF7FEFF 		bl	__aeabi_i2d
 2656 1316 0446     		mov	r4, r0
 2657 1318 0D46     		mov	r5, r1
 2658 131a 386A     		ldr	r0, [r7, #32]
 2659 131c FFF7FEFF 		bl	__aeabi_i2d
 2660 1320 0246     		mov	r2, r0
 2661 1322 0B46     		mov	r3, r1
 2662 1324 1046     		mov	r0, r2
 2663 1326 1946     		mov	r1, r3
 2664 1328 C5A3     		adr	r3, .L63
 2665 132a D3E90023 		ldrd	r2, [r3]
 2666 132e FFF7FEFF 		bl	__aeabi_dmul
 2667 1332 0246     		mov	r2, r0
 2668 1334 0B46     		mov	r3, r1
 2669 1336 1046     		mov	r0, r2
 2670 1338 1946     		mov	r1, r3
 2671 133a 4FF00002 		mov	r2, #0
 2672 133e 4FF08043 		mov	r3, #1073741824
 2673 1342 FFF7FEFF 		bl	__aeabi_ddiv
 2674 1346 0246     		mov	r2, r0
 2675 1348 0B46     		mov	r3, r1
 2676 134a 2046     		mov	r0, r4
 2677 134c 2946     		mov	r1, r5
 2678 134e FFF7FEFF 		bl	__aeabi_dadd
 2679 1352 0246     		mov	r2, r0
 2680 1354 0B46     		mov	r3, r1
 2681 1356 1046     		mov	r0, r2
ARM GAS  C:\Users\LilRobby\AppData\Local\Temp\cczyjVY0.s 			page 52


 2682 1358 1946     		mov	r1, r3
 2683 135a FFF7FEFF 		bl	__aeabi_d2iz
 2684 135e 0346     		mov	r3, r0
 2685 1360 9EB2     		uxth	r6, r3
 2686 1362 F869     		ldr	r0, [r7, #28]
 2687 1364 FFF7FEFF 		bl	__aeabi_i2d
 2688 1368 0246     		mov	r2, r0
 2689 136a 0B46     		mov	r3, r1
 2690 136c 1046     		mov	r0, r2
 2691 136e 1946     		mov	r1, r3
 2692 1370 B5A3     		adr	r3, .L63+8
 2693 1372 D3E90023 		ldrd	r2, [r3]
 2694 1376 FFF7FEFF 		bl	__aeabi_dmul
 2695 137a 0246     		mov	r2, r0
 2696 137c 0B46     		mov	r3, r1
 2697 137e 1046     		mov	r0, r2
 2698 1380 1946     		mov	r1, r3
 2699 1382 4FF00002 		mov	r2, #0
 2700 1386 4FF08043 		mov	r3, #1073741824
 2701 138a FFF7FEFF 		bl	__aeabi_ddiv
 2702 138e 0246     		mov	r2, r0
 2703 1390 0B46     		mov	r3, r1
 2704 1392 1046     		mov	r0, r2
 2705 1394 1946     		mov	r1, r3
 2706 1396 FFF7FEFF 		bl	__aeabi_d2iz
 2707 139a 0346     		mov	r3, r0
 2708 139c 9DB2     		uxth	r5, r3
 2709 139e 386A     		ldr	r0, [r7, #32]
 2710 13a0 FFF7FEFF 		bl	__aeabi_i2d
 2711 13a4 0246     		mov	r2, r0
 2712 13a6 0B46     		mov	r3, r1
 2713 13a8 1046     		mov	r0, r2
 2714 13aa 1946     		mov	r1, r3
 2715 13ac A6A3     		adr	r3, .L63+8
 2716 13ae D3E90023 		ldrd	r2, [r3]
 2717 13b2 FFF7FEFF 		bl	__aeabi_dmul
 2718 13b6 0246     		mov	r2, r0
 2719 13b8 0B46     		mov	r3, r1
 2720 13ba 1046     		mov	r0, r2
 2721 13bc 1946     		mov	r1, r3
 2722 13be FFF7FEFF 		bl	__aeabi_d2iz
 2723 13c2 0346     		mov	r3, r0
 2724 13c4 9CB2     		uxth	r4, r3
 2725 13c6 386A     		ldr	r0, [r7, #32]
 2726 13c8 FFF7FEFF 		bl	__aeabi_i2d
 2727 13cc 0246     		mov	r2, r0
 2728 13ce 0B46     		mov	r3, r1
 2729 13d0 1046     		mov	r0, r2
 2730 13d2 1946     		mov	r1, r3
 2731 13d4 9CA3     		adr	r3, .L63+8
 2732 13d6 D3E90023 		ldrd	r2, [r3]
 2733 13da FFF7FEFF 		bl	__aeabi_dmul
 2734 13de 0246     		mov	r2, r0
 2735 13e0 0B46     		mov	r3, r1
 2736 13e2 1046     		mov	r0, r2
 2737 13e4 1946     		mov	r1, r3
 2738 13e6 4FF00002 		mov	r2, #0
ARM GAS  C:\Users\LilRobby\AppData\Local\Temp\cczyjVY0.s 			page 53


 2739 13ea 994B     		ldr	r3, .L63+16
 2740 13ec FFF7FEFF 		bl	__aeabi_ddiv
 2741 13f0 0246     		mov	r2, r0
 2742 13f2 0B46     		mov	r3, r1
 2743 13f4 1046     		mov	r0, r2
 2744 13f6 1946     		mov	r1, r3
 2745 13f8 FFF7FEFF 		bl	__aeabi_d2iz
 2746 13fc 0346     		mov	r3, r0
 2747 13fe 9BB2     		uxth	r3, r3
 2748 1400 0FFA88F0 		sxth	r0, r8
 2749 1404 31B2     		sxth	r1, r6
 2750 1406 2AB2     		sxth	r2, r5
 2751 1408 24B2     		sxth	r4, r4
 2752 140a 1BB2     		sxth	r3, r3
 2753 140c 0093     		str	r3, [sp]
 2754 140e 4FF6FF73 		movw	r3, #65535
 2755 1412 0193     		str	r3, [sp, #4]
 2756 1414 2346     		mov	r3, r4
 2757 1416 FFF7FEFF 		bl	TFTSHIELD_1_FillRoundRect
 218:main.c        ****     TFTSHIELD_1_DrawRoundRect(x_SW + ((.15*length_SW)/2) + (.85*length_SW/2), (i+1)*empty_SW + i*wi
 2758              		.loc 1 218 0
 2759 141a B868     		ldr	r0, [r7, #8]
 2760 141c FFF7FEFF 		bl	__aeabi_i2d
 2761 1420 0446     		mov	r4, r0
 2762 1422 0D46     		mov	r5, r1
 2763 1424 F869     		ldr	r0, [r7, #28]
 2764 1426 FFF7FEFF 		bl	__aeabi_i2d
 2765 142a 0246     		mov	r2, r0
 2766 142c 0B46     		mov	r3, r1
 2767 142e 1046     		mov	r0, r2
 2768 1430 1946     		mov	r1, r3
 2769 1432 83A3     		adr	r3, .L63
 2770 1434 D3E90023 		ldrd	r2, [r3]
 2771 1438 FFF7FEFF 		bl	__aeabi_dmul
 2772 143c 0246     		mov	r2, r0
 2773 143e 0B46     		mov	r3, r1
 2774 1440 1046     		mov	r0, r2
 2775 1442 1946     		mov	r1, r3
 2776 1444 4FF00002 		mov	r2, #0
 2777 1448 4FF08043 		mov	r3, #1073741824
 2778 144c FFF7FEFF 		bl	__aeabi_ddiv
 2779 1450 0246     		mov	r2, r0
 2780 1452 0B46     		mov	r3, r1
 2781 1454 2046     		mov	r0, r4
 2782 1456 2946     		mov	r1, r5
 2783 1458 FFF7FEFF 		bl	__aeabi_dadd
 2784 145c 0246     		mov	r2, r0
 2785 145e 0B46     		mov	r3, r1
 2786 1460 1446     		mov	r4, r2
 2787 1462 1D46     		mov	r5, r3
 2788 1464 F869     		ldr	r0, [r7, #28]
 2789 1466 FFF7FEFF 		bl	__aeabi_i2d
 2790 146a 0246     		mov	r2, r0
 2791 146c 0B46     		mov	r3, r1
 2792 146e 1046     		mov	r0, r2
 2793 1470 1946     		mov	r1, r3
 2794 1472 75A3     		adr	r3, .L63+8
ARM GAS  C:\Users\LilRobby\AppData\Local\Temp\cczyjVY0.s 			page 54


 2795 1474 D3E90023 		ldrd	r2, [r3]
 2796 1478 FFF7FEFF 		bl	__aeabi_dmul
 2797 147c 0246     		mov	r2, r0
 2798 147e 0B46     		mov	r3, r1
 2799 1480 1046     		mov	r0, r2
 2800 1482 1946     		mov	r1, r3
 2801 1484 4FF00002 		mov	r2, #0
 2802 1488 4FF08043 		mov	r3, #1073741824
 2803 148c FFF7FEFF 		bl	__aeabi_ddiv
 2804 1490 0246     		mov	r2, r0
 2805 1492 0B46     		mov	r3, r1
 2806 1494 2046     		mov	r0, r4
 2807 1496 2946     		mov	r1, r5
 2808 1498 FFF7FEFF 		bl	__aeabi_dadd
 2809 149c 0246     		mov	r2, r0
 2810 149e 0B46     		mov	r3, r1
 2811 14a0 1046     		mov	r0, r2
 2812 14a2 1946     		mov	r1, r3
 2813 14a4 FFF7FEFF 		bl	__aeabi_d2iz
 2814 14a8 0346     		mov	r3, r0
 2815 14aa 1FFA83F8 		uxth	r8, r3
 2816 14ae 7B68     		ldr	r3, [r7, #4]
 2817 14b0 0133     		adds	r3, r3, #1
 2818 14b2 FA68     		ldr	r2, [r7, #12]
 2819 14b4 02FB03F2 		mul	r2, r2, r3
 2820 14b8 7B68     		ldr	r3, [r7, #4]
 2821 14ba 396A     		ldr	r1, [r7, #32]
 2822 14bc 01FB03F3 		mul	r3, r1, r3
 2823 14c0 D90F     		lsrs	r1, r3, #31
 2824 14c2 0B44     		add	r3, r3, r1
 2825 14c4 5B10     		asrs	r3, r3, #1
 2826 14c6 1344     		add	r3, r3, r2
 2827 14c8 1846     		mov	r0, r3
 2828 14ca FFF7FEFF 		bl	__aeabi_i2d
 2829 14ce 0446     		mov	r4, r0
 2830 14d0 0D46     		mov	r5, r1
 2831 14d2 386A     		ldr	r0, [r7, #32]
 2832 14d4 FFF7FEFF 		bl	__aeabi_i2d
 2833 14d8 0246     		mov	r2, r0
 2834 14da 0B46     		mov	r3, r1
 2835 14dc 1046     		mov	r0, r2
 2836 14de 1946     		mov	r1, r3
 2837 14e0 57A3     		adr	r3, .L63
 2838 14e2 D3E90023 		ldrd	r2, [r3]
 2839 14e6 FFF7FEFF 		bl	__aeabi_dmul
 2840 14ea 0246     		mov	r2, r0
 2841 14ec 0B46     		mov	r3, r1
 2842 14ee 1046     		mov	r0, r2
 2843 14f0 1946     		mov	r1, r3
 2844 14f2 4FF00002 		mov	r2, #0
 2845 14f6 4FF08043 		mov	r3, #1073741824
 2846 14fa FFF7FEFF 		bl	__aeabi_ddiv
 2847 14fe 0246     		mov	r2, r0
 2848 1500 0B46     		mov	r3, r1
 2849 1502 2046     		mov	r0, r4
 2850 1504 2946     		mov	r1, r5
 2851 1506 FFF7FEFF 		bl	__aeabi_dadd
ARM GAS  C:\Users\LilRobby\AppData\Local\Temp\cczyjVY0.s 			page 55


 2852 150a 0246     		mov	r2, r0
 2853 150c 0B46     		mov	r3, r1
 2854 150e 1046     		mov	r0, r2
 2855 1510 1946     		mov	r1, r3
 2856 1512 FFF7FEFF 		bl	__aeabi_d2iz
 2857 1516 0346     		mov	r3, r0
 2858 1518 9EB2     		uxth	r6, r3
 2859 151a F869     		ldr	r0, [r7, #28]
 2860 151c FFF7FEFF 		bl	__aeabi_i2d
 2861 1520 0246     		mov	r2, r0
 2862 1522 0B46     		mov	r3, r1
 2863 1524 1046     		mov	r0, r2
 2864 1526 1946     		mov	r1, r3
 2865 1528 47A3     		adr	r3, .L63+8
 2866 152a D3E90023 		ldrd	r2, [r3]
 2867 152e FFF7FEFF 		bl	__aeabi_dmul
 2868 1532 0246     		mov	r2, r0
 2869 1534 0B46     		mov	r3, r1
 2870 1536 1046     		mov	r0, r2
 2871 1538 1946     		mov	r1, r3
 2872 153a 4FF00002 		mov	r2, #0
 2873 153e 4FF08043 		mov	r3, #1073741824
 2874 1542 FFF7FEFF 		bl	__aeabi_ddiv
 2875 1546 0246     		mov	r2, r0
 2876 1548 0B46     		mov	r3, r1
 2877 154a 1046     		mov	r0, r2
 2878 154c 1946     		mov	r1, r3
 2879 154e FFF7FEFF 		bl	__aeabi_d2iz
 2880 1552 0346     		mov	r3, r0
 2881 1554 9DB2     		uxth	r5, r3
 2882 1556 386A     		ldr	r0, [r7, #32]
 2883 1558 FFF7FEFF 		bl	__aeabi_i2d
 2884 155c 0246     		mov	r2, r0
 2885 155e 0B46     		mov	r3, r1
 2886 1560 1046     		mov	r0, r2
 2887 1562 1946     		mov	r1, r3
 2888 1564 38A3     		adr	r3, .L63+8
 2889 1566 D3E90023 		ldrd	r2, [r3]
 2890 156a FFF7FEFF 		bl	__aeabi_dmul
 2891 156e 0246     		mov	r2, r0
 2892 1570 0B46     		mov	r3, r1
 2893 1572 1046     		mov	r0, r2
 2894 1574 1946     		mov	r1, r3
 2895 1576 FFF7FEFF 		bl	__aeabi_d2iz
 2896 157a 0346     		mov	r3, r0
 2897 157c 9CB2     		uxth	r4, r3
 2898 157e 386A     		ldr	r0, [r7, #32]
 2899 1580 FFF7FEFF 		bl	__aeabi_i2d
 2900 1584 0246     		mov	r2, r0
 2901 1586 0B46     		mov	r3, r1
 2902 1588 1046     		mov	r0, r2
 2903 158a 1946     		mov	r1, r3
 2904 158c 2EA3     		adr	r3, .L63+8
 2905 158e D3E90023 		ldrd	r2, [r3]
 2906 1592 FFF7FEFF 		bl	__aeabi_dmul
 2907 1596 0246     		mov	r2, r0
 2908 1598 0B46     		mov	r3, r1
ARM GAS  C:\Users\LilRobby\AppData\Local\Temp\cczyjVY0.s 			page 56


 2909 159a 1046     		mov	r0, r2
 2910 159c 1946     		mov	r1, r3
 2911 159e 4FF00002 		mov	r2, #0
 2912 15a2 2B4B     		ldr	r3, .L63+16
 2913 15a4 FFF7FEFF 		bl	__aeabi_ddiv
 2914 15a8 0246     		mov	r2, r0
 2915 15aa 0B46     		mov	r3, r1
 2916 15ac 1046     		mov	r0, r2
 2917 15ae 1946     		mov	r1, r3
 2918 15b0 FFF7FEFF 		bl	__aeabi_d2iz
 2919 15b4 0346     		mov	r3, r0
 2920 15b6 9BB2     		uxth	r3, r3
 2921 15b8 0FFA88F0 		sxth	r0, r8
 2922 15bc 31B2     		sxth	r1, r6
 2923 15be 2AB2     		sxth	r2, r5
 2924 15c0 24B2     		sxth	r4, r4
 2925 15c2 1BB2     		sxth	r3, r3
 2926 15c4 0093     		str	r3, [sp]
 2927 15c6 0023     		movs	r3, #0
 2928 15c8 0193     		str	r3, [sp, #4]
 2929 15ca 2346     		mov	r3, r4
 2930 15cc FFF7FEFF 		bl	TFTSHIELD_1_DrawRoundRect
 219:main.c        ****     k = k+ (.85*length_SW/2)/2;
 2931              		.loc 1 219 0
 2932 15d0 7869     		ldr	r0, [r7, #20]
 2933 15d2 FFF7FEFF 		bl	__aeabi_i2d
 2934 15d6 0446     		mov	r4, r0
 2935 15d8 0D46     		mov	r5, r1
 2936 15da F869     		ldr	r0, [r7, #28]
 2937 15dc FFF7FEFF 		bl	__aeabi_i2d
 2938 15e0 0246     		mov	r2, r0
 2939 15e2 0B46     		mov	r3, r1
 2940 15e4 1046     		mov	r0, r2
 2941 15e6 1946     		mov	r1, r3
 2942 15e8 17A3     		adr	r3, .L63+8
 2943 15ea D3E90023 		ldrd	r2, [r3]
 2944 15ee FFF7FEFF 		bl	__aeabi_dmul
 2945 15f2 0246     		mov	r2, r0
 2946 15f4 0B46     		mov	r3, r1
 2947 15f6 1046     		mov	r0, r2
 2948 15f8 1946     		mov	r1, r3
 2949 15fa 4FF00002 		mov	r2, #0
 2950 15fe 4FF08043 		mov	r3, #1073741824
 2951 1602 FFF7FEFF 		bl	__aeabi_ddiv
 2952 1606 0246     		mov	r2, r0
 2953 1608 0B46     		mov	r3, r1
 2954 160a 1046     		mov	r0, r2
 2955 160c 1946     		mov	r1, r3
 2956 160e 4FF00002 		mov	r2, #0
 2957 1612 4FF08043 		mov	r3, #1073741824
 2958 1616 FFF7FEFF 		bl	__aeabi_ddiv
 2959 161a 0246     		mov	r2, r0
 2960 161c 0B46     		mov	r3, r1
 2961 161e 2046     		mov	r0, r4
 2962 1620 2946     		mov	r1, r5
 2963 1622 FFF7FEFF 		bl	__aeabi_dadd
 2964 1626 0246     		mov	r2, r0
ARM GAS  C:\Users\LilRobby\AppData\Local\Temp\cczyjVY0.s 			page 57


 2965 1628 0B46     		mov	r3, r1
 2966 162a 1046     		mov	r0, r2
 2967 162c 1946     		mov	r1, r3
 2968 162e FFF7FEFF 		bl	__aeabi_d2iz
 2969 1632 0346     		mov	r3, r0
 2970 1634 7B61     		str	r3, [r7, #20]
 2971              	.L34:
 2972              	.LBE7:
 220:main.c        ****     }
 221:main.c        ****     
 222:main.c        **** }
 2973              		.loc 1 222 0
 2974 1636 2837     		adds	r7, r7, #40
 2975              		.cfi_def_cfa_offset 24
 2976 1638 BD46     		mov	sp, r7
 2977              		.cfi_def_cfa_register 13
 2978              		@ sp needed
 2979 163a BDE8F081 		pop	{r4, r5, r6, r7, r8, pc}
 2980              	.L64:
 2981 163e 00BF     		.align	3
 2982              	.L63:
 2983 1640 33333333 		.word	858993459
 2984 1644 3333C33F 		.word	1069757235
 2985 1648 33333333 		.word	858993459
 2986 164c 3333EB3F 		.word	1072378675
 2987 1650 00001040 		.word	1074790400
 2988              		.cfi_endproc
 2989              	.LFE59:
 2990              		.size	DrawSlideSwitch, .-DrawSlideSwitch
 2991 1654 AFF30080 		.section	.text.DrawLED,"ax",%progbits
 2992              		.align	2
 2993              		.global	DrawLED
 2994              		.thumb
 2995              		.thumb_func
 2996              		.type	DrawLED, %function
 2997              	DrawLED:
 2998              	.LFB60:
 223:main.c        **** 
 224:main.c        **** void DrawLED(int i, int state)
 225:main.c        **** {
 2999              		.loc 1 225 0
 3000              		.cfi_startproc
 3001              		@ args = 0, pretend = 0, frame = 48
 3002              		@ frame_needed = 1, uses_anonymous_args = 0
 3003 0000 80B5     		push	{r7, lr}
 3004              		.cfi_def_cfa_offset 8
 3005              		.cfi_offset 7, -8
 3006              		.cfi_offset 14, -4
 3007 0002 8CB0     		sub	sp, sp, #48
 3008              		.cfi_def_cfa_offset 56
 3009 0004 00AF     		add	r7, sp, #0
 3010              		.cfi_def_cfa_register 7
 3011 0006 7860     		str	r0, [r7, #4]
 3012 0008 3960     		str	r1, [r7]
 226:main.c        ****     uint16 color ;
 227:main.c        ****     
 228:main.c        ****     if (state == 0){color = GRAY;}
ARM GAS  C:\Users\LilRobby\AppData\Local\Temp\cczyjVY0.s 			page 58


 3013              		.loc 1 228 0
 3014 000a 3B68     		ldr	r3, [r7]
 3015 000c 002B     		cmp	r3, #0
 3016 000e 03D1     		bne	.L66
 3017              		.loc 1 228 0 is_stmt 0 discriminator 1
 3018 0010 47F6EF33 		movw	r3, #31727
 3019 0014 FB85     		strh	r3, [r7, #46]	@ movhi
 3020 0016 05E0     		b	.L67
 3021              	.L66:
 229:main.c        ****     else if (state == 1){color = RED;}
 3022              		.loc 1 229 0 is_stmt 1
 3023 0018 3B68     		ldr	r3, [r7]
 3024 001a 012B     		cmp	r3, #1
 3025 001c 02D1     		bne	.L67
 3026              		.loc 1 229 0 is_stmt 0 discriminator 1
 3027 001e 4FF47843 		mov	r3, #63488
 3028 0022 FB85     		strh	r3, [r7, #46]	@ movhi
 3029              	.L67:
 230:main.c        ****     
 231:main.c        ****     int outputs = LEDs + HEX;
 3030              		.loc 1 231 0 is_stmt 1
 3031 0024 0523     		movs	r3, #5
 3032 0026 3B62     		str	r3, [r7, #32]
 232:main.c        ****     int separation_LED;
 233:main.c        ****     
 234:main.c        ****     if (outputs>0){separation_LED = y_max/outputs;}
 3033              		.loc 1 234 0
 3034 0028 3B6A     		ldr	r3, [r7, #32]
 3035 002a 002B     		cmp	r3, #0
 3036 002c 06DD     		ble	.L68
 3037              		.loc 1 234 0 is_stmt 0 discriminator 1
 3038 002e 4FF4A072 		mov	r2, #320
 3039 0032 3B6A     		ldr	r3, [r7, #32]
 3040 0034 92FBF3F3 		sdiv	r3, r2, r3
 3041 0038 BB62     		str	r3, [r7, #40]
 3042 003a 02E0     		b	.L69
 3043              	.L68:
 235:main.c        ****     else          {separation_LED = y_max + 1;}
 3044              		.loc 1 235 0 is_stmt 1
 3045 003c 40F24113 		movw	r3, #321
 3046 0040 BB62     		str	r3, [r7, #40]
 3047              	.L69:
 236:main.c        ****    
 237:main.c        ****     int size_LED = separation_LED/2;
 3048              		.loc 1 237 0
 3049 0042 BB6A     		ldr	r3, [r7, #40]
 3050 0044 DA0F     		lsrs	r2, r3, #31
 3051 0046 1344     		add	r3, r3, r2
 3052 0048 5B10     		asrs	r3, r3, #1
 3053 004a 7B62     		str	r3, [r7, #36]
 238:main.c        ****     
 239:main.c        ****     if (size_LED > x_max/2.5 - top_space){size_LED = x_max/2.5 - top_space;}
 3054              		.loc 1 239 0
 3055 004c 786A     		ldr	r0, [r7, #36]
 3056 004e FFF7FEFF 		bl	__aeabi_i2d
 3057 0052 0246     		mov	r2, r0
 3058 0054 0B46     		mov	r3, r1
ARM GAS  C:\Users\LilRobby\AppData\Local\Temp\cczyjVY0.s 			page 59


 3059 0056 1046     		mov	r0, r2
 3060 0058 1946     		mov	r1, r3
 3061 005a 37A3     		adr	r3, .L73
 3062 005c D3E90023 		ldrd	r2, [r3]
 3063 0060 FFF7FEFF 		bl	__aeabi_dcmpgt
 3064 0064 0346     		mov	r3, r0
 3065 0066 002B     		cmp	r3, #0
 3066 0068 01D0     		beq	.L70
 3067              		.loc 1 239 0 is_stmt 0 discriminator 1
 3068 006a 4723     		movs	r3, #71
 3069 006c 7B62     		str	r3, [r7, #36]
 3070              	.L70:
 240:main.c        ****     
 241:main.c        ****     int empty_LED = (separation_LED - size_LED)/2;
 3071              		.loc 1 241 0 is_stmt 1
 3072 006e BA6A     		ldr	r2, [r7, #40]
 3073 0070 7B6A     		ldr	r3, [r7, #36]
 3074 0072 D31A     		subs	r3, r2, r3
 3075 0074 DA0F     		lsrs	r2, r3, #31
 3076 0076 1344     		add	r3, r3, r2
 3077 0078 5B10     		asrs	r3, r3, #1
 3078 007a FB61     		str	r3, [r7, #28]
 242:main.c        ****     int x_LED = top_space + .75*separation_LED;
 3079              		.loc 1 242 0
 3080 007c B86A     		ldr	r0, [r7, #40]
 3081 007e FFF7FEFF 		bl	__aeabi_i2d
 3082 0082 0246     		mov	r2, r0
 3083 0084 0B46     		mov	r3, r1
 3084 0086 1046     		mov	r0, r2
 3085 0088 1946     		mov	r1, r3
 3086 008a 4FF00002 		mov	r2, #0
 3087 008e 2C4B     		ldr	r3, .L73+8
 3088 0090 FFF7FEFF 		bl	__aeabi_dmul
 3089 0094 0246     		mov	r2, r0
 3090 0096 0B46     		mov	r3, r1
 3091 0098 1046     		mov	r0, r2
 3092 009a 1946     		mov	r1, r3
 3093 009c 4FF00002 		mov	r2, #0
 3094 00a0 284B     		ldr	r3, .L73+12
 3095 00a2 FFF7FEFF 		bl	__aeabi_dadd
 3096 00a6 0246     		mov	r2, r0
 3097 00a8 0B46     		mov	r3, r1
 3098 00aa 1046     		mov	r0, r2
 3099 00ac 1946     		mov	r1, r3
 3100 00ae FFF7FEFF 		bl	__aeabi_d2iz
 3101 00b2 0346     		mov	r3, r0
 3102 00b4 BB61     		str	r3, [r7, #24]
 243:main.c        ****     int center_LED_x = x_LED + size_LED/2;
 3103              		.loc 1 243 0
 3104 00b6 7B6A     		ldr	r3, [r7, #36]
 3105 00b8 DA0F     		lsrs	r2, r3, #31
 3106 00ba 1344     		add	r3, r3, r2
 3107 00bc 5B10     		asrs	r3, r3, #1
 3108 00be 1A46     		mov	r2, r3
 3109 00c0 BB69     		ldr	r3, [r7, #24]
 3110 00c2 1344     		add	r3, r3, r2
 3111 00c4 7B61     		str	r3, [r7, #20]
ARM GAS  C:\Users\LilRobby\AppData\Local\Temp\cczyjVY0.s 			page 60


 244:main.c        ****     int radius_LED = (size_LED*0.75)/2;
 3112              		.loc 1 244 0
 3113 00c6 786A     		ldr	r0, [r7, #36]
 3114 00c8 FFF7FEFF 		bl	__aeabi_i2d
 3115 00cc 0246     		mov	r2, r0
 3116 00ce 0B46     		mov	r3, r1
 3117 00d0 1046     		mov	r0, r2
 3118 00d2 1946     		mov	r1, r3
 3119 00d4 4FF00002 		mov	r2, #0
 3120 00d8 194B     		ldr	r3, .L73+8
 3121 00da FFF7FEFF 		bl	__aeabi_dmul
 3122 00de 0246     		mov	r2, r0
 3123 00e0 0B46     		mov	r3, r1
 3124 00e2 1046     		mov	r0, r2
 3125 00e4 1946     		mov	r1, r3
 3126 00e6 4FF00002 		mov	r2, #0
 3127 00ea 4FF08043 		mov	r3, #1073741824
 3128 00ee FFF7FEFF 		bl	__aeabi_ddiv
 3129 00f2 0246     		mov	r2, r0
 3130 00f4 0B46     		mov	r3, r1
 3131 00f6 1046     		mov	r0, r2
 3132 00f8 1946     		mov	r1, r3
 3133 00fa FFF7FEFF 		bl	__aeabi_d2iz
 3134 00fe 0346     		mov	r3, r0
 3135 0100 3B61     		str	r3, [r7, #16]
 245:main.c        ****     int center_LED_y = empty_LED + i*separation_LED + size_LED/2;
 3136              		.loc 1 245 0
 3137 0102 7B68     		ldr	r3, [r7, #4]
 3138 0104 BA6A     		ldr	r2, [r7, #40]
 3139 0106 02FB03F2 		mul	r2, r2, r3
 3140 010a FB69     		ldr	r3, [r7, #28]
 3141 010c 1A44     		add	r2, r2, r3
 3142 010e 7B6A     		ldr	r3, [r7, #36]
 3143 0110 D90F     		lsrs	r1, r3, #31
 3144 0112 0B44     		add	r3, r3, r1
 3145 0114 5B10     		asrs	r3, r3, #1
 3146 0116 1344     		add	r3, r3, r2
 3147 0118 FB60     		str	r3, [r7, #12]
 246:main.c        ****     
 247:main.c        ****     TFTSHIELD_1_FillCircle(center_LED_x, center_LED_y, radius_LED, color);
 3148              		.loc 1 247 0
 3149 011a 7B69     		ldr	r3, [r7, #20]
 3150 011c 99B2     		uxth	r1, r3
 3151 011e FB68     		ldr	r3, [r7, #12]
 3152 0120 9AB2     		uxth	r2, r3
 3153 0122 3B69     		ldr	r3, [r7, #16]
 3154 0124 9BB2     		uxth	r3, r3
 3155 0126 08B2     		sxth	r0, r1
 3156 0128 11B2     		sxth	r1, r2
 3157 012a 1AB2     		sxth	r2, r3
 3158 012c FB8D     		ldrh	r3, [r7, #46]
 3159 012e FFF7FEFF 		bl	TFTSHIELD_1_FillCircle
 248:main.c        **** }
 3160              		.loc 1 248 0
 3161 0132 3037     		adds	r7, r7, #48
 3162              		.cfi_def_cfa_offset 8
 3163 0134 BD46     		mov	sp, r7
ARM GAS  C:\Users\LilRobby\AppData\Local\Temp\cczyjVY0.s 			page 61


 3164              		.cfi_def_cfa_register 13
 3165              		@ sp needed
 3166 0136 80BD     		pop	{r7, pc}
 3167              	.L74:
 3168              		.align	3
 3169              	.L73:
 3170 0138 00000000 		.word	0
 3171 013c 00C05140 		.word	1079099392
 3172 0140 0000E83F 		.word	1072168960
 3173 0144 00003940 		.word	1077477376
 3174              		.cfi_endproc
 3175              	.LFE60:
 3176              		.size	DrawLED, .-DrawLED
 3177              		.section	.text.DrawHEX_a,"ax",%progbits
 3178              		.align	2
 3179              		.global	DrawHEX_a
 3180              		.thumb
 3181              		.thumb_func
 3182              		.type	DrawHEX_a, %function
 3183              	DrawHEX_a:
 3184              	.LFB61:
 249:main.c        **** void DrawHEX_a(int i, uint8 state)
 250:main.c        **** {
 3185              		.loc 1 250 0
 3186              		.cfi_startproc
 3187              		@ args = 0, pretend = 0, frame = 40
 3188              		@ frame_needed = 1, uses_anonymous_args = 0
 3189 0000 2DE9F041 		push	{r4, r5, r6, r7, r8, lr}
 3190              		.cfi_def_cfa_offset 24
 3191              		.cfi_offset 4, -24
 3192              		.cfi_offset 5, -20
 3193              		.cfi_offset 6, -16
 3194              		.cfi_offset 7, -12
 3195              		.cfi_offset 8, -8
 3196              		.cfi_offset 14, -4
 3197 0004 8CB0     		sub	sp, sp, #48
 3198              		.cfi_def_cfa_offset 72
 3199 0006 02AF     		add	r7, sp, #8
 3200              		.cfi_def_cfa 7, 64
 3201 0008 7860     		str	r0, [r7, #4]
 3202 000a 0B46     		mov	r3, r1
 3203 000c FB70     		strb	r3, [r7, #3]
 251:main.c        ****     uint16 color ;
 252:main.c        ****     int separation_HEX;
 253:main.c        ****     int outputs = HEX + LEDs;
 3204              		.loc 1 253 0
 3205 000e 0523     		movs	r3, #5
 3206 0010 7B61     		str	r3, [r7, #20]
 254:main.c        ****     
 255:main.c        ****     if (outputs>0){separation_HEX = y_max/outputs;}//check for div by zero
 3207              		.loc 1 255 0
 3208 0012 7B69     		ldr	r3, [r7, #20]
 3209 0014 002B     		cmp	r3, #0
 3210 0016 06DD     		ble	.L76
 3211              		.loc 1 255 0 is_stmt 0 discriminator 1
 3212 0018 4FF4A072 		mov	r2, #320
 3213 001c 7B69     		ldr	r3, [r7, #20]
ARM GAS  C:\Users\LilRobby\AppData\Local\Temp\cczyjVY0.s 			page 62


 3214 001e 92FBF3F3 		sdiv	r3, r2, r3
 3215 0022 3B62     		str	r3, [r7, #32]
 3216 0024 02E0     		b	.L77
 3217              	.L76:
 256:main.c        ****     else      {separation_HEX = y_max + 1;}
 3218              		.loc 1 256 0 is_stmt 1
 3219 0026 40F24113 		movw	r3, #321
 3220 002a 3B62     		str	r3, [r7, #32]
 3221              	.L77:
 257:main.c        ****     
 258:main.c        ****     int width_HEX = separation_HEX/2;
 3222              		.loc 1 258 0
 3223 002c 3B6A     		ldr	r3, [r7, #32]
 3224 002e DA0F     		lsrs	r2, r3, #31
 3225 0030 1344     		add	r3, r3, r2
 3226 0032 5B10     		asrs	r3, r3, #1
 3227 0034 FB61     		str	r3, [r7, #28]
 259:main.c        ****     int length_HEX = width_HEX*2;
 3228              		.loc 1 259 0
 3229 0036 FB69     		ldr	r3, [r7, #28]
 3230 0038 5B00     		lsls	r3, r3, #1
 3231 003a BB61     		str	r3, [r7, #24]
 260:main.c        ****     if (length_HEX + top_space >x_max/2.5)
 3232              		.loc 1 260 0
 3233 003c BB69     		ldr	r3, [r7, #24]
 3234 003e 1933     		adds	r3, r3, #25
 3235 0040 1846     		mov	r0, r3
 3236 0042 FFF7FEFF 		bl	__aeabi_i2d
 3237 0046 0246     		mov	r2, r0
 3238 0048 0B46     		mov	r3, r1
 3239 004a 1046     		mov	r0, r2
 3240 004c 1946     		mov	r1, r3
 3241 004e 4FF00002 		mov	r2, #0
 3242 0052 7D4B     		ldr	r3, .L83+32
 3243 0054 FFF7FEFF 		bl	__aeabi_dcmpgt
 3244 0058 0346     		mov	r3, r0
 3245 005a 002B     		cmp	r3, #0
 3246 005c 09D0     		beq	.L78
 261:main.c        ****     {   
 262:main.c        ****         length_HEX = x_max/2.5 - top_space;
 3247              		.loc 1 262 0
 3248 005e 4723     		movs	r3, #71
 3249 0060 BB61     		str	r3, [r7, #24]
 263:main.c        ****         width_HEX = length_HEX/2;
 3250              		.loc 1 263 0
 3251 0062 BB69     		ldr	r3, [r7, #24]
 3252 0064 DA0F     		lsrs	r2, r3, #31
 3253 0066 1344     		add	r3, r3, r2
 3254 0068 5B10     		asrs	r3, r3, #1
 3255 006a FB61     		str	r3, [r7, #28]
 264:main.c        ****         separation_HEX = 2*width_HEX;
 3256              		.loc 1 264 0
 3257 006c FB69     		ldr	r3, [r7, #28]
 3258 006e 5B00     		lsls	r3, r3, #1
 3259 0070 3B62     		str	r3, [r7, #32]
 3260              	.L78:
 265:main.c        ****     }
ARM GAS  C:\Users\LilRobby\AppData\Local\Temp\cczyjVY0.s 			page 63


 266:main.c        ****     
 267:main.c        ****     int empty_HEX =y_max /(outputs+1) - width_HEX/2;
 3261              		.loc 1 267 0
 3262 0072 7B69     		ldr	r3, [r7, #20]
 3263 0074 0133     		adds	r3, r3, #1
 3264 0076 4FF4A072 		mov	r2, #320
 3265 007a 92FBF3F2 		sdiv	r2, r2, r3
 3266 007e FB69     		ldr	r3, [r7, #28]
 3267 0080 D90F     		lsrs	r1, r3, #31
 3268 0082 0B44     		add	r3, r3, r1
 3269 0084 5B10     		asrs	r3, r3, #1
 3270 0086 D31A     		subs	r3, r2, r3
 3271 0088 3B61     		str	r3, [r7, #16]
 268:main.c        ****     int x_HEX = top_space + length_HEX/2;
 3272              		.loc 1 268 0
 3273 008a BB69     		ldr	r3, [r7, #24]
 3274 008c DA0F     		lsrs	r2, r3, #31
 3275 008e 1344     		add	r3, r3, r2
 3276 0090 5B10     		asrs	r3, r3, #1
 3277 0092 1933     		adds	r3, r3, #25
 3278 0094 FB60     		str	r3, [r7, #12]
 269:main.c        ****     
 270:main.c        ****     if (state != 0){color = RED;}
 3279              		.loc 1 270 0
 3280 0096 FB78     		ldrb	r3, [r7, #3]	@ zero_extendqisi2
 3281 0098 002B     		cmp	r3, #0
 3282 009a 03D0     		beq	.L80
 3283              		.loc 1 270 0 is_stmt 0 discriminator 1
 3284 009c 4FF47843 		mov	r3, #63488
 3285 00a0 FB84     		strh	r3, [r7, #38]	@ movhi
 3286 00a2 02E0     		b	.L81
 3287              	.L80:
 271:main.c        ****     else {color = 0x0102;}
 3288              		.loc 1 271 0 is_stmt 1
 3289 00a4 4FF48173 		mov	r3, #258
 3290 00a8 FB84     		strh	r3, [r7, #38]	@ movhi
 3291              	.L81:
 272:main.c        ****     
 273:main.c        ****     TFTSHIELD_1_FillRoundRect(x_HEX + ((.20*length_HEX)/2), (i+1)*empty_HEX + i*width_HEX/2 + .45*w
 3292              		.loc 1 273 0
 3293 00aa F868     		ldr	r0, [r7, #12]
 3294 00ac FFF7FEFF 		bl	__aeabi_i2d
 3295 00b0 0446     		mov	r4, r0
 3296 00b2 0D46     		mov	r5, r1
 3297 00b4 B869     		ldr	r0, [r7, #24]
 3298 00b6 FFF7FEFF 		bl	__aeabi_i2d
 3299 00ba 0246     		mov	r2, r0
 3300 00bc 0B46     		mov	r3, r1
 3301 00be 1046     		mov	r0, r2
 3302 00c0 1946     		mov	r1, r3
 3303 00c2 59A3     		adr	r3, .L83
 3304 00c4 D3E90023 		ldrd	r2, [r3]
 3305 00c8 FFF7FEFF 		bl	__aeabi_dmul
 3306 00cc 0246     		mov	r2, r0
 3307 00ce 0B46     		mov	r3, r1
 3308 00d0 1046     		mov	r0, r2
 3309 00d2 1946     		mov	r1, r3
ARM GAS  C:\Users\LilRobby\AppData\Local\Temp\cczyjVY0.s 			page 64


 3310 00d4 4FF00002 		mov	r2, #0
 3311 00d8 4FF08043 		mov	r3, #1073741824
 3312 00dc FFF7FEFF 		bl	__aeabi_ddiv
 3313 00e0 0246     		mov	r2, r0
 3314 00e2 0B46     		mov	r3, r1
 3315 00e4 2046     		mov	r0, r4
 3316 00e6 2946     		mov	r1, r5
 3317 00e8 FFF7FEFF 		bl	__aeabi_dadd
 3318 00ec 0246     		mov	r2, r0
 3319 00ee 0B46     		mov	r3, r1
 3320 00f0 1046     		mov	r0, r2
 3321 00f2 1946     		mov	r1, r3
 3322 00f4 FFF7FEFF 		bl	__aeabi_d2iz
 3323 00f8 0346     		mov	r3, r0
 3324 00fa 1FFA83F8 		uxth	r8, r3
 3325 00fe 7B68     		ldr	r3, [r7, #4]
 3326 0100 0133     		adds	r3, r3, #1
 3327 0102 3A69     		ldr	r2, [r7, #16]
 3328 0104 02FB03F2 		mul	r2, r2, r3
 3329 0108 7B68     		ldr	r3, [r7, #4]
 3330 010a F969     		ldr	r1, [r7, #28]
 3331 010c 01FB03F3 		mul	r3, r1, r3
 3332 0110 D90F     		lsrs	r1, r3, #31
 3333 0112 0B44     		add	r3, r3, r1
 3334 0114 5B10     		asrs	r3, r3, #1
 3335 0116 1344     		add	r3, r3, r2
 3336 0118 1846     		mov	r0, r3
 3337 011a FFF7FEFF 		bl	__aeabi_i2d
 3338 011e 0446     		mov	r4, r0
 3339 0120 0D46     		mov	r5, r1
 3340 0122 F869     		ldr	r0, [r7, #28]
 3341 0124 FFF7FEFF 		bl	__aeabi_i2d
 3342 0128 0246     		mov	r2, r0
 3343 012a 0B46     		mov	r3, r1
 3344 012c 1046     		mov	r0, r2
 3345 012e 1946     		mov	r1, r3
 3346 0130 3FA3     		adr	r3, .L83+8
 3347 0132 D3E90023 		ldrd	r2, [r3]
 3348 0136 FFF7FEFF 		bl	__aeabi_dmul
 3349 013a 0246     		mov	r2, r0
 3350 013c 0B46     		mov	r3, r1
 3351 013e 1046     		mov	r0, r2
 3352 0140 1946     		mov	r1, r3
 3353 0142 4FF00002 		mov	r2, #0
 3354 0146 4FF08043 		mov	r3, #1073741824
 3355 014a FFF7FEFF 		bl	__aeabi_ddiv
 3356 014e 0246     		mov	r2, r0
 3357 0150 0B46     		mov	r3, r1
 3358 0152 2046     		mov	r0, r4
 3359 0154 2946     		mov	r1, r5
 3360 0156 FFF7FEFF 		bl	__aeabi_dadd
 3361 015a 0246     		mov	r2, r0
 3362 015c 0B46     		mov	r3, r1
 3363 015e 1046     		mov	r0, r2
 3364 0160 1946     		mov	r1, r3
 3365 0162 FFF7FEFF 		bl	__aeabi_d2iz
 3366 0166 0346     		mov	r3, r0
ARM GAS  C:\Users\LilRobby\AppData\Local\Temp\cczyjVY0.s 			page 65


 3367 0168 9EB2     		uxth	r6, r3
 3368 016a B869     		ldr	r0, [r7, #24]
 3369 016c FFF7FEFF 		bl	__aeabi_i2d
 3370 0170 0246     		mov	r2, r0
 3371 0172 0B46     		mov	r3, r1
 3372 0174 1046     		mov	r0, r2
 3373 0176 1946     		mov	r1, r3
 3374 0178 2FA3     		adr	r3, .L83+16
 3375 017a D3E90023 		ldrd	r2, [r3]
 3376 017e FFF7FEFF 		bl	__aeabi_dmul
 3377 0182 0246     		mov	r2, r0
 3378 0184 0B46     		mov	r3, r1
 3379 0186 1046     		mov	r0, r2
 3380 0188 1946     		mov	r1, r3
 3381 018a 4FF00002 		mov	r2, #0
 3382 018e 2F4B     		ldr	r3, .L83+36
 3383 0190 FFF7FEFF 		bl	__aeabi_ddiv
 3384 0194 0246     		mov	r2, r0
 3385 0196 0B46     		mov	r3, r1
 3386 0198 1046     		mov	r0, r2
 3387 019a 1946     		mov	r1, r3
 3388 019c FFF7FEFF 		bl	__aeabi_d2iz
 3389 01a0 0346     		mov	r3, r0
 3390 01a2 9DB2     		uxth	r5, r3
 3391 01a4 F869     		ldr	r0, [r7, #28]
 3392 01a6 FFF7FEFF 		bl	__aeabi_i2d
 3393 01aa 0246     		mov	r2, r0
 3394 01ac 0B46     		mov	r3, r1
 3395 01ae 1046     		mov	r0, r2
 3396 01b0 1946     		mov	r1, r3
 3397 01b2 23A3     		adr	r3, .L83+24
 3398 01b4 D3E90023 		ldrd	r2, [r3]
 3399 01b8 FFF7FEFF 		bl	__aeabi_dmul
 3400 01bc 0246     		mov	r2, r0
 3401 01be 0B46     		mov	r3, r1
 3402 01c0 1046     		mov	r0, r2
 3403 01c2 1946     		mov	r1, r3
 3404 01c4 FFF7FEFF 		bl	__aeabi_d2iz
 3405 01c8 0346     		mov	r3, r0
 3406 01ca 9CB2     		uxth	r4, r3
 3407 01cc B869     		ldr	r0, [r7, #24]
 3408 01ce FFF7FEFF 		bl	__aeabi_i2d
 3409 01d2 0246     		mov	r2, r0
 3410 01d4 0B46     		mov	r3, r1
 3411 01d6 1046     		mov	r0, r2
 3412 01d8 1946     		mov	r1, r3
 3413 01da 17A3     		adr	r3, .L83+16
 3414 01dc D3E90023 		ldrd	r2, [r3]
 3415 01e0 FFF7FEFF 		bl	__aeabi_dmul
 3416 01e4 0246     		mov	r2, r0
 3417 01e6 0B46     		mov	r3, r1
 3418 01e8 1046     		mov	r0, r2
 3419 01ea 1946     		mov	r1, r3
 3420 01ec 4FF00002 		mov	r2, #0
 3421 01f0 174B     		ldr	r3, .L83+40
 3422 01f2 FFF7FEFF 		bl	__aeabi_ddiv
 3423 01f6 0246     		mov	r2, r0
ARM GAS  C:\Users\LilRobby\AppData\Local\Temp\cczyjVY0.s 			page 66


 3424 01f8 0B46     		mov	r3, r1
 3425 01fa 1046     		mov	r0, r2
 3426 01fc 1946     		mov	r1, r3
 3427 01fe FFF7FEFF 		bl	__aeabi_d2iz
 3428 0202 0346     		mov	r3, r0
 3429 0204 9BB2     		uxth	r3, r3
 3430 0206 0FFA88F0 		sxth	r0, r8
 3431 020a 31B2     		sxth	r1, r6
 3432 020c 2AB2     		sxth	r2, r5
 3433 020e 24B2     		sxth	r4, r4
 3434 0210 1BB2     		sxth	r3, r3
 3435 0212 0093     		str	r3, [sp]
 3436 0214 FB8C     		ldrh	r3, [r7, #38]
 3437 0216 0193     		str	r3, [sp, #4]
 3438 0218 2346     		mov	r3, r4
 3439 021a FFF7FEFF 		bl	TFTSHIELD_1_FillRoundRect
 274:main.c        **** }
 3440              		.loc 1 274 0
 3441 021e 2837     		adds	r7, r7, #40
 3442              		.cfi_def_cfa_offset 24
 3443 0220 BD46     		mov	sp, r7
 3444              		.cfi_def_cfa_register 13
 3445              		@ sp needed
 3446 0222 BDE8F081 		pop	{r4, r5, r6, r7, r8, pc}
 3447              	.L84:
 3448 0226 00BF     		.align	3
 3449              	.L83:
 3450 0228 9A999999 		.word	-1717986918
 3451 022c 9999C93F 		.word	1070176665
 3452 0230 CDCCCCCC 		.word	-858993459
 3453 0234 CCCCDC3F 		.word	1071434956
 3454 0238 9A999999 		.word	-1717986918
 3455 023c 9999E93F 		.word	1072273817
 3456 0240 9A999999 		.word	-1717986918
 3457 0244 9999E13F 		.word	1071749529
 3458 0248 00005840 		.word	1079508992
 3459 024c 00002440 		.word	1076101120
 3460 0250 00004440 		.word	1078198272
 3461              		.cfi_endproc
 3462              	.LFE61:
 3463              		.size	DrawHEX_a, .-DrawHEX_a
 3464 0254 AFF30080 		.section	.text.DrawHEX_b,"ax",%progbits
 3465              		.align	2
 3466              		.global	DrawHEX_b
 3467              		.thumb
 3468              		.thumb_func
 3469              		.type	DrawHEX_b, %function
 3470              	DrawHEX_b:
 3471              	.LFB62:
 275:main.c        **** void DrawHEX_b(int i, uint8 state)
 276:main.c        **** {
 3472              		.loc 1 276 0
 3473              		.cfi_startproc
 3474              		@ args = 0, pretend = 0, frame = 40
 3475              		@ frame_needed = 1, uses_anonymous_args = 0
 3476 0000 2DE9F041 		push	{r4, r5, r6, r7, r8, lr}
 3477              		.cfi_def_cfa_offset 24
ARM GAS  C:\Users\LilRobby\AppData\Local\Temp\cczyjVY0.s 			page 67


 3478              		.cfi_offset 4, -24
 3479              		.cfi_offset 5, -20
 3480              		.cfi_offset 6, -16
 3481              		.cfi_offset 7, -12
 3482              		.cfi_offset 8, -8
 3483              		.cfi_offset 14, -4
 3484 0004 8CB0     		sub	sp, sp, #48
 3485              		.cfi_def_cfa_offset 72
 3486 0006 02AF     		add	r7, sp, #8
 3487              		.cfi_def_cfa 7, 64
 3488 0008 7860     		str	r0, [r7, #4]
 3489 000a 0B46     		mov	r3, r1
 3490 000c FB70     		strb	r3, [r7, #3]
 277:main.c        ****     uint16 color ;
 278:main.c        ****     int separation_HEX;
 279:main.c        ****     int outputs = HEX + LEDs;
 3491              		.loc 1 279 0
 3492 000e 0523     		movs	r3, #5
 3493 0010 7B61     		str	r3, [r7, #20]
 280:main.c        ****     
 281:main.c        ****     if (outputs>0){separation_HEX = y_max/outputs;}//check for div by zero
 3494              		.loc 1 281 0
 3495 0012 7B69     		ldr	r3, [r7, #20]
 3496 0014 002B     		cmp	r3, #0
 3497 0016 06DD     		ble	.L86
 3498              		.loc 1 281 0 is_stmt 0 discriminator 1
 3499 0018 4FF4A072 		mov	r2, #320
 3500 001c 7B69     		ldr	r3, [r7, #20]
 3501 001e 92FBF3F3 		sdiv	r3, r2, r3
 3502 0022 3B62     		str	r3, [r7, #32]
 3503 0024 02E0     		b	.L87
 3504              	.L86:
 282:main.c        ****     else      {separation_HEX = y_max + 1;}
 3505              		.loc 1 282 0 is_stmt 1
 3506 0026 40F24113 		movw	r3, #321
 3507 002a 3B62     		str	r3, [r7, #32]
 3508              	.L87:
 283:main.c        ****     
 284:main.c        ****     int width_HEX = separation_HEX/2;
 3509              		.loc 1 284 0
 3510 002c 3B6A     		ldr	r3, [r7, #32]
 3511 002e DA0F     		lsrs	r2, r3, #31
 3512 0030 1344     		add	r3, r3, r2
 3513 0032 5B10     		asrs	r3, r3, #1
 3514 0034 FB61     		str	r3, [r7, #28]
 285:main.c        ****     int length_HEX = width_HEX*2;
 3515              		.loc 1 285 0
 3516 0036 FB69     		ldr	r3, [r7, #28]
 3517 0038 5B00     		lsls	r3, r3, #1
 3518 003a BB61     		str	r3, [r7, #24]
 286:main.c        ****     if (length_HEX + top_space >x_max/2.5)
 3519              		.loc 1 286 0
 3520 003c BB69     		ldr	r3, [r7, #24]
 3521 003e 1933     		adds	r3, r3, #25
 3522 0040 1846     		mov	r0, r3
 3523 0042 FFF7FEFF 		bl	__aeabi_i2d
 3524 0046 0246     		mov	r2, r0
ARM GAS  C:\Users\LilRobby\AppData\Local\Temp\cczyjVY0.s 			page 68


 3525 0048 0B46     		mov	r3, r1
 3526 004a 1046     		mov	r0, r2
 3527 004c 1946     		mov	r1, r3
 3528 004e 4FF00002 		mov	r2, #0
 3529 0052 914B     		ldr	r3, .L93+32
 3530 0054 FFF7FEFF 		bl	__aeabi_dcmpgt
 3531 0058 0346     		mov	r3, r0
 3532 005a 002B     		cmp	r3, #0
 3533 005c 09D0     		beq	.L88
 287:main.c        ****     {   
 288:main.c        ****         length_HEX = x_max/2.5 - top_space;
 3534              		.loc 1 288 0
 3535 005e 4723     		movs	r3, #71
 3536 0060 BB61     		str	r3, [r7, #24]
 289:main.c        ****         width_HEX = length_HEX/2;
 3537              		.loc 1 289 0
 3538 0062 BB69     		ldr	r3, [r7, #24]
 3539 0064 DA0F     		lsrs	r2, r3, #31
 3540 0066 1344     		add	r3, r3, r2
 3541 0068 5B10     		asrs	r3, r3, #1
 3542 006a FB61     		str	r3, [r7, #28]
 290:main.c        ****         separation_HEX = 2*width_HEX;
 3543              		.loc 1 290 0
 3544 006c FB69     		ldr	r3, [r7, #28]
 3545 006e 5B00     		lsls	r3, r3, #1
 3546 0070 3B62     		str	r3, [r7, #32]
 3547              	.L88:
 291:main.c        ****     }
 292:main.c        ****     
 293:main.c        ****     int empty_HEX =y_max /(outputs+1) - width_HEX/2;
 3548              		.loc 1 293 0
 3549 0072 7B69     		ldr	r3, [r7, #20]
 3550 0074 0133     		adds	r3, r3, #1
 3551 0076 4FF4A072 		mov	r2, #320
 3552 007a 92FBF3F2 		sdiv	r2, r2, r3
 3553 007e FB69     		ldr	r3, [r7, #28]
 3554 0080 D90F     		lsrs	r1, r3, #31
 3555 0082 0B44     		add	r3, r3, r1
 3556 0084 5B10     		asrs	r3, r3, #1
 3557 0086 D31A     		subs	r3, r2, r3
 3558 0088 3B61     		str	r3, [r7, #16]
 294:main.c        ****     int x_HEX = top_space + length_HEX/2;
 3559              		.loc 1 294 0
 3560 008a BB69     		ldr	r3, [r7, #24]
 3561 008c DA0F     		lsrs	r2, r3, #31
 3562 008e 1344     		add	r3, r3, r2
 3563 0090 5B10     		asrs	r3, r3, #1
 3564 0092 1933     		adds	r3, r3, #25
 3565 0094 FB60     		str	r3, [r7, #12]
 295:main.c        ****     
 296:main.c        ****     if (state != 0){color = RED;}
 3566              		.loc 1 296 0
 3567 0096 FB78     		ldrb	r3, [r7, #3]	@ zero_extendqisi2
 3568 0098 002B     		cmp	r3, #0
 3569 009a 03D0     		beq	.L90
 3570              		.loc 1 296 0 is_stmt 0 discriminator 1
 3571 009c 4FF47843 		mov	r3, #63488
ARM GAS  C:\Users\LilRobby\AppData\Local\Temp\cczyjVY0.s 			page 69


 3572 00a0 FB84     		strh	r3, [r7, #38]	@ movhi
 3573 00a2 02E0     		b	.L91
 3574              	.L90:
 297:main.c        ****     else {color = 0x0102;}
 3575              		.loc 1 297 0 is_stmt 1
 3576 00a4 4FF48173 		mov	r3, #258
 3577 00a8 FB84     		strh	r3, [r7, #38]	@ movhi
 3578              	.L91:
 298:main.c        ****     
 299:main.c        ****     TFTSHIELD_1_FillRoundRect(x_HEX + ((.20*length_HEX)/2) + (length_HEX)/10, (i+1)*empty_HEX + i*w
 3579              		.loc 1 299 0
 3580 00aa F868     		ldr	r0, [r7, #12]
 3581 00ac FFF7FEFF 		bl	__aeabi_i2d
 3582 00b0 0446     		mov	r4, r0
 3583 00b2 0D46     		mov	r5, r1
 3584 00b4 B869     		ldr	r0, [r7, #24]
 3585 00b6 FFF7FEFF 		bl	__aeabi_i2d
 3586 00ba 0246     		mov	r2, r0
 3587 00bc 0B46     		mov	r3, r1
 3588 00be 1046     		mov	r0, r2
 3589 00c0 1946     		mov	r1, r3
 3590 00c2 6DA3     		adr	r3, .L93
 3591 00c4 D3E90023 		ldrd	r2, [r3]
 3592 00c8 FFF7FEFF 		bl	__aeabi_dmul
 3593 00cc 0246     		mov	r2, r0
 3594 00ce 0B46     		mov	r3, r1
 3595 00d0 1046     		mov	r0, r2
 3596 00d2 1946     		mov	r1, r3
 3597 00d4 4FF00002 		mov	r2, #0
 3598 00d8 4FF08043 		mov	r3, #1073741824
 3599 00dc FFF7FEFF 		bl	__aeabi_ddiv
 3600 00e0 0246     		mov	r2, r0
 3601 00e2 0B46     		mov	r3, r1
 3602 00e4 2046     		mov	r0, r4
 3603 00e6 2946     		mov	r1, r5
 3604 00e8 FFF7FEFF 		bl	__aeabi_dadd
 3605 00ec 0246     		mov	r2, r0
 3606 00ee 0B46     		mov	r3, r1
 3607 00f0 1446     		mov	r4, r2
 3608 00f2 1D46     		mov	r5, r3
 3609 00f4 BB69     		ldr	r3, [r7, #24]
 3610 00f6 694A     		ldr	r2, .L93+36
 3611 00f8 82FB0312 		smull	r1, r2, r2, r3
 3612 00fc 9210     		asrs	r2, r2, #2
 3613 00fe DB17     		asrs	r3, r3, #31
 3614 0100 D31A     		subs	r3, r2, r3
 3615 0102 1846     		mov	r0, r3
 3616 0104 FFF7FEFF 		bl	__aeabi_i2d
 3617 0108 0246     		mov	r2, r0
 3618 010a 0B46     		mov	r3, r1
 3619 010c 2046     		mov	r0, r4
 3620 010e 2946     		mov	r1, r5
 3621 0110 FFF7FEFF 		bl	__aeabi_dadd
 3622 0114 0246     		mov	r2, r0
 3623 0116 0B46     		mov	r3, r1
 3624 0118 1046     		mov	r0, r2
 3625 011a 1946     		mov	r1, r3
ARM GAS  C:\Users\LilRobby\AppData\Local\Temp\cczyjVY0.s 			page 70


 3626 011c FFF7FEFF 		bl	__aeabi_d2iz
 3627 0120 0346     		mov	r3, r0
 3628 0122 1FFA83F8 		uxth	r8, r3
 3629 0126 7B68     		ldr	r3, [r7, #4]
 3630 0128 0133     		adds	r3, r3, #1
 3631 012a 3A69     		ldr	r2, [r7, #16]
 3632 012c 02FB03F2 		mul	r2, r2, r3
 3633 0130 7B68     		ldr	r3, [r7, #4]
 3634 0132 F969     		ldr	r1, [r7, #28]
 3635 0134 01FB03F3 		mul	r3, r1, r3
 3636 0138 D90F     		lsrs	r1, r3, #31
 3637 013a 0B44     		add	r3, r3, r1
 3638 013c 5B10     		asrs	r3, r3, #1
 3639 013e 1344     		add	r3, r3, r2
 3640 0140 1846     		mov	r0, r3
 3641 0142 FFF7FEFF 		bl	__aeabi_i2d
 3642 0146 0446     		mov	r4, r0
 3643 0148 0D46     		mov	r5, r1
 3644 014a F869     		ldr	r0, [r7, #28]
 3645 014c FFF7FEFF 		bl	__aeabi_i2d
 3646 0150 0246     		mov	r2, r0
 3647 0152 0B46     		mov	r3, r1
 3648 0154 1046     		mov	r0, r2
 3649 0156 1946     		mov	r1, r3
 3650 0158 49A3     		adr	r3, .L93+8
 3651 015a D3E90023 		ldrd	r2, [r3]
 3652 015e FFF7FEFF 		bl	__aeabi_dmul
 3653 0162 0246     		mov	r2, r0
 3654 0164 0B46     		mov	r3, r1
 3655 0166 1046     		mov	r0, r2
 3656 0168 1946     		mov	r1, r3
 3657 016a 4FF00002 		mov	r2, #0
 3658 016e 4FF08043 		mov	r3, #1073741824
 3659 0172 FFF7FEFF 		bl	__aeabi_ddiv
 3660 0176 0246     		mov	r2, r0
 3661 0178 0B46     		mov	r3, r1
 3662 017a 2046     		mov	r0, r4
 3663 017c 2946     		mov	r1, r5
 3664 017e FFF7FEFF 		bl	__aeabi_dadd
 3665 0182 0246     		mov	r2, r0
 3666 0184 0B46     		mov	r3, r1
 3667 0186 1046     		mov	r0, r2
 3668 0188 1946     		mov	r1, r3
 3669 018a FFF7FEFF 		bl	__aeabi_d2iz
 3670 018e 0346     		mov	r3, r0
 3671 0190 9EB2     		uxth	r6, r3
 3672 0192 F869     		ldr	r0, [r7, #28]
 3673 0194 FFF7FEFF 		bl	__aeabi_i2d
 3674 0198 0246     		mov	r2, r0
 3675 019a 0B46     		mov	r3, r1
 3676 019c 1046     		mov	r0, r2
 3677 019e 1946     		mov	r1, r3
 3678 01a0 39A3     		adr	r3, .L93+16
 3679 01a2 D3E90023 		ldrd	r2, [r3]
 3680 01a6 FFF7FEFF 		bl	__aeabi_dmul
 3681 01aa 0246     		mov	r2, r0
 3682 01ac 0B46     		mov	r3, r1
ARM GAS  C:\Users\LilRobby\AppData\Local\Temp\cczyjVY0.s 			page 71


 3683 01ae 1446     		mov	r4, r2
 3684 01b0 1D46     		mov	r5, r3
 3685 01b2 BB69     		ldr	r3, [r7, #24]
 3686 01b4 394A     		ldr	r2, .L93+36
 3687 01b6 82FB0312 		smull	r1, r2, r2, r3
 3688 01ba 9210     		asrs	r2, r2, #2
 3689 01bc DB17     		asrs	r3, r3, #31
 3690 01be D31A     		subs	r3, r2, r3
 3691 01c0 1846     		mov	r0, r3
 3692 01c2 FFF7FEFF 		bl	__aeabi_i2d
 3693 01c6 0246     		mov	r2, r0
 3694 01c8 0B46     		mov	r3, r1
 3695 01ca 2046     		mov	r0, r4
 3696 01cc 2946     		mov	r1, r5
 3697 01ce FFF7FEFF 		bl	__aeabi_dsub
 3698 01d2 0246     		mov	r2, r0
 3699 01d4 0B46     		mov	r3, r1
 3700 01d6 1046     		mov	r0, r2
 3701 01d8 1946     		mov	r1, r3
 3702 01da FFF7FEFF 		bl	__aeabi_d2iz
 3703 01de 0346     		mov	r3, r0
 3704 01e0 9DB2     		uxth	r5, r3
 3705 01e2 B869     		ldr	r0, [r7, #24]
 3706 01e4 FFF7FEFF 		bl	__aeabi_i2d
 3707 01e8 0246     		mov	r2, r0
 3708 01ea 0B46     		mov	r3, r1
 3709 01ec 1046     		mov	r0, r2
 3710 01ee 1946     		mov	r1, r3
 3711 01f0 27A3     		adr	r3, .L93+24
 3712 01f2 D3E90023 		ldrd	r2, [r3]
 3713 01f6 FFF7FEFF 		bl	__aeabi_dmul
 3714 01fa 0246     		mov	r2, r0
 3715 01fc 0B46     		mov	r3, r1
 3716 01fe 1046     		mov	r0, r2
 3717 0200 1946     		mov	r1, r3
 3718 0202 4FF00002 		mov	r2, #0
 3719 0206 264B     		ldr	r3, .L93+40
 3720 0208 FFF7FEFF 		bl	__aeabi_ddiv
 3721 020c 0246     		mov	r2, r0
 3722 020e 0B46     		mov	r3, r1
 3723 0210 1046     		mov	r0, r2
 3724 0212 1946     		mov	r1, r3
 3725 0214 FFF7FEFF 		bl	__aeabi_d2iz
 3726 0218 0346     		mov	r3, r0
 3727 021a 9CB2     		uxth	r4, r3
 3728 021c B869     		ldr	r0, [r7, #24]
 3729 021e FFF7FEFF 		bl	__aeabi_i2d
 3730 0222 0246     		mov	r2, r0
 3731 0224 0B46     		mov	r3, r1
 3732 0226 1046     		mov	r0, r2
 3733 0228 1946     		mov	r1, r3
 3734 022a 19A3     		adr	r3, .L93+24
 3735 022c D3E90023 		ldrd	r2, [r3]
 3736 0230 FFF7FEFF 		bl	__aeabi_dmul
 3737 0234 0246     		mov	r2, r0
 3738 0236 0B46     		mov	r3, r1
 3739 0238 1046     		mov	r0, r2
ARM GAS  C:\Users\LilRobby\AppData\Local\Temp\cczyjVY0.s 			page 72


 3740 023a 1946     		mov	r1, r3
 3741 023c 4FF00002 		mov	r2, #0
 3742 0240 184B     		ldr	r3, .L93+44
 3743 0242 FFF7FEFF 		bl	__aeabi_ddiv
 3744 0246 0246     		mov	r2, r0
 3745 0248 0B46     		mov	r3, r1
 3746 024a 1046     		mov	r0, r2
 3747 024c 1946     		mov	r1, r3
 3748 024e FFF7FEFF 		bl	__aeabi_d2iz
 3749 0252 0346     		mov	r3, r0
 3750 0254 9BB2     		uxth	r3, r3
 3751 0256 0FFA88F0 		sxth	r0, r8
 3752 025a 31B2     		sxth	r1, r6
 3753 025c 2AB2     		sxth	r2, r5
 3754 025e 24B2     		sxth	r4, r4
 3755 0260 1BB2     		sxth	r3, r3
 3756 0262 0093     		str	r3, [sp]
 3757 0264 FB8C     		ldrh	r3, [r7, #38]
 3758 0266 0193     		str	r3, [sp, #4]
 3759 0268 2346     		mov	r3, r4
 3760 026a FFF7FEFF 		bl	TFTSHIELD_1_FillRoundRect
 300:main.c        **** }
 3761              		.loc 1 300 0
 3762 026e 2837     		adds	r7, r7, #40
 3763              		.cfi_def_cfa_offset 24
 3764 0270 BD46     		mov	sp, r7
 3765              		.cfi_def_cfa_register 13
 3766              		@ sp needed
 3767 0272 BDE8F081 		pop	{r4, r5, r6, r7, r8, pc}
 3768              	.L94:
 3769 0276 00BF     		.align	3
 3770              	.L93:
 3771 0278 9A999999 		.word	-1717986918
 3772 027c 9999C93F 		.word	1070176665
 3773 0280 66666666 		.word	1717986918
 3774 0284 6666D63F 		.word	1071015526
 3775 0288 CDCCCCCC 		.word	-858993459
 3776 028c CCCCE43F 		.word	1071959244
 3777 0290 9A999999 		.word	-1717986918
 3778 0294 9999E93F 		.word	1072273817
 3779 0298 00005840 		.word	1079508992
 3780 029c 67666666 		.word	1717986919
 3781 02a0 00002440 		.word	1076101120
 3782 02a4 00004440 		.word	1078198272
 3783              		.cfi_endproc
 3784              	.LFE62:
 3785              		.size	DrawHEX_b, .-DrawHEX_b
 3786              		.section	.text.DrawHEX_c,"ax",%progbits
 3787              		.align	2
 3788              		.global	DrawHEX_c
 3789              		.thumb
 3790              		.thumb_func
 3791              		.type	DrawHEX_c, %function
 3792              	DrawHEX_c:
 3793              	.LFB63:
 301:main.c        **** void DrawHEX_c(int i, uint8 state)
 302:main.c        **** {
ARM GAS  C:\Users\LilRobby\AppData\Local\Temp\cczyjVY0.s 			page 73


 3794              		.loc 1 302 0
 3795              		.cfi_startproc
 3796              		@ args = 0, pretend = 0, frame = 40
 3797              		@ frame_needed = 1, uses_anonymous_args = 0
 3798 0000 2DE9F041 		push	{r4, r5, r6, r7, r8, lr}
 3799              		.cfi_def_cfa_offset 24
 3800              		.cfi_offset 4, -24
 3801              		.cfi_offset 5, -20
 3802              		.cfi_offset 6, -16
 3803              		.cfi_offset 7, -12
 3804              		.cfi_offset 8, -8
 3805              		.cfi_offset 14, -4
 3806 0004 8CB0     		sub	sp, sp, #48
 3807              		.cfi_def_cfa_offset 72
 3808 0006 02AF     		add	r7, sp, #8
 3809              		.cfi_def_cfa 7, 64
 3810 0008 7860     		str	r0, [r7, #4]
 3811 000a 0B46     		mov	r3, r1
 3812 000c FB70     		strb	r3, [r7, #3]
 303:main.c        ****     uint16 color ;
 304:main.c        ****     int separation_HEX;
 305:main.c        ****     int outputs = HEX + LEDs;
 3813              		.loc 1 305 0
 3814 000e 0523     		movs	r3, #5
 3815 0010 7B61     		str	r3, [r7, #20]
 306:main.c        ****     
 307:main.c        ****     if (outputs>0){separation_HEX = y_max/outputs;}//check for div by zero
 3816              		.loc 1 307 0
 3817 0012 7B69     		ldr	r3, [r7, #20]
 3818 0014 002B     		cmp	r3, #0
 3819 0016 06DD     		ble	.L96
 3820              		.loc 1 307 0 is_stmt 0 discriminator 1
 3821 0018 4FF4A072 		mov	r2, #320
 3822 001c 7B69     		ldr	r3, [r7, #20]
 3823 001e 92FBF3F3 		sdiv	r3, r2, r3
 3824 0022 3B62     		str	r3, [r7, #32]
 3825 0024 02E0     		b	.L97
 3826              	.L96:
 308:main.c        ****     else      {separation_HEX = y_max + 1;}
 3827              		.loc 1 308 0 is_stmt 1
 3828 0026 40F24113 		movw	r3, #321
 3829 002a 3B62     		str	r3, [r7, #32]
 3830              	.L97:
 309:main.c        ****     
 310:main.c        ****     int width_HEX = separation_HEX/2;
 3831              		.loc 1 310 0
 3832 002c 3B6A     		ldr	r3, [r7, #32]
 3833 002e DA0F     		lsrs	r2, r3, #31
 3834 0030 1344     		add	r3, r3, r2
 3835 0032 5B10     		asrs	r3, r3, #1
 3836 0034 FB61     		str	r3, [r7, #28]
 311:main.c        ****     int length_HEX = width_HEX*2;
 3837              		.loc 1 311 0
 3838 0036 FB69     		ldr	r3, [r7, #28]
 3839 0038 5B00     		lsls	r3, r3, #1
 3840 003a BB61     		str	r3, [r7, #24]
 312:main.c        ****     if (length_HEX + top_space >x_max/2.5)
ARM GAS  C:\Users\LilRobby\AppData\Local\Temp\cczyjVY0.s 			page 74


 3841              		.loc 1 312 0
 3842 003c BB69     		ldr	r3, [r7, #24]
 3843 003e 1933     		adds	r3, r3, #25
 3844 0040 1846     		mov	r0, r3
 3845 0042 FFF7FEFF 		bl	__aeabi_i2d
 3846 0046 0246     		mov	r2, r0
 3847 0048 0B46     		mov	r3, r1
 3848 004a 1046     		mov	r0, r2
 3849 004c 1946     		mov	r1, r3
 3850 004e 4FF00002 		mov	r2, #0
 3851 0052 9F4B     		ldr	r3, .L103+40
 3852 0054 FFF7FEFF 		bl	__aeabi_dcmpgt
 3853 0058 0346     		mov	r3, r0
 3854 005a 002B     		cmp	r3, #0
 3855 005c 09D0     		beq	.L98
 313:main.c        ****     {   
 314:main.c        ****         length_HEX = x_max/2.5 - top_space;
 3856              		.loc 1 314 0
 3857 005e 4723     		movs	r3, #71
 3858 0060 BB61     		str	r3, [r7, #24]
 315:main.c        ****         width_HEX = length_HEX/2;
 3859              		.loc 1 315 0
 3860 0062 BB69     		ldr	r3, [r7, #24]
 3861 0064 DA0F     		lsrs	r2, r3, #31
 3862 0066 1344     		add	r3, r3, r2
 3863 0068 5B10     		asrs	r3, r3, #1
 3864 006a FB61     		str	r3, [r7, #28]
 316:main.c        ****         separation_HEX = 2*width_HEX;
 3865              		.loc 1 316 0
 3866 006c FB69     		ldr	r3, [r7, #28]
 3867 006e 5B00     		lsls	r3, r3, #1
 3868 0070 3B62     		str	r3, [r7, #32]
 3869              	.L98:
 317:main.c        ****     }
 318:main.c        ****     
 319:main.c        ****     int empty_HEX =y_max /(outputs+1) - width_HEX/2;
 3870              		.loc 1 319 0
 3871 0072 7B69     		ldr	r3, [r7, #20]
 3872 0074 0133     		adds	r3, r3, #1
 3873 0076 4FF4A072 		mov	r2, #320
 3874 007a 92FBF3F2 		sdiv	r2, r2, r3
 3875 007e FB69     		ldr	r3, [r7, #28]
 3876 0080 D90F     		lsrs	r1, r3, #31
 3877 0082 0B44     		add	r3, r3, r1
 3878 0084 5B10     		asrs	r3, r3, #1
 3879 0086 D31A     		subs	r3, r2, r3
 3880 0088 3B61     		str	r3, [r7, #16]
 320:main.c        ****     int x_HEX = top_space + length_HEX/2;
 3881              		.loc 1 320 0
 3882 008a BB69     		ldr	r3, [r7, #24]
 3883 008c DA0F     		lsrs	r2, r3, #31
 3884 008e 1344     		add	r3, r3, r2
 3885 0090 5B10     		asrs	r3, r3, #1
 3886 0092 1933     		adds	r3, r3, #25
 3887 0094 FB60     		str	r3, [r7, #12]
 321:main.c        ****     
 322:main.c        ****     if (state != 0){color = RED;}
ARM GAS  C:\Users\LilRobby\AppData\Local\Temp\cczyjVY0.s 			page 75


 3888              		.loc 1 322 0
 3889 0096 FB78     		ldrb	r3, [r7, #3]	@ zero_extendqisi2
 3890 0098 002B     		cmp	r3, #0
 3891 009a 03D0     		beq	.L100
 3892              		.loc 1 322 0 is_stmt 0 discriminator 1
 3893 009c 4FF47843 		mov	r3, #63488
 3894 00a0 FB84     		strh	r3, [r7, #38]	@ movhi
 3895 00a2 02E0     		b	.L101
 3896              	.L100:
 323:main.c        ****     else {color = 0x0102;}
 3897              		.loc 1 323 0 is_stmt 1
 3898 00a4 4FF48173 		mov	r3, #258
 3899 00a8 FB84     		strh	r3, [r7, #38]	@ movhi
 3900              	.L101:
 324:main.c        ****     
 325:main.c        ****     TFTSHIELD_1_FillRoundRect(x_HEX + ((.20*length_HEX)/2) + (length_HEX)/10 + .70*width_HEX, (i+1)
 3901              		.loc 1 325 0
 3902 00aa F868     		ldr	r0, [r7, #12]
 3903 00ac FFF7FEFF 		bl	__aeabi_i2d
 3904 00b0 0446     		mov	r4, r0
 3905 00b2 0D46     		mov	r5, r1
 3906 00b4 B869     		ldr	r0, [r7, #24]
 3907 00b6 FFF7FEFF 		bl	__aeabi_i2d
 3908 00ba 0246     		mov	r2, r0
 3909 00bc 0B46     		mov	r3, r1
 3910 00be 1046     		mov	r0, r2
 3911 00c0 1946     		mov	r1, r3
 3912 00c2 79A3     		adr	r3, .L103
 3913 00c4 D3E90023 		ldrd	r2, [r3]
 3914 00c8 FFF7FEFF 		bl	__aeabi_dmul
 3915 00cc 0246     		mov	r2, r0
 3916 00ce 0B46     		mov	r3, r1
 3917 00d0 1046     		mov	r0, r2
 3918 00d2 1946     		mov	r1, r3
 3919 00d4 4FF00002 		mov	r2, #0
 3920 00d8 4FF08043 		mov	r3, #1073741824
 3921 00dc FFF7FEFF 		bl	__aeabi_ddiv
 3922 00e0 0246     		mov	r2, r0
 3923 00e2 0B46     		mov	r3, r1
 3924 00e4 2046     		mov	r0, r4
 3925 00e6 2946     		mov	r1, r5
 3926 00e8 FFF7FEFF 		bl	__aeabi_dadd
 3927 00ec 0246     		mov	r2, r0
 3928 00ee 0B46     		mov	r3, r1
 3929 00f0 1446     		mov	r4, r2
 3930 00f2 1D46     		mov	r5, r3
 3931 00f4 BB69     		ldr	r3, [r7, #24]
 3932 00f6 774A     		ldr	r2, .L103+44
 3933 00f8 82FB0312 		smull	r1, r2, r2, r3
 3934 00fc 9210     		asrs	r2, r2, #2
 3935 00fe DB17     		asrs	r3, r3, #31
 3936 0100 D31A     		subs	r3, r2, r3
 3937 0102 1846     		mov	r0, r3
 3938 0104 FFF7FEFF 		bl	__aeabi_i2d
 3939 0108 0246     		mov	r2, r0
 3940 010a 0B46     		mov	r3, r1
 3941 010c 2046     		mov	r0, r4
ARM GAS  C:\Users\LilRobby\AppData\Local\Temp\cczyjVY0.s 			page 76


 3942 010e 2946     		mov	r1, r5
 3943 0110 FFF7FEFF 		bl	__aeabi_dadd
 3944 0114 0246     		mov	r2, r0
 3945 0116 0B46     		mov	r3, r1
 3946 0118 1446     		mov	r4, r2
 3947 011a 1D46     		mov	r5, r3
 3948 011c F869     		ldr	r0, [r7, #28]
 3949 011e FFF7FEFF 		bl	__aeabi_i2d
 3950 0122 0246     		mov	r2, r0
 3951 0124 0B46     		mov	r3, r1
 3952 0126 1046     		mov	r0, r2
 3953 0128 1946     		mov	r1, r3
 3954 012a 61A3     		adr	r3, .L103+8
 3955 012c D3E90023 		ldrd	r2, [r3]
 3956 0130 FFF7FEFF 		bl	__aeabi_dmul
 3957 0134 0246     		mov	r2, r0
 3958 0136 0B46     		mov	r3, r1
 3959 0138 2046     		mov	r0, r4
 3960 013a 2946     		mov	r1, r5
 3961 013c FFF7FEFF 		bl	__aeabi_dadd
 3962 0140 0246     		mov	r2, r0
 3963 0142 0B46     		mov	r3, r1
 3964 0144 1046     		mov	r0, r2
 3965 0146 1946     		mov	r1, r3
 3966 0148 FFF7FEFF 		bl	__aeabi_d2iz
 3967 014c 0346     		mov	r3, r0
 3968 014e 1FFA83F8 		uxth	r8, r3
 3969 0152 7B68     		ldr	r3, [r7, #4]
 3970 0154 0133     		adds	r3, r3, #1
 3971 0156 3A69     		ldr	r2, [r7, #16]
 3972 0158 02FB03F2 		mul	r2, r2, r3
 3973 015c 7B68     		ldr	r3, [r7, #4]
 3974 015e F969     		ldr	r1, [r7, #28]
 3975 0160 01FB03F3 		mul	r3, r1, r3
 3976 0164 D90F     		lsrs	r1, r3, #31
 3977 0166 0B44     		add	r3, r3, r1
 3978 0168 5B10     		asrs	r3, r3, #1
 3979 016a 1344     		add	r3, r3, r2
 3980 016c 1846     		mov	r0, r3
 3981 016e FFF7FEFF 		bl	__aeabi_i2d
 3982 0172 0446     		mov	r4, r0
 3983 0174 0D46     		mov	r5, r1
 3984 0176 F869     		ldr	r0, [r7, #28]
 3985 0178 FFF7FEFF 		bl	__aeabi_i2d
 3986 017c 0246     		mov	r2, r0
 3987 017e 0B46     		mov	r3, r1
 3988 0180 1046     		mov	r0, r2
 3989 0182 1946     		mov	r1, r3
 3990 0184 4CA3     		adr	r3, .L103+16
 3991 0186 D3E90023 		ldrd	r2, [r3]
 3992 018a FFF7FEFF 		bl	__aeabi_dmul
 3993 018e 0246     		mov	r2, r0
 3994 0190 0B46     		mov	r3, r1
 3995 0192 1046     		mov	r0, r2
 3996 0194 1946     		mov	r1, r3
 3997 0196 4FF00002 		mov	r2, #0
 3998 019a 4FF08043 		mov	r3, #1073741824
ARM GAS  C:\Users\LilRobby\AppData\Local\Temp\cczyjVY0.s 			page 77


 3999 019e FFF7FEFF 		bl	__aeabi_ddiv
 4000 01a2 0246     		mov	r2, r0
 4001 01a4 0B46     		mov	r3, r1
 4002 01a6 2046     		mov	r0, r4
 4003 01a8 2946     		mov	r1, r5
 4004 01aa FFF7FEFF 		bl	__aeabi_dadd
 4005 01ae 0246     		mov	r2, r0
 4006 01b0 0B46     		mov	r3, r1
 4007 01b2 1046     		mov	r0, r2
 4008 01b4 1946     		mov	r1, r3
 4009 01b6 FFF7FEFF 		bl	__aeabi_d2iz
 4010 01ba 0346     		mov	r3, r0
 4011 01bc 9EB2     		uxth	r6, r3
 4012 01be F869     		ldr	r0, [r7, #28]
 4013 01c0 FFF7FEFF 		bl	__aeabi_i2d
 4014 01c4 0246     		mov	r2, r0
 4015 01c6 0B46     		mov	r3, r1
 4016 01c8 1046     		mov	r0, r2
 4017 01ca 1946     		mov	r1, r3
 4018 01cc 3CA3     		adr	r3, .L103+24
 4019 01ce D3E90023 		ldrd	r2, [r3]
 4020 01d2 FFF7FEFF 		bl	__aeabi_dmul
 4021 01d6 0246     		mov	r2, r0
 4022 01d8 0B46     		mov	r3, r1
 4023 01da 1446     		mov	r4, r2
 4024 01dc 1D46     		mov	r5, r3
 4025 01de BB69     		ldr	r3, [r7, #24]
 4026 01e0 3C4A     		ldr	r2, .L103+44
 4027 01e2 82FB0312 		smull	r1, r2, r2, r3
 4028 01e6 9210     		asrs	r2, r2, #2
 4029 01e8 DB17     		asrs	r3, r3, #31
 4030 01ea D31A     		subs	r3, r2, r3
 4031 01ec 1846     		mov	r0, r3
 4032 01ee FFF7FEFF 		bl	__aeabi_i2d
 4033 01f2 0246     		mov	r2, r0
 4034 01f4 0B46     		mov	r3, r1
 4035 01f6 2046     		mov	r0, r4
 4036 01f8 2946     		mov	r1, r5
 4037 01fa FFF7FEFF 		bl	__aeabi_dsub
 4038 01fe 0246     		mov	r2, r0
 4039 0200 0B46     		mov	r3, r1
 4040 0202 1046     		mov	r0, r2
 4041 0204 1946     		mov	r1, r3
 4042 0206 FFF7FEFF 		bl	__aeabi_d2iz
 4043 020a 0346     		mov	r3, r0
 4044 020c 9DB2     		uxth	r5, r3
 4045 020e B869     		ldr	r0, [r7, #24]
 4046 0210 FFF7FEFF 		bl	__aeabi_i2d
 4047 0214 0246     		mov	r2, r0
 4048 0216 0B46     		mov	r3, r1
 4049 0218 1046     		mov	r0, r2
 4050 021a 1946     		mov	r1, r3
 4051 021c 2AA3     		adr	r3, .L103+32
 4052 021e D3E90023 		ldrd	r2, [r3]
 4053 0222 FFF7FEFF 		bl	__aeabi_dmul
 4054 0226 0246     		mov	r2, r0
 4055 0228 0B46     		mov	r3, r1
ARM GAS  C:\Users\LilRobby\AppData\Local\Temp\cczyjVY0.s 			page 78


 4056 022a 1046     		mov	r0, r2
 4057 022c 1946     		mov	r1, r3
 4058 022e 4FF00002 		mov	r2, #0
 4059 0232 294B     		ldr	r3, .L103+48
 4060 0234 FFF7FEFF 		bl	__aeabi_ddiv
 4061 0238 0246     		mov	r2, r0
 4062 023a 0B46     		mov	r3, r1
 4063 023c 1046     		mov	r0, r2
 4064 023e 1946     		mov	r1, r3
 4065 0240 FFF7FEFF 		bl	__aeabi_d2iz
 4066 0244 0346     		mov	r3, r0
 4067 0246 9CB2     		uxth	r4, r3
 4068 0248 B869     		ldr	r0, [r7, #24]
 4069 024a FFF7FEFF 		bl	__aeabi_i2d
 4070 024e 0246     		mov	r2, r0
 4071 0250 0B46     		mov	r3, r1
 4072 0252 1046     		mov	r0, r2
 4073 0254 1946     		mov	r1, r3
 4074 0256 1CA3     		adr	r3, .L103+32
 4075 0258 D3E90023 		ldrd	r2, [r3]
 4076 025c FFF7FEFF 		bl	__aeabi_dmul
 4077 0260 0246     		mov	r2, r0
 4078 0262 0B46     		mov	r3, r1
 4079 0264 1046     		mov	r0, r2
 4080 0266 1946     		mov	r1, r3
 4081 0268 4FF00002 		mov	r2, #0
 4082 026c 1B4B     		ldr	r3, .L103+52
 4083 026e FFF7FEFF 		bl	__aeabi_ddiv
 4084 0272 0246     		mov	r2, r0
 4085 0274 0B46     		mov	r3, r1
 4086 0276 1046     		mov	r0, r2
 4087 0278 1946     		mov	r1, r3
 4088 027a FFF7FEFF 		bl	__aeabi_d2iz
 4089 027e 0346     		mov	r3, r0
 4090 0280 9BB2     		uxth	r3, r3
 4091 0282 0FFA88F0 		sxth	r0, r8
 4092 0286 31B2     		sxth	r1, r6
 4093 0288 2AB2     		sxth	r2, r5
 4094 028a 24B2     		sxth	r4, r4
 4095 028c 1BB2     		sxth	r3, r3
 4096 028e 0093     		str	r3, [sp]
 4097 0290 FB8C     		ldrh	r3, [r7, #38]
 4098 0292 0193     		str	r3, [sp, #4]
 4099 0294 2346     		mov	r3, r4
 4100 0296 FFF7FEFF 		bl	TFTSHIELD_1_FillRoundRect
 326:main.c        **** 
 327:main.c        **** }
 4101              		.loc 1 327 0
 4102 029a 2837     		adds	r7, r7, #40
 4103              		.cfi_def_cfa_offset 24
 4104 029c BD46     		mov	sp, r7
 4105              		.cfi_def_cfa_register 13
 4106              		@ sp needed
 4107 029e BDE8F081 		pop	{r4, r5, r6, r7, r8, pc}
 4108              	.L104:
 4109 02a2 00BFAFF3 		.align	3
 4109      0080
ARM GAS  C:\Users\LilRobby\AppData\Local\Temp\cczyjVY0.s 			page 79


 4110              	.L103:
 4111 02a8 9A999999 		.word	-1717986918
 4112 02ac 9999C93F 		.word	1070176665
 4113 02b0 66666666 		.word	1717986918
 4114 02b4 6666E63F 		.word	1072064102
 4115 02b8 66666666 		.word	1717986918
 4116 02bc 6666D63F 		.word	1071015526
 4117 02c0 CDCCCCCC 		.word	-858993459
 4118 02c4 CCCCE43F 		.word	1071959244
 4119 02c8 9A999999 		.word	-1717986918
 4120 02cc 9999E93F 		.word	1072273817
 4121 02d0 00005840 		.word	1079508992
 4122 02d4 67666666 		.word	1717986919
 4123 02d8 00002440 		.word	1076101120
 4124 02dc 00004440 		.word	1078198272
 4125              		.cfi_endproc
 4126              	.LFE63:
 4127              		.size	DrawHEX_c, .-DrawHEX_c
 4128              		.section	.text.DrawHEX_d,"ax",%progbits
 4129              		.align	2
 4130              		.global	DrawHEX_d
 4131              		.thumb
 4132              		.thumb_func
 4133              		.type	DrawHEX_d, %function
 4134              	DrawHEX_d:
 4135              	.LFB64:
 328:main.c        **** void DrawHEX_d(int i, uint8 state)
 329:main.c        **** {
 4136              		.loc 1 329 0
 4137              		.cfi_startproc
 4138              		@ args = 0, pretend = 0, frame = 40
 4139              		@ frame_needed = 1, uses_anonymous_args = 0
 4140 0000 2DE9F041 		push	{r4, r5, r6, r7, r8, lr}
 4141              		.cfi_def_cfa_offset 24
 4142              		.cfi_offset 4, -24
 4143              		.cfi_offset 5, -20
 4144              		.cfi_offset 6, -16
 4145              		.cfi_offset 7, -12
 4146              		.cfi_offset 8, -8
 4147              		.cfi_offset 14, -4
 4148 0004 8CB0     		sub	sp, sp, #48
 4149              		.cfi_def_cfa_offset 72
 4150 0006 02AF     		add	r7, sp, #8
 4151              		.cfi_def_cfa 7, 64
 4152 0008 7860     		str	r0, [r7, #4]
 4153 000a 0B46     		mov	r3, r1
 4154 000c FB70     		strb	r3, [r7, #3]
 330:main.c        ****     uint16 color ;
 331:main.c        ****     int separation_HEX;
 332:main.c        ****     int outputs = HEX + LEDs;
 4155              		.loc 1 332 0
 4156 000e 0523     		movs	r3, #5
 4157 0010 7B61     		str	r3, [r7, #20]
 333:main.c        ****     
 334:main.c        ****     if (outputs>0){separation_HEX = y_max/outputs;}//check for div by zero
 4158              		.loc 1 334 0
 4159 0012 7B69     		ldr	r3, [r7, #20]
ARM GAS  C:\Users\LilRobby\AppData\Local\Temp\cczyjVY0.s 			page 80


 4160 0014 002B     		cmp	r3, #0
 4161 0016 06DD     		ble	.L106
 4162              		.loc 1 334 0 is_stmt 0 discriminator 1
 4163 0018 4FF4A072 		mov	r2, #320
 4164 001c 7B69     		ldr	r3, [r7, #20]
 4165 001e 92FBF3F3 		sdiv	r3, r2, r3
 4166 0022 3B62     		str	r3, [r7, #32]
 4167 0024 02E0     		b	.L107
 4168              	.L106:
 335:main.c        ****     else      {separation_HEX = y_max + 1;}
 4169              		.loc 1 335 0 is_stmt 1
 4170 0026 40F24113 		movw	r3, #321
 4171 002a 3B62     		str	r3, [r7, #32]
 4172              	.L107:
 336:main.c        ****     
 337:main.c        ****     int width_HEX = separation_HEX/2;
 4173              		.loc 1 337 0
 4174 002c 3B6A     		ldr	r3, [r7, #32]
 4175 002e DA0F     		lsrs	r2, r3, #31
 4176 0030 1344     		add	r3, r3, r2
 4177 0032 5B10     		asrs	r3, r3, #1
 4178 0034 FB61     		str	r3, [r7, #28]
 338:main.c        ****     int length_HEX = width_HEX*2;
 4179              		.loc 1 338 0
 4180 0036 FB69     		ldr	r3, [r7, #28]
 4181 0038 5B00     		lsls	r3, r3, #1
 4182 003a BB61     		str	r3, [r7, #24]
 339:main.c        ****     if (length_HEX + top_space >x_max/2.5)
 4183              		.loc 1 339 0
 4184 003c BB69     		ldr	r3, [r7, #24]
 4185 003e 1933     		adds	r3, r3, #25
 4186 0040 1846     		mov	r0, r3
 4187 0042 FFF7FEFF 		bl	__aeabi_i2d
 4188 0046 0246     		mov	r2, r0
 4189 0048 0B46     		mov	r3, r1
 4190 004a 1046     		mov	r0, r2
 4191 004c 1946     		mov	r1, r3
 4192 004e 4FF00002 		mov	r2, #0
 4193 0052 8B4B     		ldr	r3, .L113+40
 4194 0054 FFF7FEFF 		bl	__aeabi_dcmpgt
 4195 0058 0346     		mov	r3, r0
 4196 005a 002B     		cmp	r3, #0
 4197 005c 09D0     		beq	.L108
 340:main.c        ****     {   
 341:main.c        ****         length_HEX = x_max/2.5 - top_space;
 4198              		.loc 1 341 0
 4199 005e 4723     		movs	r3, #71
 4200 0060 BB61     		str	r3, [r7, #24]
 342:main.c        ****         width_HEX = length_HEX/2;
 4201              		.loc 1 342 0
 4202 0062 BB69     		ldr	r3, [r7, #24]
 4203 0064 DA0F     		lsrs	r2, r3, #31
 4204 0066 1344     		add	r3, r3, r2
 4205 0068 5B10     		asrs	r3, r3, #1
 4206 006a FB61     		str	r3, [r7, #28]
 343:main.c        ****         separation_HEX = 2*width_HEX;
 4207              		.loc 1 343 0
ARM GAS  C:\Users\LilRobby\AppData\Local\Temp\cczyjVY0.s 			page 81


 4208 006c FB69     		ldr	r3, [r7, #28]
 4209 006e 5B00     		lsls	r3, r3, #1
 4210 0070 3B62     		str	r3, [r7, #32]
 4211              	.L108:
 344:main.c        ****     }
 345:main.c        ****     
 346:main.c        ****     int empty_HEX =y_max /(outputs+1) - width_HEX/2;
 4212              		.loc 1 346 0
 4213 0072 7B69     		ldr	r3, [r7, #20]
 4214 0074 0133     		adds	r3, r3, #1
 4215 0076 4FF4A072 		mov	r2, #320
 4216 007a 92FBF3F2 		sdiv	r2, r2, r3
 4217 007e FB69     		ldr	r3, [r7, #28]
 4218 0080 D90F     		lsrs	r1, r3, #31
 4219 0082 0B44     		add	r3, r3, r1
 4220 0084 5B10     		asrs	r3, r3, #1
 4221 0086 D31A     		subs	r3, r2, r3
 4222 0088 3B61     		str	r3, [r7, #16]
 347:main.c        ****     int x_HEX = top_space + length_HEX/2;
 4223              		.loc 1 347 0
 4224 008a BB69     		ldr	r3, [r7, #24]
 4225 008c DA0F     		lsrs	r2, r3, #31
 4226 008e 1344     		add	r3, r3, r2
 4227 0090 5B10     		asrs	r3, r3, #1
 4228 0092 1933     		adds	r3, r3, #25
 4229 0094 FB60     		str	r3, [r7, #12]
 348:main.c        ****     
 349:main.c        ****     if (state != 0){color = RED;}
 4230              		.loc 1 349 0
 4231 0096 FB78     		ldrb	r3, [r7, #3]	@ zero_extendqisi2
 4232 0098 002B     		cmp	r3, #0
 4233 009a 03D0     		beq	.L110
 4234              		.loc 1 349 0 is_stmt 0 discriminator 1
 4235 009c 4FF47843 		mov	r3, #63488
 4236 00a0 FB84     		strh	r3, [r7, #38]	@ movhi
 4237 00a2 02E0     		b	.L111
 4238              	.L110:
 350:main.c        ****     else {color = 0x0102;}
 4239              		.loc 1 350 0 is_stmt 1
 4240 00a4 4FF48173 		mov	r3, #258
 4241 00a8 FB84     		strh	r3, [r7, #38]	@ movhi
 4242              	.L111:
 351:main.c        ****     
 352:main.c        ****     TFTSHIELD_1_FillRoundRect(x_HEX + length_HEX*.9 - ((.24*length_HEX)/2), (i+1)*empty_HEX + i*wid
 4243              		.loc 1 352 0
 4244 00aa F868     		ldr	r0, [r7, #12]
 4245 00ac FFF7FEFF 		bl	__aeabi_i2d
 4246 00b0 0446     		mov	r4, r0
 4247 00b2 0D46     		mov	r5, r1
 4248 00b4 B869     		ldr	r0, [r7, #24]
 4249 00b6 FFF7FEFF 		bl	__aeabi_i2d
 4250 00ba 0246     		mov	r2, r0
 4251 00bc 0B46     		mov	r3, r1
 4252 00be 1046     		mov	r0, r2
 4253 00c0 1946     		mov	r1, r3
 4254 00c2 65A3     		adr	r3, .L113
 4255 00c4 D3E90023 		ldrd	r2, [r3]
ARM GAS  C:\Users\LilRobby\AppData\Local\Temp\cczyjVY0.s 			page 82


 4256 00c8 FFF7FEFF 		bl	__aeabi_dmul
 4257 00cc 0246     		mov	r2, r0
 4258 00ce 0B46     		mov	r3, r1
 4259 00d0 2046     		mov	r0, r4
 4260 00d2 2946     		mov	r1, r5
 4261 00d4 FFF7FEFF 		bl	__aeabi_dadd
 4262 00d8 0246     		mov	r2, r0
 4263 00da 0B46     		mov	r3, r1
 4264 00dc 1446     		mov	r4, r2
 4265 00de 1D46     		mov	r5, r3
 4266 00e0 B869     		ldr	r0, [r7, #24]
 4267 00e2 FFF7FEFF 		bl	__aeabi_i2d
 4268 00e6 0246     		mov	r2, r0
 4269 00e8 0B46     		mov	r3, r1
 4270 00ea 1046     		mov	r0, r2
 4271 00ec 1946     		mov	r1, r3
 4272 00ee 5CA3     		adr	r3, .L113+8
 4273 00f0 D3E90023 		ldrd	r2, [r3]
 4274 00f4 FFF7FEFF 		bl	__aeabi_dmul
 4275 00f8 0246     		mov	r2, r0
 4276 00fa 0B46     		mov	r3, r1
 4277 00fc 1046     		mov	r0, r2
 4278 00fe 1946     		mov	r1, r3
 4279 0100 4FF00002 		mov	r2, #0
 4280 0104 4FF08043 		mov	r3, #1073741824
 4281 0108 FFF7FEFF 		bl	__aeabi_ddiv
 4282 010c 0246     		mov	r2, r0
 4283 010e 0B46     		mov	r3, r1
 4284 0110 2046     		mov	r0, r4
 4285 0112 2946     		mov	r1, r5
 4286 0114 FFF7FEFF 		bl	__aeabi_dsub
 4287 0118 0246     		mov	r2, r0
 4288 011a 0B46     		mov	r3, r1
 4289 011c 1046     		mov	r0, r2
 4290 011e 1946     		mov	r1, r3
 4291 0120 FFF7FEFF 		bl	__aeabi_d2iz
 4292 0124 0346     		mov	r3, r0
 4293 0126 1FFA83F8 		uxth	r8, r3
 4294 012a 7B68     		ldr	r3, [r7, #4]
 4295 012c 0133     		adds	r3, r3, #1
 4296 012e 3A69     		ldr	r2, [r7, #16]
 4297 0130 02FB03F2 		mul	r2, r2, r3
 4298 0134 7B68     		ldr	r3, [r7, #4]
 4299 0136 F969     		ldr	r1, [r7, #28]
 4300 0138 01FB03F3 		mul	r3, r1, r3
 4301 013c D90F     		lsrs	r1, r3, #31
 4302 013e 0B44     		add	r3, r3, r1
 4303 0140 5B10     		asrs	r3, r3, #1
 4304 0142 1344     		add	r3, r3, r2
 4305 0144 1846     		mov	r0, r3
 4306 0146 FFF7FEFF 		bl	__aeabi_i2d
 4307 014a 0446     		mov	r4, r0
 4308 014c 0D46     		mov	r5, r1
 4309 014e F869     		ldr	r0, [r7, #28]
 4310 0150 FFF7FEFF 		bl	__aeabi_i2d
 4311 0154 0246     		mov	r2, r0
 4312 0156 0B46     		mov	r3, r1
ARM GAS  C:\Users\LilRobby\AppData\Local\Temp\cczyjVY0.s 			page 83


 4313 0158 1046     		mov	r0, r2
 4314 015a 1946     		mov	r1, r3
 4315 015c 42A3     		adr	r3, .L113+16
 4316 015e D3E90023 		ldrd	r2, [r3]
 4317 0162 FFF7FEFF 		bl	__aeabi_dmul
 4318 0166 0246     		mov	r2, r0
 4319 0168 0B46     		mov	r3, r1
 4320 016a 1046     		mov	r0, r2
 4321 016c 1946     		mov	r1, r3
 4322 016e 4FF00002 		mov	r2, #0
 4323 0172 4FF08043 		mov	r3, #1073741824
 4324 0176 FFF7FEFF 		bl	__aeabi_ddiv
 4325 017a 0246     		mov	r2, r0
 4326 017c 0B46     		mov	r3, r1
 4327 017e 2046     		mov	r0, r4
 4328 0180 2946     		mov	r1, r5
 4329 0182 FFF7FEFF 		bl	__aeabi_dadd
 4330 0186 0246     		mov	r2, r0
 4331 0188 0B46     		mov	r3, r1
 4332 018a 1046     		mov	r0, r2
 4333 018c 1946     		mov	r1, r3
 4334 018e FFF7FEFF 		bl	__aeabi_d2iz
 4335 0192 0346     		mov	r3, r0
 4336 0194 9EB2     		uxth	r6, r3
 4337 0196 B869     		ldr	r0, [r7, #24]
 4338 0198 FFF7FEFF 		bl	__aeabi_i2d
 4339 019c 0246     		mov	r2, r0
 4340 019e 0B46     		mov	r3, r1
 4341 01a0 1046     		mov	r0, r2
 4342 01a2 1946     		mov	r1, r3
 4343 01a4 32A3     		adr	r3, .L113+24
 4344 01a6 D3E90023 		ldrd	r2, [r3]
 4345 01aa FFF7FEFF 		bl	__aeabi_dmul
 4346 01ae 0246     		mov	r2, r0
 4347 01b0 0B46     		mov	r3, r1
 4348 01b2 1046     		mov	r0, r2
 4349 01b4 1946     		mov	r1, r3
 4350 01b6 4FF00002 		mov	r2, #0
 4351 01ba 324B     		ldr	r3, .L113+44
 4352 01bc FFF7FEFF 		bl	__aeabi_ddiv
 4353 01c0 0246     		mov	r2, r0
 4354 01c2 0B46     		mov	r3, r1
 4355 01c4 1046     		mov	r0, r2
 4356 01c6 1946     		mov	r1, r3
 4357 01c8 FFF7FEFF 		bl	__aeabi_d2iz
 4358 01cc 0346     		mov	r3, r0
 4359 01ce 9DB2     		uxth	r5, r3
 4360 01d0 F869     		ldr	r0, [r7, #28]
 4361 01d2 FFF7FEFF 		bl	__aeabi_i2d
 4362 01d6 0246     		mov	r2, r0
 4363 01d8 0B46     		mov	r3, r1
 4364 01da 1046     		mov	r0, r2
 4365 01dc 1946     		mov	r1, r3
 4366 01de 26A3     		adr	r3, .L113+32
 4367 01e0 D3E90023 		ldrd	r2, [r3]
 4368 01e4 FFF7FEFF 		bl	__aeabi_dmul
 4369 01e8 0246     		mov	r2, r0
ARM GAS  C:\Users\LilRobby\AppData\Local\Temp\cczyjVY0.s 			page 84


 4370 01ea 0B46     		mov	r3, r1
 4371 01ec 1046     		mov	r0, r2
 4372 01ee 1946     		mov	r1, r3
 4373 01f0 FFF7FEFF 		bl	__aeabi_d2iz
 4374 01f4 0346     		mov	r3, r0
 4375 01f6 9CB2     		uxth	r4, r3
 4376 01f8 B869     		ldr	r0, [r7, #24]
 4377 01fa FFF7FEFF 		bl	__aeabi_i2d
 4378 01fe 0246     		mov	r2, r0
 4379 0200 0B46     		mov	r3, r1
 4380 0202 1046     		mov	r0, r2
 4381 0204 1946     		mov	r1, r3
 4382 0206 1AA3     		adr	r3, .L113+24
 4383 0208 D3E90023 		ldrd	r2, [r3]
 4384 020c FFF7FEFF 		bl	__aeabi_dmul
 4385 0210 0246     		mov	r2, r0
 4386 0212 0B46     		mov	r3, r1
 4387 0214 1046     		mov	r0, r2
 4388 0216 1946     		mov	r1, r3
 4389 0218 4FF00002 		mov	r2, #0
 4390 021c 1A4B     		ldr	r3, .L113+48
 4391 021e FFF7FEFF 		bl	__aeabi_ddiv
 4392 0222 0246     		mov	r2, r0
 4393 0224 0B46     		mov	r3, r1
 4394 0226 1046     		mov	r0, r2
 4395 0228 1946     		mov	r1, r3
 4396 022a FFF7FEFF 		bl	__aeabi_d2iz
 4397 022e 0346     		mov	r3, r0
 4398 0230 9BB2     		uxth	r3, r3
 4399 0232 0FFA88F0 		sxth	r0, r8
 4400 0236 31B2     		sxth	r1, r6
 4401 0238 2AB2     		sxth	r2, r5
 4402 023a 24B2     		sxth	r4, r4
 4403 023c 1BB2     		sxth	r3, r3
 4404 023e 0093     		str	r3, [sp]
 4405 0240 FB8C     		ldrh	r3, [r7, #38]
 4406 0242 0193     		str	r3, [sp, #4]
 4407 0244 2346     		mov	r3, r4
 4408 0246 FFF7FEFF 		bl	TFTSHIELD_1_FillRoundRect
 353:main.c        ****     
 354:main.c        **** }
 4409              		.loc 1 354 0
 4410 024a 2837     		adds	r7, r7, #40
 4411              		.cfi_def_cfa_offset 24
 4412 024c BD46     		mov	sp, r7
 4413              		.cfi_def_cfa_register 13
 4414              		@ sp needed
 4415 024e BDE8F081 		pop	{r4, r5, r6, r7, r8, pc}
 4416              	.L114:
 4417 0252 00BFAFF3 		.align	3
 4417      0080
 4418              	.L113:
 4419 0258 CDCCCCCC 		.word	-858993459
 4420 025c CCCCEC3F 		.word	1072483532
 4421 0260 B81E85EB 		.word	-343597384
 4422 0264 51B8CE3F 		.word	1070512209
 4423 0268 CDCCCCCC 		.word	-858993459
ARM GAS  C:\Users\LilRobby\AppData\Local\Temp\cczyjVY0.s 			page 85


 4424 026c CCCCDC3F 		.word	1071434956
 4425 0270 9A999999 		.word	-1717986918
 4426 0274 9999E93F 		.word	1072273817
 4427 0278 9A999999 		.word	-1717986918
 4428 027c 9999E13F 		.word	1071749529
 4429 0280 00005840 		.word	1079508992
 4430 0284 00002440 		.word	1076101120
 4431 0288 00004440 		.word	1078198272
 4432              		.cfi_endproc
 4433              	.LFE64:
 4434              		.size	DrawHEX_d, .-DrawHEX_d
 4435 028c AFF30080 		.section	.text.DrawHEX_e,"ax",%progbits
 4436              		.align	2
 4437              		.global	DrawHEX_e
 4438              		.thumb
 4439              		.thumb_func
 4440              		.type	DrawHEX_e, %function
 4441              	DrawHEX_e:
 4442              	.LFB65:
 355:main.c        **** void DrawHEX_e(int i, uint8 state)
 356:main.c        **** {
 4443              		.loc 1 356 0
 4444              		.cfi_startproc
 4445              		@ args = 0, pretend = 0, frame = 40
 4446              		@ frame_needed = 1, uses_anonymous_args = 0
 4447 0000 2DE9F041 		push	{r4, r5, r6, r7, r8, lr}
 4448              		.cfi_def_cfa_offset 24
 4449              		.cfi_offset 4, -24
 4450              		.cfi_offset 5, -20
 4451              		.cfi_offset 6, -16
 4452              		.cfi_offset 7, -12
 4453              		.cfi_offset 8, -8
 4454              		.cfi_offset 14, -4
 4455 0004 8CB0     		sub	sp, sp, #48
 4456              		.cfi_def_cfa_offset 72
 4457 0006 02AF     		add	r7, sp, #8
 4458              		.cfi_def_cfa 7, 64
 4459 0008 7860     		str	r0, [r7, #4]
 4460 000a 0B46     		mov	r3, r1
 4461 000c FB70     		strb	r3, [r7, #3]
 357:main.c        ****     
 358:main.c        ****     uint16 color ;
 359:main.c        ****     int separation_HEX;
 360:main.c        ****     int outputs = HEX + LEDs;
 4462              		.loc 1 360 0
 4463 000e 0523     		movs	r3, #5
 4464 0010 7B61     		str	r3, [r7, #20]
 361:main.c        ****     
 362:main.c        ****     if (outputs>0){separation_HEX = y_max/outputs;}//check for div by zero
 4465              		.loc 1 362 0
 4466 0012 7B69     		ldr	r3, [r7, #20]
 4467 0014 002B     		cmp	r3, #0
 4468 0016 06DD     		ble	.L116
 4469              		.loc 1 362 0 is_stmt 0 discriminator 1
 4470 0018 4FF4A072 		mov	r2, #320
 4471 001c 7B69     		ldr	r3, [r7, #20]
 4472 001e 92FBF3F3 		sdiv	r3, r2, r3
ARM GAS  C:\Users\LilRobby\AppData\Local\Temp\cczyjVY0.s 			page 86


 4473 0022 3B62     		str	r3, [r7, #32]
 4474 0024 02E0     		b	.L117
 4475              	.L116:
 363:main.c        ****     else      {separation_HEX = y_max + 1;}
 4476              		.loc 1 363 0 is_stmt 1
 4477 0026 40F24113 		movw	r3, #321
 4478 002a 3B62     		str	r3, [r7, #32]
 4479              	.L117:
 364:main.c        ****     
 365:main.c        ****     int width_HEX = separation_HEX/2;
 4480              		.loc 1 365 0
 4481 002c 3B6A     		ldr	r3, [r7, #32]
 4482 002e DA0F     		lsrs	r2, r3, #31
 4483 0030 1344     		add	r3, r3, r2
 4484 0032 5B10     		asrs	r3, r3, #1
 4485 0034 FB61     		str	r3, [r7, #28]
 366:main.c        ****     int length_HEX = width_HEX*2;
 4486              		.loc 1 366 0
 4487 0036 FB69     		ldr	r3, [r7, #28]
 4488 0038 5B00     		lsls	r3, r3, #1
 4489 003a BB61     		str	r3, [r7, #24]
 367:main.c        ****     if (length_HEX + top_space > x_max/2.5)
 4490              		.loc 1 367 0
 4491 003c BB69     		ldr	r3, [r7, #24]
 4492 003e 1933     		adds	r3, r3, #25
 4493 0040 1846     		mov	r0, r3
 4494 0042 FFF7FEFF 		bl	__aeabi_i2d
 4495 0046 0246     		mov	r2, r0
 4496 0048 0B46     		mov	r3, r1
 4497 004a 1046     		mov	r0, r2
 4498 004c 1946     		mov	r1, r3
 4499 004e 4FF00002 		mov	r2, #0
 4500 0052 B94B     		ldr	r3, .L123+40
 4501 0054 FFF7FEFF 		bl	__aeabi_dcmpgt
 4502 0058 0346     		mov	r3, r0
 4503 005a 002B     		cmp	r3, #0
 4504 005c 09D0     		beq	.L118
 368:main.c        ****     {   
 369:main.c        ****         length_HEX = x_max/2.5 - top_space;
 4505              		.loc 1 369 0
 4506 005e 4723     		movs	r3, #71
 4507 0060 BB61     		str	r3, [r7, #24]
 370:main.c        ****         width_HEX = length_HEX/2;
 4508              		.loc 1 370 0
 4509 0062 BB69     		ldr	r3, [r7, #24]
 4510 0064 DA0F     		lsrs	r2, r3, #31
 4511 0066 1344     		add	r3, r3, r2
 4512 0068 5B10     		asrs	r3, r3, #1
 4513 006a FB61     		str	r3, [r7, #28]
 371:main.c        ****         separation_HEX = 2*width_HEX;
 4514              		.loc 1 371 0
 4515 006c FB69     		ldr	r3, [r7, #28]
 4516 006e 5B00     		lsls	r3, r3, #1
 4517 0070 3B62     		str	r3, [r7, #32]
 4518              	.L118:
 372:main.c        ****     }
 373:main.c        ****     
ARM GAS  C:\Users\LilRobby\AppData\Local\Temp\cczyjVY0.s 			page 87


 374:main.c        ****     int empty_HEX = y_max/(outputs+1) - width_HEX/2;
 4519              		.loc 1 374 0
 4520 0072 7B69     		ldr	r3, [r7, #20]
 4521 0074 0133     		adds	r3, r3, #1
 4522 0076 4FF4A072 		mov	r2, #320
 4523 007a 92FBF3F2 		sdiv	r2, r2, r3
 4524 007e FB69     		ldr	r3, [r7, #28]
 4525 0080 D90F     		lsrs	r1, r3, #31
 4526 0082 0B44     		add	r3, r3, r1
 4527 0084 5B10     		asrs	r3, r3, #1
 4528 0086 D31A     		subs	r3, r2, r3
 4529 0088 3B61     		str	r3, [r7, #16]
 375:main.c        ****     int x_HEX = top_space + length_HEX/2;
 4530              		.loc 1 375 0
 4531 008a BB69     		ldr	r3, [r7, #24]
 4532 008c DA0F     		lsrs	r2, r3, #31
 4533 008e 1344     		add	r3, r3, r2
 4534 0090 5B10     		asrs	r3, r3, #1
 4535 0092 1933     		adds	r3, r3, #25
 4536 0094 FB60     		str	r3, [r7, #12]
 376:main.c        ****     
 377:main.c        ****     if (state != 0){color = RED;}
 4537              		.loc 1 377 0
 4538 0096 FB78     		ldrb	r3, [r7, #3]	@ zero_extendqisi2
 4539 0098 002B     		cmp	r3, #0
 4540 009a 03D0     		beq	.L120
 4541              		.loc 1 377 0 is_stmt 0 discriminator 1
 4542 009c 4FF47843 		mov	r3, #63488
 4543 00a0 FB84     		strh	r3, [r7, #38]	@ movhi
 4544 00a2 02E0     		b	.L121
 4545              	.L120:
 378:main.c        ****     else {color = 0x0102;}
 4546              		.loc 1 378 0 is_stmt 1
 4547 00a4 4FF48173 		mov	r3, #258
 4548 00a8 FB84     		strh	r3, [r7, #38]	@ movhi
 4549              	.L121:
 379:main.c        ****     
 380:main.c        ****     TFTSHIELD_1_FillRoundRect(x_HEX + ((.20*length_HEX)/2) + (length_HEX)/10 + .70*width_HEX, (i+1)
 4550              		.loc 1 380 0
 4551 00aa F868     		ldr	r0, [r7, #12]
 4552 00ac FFF7FEFF 		bl	__aeabi_i2d
 4553 00b0 0446     		mov	r4, r0
 4554 00b2 0D46     		mov	r5, r1
 4555 00b4 B869     		ldr	r0, [r7, #24]
 4556 00b6 FFF7FEFF 		bl	__aeabi_i2d
 4557 00ba 0246     		mov	r2, r0
 4558 00bc 0B46     		mov	r3, r1
 4559 00be 1046     		mov	r0, r2
 4560 00c0 1946     		mov	r1, r3
 4561 00c2 93A3     		adr	r3, .L123
 4562 00c4 D3E90023 		ldrd	r2, [r3]
 4563 00c8 FFF7FEFF 		bl	__aeabi_dmul
 4564 00cc 0246     		mov	r2, r0
 4565 00ce 0B46     		mov	r3, r1
 4566 00d0 1046     		mov	r0, r2
 4567 00d2 1946     		mov	r1, r3
 4568 00d4 4FF00002 		mov	r2, #0
ARM GAS  C:\Users\LilRobby\AppData\Local\Temp\cczyjVY0.s 			page 88


 4569 00d8 4FF08043 		mov	r3, #1073741824
 4570 00dc FFF7FEFF 		bl	__aeabi_ddiv
 4571 00e0 0246     		mov	r2, r0
 4572 00e2 0B46     		mov	r3, r1
 4573 00e4 2046     		mov	r0, r4
 4574 00e6 2946     		mov	r1, r5
 4575 00e8 FFF7FEFF 		bl	__aeabi_dadd
 4576 00ec 0246     		mov	r2, r0
 4577 00ee 0B46     		mov	r3, r1
 4578 00f0 1446     		mov	r4, r2
 4579 00f2 1D46     		mov	r5, r3
 4580 00f4 BB69     		ldr	r3, [r7, #24]
 4581 00f6 914A     		ldr	r2, .L123+44
 4582 00f8 82FB0312 		smull	r1, r2, r2, r3
 4583 00fc 9210     		asrs	r2, r2, #2
 4584 00fe DB17     		asrs	r3, r3, #31
 4585 0100 D31A     		subs	r3, r2, r3
 4586 0102 1846     		mov	r0, r3
 4587 0104 FFF7FEFF 		bl	__aeabi_i2d
 4588 0108 0246     		mov	r2, r0
 4589 010a 0B46     		mov	r3, r1
 4590 010c 2046     		mov	r0, r4
 4591 010e 2946     		mov	r1, r5
 4592 0110 FFF7FEFF 		bl	__aeabi_dadd
 4593 0114 0246     		mov	r2, r0
 4594 0116 0B46     		mov	r3, r1
 4595 0118 1446     		mov	r4, r2
 4596 011a 1D46     		mov	r5, r3
 4597 011c F869     		ldr	r0, [r7, #28]
 4598 011e FFF7FEFF 		bl	__aeabi_i2d
 4599 0122 0246     		mov	r2, r0
 4600 0124 0B46     		mov	r3, r1
 4601 0126 1046     		mov	r0, r2
 4602 0128 1946     		mov	r1, r3
 4603 012a 7BA3     		adr	r3, .L123+8
 4604 012c D3E90023 		ldrd	r2, [r3]
 4605 0130 FFF7FEFF 		bl	__aeabi_dmul
 4606 0134 0246     		mov	r2, r0
 4607 0136 0B46     		mov	r3, r1
 4608 0138 2046     		mov	r0, r4
 4609 013a 2946     		mov	r1, r5
 4610 013c FFF7FEFF 		bl	__aeabi_dadd
 4611 0140 0246     		mov	r2, r0
 4612 0142 0B46     		mov	r3, r1
 4613 0144 1046     		mov	r0, r2
 4614 0146 1946     		mov	r1, r3
 4615 0148 FFF7FEFF 		bl	__aeabi_d2iz
 4616 014c 0346     		mov	r3, r0
 4617 014e 1FFA83F8 		uxth	r8, r3
 4618 0152 7B68     		ldr	r3, [r7, #4]
 4619 0154 0133     		adds	r3, r3, #1
 4620 0156 3A69     		ldr	r2, [r7, #16]
 4621 0158 02FB03F2 		mul	r2, r2, r3
 4622 015c 7B68     		ldr	r3, [r7, #4]
 4623 015e F969     		ldr	r1, [r7, #28]
 4624 0160 01FB03F3 		mul	r3, r1, r3
 4625 0164 D90F     		lsrs	r1, r3, #31
ARM GAS  C:\Users\LilRobby\AppData\Local\Temp\cczyjVY0.s 			page 89


 4626 0166 0B44     		add	r3, r3, r1
 4627 0168 5B10     		asrs	r3, r3, #1
 4628 016a 1344     		add	r3, r3, r2
 4629 016c 1846     		mov	r0, r3
 4630 016e FFF7FEFF 		bl	__aeabi_i2d
 4631 0172 0446     		mov	r4, r0
 4632 0174 0D46     		mov	r5, r1
 4633 0176 F869     		ldr	r0, [r7, #28]
 4634 0178 FFF7FEFF 		bl	__aeabi_i2d
 4635 017c 0246     		mov	r2, r0
 4636 017e 0B46     		mov	r3, r1
 4637 0180 1046     		mov	r0, r2
 4638 0182 1946     		mov	r1, r3
 4639 0184 66A3     		adr	r3, .L123+16
 4640 0186 D3E90023 		ldrd	r2, [r3]
 4641 018a FFF7FEFF 		bl	__aeabi_dmul
 4642 018e 0246     		mov	r2, r0
 4643 0190 0B46     		mov	r3, r1
 4644 0192 1046     		mov	r0, r2
 4645 0194 1946     		mov	r1, r3
 4646 0196 4FF00002 		mov	r2, #0
 4647 019a 4FF08043 		mov	r3, #1073741824
 4648 019e FFF7FEFF 		bl	__aeabi_ddiv
 4649 01a2 0246     		mov	r2, r0
 4650 01a4 0B46     		mov	r3, r1
 4651 01a6 2046     		mov	r0, r4
 4652 01a8 2946     		mov	r1, r5
 4653 01aa FFF7FEFF 		bl	__aeabi_dadd
 4654 01ae 0246     		mov	r2, r0
 4655 01b0 0B46     		mov	r3, r1
 4656 01b2 1446     		mov	r4, r2
 4657 01b4 1D46     		mov	r5, r3
 4658 01b6 F869     		ldr	r0, [r7, #28]
 4659 01b8 FFF7FEFF 		bl	__aeabi_i2d
 4660 01bc 0246     		mov	r2, r0
 4661 01be 0B46     		mov	r3, r1
 4662 01c0 1046     		mov	r0, r2
 4663 01c2 1946     		mov	r1, r3
 4664 01c4 58A3     		adr	r3, .L123+24
 4665 01c6 D3E90023 		ldrd	r2, [r3]
 4666 01ca FFF7FEFF 		bl	__aeabi_dmul
 4667 01ce 0246     		mov	r2, r0
 4668 01d0 0B46     		mov	r3, r1
 4669 01d2 2046     		mov	r0, r4
 4670 01d4 2946     		mov	r1, r5
 4671 01d6 FFF7FEFF 		bl	__aeabi_dadd
 4672 01da 0246     		mov	r2, r0
 4673 01dc 0B46     		mov	r3, r1
 4674 01de 1446     		mov	r4, r2
 4675 01e0 1D46     		mov	r5, r3
 4676 01e2 B869     		ldr	r0, [r7, #24]
 4677 01e4 FFF7FEFF 		bl	__aeabi_i2d
 4678 01e8 0246     		mov	r2, r0
 4679 01ea 0B46     		mov	r3, r1
 4680 01ec 1046     		mov	r0, r2
 4681 01ee 1946     		mov	r1, r3
 4682 01f0 4FA3     		adr	r3, .L123+32
ARM GAS  C:\Users\LilRobby\AppData\Local\Temp\cczyjVY0.s 			page 90


 4683 01f2 D3E90023 		ldrd	r2, [r3]
 4684 01f6 FFF7FEFF 		bl	__aeabi_dmul
 4685 01fa 0246     		mov	r2, r0
 4686 01fc 0B46     		mov	r3, r1
 4687 01fe 1046     		mov	r0, r2
 4688 0200 1946     		mov	r1, r3
 4689 0202 4FF00002 		mov	r2, #0
 4690 0206 4E4B     		ldr	r3, .L123+48
 4691 0208 FFF7FEFF 		bl	__aeabi_ddiv
 4692 020c 0246     		mov	r2, r0
 4693 020e 0B46     		mov	r3, r1
 4694 0210 2046     		mov	r0, r4
 4695 0212 2946     		mov	r1, r5
 4696 0214 FFF7FEFF 		bl	__aeabi_dsub
 4697 0218 0246     		mov	r2, r0
 4698 021a 0B46     		mov	r3, r1
 4699 021c 1046     		mov	r0, r2
 4700 021e 1946     		mov	r1, r3
 4701 0220 FFF7FEFF 		bl	__aeabi_d2iz
 4702 0224 0346     		mov	r3, r0
 4703 0226 9EB2     		uxth	r6, r3
 4704 0228 F869     		ldr	r0, [r7, #28]
 4705 022a FFF7FEFF 		bl	__aeabi_i2d
 4706 022e 0246     		mov	r2, r0
 4707 0230 0B46     		mov	r3, r1
 4708 0232 1046     		mov	r0, r2
 4709 0234 1946     		mov	r1, r3
 4710 0236 3CA3     		adr	r3, .L123+24
 4711 0238 D3E90023 		ldrd	r2, [r3]
 4712 023c FFF7FEFF 		bl	__aeabi_dmul
 4713 0240 0246     		mov	r2, r0
 4714 0242 0B46     		mov	r3, r1
 4715 0244 1446     		mov	r4, r2
 4716 0246 1D46     		mov	r5, r3
 4717 0248 BB69     		ldr	r3, [r7, #24]
 4718 024a 3C4A     		ldr	r2, .L123+44
 4719 024c 82FB0312 		smull	r1, r2, r2, r3
 4720 0250 9210     		asrs	r2, r2, #2
 4721 0252 DB17     		asrs	r3, r3, #31
 4722 0254 D31A     		subs	r3, r2, r3
 4723 0256 1846     		mov	r0, r3
 4724 0258 FFF7FEFF 		bl	__aeabi_i2d
 4725 025c 0246     		mov	r2, r0
 4726 025e 0B46     		mov	r3, r1
 4727 0260 2046     		mov	r0, r4
 4728 0262 2946     		mov	r1, r5
 4729 0264 FFF7FEFF 		bl	__aeabi_dsub
 4730 0268 0246     		mov	r2, r0
 4731 026a 0B46     		mov	r3, r1
 4732 026c 1046     		mov	r0, r2
 4733 026e 1946     		mov	r1, r3
 4734 0270 FFF7FEFF 		bl	__aeabi_d2iz
 4735 0274 0346     		mov	r3, r0
 4736 0276 9DB2     		uxth	r5, r3
 4737 0278 B869     		ldr	r0, [r7, #24]
 4738 027a FFF7FEFF 		bl	__aeabi_i2d
 4739 027e 0246     		mov	r2, r0
ARM GAS  C:\Users\LilRobby\AppData\Local\Temp\cczyjVY0.s 			page 91


 4740 0280 0B46     		mov	r3, r1
 4741 0282 1046     		mov	r0, r2
 4742 0284 1946     		mov	r1, r3
 4743 0286 2AA3     		adr	r3, .L123+32
 4744 0288 D3E90023 		ldrd	r2, [r3]
 4745 028c FFF7FEFF 		bl	__aeabi_dmul
 4746 0290 0246     		mov	r2, r0
 4747 0292 0B46     		mov	r3, r1
 4748 0294 1046     		mov	r0, r2
 4749 0296 1946     		mov	r1, r3
 4750 0298 4FF00002 		mov	r2, #0
 4751 029c 284B     		ldr	r3, .L123+48
 4752 029e FFF7FEFF 		bl	__aeabi_ddiv
 4753 02a2 0246     		mov	r2, r0
 4754 02a4 0B46     		mov	r3, r1
 4755 02a6 1046     		mov	r0, r2
 4756 02a8 1946     		mov	r1, r3
 4757 02aa FFF7FEFF 		bl	__aeabi_d2iz
 4758 02ae 0346     		mov	r3, r0
 4759 02b0 9CB2     		uxth	r4, r3
 4760 02b2 B869     		ldr	r0, [r7, #24]
 4761 02b4 FFF7FEFF 		bl	__aeabi_i2d
 4762 02b8 0246     		mov	r2, r0
 4763 02ba 0B46     		mov	r3, r1
 4764 02bc 1046     		mov	r0, r2
 4765 02be 1946     		mov	r1, r3
 4766 02c0 1BA3     		adr	r3, .L123+32
 4767 02c2 D3E90023 		ldrd	r2, [r3]
 4768 02c6 FFF7FEFF 		bl	__aeabi_dmul
 4769 02ca 0246     		mov	r2, r0
 4770 02cc 0B46     		mov	r3, r1
 4771 02ce 1046     		mov	r0, r2
 4772 02d0 1946     		mov	r1, r3
 4773 02d2 4FF00002 		mov	r2, #0
 4774 02d6 1B4B     		ldr	r3, .L123+52
 4775 02d8 FFF7FEFF 		bl	__aeabi_ddiv
 4776 02dc 0246     		mov	r2, r0
 4777 02de 0B46     		mov	r3, r1
 4778 02e0 1046     		mov	r0, r2
 4779 02e2 1946     		mov	r1, r3
 4780 02e4 FFF7FEFF 		bl	__aeabi_d2iz
 4781 02e8 0346     		mov	r3, r0
 4782 02ea 9BB2     		uxth	r3, r3
 4783 02ec 0FFA88F0 		sxth	r0, r8
 4784 02f0 31B2     		sxth	r1, r6
 4785 02f2 2AB2     		sxth	r2, r5
 4786 02f4 24B2     		sxth	r4, r4
 4787 02f6 1BB2     		sxth	r3, r3
 4788 02f8 0093     		str	r3, [sp]
 4789 02fa FB8C     		ldrh	r3, [r7, #38]
 4790 02fc 0193     		str	r3, [sp, #4]
 4791 02fe 2346     		mov	r3, r4
 4792 0300 FFF7FEFF 		bl	TFTSHIELD_1_FillRoundRect
 381:main.c        **** }
 4793              		.loc 1 381 0
 4794 0304 2837     		adds	r7, r7, #40
 4795              		.cfi_def_cfa_offset 24
ARM GAS  C:\Users\LilRobby\AppData\Local\Temp\cczyjVY0.s 			page 92


 4796 0306 BD46     		mov	sp, r7
 4797              		.cfi_def_cfa_register 13
 4798              		@ sp needed
 4799 0308 BDE8F081 		pop	{r4, r5, r6, r7, r8, pc}
 4800              	.L124:
 4801 030c AFF30080 		.align	3
 4802              	.L123:
 4803 0310 9A999999 		.word	-1717986918
 4804 0314 9999C93F 		.word	1070176665
 4805 0318 66666666 		.word	1717986918
 4806 031c 6666E63F 		.word	1072064102
 4807 0320 66666666 		.word	1717986918
 4808 0324 6666D63F 		.word	1071015526
 4809 0328 CDCCCCCC 		.word	-858993459
 4810 032c CCCCE43F 		.word	1071959244
 4811 0330 9A999999 		.word	-1717986918
 4812 0334 9999E93F 		.word	1072273817
 4813 0338 00005840 		.word	1079508992
 4814 033c 67666666 		.word	1717986919
 4815 0340 00002440 		.word	1076101120
 4816 0344 00004440 		.word	1078198272
 4817              		.cfi_endproc
 4818              	.LFE65:
 4819              		.size	DrawHEX_e, .-DrawHEX_e
 4820              		.section	.text.DrawHEX_f,"ax",%progbits
 4821              		.align	2
 4822              		.global	DrawHEX_f
 4823              		.thumb
 4824              		.thumb_func
 4825              		.type	DrawHEX_f, %function
 4826              	DrawHEX_f:
 4827              	.LFB66:
 382:main.c        **** void DrawHEX_f(int i, uint8 state)
 383:main.c        **** {
 4828              		.loc 1 383 0
 4829              		.cfi_startproc
 4830              		@ args = 0, pretend = 0, frame = 40
 4831              		@ frame_needed = 1, uses_anonymous_args = 0
 4832 0000 2DE9F041 		push	{r4, r5, r6, r7, r8, lr}
 4833              		.cfi_def_cfa_offset 24
 4834              		.cfi_offset 4, -24
 4835              		.cfi_offset 5, -20
 4836              		.cfi_offset 6, -16
 4837              		.cfi_offset 7, -12
 4838              		.cfi_offset 8, -8
 4839              		.cfi_offset 14, -4
 4840 0004 8CB0     		sub	sp, sp, #48
 4841              		.cfi_def_cfa_offset 72
 4842 0006 02AF     		add	r7, sp, #8
 4843              		.cfi_def_cfa 7, 64
 4844 0008 7860     		str	r0, [r7, #4]
 4845 000a 0B46     		mov	r3, r1
 4846 000c FB70     		strb	r3, [r7, #3]
 384:main.c        ****     uint16 color ;
 385:main.c        ****     int separation_HEX;
 386:main.c        ****     int outputs = HEX + LEDs;
 4847              		.loc 1 386 0
ARM GAS  C:\Users\LilRobby\AppData\Local\Temp\cczyjVY0.s 			page 93


 4848 000e 0523     		movs	r3, #5
 4849 0010 7B61     		str	r3, [r7, #20]
 387:main.c        ****     
 388:main.c        ****     if (outputs>0){separation_HEX = y_max/outputs;}//check for div by zero
 4850              		.loc 1 388 0
 4851 0012 7B69     		ldr	r3, [r7, #20]
 4852 0014 002B     		cmp	r3, #0
 4853 0016 06DD     		ble	.L126
 4854              		.loc 1 388 0 is_stmt 0 discriminator 1
 4855 0018 4FF4A072 		mov	r2, #320
 4856 001c 7B69     		ldr	r3, [r7, #20]
 4857 001e 92FBF3F3 		sdiv	r3, r2, r3
 4858 0022 3B62     		str	r3, [r7, #32]
 4859 0024 02E0     		b	.L127
 4860              	.L126:
 389:main.c        ****     else      {separation_HEX = y_max + 1;}
 4861              		.loc 1 389 0 is_stmt 1
 4862 0026 40F24113 		movw	r3, #321
 4863 002a 3B62     		str	r3, [r7, #32]
 4864              	.L127:
 390:main.c        ****     
 391:main.c        ****     int width_HEX = separation_HEX/2;
 4865              		.loc 1 391 0
 4866 002c 3B6A     		ldr	r3, [r7, #32]
 4867 002e DA0F     		lsrs	r2, r3, #31
 4868 0030 1344     		add	r3, r3, r2
 4869 0032 5B10     		asrs	r3, r3, #1
 4870 0034 FB61     		str	r3, [r7, #28]
 392:main.c        ****     int length_HEX = width_HEX*2;
 4871              		.loc 1 392 0
 4872 0036 FB69     		ldr	r3, [r7, #28]
 4873 0038 5B00     		lsls	r3, r3, #1
 4874 003a BB61     		str	r3, [r7, #24]
 393:main.c        ****     if (length_HEX + top_space > x_max/2.5)
 4875              		.loc 1 393 0
 4876 003c BB69     		ldr	r3, [r7, #24]
 4877 003e 1933     		adds	r3, r3, #25
 4878 0040 1846     		mov	r0, r3
 4879 0042 FFF7FEFF 		bl	__aeabi_i2d
 4880 0046 0246     		mov	r2, r0
 4881 0048 0B46     		mov	r3, r1
 4882 004a 1046     		mov	r0, r2
 4883 004c 1946     		mov	r1, r3
 4884 004e 4FF00002 		mov	r2, #0
 4885 0052 AB4B     		ldr	r3, .L133+32
 4886 0054 FFF7FEFF 		bl	__aeabi_dcmpgt
 4887 0058 0346     		mov	r3, r0
 4888 005a 002B     		cmp	r3, #0
 4889 005c 09D0     		beq	.L128
 394:main.c        ****     {   
 395:main.c        ****         length_HEX = x_max/2.5 - top_space;
 4890              		.loc 1 395 0
 4891 005e 4723     		movs	r3, #71
 4892 0060 BB61     		str	r3, [r7, #24]
 396:main.c        ****         width_HEX = length_HEX/2;
 4893              		.loc 1 396 0
 4894 0062 BB69     		ldr	r3, [r7, #24]
ARM GAS  C:\Users\LilRobby\AppData\Local\Temp\cczyjVY0.s 			page 94


 4895 0064 DA0F     		lsrs	r2, r3, #31
 4896 0066 1344     		add	r3, r3, r2
 4897 0068 5B10     		asrs	r3, r3, #1
 4898 006a FB61     		str	r3, [r7, #28]
 397:main.c        ****         separation_HEX = 2*width_HEX;
 4899              		.loc 1 397 0
 4900 006c FB69     		ldr	r3, [r7, #28]
 4901 006e 5B00     		lsls	r3, r3, #1
 4902 0070 3B62     		str	r3, [r7, #32]
 4903              	.L128:
 398:main.c        ****     }
 399:main.c        ****     
 400:main.c        ****     int empty_HEX =y_max /(outputs+1) - width_HEX/2;
 4904              		.loc 1 400 0
 4905 0072 7B69     		ldr	r3, [r7, #20]
 4906 0074 0133     		adds	r3, r3, #1
 4907 0076 4FF4A072 		mov	r2, #320
 4908 007a 92FBF3F2 		sdiv	r2, r2, r3
 4909 007e FB69     		ldr	r3, [r7, #28]
 4910 0080 D90F     		lsrs	r1, r3, #31
 4911 0082 0B44     		add	r3, r3, r1
 4912 0084 5B10     		asrs	r3, r3, #1
 4913 0086 D31A     		subs	r3, r2, r3
 4914 0088 3B61     		str	r3, [r7, #16]
 401:main.c        ****     int x_HEX = top_space + length_HEX/2;
 4915              		.loc 1 401 0
 4916 008a BB69     		ldr	r3, [r7, #24]
 4917 008c DA0F     		lsrs	r2, r3, #31
 4918 008e 1344     		add	r3, r3, r2
 4919 0090 5B10     		asrs	r3, r3, #1
 4920 0092 1933     		adds	r3, r3, #25
 4921 0094 FB60     		str	r3, [r7, #12]
 402:main.c        ****     
 403:main.c        ****     if (state != 0){color = RED;}
 4922              		.loc 1 403 0
 4923 0096 FB78     		ldrb	r3, [r7, #3]	@ zero_extendqisi2
 4924 0098 002B     		cmp	r3, #0
 4925 009a 03D0     		beq	.L130
 4926              		.loc 1 403 0 is_stmt 0 discriminator 1
 4927 009c 4FF47843 		mov	r3, #63488
 4928 00a0 FB84     		strh	r3, [r7, #38]	@ movhi
 4929 00a2 02E0     		b	.L131
 4930              	.L130:
 404:main.c        ****     else {color = 0x0102;}
 4931              		.loc 1 404 0 is_stmt 1
 4932 00a4 4FF48173 		mov	r3, #258
 4933 00a8 FB84     		strh	r3, [r7, #38]	@ movhi
 4934              	.L131:
 405:main.c        ****     
 406:main.c        ****     TFTSHIELD_1_FillRoundRect(x_HEX + ((.20*length_HEX)/2) + (length_HEX)/10, (i+1)*empty_HEX + i*w
 4935              		.loc 1 406 0
 4936 00aa F868     		ldr	r0, [r7, #12]
 4937 00ac FFF7FEFF 		bl	__aeabi_i2d
 4938 00b0 0446     		mov	r4, r0
 4939 00b2 0D46     		mov	r5, r1
 4940 00b4 B869     		ldr	r0, [r7, #24]
 4941 00b6 FFF7FEFF 		bl	__aeabi_i2d
ARM GAS  C:\Users\LilRobby\AppData\Local\Temp\cczyjVY0.s 			page 95


 4942 00ba 0246     		mov	r2, r0
 4943 00bc 0B46     		mov	r3, r1
 4944 00be 1046     		mov	r0, r2
 4945 00c0 1946     		mov	r1, r3
 4946 00c2 87A3     		adr	r3, .L133
 4947 00c4 D3E90023 		ldrd	r2, [r3]
 4948 00c8 FFF7FEFF 		bl	__aeabi_dmul
 4949 00cc 0246     		mov	r2, r0
 4950 00ce 0B46     		mov	r3, r1
 4951 00d0 1046     		mov	r0, r2
 4952 00d2 1946     		mov	r1, r3
 4953 00d4 4FF00002 		mov	r2, #0
 4954 00d8 4FF08043 		mov	r3, #1073741824
 4955 00dc FFF7FEFF 		bl	__aeabi_ddiv
 4956 00e0 0246     		mov	r2, r0
 4957 00e2 0B46     		mov	r3, r1
 4958 00e4 2046     		mov	r0, r4
 4959 00e6 2946     		mov	r1, r5
 4960 00e8 FFF7FEFF 		bl	__aeabi_dadd
 4961 00ec 0246     		mov	r2, r0
 4962 00ee 0B46     		mov	r3, r1
 4963 00f0 1446     		mov	r4, r2
 4964 00f2 1D46     		mov	r5, r3
 4965 00f4 BB69     		ldr	r3, [r7, #24]
 4966 00f6 834A     		ldr	r2, .L133+36
 4967 00f8 82FB0312 		smull	r1, r2, r2, r3
 4968 00fc 9210     		asrs	r2, r2, #2
 4969 00fe DB17     		asrs	r3, r3, #31
 4970 0100 D31A     		subs	r3, r2, r3
 4971 0102 1846     		mov	r0, r3
 4972 0104 FFF7FEFF 		bl	__aeabi_i2d
 4973 0108 0246     		mov	r2, r0
 4974 010a 0B46     		mov	r3, r1
 4975 010c 2046     		mov	r0, r4
 4976 010e 2946     		mov	r1, r5
 4977 0110 FFF7FEFF 		bl	__aeabi_dadd
 4978 0114 0246     		mov	r2, r0
 4979 0116 0B46     		mov	r3, r1
 4980 0118 1046     		mov	r0, r2
 4981 011a 1946     		mov	r1, r3
 4982 011c FFF7FEFF 		bl	__aeabi_d2iz
 4983 0120 0346     		mov	r3, r0
 4984 0122 1FFA83F8 		uxth	r8, r3
 4985 0126 7B68     		ldr	r3, [r7, #4]
 4986 0128 0133     		adds	r3, r3, #1
 4987 012a 3A69     		ldr	r2, [r7, #16]
 4988 012c 02FB03F2 		mul	r2, r2, r3
 4989 0130 7B68     		ldr	r3, [r7, #4]
 4990 0132 F969     		ldr	r1, [r7, #28]
 4991 0134 01FB03F3 		mul	r3, r1, r3
 4992 0138 D90F     		lsrs	r1, r3, #31
 4993 013a 0B44     		add	r3, r3, r1
 4994 013c 5B10     		asrs	r3, r3, #1
 4995 013e 1344     		add	r3, r3, r2
 4996 0140 1846     		mov	r0, r3
 4997 0142 FFF7FEFF 		bl	__aeabi_i2d
 4998 0146 0446     		mov	r4, r0
ARM GAS  C:\Users\LilRobby\AppData\Local\Temp\cczyjVY0.s 			page 96


 4999 0148 0D46     		mov	r5, r1
 5000 014a F869     		ldr	r0, [r7, #28]
 5001 014c FFF7FEFF 		bl	__aeabi_i2d
 5002 0150 0246     		mov	r2, r0
 5003 0152 0B46     		mov	r3, r1
 5004 0154 1046     		mov	r0, r2
 5005 0156 1946     		mov	r1, r3
 5006 0158 63A3     		adr	r3, .L133+8
 5007 015a D3E90023 		ldrd	r2, [r3]
 5008 015e FFF7FEFF 		bl	__aeabi_dmul
 5009 0162 0246     		mov	r2, r0
 5010 0164 0B46     		mov	r3, r1
 5011 0166 1046     		mov	r0, r2
 5012 0168 1946     		mov	r1, r3
 5013 016a 4FF00002 		mov	r2, #0
 5014 016e 4FF08043 		mov	r3, #1073741824
 5015 0172 FFF7FEFF 		bl	__aeabi_ddiv
 5016 0176 0246     		mov	r2, r0
 5017 0178 0B46     		mov	r3, r1
 5018 017a 2046     		mov	r0, r4
 5019 017c 2946     		mov	r1, r5
 5020 017e FFF7FEFF 		bl	__aeabi_dadd
 5021 0182 0246     		mov	r2, r0
 5022 0184 0B46     		mov	r3, r1
 5023 0186 1446     		mov	r4, r2
 5024 0188 1D46     		mov	r5, r3
 5025 018a F869     		ldr	r0, [r7, #28]
 5026 018c FFF7FEFF 		bl	__aeabi_i2d
 5027 0190 0246     		mov	r2, r0
 5028 0192 0B46     		mov	r3, r1
 5029 0194 1046     		mov	r0, r2
 5030 0196 1946     		mov	r1, r3
 5031 0198 55A3     		adr	r3, .L133+16
 5032 019a D3E90023 		ldrd	r2, [r3]
 5033 019e FFF7FEFF 		bl	__aeabi_dmul
 5034 01a2 0246     		mov	r2, r0
 5035 01a4 0B46     		mov	r3, r1
 5036 01a6 2046     		mov	r0, r4
 5037 01a8 2946     		mov	r1, r5
 5038 01aa FFF7FEFF 		bl	__aeabi_dadd
 5039 01ae 0246     		mov	r2, r0
 5040 01b0 0B46     		mov	r3, r1
 5041 01b2 1446     		mov	r4, r2
 5042 01b4 1D46     		mov	r5, r3
 5043 01b6 B869     		ldr	r0, [r7, #24]
 5044 01b8 FFF7FEFF 		bl	__aeabi_i2d
 5045 01bc 0246     		mov	r2, r0
 5046 01be 0B46     		mov	r3, r1
 5047 01c0 1046     		mov	r0, r2
 5048 01c2 1946     		mov	r1, r3
 5049 01c4 4CA3     		adr	r3, .L133+24
 5050 01c6 D3E90023 		ldrd	r2, [r3]
 5051 01ca FFF7FEFF 		bl	__aeabi_dmul
 5052 01ce 0246     		mov	r2, r0
 5053 01d0 0B46     		mov	r3, r1
 5054 01d2 1046     		mov	r0, r2
 5055 01d4 1946     		mov	r1, r3
ARM GAS  C:\Users\LilRobby\AppData\Local\Temp\cczyjVY0.s 			page 97


 5056 01d6 4FF00002 		mov	r2, #0
 5057 01da 4B4B     		ldr	r3, .L133+40
 5058 01dc FFF7FEFF 		bl	__aeabi_ddiv
 5059 01e0 0246     		mov	r2, r0
 5060 01e2 0B46     		mov	r3, r1
 5061 01e4 2046     		mov	r0, r4
 5062 01e6 2946     		mov	r1, r5
 5063 01e8 FFF7FEFF 		bl	__aeabi_dsub
 5064 01ec 0246     		mov	r2, r0
 5065 01ee 0B46     		mov	r3, r1
 5066 01f0 1046     		mov	r0, r2
 5067 01f2 1946     		mov	r1, r3
 5068 01f4 FFF7FEFF 		bl	__aeabi_d2iz
 5069 01f8 0346     		mov	r3, r0
 5070 01fa 9EB2     		uxth	r6, r3
 5071 01fc F869     		ldr	r0, [r7, #28]
 5072 01fe FFF7FEFF 		bl	__aeabi_i2d
 5073 0202 0246     		mov	r2, r0
 5074 0204 0B46     		mov	r3, r1
 5075 0206 1046     		mov	r0, r2
 5076 0208 1946     		mov	r1, r3
 5077 020a 39A3     		adr	r3, .L133+16
 5078 020c D3E90023 		ldrd	r2, [r3]
 5079 0210 FFF7FEFF 		bl	__aeabi_dmul
 5080 0214 0246     		mov	r2, r0
 5081 0216 0B46     		mov	r3, r1
 5082 0218 1446     		mov	r4, r2
 5083 021a 1D46     		mov	r5, r3
 5084 021c BB69     		ldr	r3, [r7, #24]
 5085 021e 394A     		ldr	r2, .L133+36
 5086 0220 82FB0312 		smull	r1, r2, r2, r3
 5087 0224 9210     		asrs	r2, r2, #2
 5088 0226 DB17     		asrs	r3, r3, #31
 5089 0228 D31A     		subs	r3, r2, r3
 5090 022a 1846     		mov	r0, r3
 5091 022c FFF7FEFF 		bl	__aeabi_i2d
 5092 0230 0246     		mov	r2, r0
 5093 0232 0B46     		mov	r3, r1
 5094 0234 2046     		mov	r0, r4
 5095 0236 2946     		mov	r1, r5
 5096 0238 FFF7FEFF 		bl	__aeabi_dsub
 5097 023c 0246     		mov	r2, r0
 5098 023e 0B46     		mov	r3, r1
 5099 0240 1046     		mov	r0, r2
 5100 0242 1946     		mov	r1, r3
 5101 0244 FFF7FEFF 		bl	__aeabi_d2iz
 5102 0248 0346     		mov	r3, r0
 5103 024a 9DB2     		uxth	r5, r3
 5104 024c B869     		ldr	r0, [r7, #24]
 5105 024e FFF7FEFF 		bl	__aeabi_i2d
 5106 0252 0246     		mov	r2, r0
 5107 0254 0B46     		mov	r3, r1
 5108 0256 1046     		mov	r0, r2
 5109 0258 1946     		mov	r1, r3
 5110 025a 27A3     		adr	r3, .L133+24
 5111 025c D3E90023 		ldrd	r2, [r3]
 5112 0260 FFF7FEFF 		bl	__aeabi_dmul
ARM GAS  C:\Users\LilRobby\AppData\Local\Temp\cczyjVY0.s 			page 98


 5113 0264 0246     		mov	r2, r0
 5114 0266 0B46     		mov	r3, r1
 5115 0268 1046     		mov	r0, r2
 5116 026a 1946     		mov	r1, r3
 5117 026c 4FF00002 		mov	r2, #0
 5118 0270 254B     		ldr	r3, .L133+40
 5119 0272 FFF7FEFF 		bl	__aeabi_ddiv
 5120 0276 0246     		mov	r2, r0
 5121 0278 0B46     		mov	r3, r1
 5122 027a 1046     		mov	r0, r2
 5123 027c 1946     		mov	r1, r3
 5124 027e FFF7FEFF 		bl	__aeabi_d2iz
 5125 0282 0346     		mov	r3, r0
 5126 0284 9CB2     		uxth	r4, r3
 5127 0286 B869     		ldr	r0, [r7, #24]
 5128 0288 FFF7FEFF 		bl	__aeabi_i2d
 5129 028c 0246     		mov	r2, r0
 5130 028e 0B46     		mov	r3, r1
 5131 0290 1046     		mov	r0, r2
 5132 0292 1946     		mov	r1, r3
 5133 0294 18A3     		adr	r3, .L133+24
 5134 0296 D3E90023 		ldrd	r2, [r3]
 5135 029a FFF7FEFF 		bl	__aeabi_dmul
 5136 029e 0246     		mov	r2, r0
 5137 02a0 0B46     		mov	r3, r1
 5138 02a2 1046     		mov	r0, r2
 5139 02a4 1946     		mov	r1, r3
 5140 02a6 4FF00002 		mov	r2, #0
 5141 02aa 184B     		ldr	r3, .L133+44
 5142 02ac FFF7FEFF 		bl	__aeabi_ddiv
 5143 02b0 0246     		mov	r2, r0
 5144 02b2 0B46     		mov	r3, r1
 5145 02b4 1046     		mov	r0, r2
 5146 02b6 1946     		mov	r1, r3
 5147 02b8 FFF7FEFF 		bl	__aeabi_d2iz
 5148 02bc 0346     		mov	r3, r0
 5149 02be 9BB2     		uxth	r3, r3
 5150 02c0 0FFA88F0 		sxth	r0, r8
 5151 02c4 31B2     		sxth	r1, r6
 5152 02c6 2AB2     		sxth	r2, r5
 5153 02c8 24B2     		sxth	r4, r4
 5154 02ca 1BB2     		sxth	r3, r3
 5155 02cc 0093     		str	r3, [sp]
 5156 02ce FB8C     		ldrh	r3, [r7, #38]
 5157 02d0 0193     		str	r3, [sp, #4]
 5158 02d2 2346     		mov	r3, r4
 5159 02d4 FFF7FEFF 		bl	TFTSHIELD_1_FillRoundRect
 407:main.c        **** }
 5160              		.loc 1 407 0
 5161 02d8 2837     		adds	r7, r7, #40
 5162              		.cfi_def_cfa_offset 24
 5163 02da BD46     		mov	sp, r7
 5164              		.cfi_def_cfa_register 13
 5165              		@ sp needed
 5166 02dc BDE8F081 		pop	{r4, r5, r6, r7, r8, pc}
 5167              	.L134:
 5168              		.align	3
ARM GAS  C:\Users\LilRobby\AppData\Local\Temp\cczyjVY0.s 			page 99


 5169              	.L133:
 5170 02e0 9A999999 		.word	-1717986918
 5171 02e4 9999C93F 		.word	1070176665
 5172 02e8 66666666 		.word	1717986918
 5173 02ec 6666D63F 		.word	1071015526
 5174 02f0 CDCCCCCC 		.word	-858993459
 5175 02f4 CCCCE43F 		.word	1071959244
 5176 02f8 9A999999 		.word	-1717986918
 5177 02fc 9999E93F 		.word	1072273817
 5178 0300 00005840 		.word	1079508992
 5179 0304 67666666 		.word	1717986919
 5180 0308 00002440 		.word	1076101120
 5181 030c 00004440 		.word	1078198272
 5182              		.cfi_endproc
 5183              	.LFE66:
 5184              		.size	DrawHEX_f, .-DrawHEX_f
 5185              		.section	.text.DrawHEX_g,"ax",%progbits
 5186              		.align	2
 5187              		.global	DrawHEX_g
 5188              		.thumb
 5189              		.thumb_func
 5190              		.type	DrawHEX_g, %function
 5191              	DrawHEX_g:
 5192              	.LFB67:
 408:main.c        **** void DrawHEX_g(int i, uint8 state)
 409:main.c        **** {
 5193              		.loc 1 409 0
 5194              		.cfi_startproc
 5195              		@ args = 0, pretend = 0, frame = 40
 5196              		@ frame_needed = 1, uses_anonymous_args = 0
 5197 0000 2DE9F041 		push	{r4, r5, r6, r7, r8, lr}
 5198              		.cfi_def_cfa_offset 24
 5199              		.cfi_offset 4, -24
 5200              		.cfi_offset 5, -20
 5201              		.cfi_offset 6, -16
 5202              		.cfi_offset 7, -12
 5203              		.cfi_offset 8, -8
 5204              		.cfi_offset 14, -4
 5205 0004 8CB0     		sub	sp, sp, #48
 5206              		.cfi_def_cfa_offset 72
 5207 0006 02AF     		add	r7, sp, #8
 5208              		.cfi_def_cfa 7, 64
 5209 0008 7860     		str	r0, [r7, #4]
 5210 000a 0B46     		mov	r3, r1
 5211 000c FB70     		strb	r3, [r7, #3]
 410:main.c        ****     
 411:main.c        ****     uint16 color ;
 412:main.c        ****     int separation_HEX;
 413:main.c        ****     int outputs = HEX + LEDs;
 5212              		.loc 1 413 0
 5213 000e 0523     		movs	r3, #5
 5214 0010 7B61     		str	r3, [r7, #20]
 414:main.c        ****     
 415:main.c        ****     if (outputs>0){separation_HEX = y_max/outputs;}//check for div by zero
 5215              		.loc 1 415 0
 5216 0012 7B69     		ldr	r3, [r7, #20]
 5217 0014 002B     		cmp	r3, #0
ARM GAS  C:\Users\LilRobby\AppData\Local\Temp\cczyjVY0.s 			page 100


 5218 0016 06DD     		ble	.L136
 5219              		.loc 1 415 0 is_stmt 0 discriminator 1
 5220 0018 4FF4A072 		mov	r2, #320
 5221 001c 7B69     		ldr	r3, [r7, #20]
 5222 001e 92FBF3F3 		sdiv	r3, r2, r3
 5223 0022 3B62     		str	r3, [r7, #32]
 5224 0024 02E0     		b	.L137
 5225              	.L136:
 416:main.c        ****     else      {separation_HEX = y_max + 1;}
 5226              		.loc 1 416 0 is_stmt 1
 5227 0026 40F24113 		movw	r3, #321
 5228 002a 3B62     		str	r3, [r7, #32]
 5229              	.L137:
 417:main.c        ****     
 418:main.c        ****     int width_HEX = separation_HEX/2;
 5230              		.loc 1 418 0
 5231 002c 3B6A     		ldr	r3, [r7, #32]
 5232 002e DA0F     		lsrs	r2, r3, #31
 5233 0030 1344     		add	r3, r3, r2
 5234 0032 5B10     		asrs	r3, r3, #1
 5235 0034 FB61     		str	r3, [r7, #28]
 419:main.c        ****     int length_HEX = width_HEX*2;
 5236              		.loc 1 419 0
 5237 0036 FB69     		ldr	r3, [r7, #28]
 5238 0038 5B00     		lsls	r3, r3, #1
 5239 003a BB61     		str	r3, [r7, #24]
 420:main.c        ****     if (length_HEX + top_space > x_max/2.5)
 5240              		.loc 1 420 0
 5241 003c BB69     		ldr	r3, [r7, #24]
 5242 003e 1933     		adds	r3, r3, #25
 5243 0040 1846     		mov	r0, r3
 5244 0042 FFF7FEFF 		bl	__aeabi_i2d
 5245 0046 0246     		mov	r2, r0
 5246 0048 0B46     		mov	r3, r1
 5247 004a 1046     		mov	r0, r2
 5248 004c 1946     		mov	r1, r3
 5249 004e 4FF00002 		mov	r2, #0
 5250 0052 714B     		ldr	r3, .L143+32
 5251 0054 FFF7FEFF 		bl	__aeabi_dcmpgt
 5252 0058 0346     		mov	r3, r0
 5253 005a 002B     		cmp	r3, #0
 5254 005c 09D0     		beq	.L138
 421:main.c        ****     {   
 422:main.c        ****         length_HEX = x_max/2.5 - top_space;
 5255              		.loc 1 422 0
 5256 005e 4723     		movs	r3, #71
 5257 0060 BB61     		str	r3, [r7, #24]
 423:main.c        ****         width_HEX = length_HEX/2;
 5258              		.loc 1 423 0
 5259 0062 BB69     		ldr	r3, [r7, #24]
 5260 0064 DA0F     		lsrs	r2, r3, #31
 5261 0066 1344     		add	r3, r3, r2
 5262 0068 5B10     		asrs	r3, r3, #1
 5263 006a FB61     		str	r3, [r7, #28]
 424:main.c        ****         separation_HEX = 2*width_HEX;
 5264              		.loc 1 424 0
 5265 006c FB69     		ldr	r3, [r7, #28]
ARM GAS  C:\Users\LilRobby\AppData\Local\Temp\cczyjVY0.s 			page 101


 5266 006e 5B00     		lsls	r3, r3, #1
 5267 0070 3B62     		str	r3, [r7, #32]
 5268              	.L138:
 425:main.c        ****     }
 426:main.c        ****     
 427:main.c        ****     int empty_HEX = y_max /(outputs+1) - width_HEX/2;
 5269              		.loc 1 427 0
 5270 0072 7B69     		ldr	r3, [r7, #20]
 5271 0074 0133     		adds	r3, r3, #1
 5272 0076 4FF4A072 		mov	r2, #320
 5273 007a 92FBF3F2 		sdiv	r2, r2, r3
 5274 007e FB69     		ldr	r3, [r7, #28]
 5275 0080 D90F     		lsrs	r1, r3, #31
 5276 0082 0B44     		add	r3, r3, r1
 5277 0084 5B10     		asrs	r3, r3, #1
 5278 0086 D31A     		subs	r3, r2, r3
 5279 0088 3B61     		str	r3, [r7, #16]
 428:main.c        ****     int x_HEX = top_space + length_HEX/2;
 5280              		.loc 1 428 0
 5281 008a BB69     		ldr	r3, [r7, #24]
 5282 008c DA0F     		lsrs	r2, r3, #31
 5283 008e 1344     		add	r3, r3, r2
 5284 0090 5B10     		asrs	r3, r3, #1
 5285 0092 1933     		adds	r3, r3, #25
 5286 0094 FB60     		str	r3, [r7, #12]
 429:main.c        ****     
 430:main.c        ****     if (state !=0 ){color = RED;}
 5287              		.loc 1 430 0
 5288 0096 FB78     		ldrb	r3, [r7, #3]	@ zero_extendqisi2
 5289 0098 002B     		cmp	r3, #0
 5290 009a 03D0     		beq	.L140
 5291              		.loc 1 430 0 is_stmt 0 discriminator 1
 5292 009c 4FF47843 		mov	r3, #63488
 5293 00a0 FB84     		strh	r3, [r7, #38]	@ movhi
 5294 00a2 02E0     		b	.L141
 5295              	.L140:
 431:main.c        ****     else {color = 0x0102;}
 5296              		.loc 1 431 0 is_stmt 1
 5297 00a4 4FF48173 		mov	r3, #258
 5298 00a8 FB84     		strh	r3, [r7, #38]	@ movhi
 5299              	.L141:
 432:main.c        ****     
 433:main.c        ****     TFTSHIELD_1_FillRoundRect(x_HEX + ((length_HEX*45)/100) , (i+1)*empty_HEX + i*width_HEX/2 + .45
 5300              		.loc 1 433 0
 5301 00aa BA69     		ldr	r2, [r7, #24]
 5302 00ac 1346     		mov	r3, r2
 5303 00ae 5B00     		lsls	r3, r3, #1
 5304 00b0 1344     		add	r3, r3, r2
 5305 00b2 1A01     		lsls	r2, r3, #4
 5306 00b4 D31A     		subs	r3, r2, r3
 5307 00b6 594A     		ldr	r2, .L143+36
 5308 00b8 82FB0312 		smull	r1, r2, r2, r3
 5309 00bc 5211     		asrs	r2, r2, #5
 5310 00be DB17     		asrs	r3, r3, #31
 5311 00c0 D31A     		subs	r3, r2, r3
 5312 00c2 9AB2     		uxth	r2, r3
 5313 00c4 FB68     		ldr	r3, [r7, #12]
ARM GAS  C:\Users\LilRobby\AppData\Local\Temp\cczyjVY0.s 			page 102


 5314 00c6 9BB2     		uxth	r3, r3
 5315 00c8 1344     		add	r3, r3, r2
 5316 00ca 9BB2     		uxth	r3, r3
 5317 00cc 1FFA83F8 		uxth	r8, r3
 5318 00d0 7B68     		ldr	r3, [r7, #4]
 5319 00d2 0133     		adds	r3, r3, #1
 5320 00d4 3A69     		ldr	r2, [r7, #16]
 5321 00d6 02FB03F2 		mul	r2, r2, r3
 5322 00da 7B68     		ldr	r3, [r7, #4]
 5323 00dc F969     		ldr	r1, [r7, #28]
 5324 00de 01FB03F3 		mul	r3, r1, r3
 5325 00e2 D90F     		lsrs	r1, r3, #31
 5326 00e4 0B44     		add	r3, r3, r1
 5327 00e6 5B10     		asrs	r3, r3, #1
 5328 00e8 1344     		add	r3, r3, r2
 5329 00ea 1846     		mov	r0, r3
 5330 00ec FFF7FEFF 		bl	__aeabi_i2d
 5331 00f0 0446     		mov	r4, r0
 5332 00f2 0D46     		mov	r5, r1
 5333 00f4 F869     		ldr	r0, [r7, #28]
 5334 00f6 FFF7FEFF 		bl	__aeabi_i2d
 5335 00fa 0246     		mov	r2, r0
 5336 00fc 0B46     		mov	r3, r1
 5337 00fe 1046     		mov	r0, r2
 5338 0100 1946     		mov	r1, r3
 5339 0102 3DA3     		adr	r3, .L143
 5340 0104 D3E90023 		ldrd	r2, [r3]
 5341 0108 FFF7FEFF 		bl	__aeabi_dmul
 5342 010c 0246     		mov	r2, r0
 5343 010e 0B46     		mov	r3, r1
 5344 0110 1046     		mov	r0, r2
 5345 0112 1946     		mov	r1, r3
 5346 0114 4FF00002 		mov	r2, #0
 5347 0118 4FF08043 		mov	r3, #1073741824
 5348 011c FFF7FEFF 		bl	__aeabi_ddiv
 5349 0120 0246     		mov	r2, r0
 5350 0122 0B46     		mov	r3, r1
 5351 0124 2046     		mov	r0, r4
 5352 0126 2946     		mov	r1, r5
 5353 0128 FFF7FEFF 		bl	__aeabi_dadd
 5354 012c 0246     		mov	r2, r0
 5355 012e 0B46     		mov	r3, r1
 5356 0130 1046     		mov	r0, r2
 5357 0132 1946     		mov	r1, r3
 5358 0134 FFF7FEFF 		bl	__aeabi_d2iz
 5359 0138 0346     		mov	r3, r0
 5360 013a 9EB2     		uxth	r6, r3
 5361 013c B869     		ldr	r0, [r7, #24]
 5362 013e FFF7FEFF 		bl	__aeabi_i2d
 5363 0142 0246     		mov	r2, r0
 5364 0144 0B46     		mov	r3, r1
 5365 0146 1046     		mov	r0, r2
 5366 0148 1946     		mov	r1, r3
 5367 014a 2DA3     		adr	r3, .L143+8
 5368 014c D3E90023 		ldrd	r2, [r3]
 5369 0150 FFF7FEFF 		bl	__aeabi_dmul
 5370 0154 0246     		mov	r2, r0
ARM GAS  C:\Users\LilRobby\AppData\Local\Temp\cczyjVY0.s 			page 103


 5371 0156 0B46     		mov	r3, r1
 5372 0158 1046     		mov	r0, r2
 5373 015a 1946     		mov	r1, r3
 5374 015c 4FF00002 		mov	r2, #0
 5375 0160 2F4B     		ldr	r3, .L143+40
 5376 0162 FFF7FEFF 		bl	__aeabi_ddiv
 5377 0166 0246     		mov	r2, r0
 5378 0168 0B46     		mov	r3, r1
 5379 016a 1046     		mov	r0, r2
 5380 016c 1946     		mov	r1, r3
 5381 016e FFF7FEFF 		bl	__aeabi_d2iz
 5382 0172 0346     		mov	r3, r0
 5383 0174 9DB2     		uxth	r5, r3
 5384 0176 F869     		ldr	r0, [r7, #28]
 5385 0178 FFF7FEFF 		bl	__aeabi_i2d
 5386 017c 0246     		mov	r2, r0
 5387 017e 0B46     		mov	r3, r1
 5388 0180 1046     		mov	r0, r2
 5389 0182 1946     		mov	r1, r3
 5390 0184 20A3     		adr	r3, .L143+16
 5391 0186 D3E90023 		ldrd	r2, [r3]
 5392 018a FFF7FEFF 		bl	__aeabi_dmul
 5393 018e 0246     		mov	r2, r0
 5394 0190 0B46     		mov	r3, r1
 5395 0192 1046     		mov	r0, r2
 5396 0194 1946     		mov	r1, r3
 5397 0196 FFF7FEFF 		bl	__aeabi_d2iz
 5398 019a 0346     		mov	r3, r0
 5399 019c 9CB2     		uxth	r4, r3
 5400 019e B869     		ldr	r0, [r7, #24]
 5401 01a0 FFF7FEFF 		bl	__aeabi_i2d
 5402 01a4 0246     		mov	r2, r0
 5403 01a6 0B46     		mov	r3, r1
 5404 01a8 1046     		mov	r0, r2
 5405 01aa 1946     		mov	r1, r3
 5406 01ac 18A3     		adr	r3, .L143+24
 5407 01ae D3E90023 		ldrd	r2, [r3]
 5408 01b2 FFF7FEFF 		bl	__aeabi_dmul
 5409 01b6 0246     		mov	r2, r0
 5410 01b8 0B46     		mov	r3, r1
 5411 01ba 1046     		mov	r0, r2
 5412 01bc 1946     		mov	r1, r3
 5413 01be 4FF00002 		mov	r2, #0
 5414 01c2 184B     		ldr	r3, .L143+44
 5415 01c4 FFF7FEFF 		bl	__aeabi_ddiv
 5416 01c8 0246     		mov	r2, r0
 5417 01ca 0B46     		mov	r3, r1
 5418 01cc 1046     		mov	r0, r2
 5419 01ce 1946     		mov	r1, r3
 5420 01d0 FFF7FEFF 		bl	__aeabi_d2iz
 5421 01d4 0346     		mov	r3, r0
 5422 01d6 9BB2     		uxth	r3, r3
 5423 01d8 0FFA88F0 		sxth	r0, r8
 5424 01dc 31B2     		sxth	r1, r6
 5425 01de 2AB2     		sxth	r2, r5
 5426 01e0 24B2     		sxth	r4, r4
 5427 01e2 1BB2     		sxth	r3, r3
ARM GAS  C:\Users\LilRobby\AppData\Local\Temp\cczyjVY0.s 			page 104


 5428 01e4 0093     		str	r3, [sp]
 5429 01e6 FB8C     		ldrh	r3, [r7, #38]
 5430 01e8 0193     		str	r3, [sp, #4]
 5431 01ea 2346     		mov	r3, r4
 5432 01ec FFF7FEFF 		bl	TFTSHIELD_1_FillRoundRect
 434:main.c        ****    
 435:main.c        **** }
 5433              		.loc 1 435 0
 5434 01f0 2837     		adds	r7, r7, #40
 5435              		.cfi_def_cfa_offset 24
 5436 01f2 BD46     		mov	sp, r7
 5437              		.cfi_def_cfa_register 13
 5438              		@ sp needed
 5439 01f4 BDE8F081 		pop	{r4, r5, r6, r7, r8, pc}
 5440              	.L144:
 5441              		.align	3
 5442              	.L143:
 5443 01f8 CDCCCCCC 		.word	-858993459
 5444 01fc CCCCDC3F 		.word	1071434956
 5445 0200 CDCCCCCC 		.word	-858993459
 5446 0204 CCCCEC3F 		.word	1072483532
 5447 0208 9A999999 		.word	-1717986918
 5448 020c 9999E13F 		.word	1071749529
 5449 0210 9A999999 		.word	-1717986918
 5450 0214 9999E93F 		.word	1072273817
 5451 0218 00005840 		.word	1079508992
 5452 021c 1F85EB51 		.word	1374389535
 5453 0220 00002440 		.word	1076101120
 5454 0224 00004440 		.word	1078198272
 5455              		.cfi_endproc
 5456              	.LFE67:
 5457              		.size	DrawHEX_g, .-DrawHEX_g
 5458              		.section	.text.DrawHex,"ax",%progbits
 5459              		.align	2
 5460              		.global	DrawHex
 5461              		.thumb
 5462              		.thumb_func
 5463              		.type	DrawHex, %function
 5464              	DrawHex:
 5465              	.LFB68:
 436:main.c        **** 
 437:main.c        **** void DrawHex(int i, uint8 stat)
 438:main.c        **** {
 5466              		.loc 1 438 0
 5467              		.cfi_startproc
 5468              		@ args = 0, pretend = 0, frame = 32
 5469              		@ frame_needed = 1, uses_anonymous_args = 0
 5470 0000 F0B5     		push	{r4, r5, r6, r7, lr}
 5471              		.cfi_def_cfa_offset 20
 5472              		.cfi_offset 4, -20
 5473              		.cfi_offset 5, -16
 5474              		.cfi_offset 6, -12
 5475              		.cfi_offset 7, -8
 5476              		.cfi_offset 14, -4
 5477 0002 8BB0     		sub	sp, sp, #44
 5478              		.cfi_def_cfa_offset 64
 5479 0004 02AF     		add	r7, sp, #8
ARM GAS  C:\Users\LilRobby\AppData\Local\Temp\cczyjVY0.s 			page 105


 5480              		.cfi_def_cfa 7, 56
 5481 0006 7860     		str	r0, [r7, #4]
 5482 0008 0B46     		mov	r3, r1
 5483 000a FB70     		strb	r3, [r7, #3]
 439:main.c        ****    
 440:main.c        ****     int separation_HEX;
 441:main.c        ****     int outputs = HEX + LEDs;
 5484              		.loc 1 441 0
 5485 000c 0523     		movs	r3, #5
 5486 000e 3B61     		str	r3, [r7, #16]
 442:main.c        ****     
 443:main.c        ****     if (outputs>0){separation_HEX = y_max/outputs;}//check for div by zero
 5487              		.loc 1 443 0
 5488 0010 3B69     		ldr	r3, [r7, #16]
 5489 0012 002B     		cmp	r3, #0
 5490 0014 06DD     		ble	.L146
 5491              		.loc 1 443 0 is_stmt 0 discriminator 1
 5492 0016 4FF4A072 		mov	r2, #320
 5493 001a 3B69     		ldr	r3, [r7, #16]
 5494 001c 92FBF3F3 		sdiv	r3, r2, r3
 5495 0020 FB61     		str	r3, [r7, #28]
 5496 0022 02E0     		b	.L147
 5497              	.L146:
 444:main.c        ****     else      {separation_HEX = y_max + 1;}
 5498              		.loc 1 444 0 is_stmt 1
 5499 0024 40F24113 		movw	r3, #321
 5500 0028 FB61     		str	r3, [r7, #28]
 5501              	.L147:
 445:main.c        ****     
 446:main.c        ****     int width_HEX = separation_HEX/2;
 5502              		.loc 1 446 0
 5503 002a FB69     		ldr	r3, [r7, #28]
 5504 002c DA0F     		lsrs	r2, r3, #31
 5505 002e 1344     		add	r3, r3, r2
 5506 0030 5B10     		asrs	r3, r3, #1
 5507 0032 BB61     		str	r3, [r7, #24]
 447:main.c        ****     int length_HEX = width_HEX*2;
 5508              		.loc 1 447 0
 5509 0034 BB69     		ldr	r3, [r7, #24]
 5510 0036 5B00     		lsls	r3, r3, #1
 5511 0038 7B61     		str	r3, [r7, #20]
 448:main.c        ****     
 449:main.c        ****     if (length_HEX + top_space > x_max/2.5)
 5512              		.loc 1 449 0
 5513 003a 7B69     		ldr	r3, [r7, #20]
 5514 003c 1933     		adds	r3, r3, #25
 5515 003e 1846     		mov	r0, r3
 5516 0040 FFF7FEFF 		bl	__aeabi_i2d
 5517 0044 0246     		mov	r2, r0
 5518 0046 0B46     		mov	r3, r1
 5519 0048 1046     		mov	r0, r2
 5520 004a 1946     		mov	r1, r3
 5521 004c 4FF00002 		mov	r2, #0
 5522 0050 8B4B     		ldr	r3, .L151+16
 5523 0052 FFF7FEFF 		bl	__aeabi_dcmpgt
 5524 0056 0346     		mov	r3, r0
 5525 0058 002B     		cmp	r3, #0
ARM GAS  C:\Users\LilRobby\AppData\Local\Temp\cczyjVY0.s 			page 106


 5526 005a 09D0     		beq	.L148
 450:main.c        ****     {   
 451:main.c        ****         length_HEX = x_max/2.5 - top_space;
 5527              		.loc 1 451 0
 5528 005c 4723     		movs	r3, #71
 5529 005e 7B61     		str	r3, [r7, #20]
 452:main.c        ****         width_HEX = length_HEX/2;
 5530              		.loc 1 452 0
 5531 0060 7B69     		ldr	r3, [r7, #20]
 5532 0062 DA0F     		lsrs	r2, r3, #31
 5533 0064 1344     		add	r3, r3, r2
 5534 0066 5B10     		asrs	r3, r3, #1
 5535 0068 BB61     		str	r3, [r7, #24]
 453:main.c        ****         separation_HEX = 2*width_HEX;
 5536              		.loc 1 453 0
 5537 006a BB69     		ldr	r3, [r7, #24]
 5538 006c 5B00     		lsls	r3, r3, #1
 5539 006e FB61     		str	r3, [r7, #28]
 5540              	.L148:
 454:main.c        ****     }
 455:main.c        ****     
 456:main.c        ****     int empty_HEX =y_max /(outputs+1) - width_HEX/2;
 5541              		.loc 1 456 0
 5542 0070 3B69     		ldr	r3, [r7, #16]
 5543 0072 0133     		adds	r3, r3, #1
 5544 0074 4FF4A072 		mov	r2, #320
 5545 0078 92FBF3F2 		sdiv	r2, r2, r3
 5546 007c BB69     		ldr	r3, [r7, #24]
 5547 007e D90F     		lsrs	r1, r3, #31
 5548 0080 0B44     		add	r3, r3, r1
 5549 0082 5B10     		asrs	r3, r3, #1
 5550 0084 D31A     		subs	r3, r2, r3
 5551 0086 FB60     		str	r3, [r7, #12]
 457:main.c        ****     int x_HEX = top_space + length_HEX/2;
 5552              		.loc 1 457 0
 5553 0088 7B69     		ldr	r3, [r7, #20]
 5554 008a DA0F     		lsrs	r2, r3, #31
 5555 008c 1344     		add	r3, r3, r2
 5556 008e 5B10     		asrs	r3, r3, #1
 5557 0090 1933     		adds	r3, r3, #25
 5558 0092 BB60     		str	r3, [r7, #8]
 458:main.c        ****  
 459:main.c        ****     TFTSHIELD_1_FillRect(x_HEX, (i+1)*empty_HEX + i*width_HEX/2, length_HEX, width_HEX, GRAY);
 5559              		.loc 1 459 0
 5560 0094 BB68     		ldr	r3, [r7, #8]
 5561 0096 98B2     		uxth	r0, r3
 5562 0098 7B68     		ldr	r3, [r7, #4]
 5563 009a 0133     		adds	r3, r3, #1
 5564 009c 9BB2     		uxth	r3, r3
 5565 009e FA68     		ldr	r2, [r7, #12]
 5566 00a0 92B2     		uxth	r2, r2
 5567 00a2 02FB03F3 		mul	r3, r2, r3
 5568 00a6 9AB2     		uxth	r2, r3
 5569 00a8 7B68     		ldr	r3, [r7, #4]
 5570 00aa B969     		ldr	r1, [r7, #24]
 5571 00ac 01FB03F3 		mul	r3, r1, r3
 5572 00b0 D90F     		lsrs	r1, r3, #31
ARM GAS  C:\Users\LilRobby\AppData\Local\Temp\cczyjVY0.s 			page 107


 5573 00b2 0B44     		add	r3, r3, r1
 5574 00b4 5B10     		asrs	r3, r3, #1
 5575 00b6 9BB2     		uxth	r3, r3
 5576 00b8 1344     		add	r3, r3, r2
 5577 00ba 9BB2     		uxth	r3, r3
 5578 00bc 99B2     		uxth	r1, r3
 5579 00be 7B69     		ldr	r3, [r7, #20]
 5580 00c0 9AB2     		uxth	r2, r3
 5581 00c2 BB69     		ldr	r3, [r7, #24]
 5582 00c4 9BB2     		uxth	r3, r3
 5583 00c6 00B2     		sxth	r0, r0
 5584 00c8 09B2     		sxth	r1, r1
 5585 00ca 12B2     		sxth	r2, r2
 5586 00cc 1CB2     		sxth	r4, r3
 5587 00ce 47F6EF33 		movw	r3, #31727
 5588 00d2 0093     		str	r3, [sp]
 5589 00d4 2346     		mov	r3, r4
 5590 00d6 FFF7FEFF 		bl	TFTSHIELD_1_FillRect
 460:main.c        ****     TFTSHIELD_1_FillRect(x_HEX + ((.1*length_HEX)/2), (i+1)*empty_HEX + i*width_HEX/2 + .1*width_HE
 5591              		.loc 1 460 0
 5592 00da B868     		ldr	r0, [r7, #8]
 5593 00dc FFF7FEFF 		bl	__aeabi_i2d
 5594 00e0 0446     		mov	r4, r0
 5595 00e2 0D46     		mov	r5, r1
 5596 00e4 7869     		ldr	r0, [r7, #20]
 5597 00e6 FFF7FEFF 		bl	__aeabi_i2d
 5598 00ea 0246     		mov	r2, r0
 5599 00ec 0B46     		mov	r3, r1
 5600 00ee 1046     		mov	r0, r2
 5601 00f0 1946     		mov	r1, r3
 5602 00f2 5FA3     		adr	r3, .L151
 5603 00f4 D3E90023 		ldrd	r2, [r3]
 5604 00f8 FFF7FEFF 		bl	__aeabi_dmul
 5605 00fc 0246     		mov	r2, r0
 5606 00fe 0B46     		mov	r3, r1
 5607 0100 1046     		mov	r0, r2
 5608 0102 1946     		mov	r1, r3
 5609 0104 4FF00002 		mov	r2, #0
 5610 0108 4FF08043 		mov	r3, #1073741824
 5611 010c FFF7FEFF 		bl	__aeabi_ddiv
 5612 0110 0246     		mov	r2, r0
 5613 0112 0B46     		mov	r3, r1
 5614 0114 2046     		mov	r0, r4
 5615 0116 2946     		mov	r1, r5
 5616 0118 FFF7FEFF 		bl	__aeabi_dadd
 5617 011c 0246     		mov	r2, r0
 5618 011e 0B46     		mov	r3, r1
 5619 0120 1046     		mov	r0, r2
 5620 0122 1946     		mov	r1, r3
 5621 0124 FFF7FEFF 		bl	__aeabi_d2iz
 5622 0128 0346     		mov	r3, r0
 5623 012a 9EB2     		uxth	r6, r3
 5624 012c 7B68     		ldr	r3, [r7, #4]
 5625 012e 0133     		adds	r3, r3, #1
 5626 0130 FA68     		ldr	r2, [r7, #12]
 5627 0132 02FB03F2 		mul	r2, r2, r3
 5628 0136 7B68     		ldr	r3, [r7, #4]
ARM GAS  C:\Users\LilRobby\AppData\Local\Temp\cczyjVY0.s 			page 108


 5629 0138 B969     		ldr	r1, [r7, #24]
 5630 013a 01FB03F3 		mul	r3, r1, r3
 5631 013e D90F     		lsrs	r1, r3, #31
 5632 0140 0B44     		add	r3, r3, r1
 5633 0142 5B10     		asrs	r3, r3, #1
 5634 0144 1344     		add	r3, r3, r2
 5635 0146 1846     		mov	r0, r3
 5636 0148 FFF7FEFF 		bl	__aeabi_i2d
 5637 014c 0446     		mov	r4, r0
 5638 014e 0D46     		mov	r5, r1
 5639 0150 B869     		ldr	r0, [r7, #24]
 5640 0152 FFF7FEFF 		bl	__aeabi_i2d
 5641 0156 0246     		mov	r2, r0
 5642 0158 0B46     		mov	r3, r1
 5643 015a 1046     		mov	r0, r2
 5644 015c 1946     		mov	r1, r3
 5645 015e 44A3     		adr	r3, .L151
 5646 0160 D3E90023 		ldrd	r2, [r3]
 5647 0164 FFF7FEFF 		bl	__aeabi_dmul
 5648 0168 0246     		mov	r2, r0
 5649 016a 0B46     		mov	r3, r1
 5650 016c 1046     		mov	r0, r2
 5651 016e 1946     		mov	r1, r3
 5652 0170 4FF00002 		mov	r2, #0
 5653 0174 4FF08043 		mov	r3, #1073741824
 5654 0178 FFF7FEFF 		bl	__aeabi_ddiv
 5655 017c 0246     		mov	r2, r0
 5656 017e 0B46     		mov	r3, r1
 5657 0180 2046     		mov	r0, r4
 5658 0182 2946     		mov	r1, r5
 5659 0184 FFF7FEFF 		bl	__aeabi_dadd
 5660 0188 0246     		mov	r2, r0
 5661 018a 0B46     		mov	r3, r1
 5662 018c 1046     		mov	r0, r2
 5663 018e 1946     		mov	r1, r3
 5664 0190 FFF7FEFF 		bl	__aeabi_d2iz
 5665 0194 0346     		mov	r3, r0
 5666 0196 9DB2     		uxth	r5, r3
 5667 0198 7869     		ldr	r0, [r7, #20]
 5668 019a FFF7FEFF 		bl	__aeabi_i2d
 5669 019e 0246     		mov	r2, r0
 5670 01a0 0B46     		mov	r3, r1
 5671 01a2 1046     		mov	r0, r2
 5672 01a4 1946     		mov	r1, r3
 5673 01a6 34A3     		adr	r3, .L151+8
 5674 01a8 D3E90023 		ldrd	r2, [r3]
 5675 01ac FFF7FEFF 		bl	__aeabi_dmul
 5676 01b0 0246     		mov	r2, r0
 5677 01b2 0B46     		mov	r3, r1
 5678 01b4 1046     		mov	r0, r2
 5679 01b6 1946     		mov	r1, r3
 5680 01b8 FFF7FEFF 		bl	__aeabi_d2iz
 5681 01bc 0346     		mov	r3, r0
 5682 01be 9CB2     		uxth	r4, r3
 5683 01c0 B869     		ldr	r0, [r7, #24]
 5684 01c2 FFF7FEFF 		bl	__aeabi_i2d
 5685 01c6 0246     		mov	r2, r0
ARM GAS  C:\Users\LilRobby\AppData\Local\Temp\cczyjVY0.s 			page 109


 5686 01c8 0B46     		mov	r3, r1
 5687 01ca 1046     		mov	r0, r2
 5688 01cc 1946     		mov	r1, r3
 5689 01ce 2AA3     		adr	r3, .L151+8
 5690 01d0 D3E90023 		ldrd	r2, [r3]
 5691 01d4 FFF7FEFF 		bl	__aeabi_dmul
 5692 01d8 0246     		mov	r2, r0
 5693 01da 0B46     		mov	r3, r1
 5694 01dc 1046     		mov	r0, r2
 5695 01de 1946     		mov	r1, r3
 5696 01e0 FFF7FEFF 		bl	__aeabi_d2iz
 5697 01e4 0346     		mov	r3, r0
 5698 01e6 9BB2     		uxth	r3, r3
 5699 01e8 30B2     		sxth	r0, r6
 5700 01ea 29B2     		sxth	r1, r5
 5701 01ec 22B2     		sxth	r2, r4
 5702 01ee 1CB2     		sxth	r4, r3
 5703 01f0 0023     		movs	r3, #0
 5704 01f2 0093     		str	r3, [sp]
 5705 01f4 2346     		mov	r3, r4
 5706 01f6 FFF7FEFF 		bl	TFTSHIELD_1_FillRect
 461:main.c        **** 
 462:main.c        ****     DrawHEX_a(i, stat&0x01);
 5707              		.loc 1 462 0
 5708 01fa FB78     		ldrb	r3, [r7, #3]
 5709 01fc 03F00103 		and	r3, r3, #1
 5710 0200 DBB2     		uxtb	r3, r3
 5711 0202 7868     		ldr	r0, [r7, #4]
 5712 0204 1946     		mov	r1, r3
 5713 0206 FFF7FEFF 		bl	DrawHEX_a
 463:main.c        ****     DrawHEX_b(i, stat&0x02);
 5714              		.loc 1 463 0
 5715 020a FB78     		ldrb	r3, [r7, #3]
 5716 020c 03F00203 		and	r3, r3, #2
 5717 0210 DBB2     		uxtb	r3, r3
 5718 0212 7868     		ldr	r0, [r7, #4]
 5719 0214 1946     		mov	r1, r3
 5720 0216 FFF7FEFF 		bl	DrawHEX_b
 464:main.c        ****     DrawHEX_c(i, stat&0x04);
 5721              		.loc 1 464 0
 5722 021a FB78     		ldrb	r3, [r7, #3]
 5723 021c 03F00403 		and	r3, r3, #4
 5724 0220 DBB2     		uxtb	r3, r3
 5725 0222 7868     		ldr	r0, [r7, #4]
 5726 0224 1946     		mov	r1, r3
 5727 0226 FFF7FEFF 		bl	DrawHEX_c
 465:main.c        ****     DrawHEX_d(i, stat&0x08);
 5728              		.loc 1 465 0
 5729 022a FB78     		ldrb	r3, [r7, #3]
 5730 022c 03F00803 		and	r3, r3, #8
 5731 0230 DBB2     		uxtb	r3, r3
 5732 0232 7868     		ldr	r0, [r7, #4]
 5733 0234 1946     		mov	r1, r3
 5734 0236 FFF7FEFF 		bl	DrawHEX_d
 466:main.c        ****     DrawHEX_e(i, stat&0x10);
 5735              		.loc 1 466 0
 5736 023a FB78     		ldrb	r3, [r7, #3]
ARM GAS  C:\Users\LilRobby\AppData\Local\Temp\cczyjVY0.s 			page 110


 5737 023c 03F01003 		and	r3, r3, #16
 5738 0240 DBB2     		uxtb	r3, r3
 5739 0242 7868     		ldr	r0, [r7, #4]
 5740 0244 1946     		mov	r1, r3
 5741 0246 FFF7FEFF 		bl	DrawHEX_e
 467:main.c        ****     DrawHEX_f(i, stat&0x20);
 5742              		.loc 1 467 0
 5743 024a FB78     		ldrb	r3, [r7, #3]
 5744 024c 03F02003 		and	r3, r3, #32
 5745 0250 DBB2     		uxtb	r3, r3
 5746 0252 7868     		ldr	r0, [r7, #4]
 5747 0254 1946     		mov	r1, r3
 5748 0256 FFF7FEFF 		bl	DrawHEX_f
 468:main.c        ****     DrawHEX_g(i, stat&0x40);
 5749              		.loc 1 468 0
 5750 025a FB78     		ldrb	r3, [r7, #3]
 5751 025c 03F04003 		and	r3, r3, #64
 5752 0260 DBB2     		uxtb	r3, r3
 5753 0262 7868     		ldr	r0, [r7, #4]
 5754 0264 1946     		mov	r1, r3
 5755 0266 FFF7FEFF 		bl	DrawHEX_g
 469:main.c        ****     
 470:main.c        ****  }
 5756              		.loc 1 470 0
 5757 026a 2437     		adds	r7, r7, #36
 5758              		.cfi_def_cfa_offset 20
 5759 026c BD46     		mov	sp, r7
 5760              		.cfi_def_cfa_register 13
 5761              		@ sp needed
 5762 026e F0BD     		pop	{r4, r5, r6, r7, pc}
 5763              	.L152:
 5764              		.align	3
 5765              	.L151:
 5766 0270 9A999999 		.word	-1717986918
 5767 0274 9999B93F 		.word	1069128089
 5768 0278 CDCCCCCC 		.word	-858993459
 5769 027c CCCCEC3F 		.word	1072483532
 5770 0280 00005840 		.word	1079508992
 5771              		.cfi_endproc
 5772              	.LFE68:
 5773              		.size	DrawHex, .-DrawHex
 5774 0284 AFF30080 		.section	.text.InputTouched,"ax",%progbits
 5775              		.align	2
 5776              		.global	InputTouched
 5777              		.thumb
 5778              		.thumb_func
 5779              		.type	InputTouched, %function
 5780              	InputTouched:
 5781              	.LFB69:
 471:main.c        **** int InputTouched()
 472:main.c        **** {   
 5782              		.loc 1 472 0
 5783              		.cfi_startproc
 5784              		@ args = 0, pretend = 0, frame = 40
 5785              		@ frame_needed = 1, uses_anonymous_args = 0
 5786 0000 80B5     		push	{r7, lr}
 5787              		.cfi_def_cfa_offset 8
ARM GAS  C:\Users\LilRobby\AppData\Local\Temp\cczyjVY0.s 			page 111


 5788              		.cfi_offset 7, -8
 5789              		.cfi_offset 14, -4
 5790 0002 8CB0     		sub	sp, sp, #48
 5791              		.cfi_def_cfa_offset 56
 5792 0004 02AF     		add	r7, sp, #8
 5793              		.cfi_def_cfa 7, 48
 473:main.c        ****     int inputs = switches + push_buttons;
 5794              		.loc 1 473 0
 5795 0006 0823     		movs	r3, #8
 5796 0008 7B61     		str	r3, [r7, #20]
 474:main.c        ****     int separation;
 475:main.c        ****     
 476:main.c        ****     if (inputs>0){separation = y_max/inputs;} //check for div by zero
 5797              		.loc 1 476 0
 5798 000a 7B69     		ldr	r3, [r7, #20]
 5799 000c 002B     		cmp	r3, #0
 5800 000e 06DD     		ble	.L154
 5801              		.loc 1 476 0 is_stmt 0 discriminator 1
 5802 0010 4FF4A072 		mov	r2, #320
 5803 0014 7B69     		ldr	r3, [r7, #20]
 5804 0016 92FBF3F3 		sdiv	r3, r2, r3
 5805 001a 7B62     		str	r3, [r7, #36]
 5806 001c 02E0     		b	.L155
 5807              	.L154:
 477:main.c        ****     else         {separation = y_max + 1;}
 5808              		.loc 1 477 0 is_stmt 1
 5809 001e 40F24113 		movw	r3, #321
 5810 0022 7B62     		str	r3, [r7, #36]
 5811              	.L155:
 478:main.c        ****     int width = separation/2;
 5812              		.loc 1 478 0
 5813 0024 7B6A     		ldr	r3, [r7, #36]
 5814 0026 DA0F     		lsrs	r2, r3, #31
 5815 0028 1344     		add	r3, r3, r2
 5816 002a 5B10     		asrs	r3, r3, #1
 5817 002c 3B62     		str	r3, [r7, #32]
 479:main.c        ****     int length = width*2;
 5818              		.loc 1 479 0
 5819 002e 3B6A     		ldr	r3, [r7, #32]
 5820 0030 5B00     		lsls	r3, r3, #1
 5821 0032 FB61     		str	r3, [r7, #28]
 480:main.c        ****     if (length>x_max/2.5)
 5822              		.loc 1 480 0
 5823 0034 F869     		ldr	r0, [r7, #28]
 5824 0036 FFF7FEFF 		bl	__aeabi_i2d
 5825 003a 0246     		mov	r2, r0
 5826 003c 0B46     		mov	r3, r1
 5827 003e 1046     		mov	r0, r2
 5828 0040 1946     		mov	r1, r3
 5829 0042 4FF00002 		mov	r2, #0
 5830 0046 5C4B     		ldr	r3, .L166
 5831 0048 FFF7FEFF 		bl	__aeabi_dcmpgt
 5832 004c 0346     		mov	r3, r0
 5833 004e 002B     		cmp	r3, #0
 5834 0050 09D0     		beq	.L156
 481:main.c        ****     {   
 482:main.c        ****         length = x_max/2.5;
ARM GAS  C:\Users\LilRobby\AppData\Local\Temp\cczyjVY0.s 			page 112


 5835              		.loc 1 482 0
 5836 0052 6023     		movs	r3, #96
 5837 0054 FB61     		str	r3, [r7, #28]
 483:main.c        ****         width = length/2;
 5838              		.loc 1 483 0
 5839 0056 FB69     		ldr	r3, [r7, #28]
 5840 0058 DA0F     		lsrs	r2, r3, #31
 5841 005a 1344     		add	r3, r3, r2
 5842 005c 5B10     		asrs	r3, r3, #1
 5843 005e 3B62     		str	r3, [r7, #32]
 484:main.c        ****         separation = 2*width;
 5844              		.loc 1 484 0
 5845 0060 3B6A     		ldr	r3, [r7, #32]
 5846 0062 5B00     		lsls	r3, r3, #1
 5847 0064 7B62     		str	r3, [r7, #36]
 5848              	.L156:
 485:main.c        ****     }
 486:main.c        ****     
 487:main.c        ****     int empty = y_max/(inputs+1) - width/2;
 5849              		.loc 1 487 0
 5850 0066 7B69     		ldr	r3, [r7, #20]
 5851 0068 0133     		adds	r3, r3, #1
 5852 006a 4FF4A072 		mov	r2, #320
 5853 006e 92FBF3F2 		sdiv	r2, r2, r3
 5854 0072 3B6A     		ldr	r3, [r7, #32]
 5855 0074 D90F     		lsrs	r1, r3, #31
 5856 0076 0B44     		add	r3, r3, r1
 5857 0078 5B10     		asrs	r3, r3, #1
 5858 007a D31A     		subs	r3, r2, r3
 5859 007c 3B61     		str	r3, [r7, #16]
 488:main.c        ****     int x_input = x_max - 1.5*length;
 5860              		.loc 1 488 0
 5861 007e F869     		ldr	r0, [r7, #28]
 5862 0080 FFF7FEFF 		bl	__aeabi_i2d
 5863 0084 0246     		mov	r2, r0
 5864 0086 0B46     		mov	r3, r1
 5865 0088 1046     		mov	r0, r2
 5866 008a 1946     		mov	r1, r3
 5867 008c 4FF00002 		mov	r2, #0
 5868 0090 4A4B     		ldr	r3, .L166+4
 5869 0092 FFF7FEFF 		bl	__aeabi_dmul
 5870 0096 0246     		mov	r2, r0
 5871 0098 0B46     		mov	r3, r1
 5872 009a 4FF00000 		mov	r0, #0
 5873 009e 4849     		ldr	r1, .L166+8
 5874 00a0 FFF7FEFF 		bl	__aeabi_dsub
 5875 00a4 0246     		mov	r2, r0
 5876 00a6 0B46     		mov	r3, r1
 5877 00a8 1046     		mov	r0, r2
 5878 00aa 1946     		mov	r1, r3
 5879 00ac FFF7FEFF 		bl	__aeabi_d2iz
 5880 00b0 0346     		mov	r3, r0
 5881 00b2 FB60     		str	r3, [r7, #12]
 489:main.c        ****     uint16_t x, y;
 490:main.c        ****     uint8_t z;
 491:main.c        ****     int i = 0;
 5882              		.loc 1 491 0
ARM GAS  C:\Users\LilRobby\AppData\Local\Temp\cczyjVY0.s 			page 113


 5883 00b4 0023     		movs	r3, #0
 5884 00b6 BB61     		str	r3, [r7, #24]
 492:main.c        ****     
 493:main.c        ****     Clock_1_SetDividerValue(24);
 5885              		.loc 1 493 0
 5886 00b8 1720     		movs	r0, #23
 5887 00ba 0121     		movs	r1, #1
 5888 00bc FFF7FEFF 		bl	Clock_1_SetDividerRegister
 494:main.c        ****     CyDelay(1);
 5889              		.loc 1 494 0
 5890 00c0 0120     		movs	r0, #1
 5891 00c2 FFF7FEFF 		bl	CyDelay
 495:main.c        ****     
 496:main.c        ****     if(TFTSHIELD_1_Touched())
 5892              		.loc 1 496 0
 5893 00c6 FFF7FEFF 		bl	TFTSHIELD_1_Touched
 5894 00ca 0346     		mov	r3, r0
 5895 00cc 002B     		cmp	r3, #0
 5896 00ce 66D0     		beq	.L158
 497:main.c        ****     {
 498:main.c        ****          TFTSHIELD_1_ReadData(&x,&y,&z);
 5897              		.loc 1 498 0
 5898 00d0 07F10A01 		add	r1, r7, #10
 5899 00d4 07F10802 		add	r2, r7, #8
 5900 00d8 FB1D     		adds	r3, r7, #7
 5901 00da 0846     		mov	r0, r1
 5902 00dc 1146     		mov	r1, r2
 5903 00de 1A46     		mov	r2, r3
 5904 00e0 FFF7FEFF 		bl	TFTSHIELD_1_ReadData
 499:main.c        ****          x = mapCoor(x, TS_MINX, TS_MAXX, 0, 240);
 5905              		.loc 1 499 0
 5906 00e4 7B89     		ldrh	r3, [r7, #10]
 5907 00e6 1A46     		mov	r2, r3
 5908 00e8 F023     		movs	r3, #240
 5909 00ea 0093     		str	r3, [sp]
 5910 00ec 1046     		mov	r0, r2
 5911 00ee 9621     		movs	r1, #150
 5912 00f0 40F6D862 		movw	r2, #3800
 5913 00f4 0023     		movs	r3, #0
 5914 00f6 FFF7FEFF 		bl	mapCoor
 5915 00fa 0346     		mov	r3, r0
 5916 00fc 9BB2     		uxth	r3, r3
 5917 00fe 7B81     		strh	r3, [r7, #10]	@ movhi
 500:main.c        ****          y = mapCoor(y, TS_MINY, TS_MAXY, 0, 320);
 5918              		.loc 1 500 0
 5919 0100 3B89     		ldrh	r3, [r7, #8]
 5920 0102 1A46     		mov	r2, r3
 5921 0104 4FF4A073 		mov	r3, #320
 5922 0108 0093     		str	r3, [sp]
 5923 010a 1046     		mov	r0, r2
 5924 010c 8221     		movs	r1, #130
 5925 010e 4FF47A62 		mov	r2, #4000
 5926 0112 0023     		movs	r3, #0
 5927 0114 FFF7FEFF 		bl	mapCoor
 5928 0118 0346     		mov	r3, r0
 5929 011a 9BB2     		uxth	r3, r3
 5930 011c 3B81     		strh	r3, [r7, #8]	@ movhi
ARM GAS  C:\Users\LilRobby\AppData\Local\Temp\cczyjVY0.s 			page 114


 501:main.c        ****         
 502:main.c        ****     if(x > x_input && x < (x_max - length/2))
 5931              		.loc 1 502 0
 5932 011e 7B89     		ldrh	r3, [r7, #10]
 5933 0120 1A46     		mov	r2, r3
 5934 0122 FB68     		ldr	r3, [r7, #12]
 5935 0124 9A42     		cmp	r2, r3
 5936 0126 43DD     		ble	.L159
 5937              		.loc 1 502 0 is_stmt 0 discriminator 1
 5938 0128 7B89     		ldrh	r3, [r7, #10]
 5939 012a 1946     		mov	r1, r3
 5940 012c FB69     		ldr	r3, [r7, #28]
 5941 012e DA0F     		lsrs	r2, r3, #31
 5942 0130 1344     		add	r3, r3, r2
 5943 0132 5B10     		asrs	r3, r3, #1
 5944 0134 C3F1F003 		rsb	r3, r3, #240
 5945 0138 9942     		cmp	r1, r3
 5946 013a 39DA     		bge	.L159
 503:main.c        ****     {
 504:main.c        ****        for (i=0; i<inputs; i++)
 5947              		.loc 1 504 0 is_stmt 1
 5948 013c 0023     		movs	r3, #0
 5949 013e BB61     		str	r3, [r7, #24]
 5950 0140 20E0     		b	.L160
 5951              	.L163:
 505:main.c        ****         {
 506:main.c        ****             if (y>((i+1)*empty) && y < ((i+1)*empty + (i+1)*(width/2)))
 5952              		.loc 1 506 0
 5953 0142 3B89     		ldrh	r3, [r7, #8]
 5954 0144 1946     		mov	r1, r3
 5955 0146 BB69     		ldr	r3, [r7, #24]
 5956 0148 0133     		adds	r3, r3, #1
 5957 014a 3A69     		ldr	r2, [r7, #16]
 5958 014c 02FB03F3 		mul	r3, r2, r3
 5959 0150 9942     		cmp	r1, r3
