ARM GAS  C:\Users\LilRobby\AppData\Local\Temp\cc93a0vY.s 			page 1


   1              		.syntax unified
   2              		.cpu cortex-m3
   3              		.fpu softvfp
   4              		.eabi_attribute 20, 1
   5              		.eabi_attribute 21, 1
   6              		.eabi_attribute 23, 3
   7              		.eabi_attribute 24, 1
   8              		.eabi_attribute 25, 1
   9              		.eabi_attribute 26, 1
  10              		.eabi_attribute 30, 6
  11              		.eabi_attribute 34, 1
  12              		.eabi_attribute 18, 4
  13              		.thumb
  14              		.file	"main.c"
  15              		.text
  16              	.Ltext0:
  17              		.cfi_sections	.debug_frame
  18              		.comm	cursor_x,2,2
  19              		.comm	cursor_y,2,2
  20              		.comm	textcolor,2,2
  21              		.comm	textbgcolor,2,2
  22              		.comm	textsize,1,1
  23              		.comm	rotation,1,1
  24              		.comm	wrap,1,1
  25              		.comm	_width,4,4
  26              		.comm	_height,4,4
  27              		.comm	oldcolor,4,4
  28              		.comm	currentcolor,4,4
  29              		.section	.text.main,"ax",%progbits
  30              		.align	2
  31              		.global	main
  32              		.thumb
  33              		.thumb_func
  34              		.type	main, %function
  35              	main:
  36              	.LFB56:
  37              		.file 1 "main.c"
   1:main.c        **** /*******************************************************************************
   2:main.c        **** * \file main.c
   3:main.c        **** * \brief This file is used to demonstrate the TFTSHIELD API.
   4:main.c        **** *
   5:main.c        **** * Version 1.0
   6:main.c        **** *
   7:main.c        **** * \author Robert Barron
   8:main.c        **** *
   9:main.c        **** * \bug 
  10:main.c        **** *******************************************************************************/
  11:main.c        **** #include <project.h>
  12:main.c        **** #include "stdio.h"
  13:main.c        **** 
  14:main.c        **** // This is calibration data for the raw touch data to the screen coordinates
  15:main.c        **** #define TS_MINX 150
  16:main.c        **** #define TS_MINY 130
  17:main.c        **** #define TS_MAXX 3800
  18:main.c        **** #define TS_MAXY 4000
  19:main.c        **** // Size of the color selection boxes and the paintbrush size
  20:main.c        **** #define BOXSIZE 40
ARM GAS  C:\Users\LilRobby\AppData\Local\Temp\cc93a0vY.s 			page 2


  21:main.c        **** #define PENRADIUS 3
  22:main.c        **** int oldcolor, currentcolor;
  23:main.c        **** 
  24:main.c        **** long mapCoor(long x, long in_min, long in_max, long out_min, long out_max);
  25:main.c        **** 
  26:main.c        **** 
  27:main.c        **** int main()
  28:main.c        **** {   
  38              		.loc 1 28 0
  39              		.cfi_startproc
  40              		@ args = 0, pretend = 0, frame = 64
  41              		@ frame_needed = 1, uses_anonymous_args = 0
  42 0000 80B5     		push	{r7, lr}
  43              		.cfi_def_cfa_offset 8
  44              		.cfi_offset 7, -8
  45              		.cfi_offset 14, -4
  46 0002 92B0     		sub	sp, sp, #72
  47              		.cfi_def_cfa_offset 80
  48 0004 02AF     		add	r7, sp, #8
  49              		.cfi_def_cfa 7, 72
  29:main.c        ****     //initializes tft
  30:main.c        ****     CyDelay(1000);
  50              		.loc 1 30 0
  51 0006 4FF47A70 		mov	r0, #1000
  52 000a FFF7FEFF 		bl	CyDelay
  31:main.c        ****     Clock_1_SetDividerValue(24);
  53              		.loc 1 31 0
  54 000e 1720     		movs	r0, #23
  55 0010 0121     		movs	r1, #1
  56 0012 FFF7FEFF 		bl	Clock_1_SetDividerRegister
  32:main.c        ****     CyDelay(10);
  57              		.loc 1 32 0
  58 0016 0A20     		movs	r0, #10
  59 0018 FFF7FEFF 		bl	CyDelay
  33:main.c        ****     //TFTSHIELD_1_StartTouch();
  34:main.c        ****     bool touch_en = 0;
  60              		.loc 1 34 0
  61 001c 0023     		movs	r3, #0
  62 001e 87F83F30 		strb	r3, [r7, #63]
  35:main.c        ****     
  36:main.c        ****     if(TFTSHIELD_1_StartTouch())
  63              		.loc 1 36 0
  64 0022 FFF7FEFF 		bl	TFTSHIELD_1_StartTouch
  65 0026 0346     		mov	r3, r0
  66 0028 002B     		cmp	r3, #0
  67 002a 02D0     		beq	.L2
  37:main.c        ****     {
  38:main.c        ****        touch_en = 1;
  68              		.loc 1 38 0
  69 002c 0123     		movs	r3, #1
  70 002e 87F83F30 		strb	r3, [r7, #63]
  71              	.L2:
  39:main.c        ****     }
  40:main.c        ****     
  41:main.c        ****     Clock_1_SetDividerValue(1);
  72              		.loc 1 41 0
  73 0032 0020     		movs	r0, #0
ARM GAS  C:\Users\LilRobby\AppData\Local\Temp\cc93a0vY.s 			page 3


  74 0034 0121     		movs	r1, #1
  75 0036 FFF7FEFF 		bl	Clock_1_SetDividerRegister
  42:main.c        ****     CyDelay(10);
  76              		.loc 1 42 0
  77 003a 0A20     		movs	r0, #10
  78 003c FFF7FEFF 		bl	CyDelay
  43:main.c        ****     TFTSHIELD_1_Start();
  79              		.loc 1 43 0
  80 0040 FFF7FEFF 		bl	TFTSHIELD_1_Start
  44:main.c        ****     
  45:main.c        ****     TFTSHIELD_1_FillScreen(BLACK);
  81              		.loc 1 45 0
  82 0044 0020     		movs	r0, #0
  83 0046 FFF7FEFF 		bl	TFTSHIELD_1_FillScreen
  46:main.c        ****     //start at 0,0 for text
  47:main.c        ****     TFTSHIELD_1_SetCursor(0,0);
  84              		.loc 1 47 0
  85 004a 0020     		movs	r0, #0
  86 004c 0021     		movs	r1, #0
  87 004e FFF7FEFF 		bl	TFTSHIELD_1_SetCursor
  48:main.c        ****     TFTSHIELD_1_SetTextColor(WHITE);  
  88              		.loc 1 48 0
  89 0052 4FF6FF70 		movw	r0, #65535
  90 0056 FFF7FEFF 		bl	TFTSHIELD_1_SetTextColor
  49:main.c        ****     TFTSHIELD_1_SetTextSize(2);
  91              		.loc 1 49 0
  92 005a 0220     		movs	r0, #2
  93 005c FFF7FEFF 		bl	TFTSHIELD_1_SetTextSize
  50:main.c        ****     
  51:main.c        ****     //landscape orientation
  52:main.c        ****     //TFTSHIELD_1_SetRotation(1);
  53:main.c        ****     //TFTSHIELD_1_PrintString("tft lcd screen with word wrap working blah blah blah");
  54:main.c        ****     
  55:main.c        ****     //TFTSHIELD_1_DrawLine(50, 150, 100, 150, GREEN);
  56:main.c        ****    // TFTSHIELD_1_DrawLine(35, 100, 35 , 200, BLUE);
  57:main.c        ****     //TFTSHIELD_1_FillCircle(100,100,10,MAGENTA);
  58:main.c        ****     
  59:main.c        ****     //TFTSHIELD_1_FillRect(150, 150, 75,75, YELLOW);
  60:main.c        ****     if(touch_en)
  61:main.c        ****     {
  62:main.c        ****         //TFTSHIELD_1_PrintString("GO1");
  63:main.c        ****     }
  64:main.c        ****     //initializes touchscreen
  65:main.c        ****     //clock must be set to 1MHZ when polling the touchscreen..
  66:main.c        ****     Clock_1_SetDividerValue(24);
  94              		.loc 1 66 0
  95 0060 1720     		movs	r0, #23
  96 0062 0121     		movs	r1, #1
  97 0064 FFF7FEFF 		bl	Clock_1_SetDividerRegister
  67:main.c        ****     CyDelay(10);
  98              		.loc 1 67 0
  99 0068 0A20     		movs	r0, #10
 100 006a FFF7FEFF 		bl	CyDelay
  68:main.c        ****     
  69:main.c        ****     //int touchon = 0;
  70:main.c        ****     if(TFTSHIELD_1_StartTouch())
 101              		.loc 1 70 0
ARM GAS  C:\Users\LilRobby\AppData\Local\Temp\cc93a0vY.s 			page 4


 102 006e FFF7FEFF 		bl	TFTSHIELD_1_StartTouch
  71:main.c        ****     {
  72:main.c        ****          //touchon = 1;  
  73:main.c        ****         /*Clock_1_SetDividerValue(1);
  74:main.c        ****         CyDelay(1);
  75:main.c        ****         TFTSHIELD_1_PrintString("     GO2");
  76:main.c        ****         Clock_1_SetDividerValue(24);*/
  77:main.c        ****     }
  78:main.c        ****     
  79:main.c        ****     Clock_1_SetDividerValue(1);
 103              		.loc 1 79 0
 104 0072 0020     		movs	r0, #0
 105 0074 0121     		movs	r1, #1
 106 0076 FFF7FEFF 		bl	Clock_1_SetDividerRegister
  80:main.c        ****     CyDelay(10);
 107              		.loc 1 80 0
 108 007a 0A20     		movs	r0, #10
 109 007c FFF7FEFF 		bl	CyDelay
  81:main.c        ****     
  82:main.c        ****     //leds
  83:main.c        ****     TFTSHIELD_1_FillCircle(120,40,20,GRAY);
 110              		.loc 1 83 0
 111 0080 7820     		movs	r0, #120
 112 0082 2821     		movs	r1, #40
 113 0084 1422     		movs	r2, #20
 114 0086 47F6EF33 		movw	r3, #31727
 115 008a FFF7FEFF 		bl	TFTSHIELD_1_FillCircle
  84:main.c        ****     TFTSHIELD_1_FillCircle(120,120,20,GRAY);
 116              		.loc 1 84 0
 117 008e 7820     		movs	r0, #120
 118 0090 7821     		movs	r1, #120
 119 0092 1422     		movs	r2, #20
 120 0094 47F6EF33 		movw	r3, #31727
 121 0098 FFF7FEFF 		bl	TFTSHIELD_1_FillCircle
  85:main.c        ****     TFTSHIELD_1_FillCircle(120,200,20,GRAY);
 122              		.loc 1 85 0
 123 009c 7820     		movs	r0, #120
 124 009e C821     		movs	r1, #200
 125 00a0 1422     		movs	r2, #20
 126 00a2 47F6EF33 		movw	r3, #31727
 127 00a6 FFF7FEFF 		bl	TFTSHIELD_1_FillCircle
  86:main.c        ****     TFTSHIELD_1_FillCircle(120,280,20,GRAY);
 128              		.loc 1 86 0
 129 00aa 7820     		movs	r0, #120
 130 00ac 4FF48C71 		mov	r1, #280
 131 00b0 1422     		movs	r2, #20
 132 00b2 47F6EF33 		movw	r3, #31727
 133 00b6 FFF7FEFF 		bl	TFTSHIELD_1_FillCircle
  87:main.c        ****     
  88:main.c        ****     //pushbuttons
  89:main.c        ****     TFTSHIELD_1_FillRect(175,15,50,50,GRAY);
 134              		.loc 1 89 0
 135 00ba 47F6EF33 		movw	r3, #31727
 136 00be 0093     		str	r3, [sp]
 137 00c0 AF20     		movs	r0, #175
 138 00c2 0F21     		movs	r1, #15
 139 00c4 3222     		movs	r2, #50
ARM GAS  C:\Users\LilRobby\AppData\Local\Temp\cc93a0vY.s 			page 5


 140 00c6 3223     		movs	r3, #50
 141 00c8 FFF7FEFF 		bl	TFTSHIELD_1_FillRect
  90:main.c        ****     TFTSHIELD_1_FillRect(175,95,50,50,GRAY);
 142              		.loc 1 90 0
 143 00cc 47F6EF33 		movw	r3, #31727
 144 00d0 0093     		str	r3, [sp]
 145 00d2 AF20     		movs	r0, #175
 146 00d4 5F21     		movs	r1, #95
 147 00d6 3222     		movs	r2, #50
 148 00d8 3223     		movs	r3, #50
 149 00da FFF7FEFF 		bl	TFTSHIELD_1_FillRect
  91:main.c        ****     TFTSHIELD_1_FillRect(175,175,50,50,GRAY);
 150              		.loc 1 91 0
 151 00de 47F6EF33 		movw	r3, #31727
 152 00e2 0093     		str	r3, [sp]
 153 00e4 AF20     		movs	r0, #175
 154 00e6 AF21     		movs	r1, #175
 155 00e8 3222     		movs	r2, #50
 156 00ea 3223     		movs	r3, #50
 157 00ec FFF7FEFF 		bl	TFTSHIELD_1_FillRect
  92:main.c        ****     TFTSHIELD_1_FillRect(175,255,50,50,GRAY);
 158              		.loc 1 92 0
 159 00f0 47F6EF33 		movw	r3, #31727
 160 00f4 0093     		str	r3, [sp]
 161 00f6 AF20     		movs	r0, #175
 162 00f8 FF21     		movs	r1, #255
 163 00fa 3222     		movs	r2, #50
 164 00fc 3223     		movs	r3, #50
 165 00fe FFF7FEFF 		bl	TFTSHIELD_1_FillRect
  93:main.c        ****     TFTSHIELD_1_FillCircle(200,40,20,BLACK);
 166              		.loc 1 93 0
 167 0102 C820     		movs	r0, #200
 168 0104 2821     		movs	r1, #40
 169 0106 1422     		movs	r2, #20
 170 0108 0023     		movs	r3, #0
 171 010a FFF7FEFF 		bl	TFTSHIELD_1_FillCircle
  94:main.c        ****     TFTSHIELD_1_FillCircle(200,120,20,BLACK);
 172              		.loc 1 94 0
 173 010e C820     		movs	r0, #200
 174 0110 7821     		movs	r1, #120
 175 0112 1422     		movs	r2, #20
 176 0114 0023     		movs	r3, #0
 177 0116 FFF7FEFF 		bl	TFTSHIELD_1_FillCircle
  95:main.c        ****     TFTSHIELD_1_FillCircle(200,200,20,BLACK);
 178              		.loc 1 95 0
 179 011a C820     		movs	r0, #200
 180 011c C821     		movs	r1, #200
 181 011e 1422     		movs	r2, #20
 182 0120 0023     		movs	r3, #0
 183 0122 FFF7FEFF 		bl	TFTSHIELD_1_FillCircle
  96:main.c        ****     TFTSHIELD_1_FillCircle(200,280,20,BLACK);
 184              		.loc 1 96 0
 185 0126 C820     		movs	r0, #200
 186 0128 4FF48C71 		mov	r1, #280
 187 012c 1422     		movs	r2, #20
 188 012e 0023     		movs	r3, #0
 189 0130 FFF7FEFF 		bl	TFTSHIELD_1_FillCircle
ARM GAS  C:\Users\LilRobby\AppData\Local\Temp\cc93a0vY.s 			page 6


 190              	.L15:
 191              	.LBB2:
  97:main.c        ****     
  98:main.c        ****     for(;;)
  99:main.c        ****     {
 100:main.c        ****         Clock_1_SetDividerValue(24);
 192              		.loc 1 100 0
 193 0134 1720     		movs	r0, #23
 194 0136 0121     		movs	r1, #1
 195 0138 FFF7FEFF 		bl	Clock_1_SetDividerRegister
 101:main.c        ****         uint16_t x, y;
 102:main.c        ****         uint8_t z, buf;
 103:main.c        ****         char buffer[50];
 104:main.c        ****         //Clock_1_SetDividerValue(24);
 105:main.c        ****         CyDelay(1);
 196              		.loc 1 105 0
 197 013c 0120     		movs	r0, #1
 198 013e FFF7FEFF 		bl	CyDelay
 106:main.c        ****         if(TFTSHIELD_1_Touched())
 199              		.loc 1 106 0
 200 0142 FFF7FEFF 		bl	TFTSHIELD_1_Touched
 201 0146 0346     		mov	r3, r0
 202 0148 002B     		cmp	r3, #0
 203 014a 00F0A980 		beq	.L3
 107:main.c        ****         {
 108:main.c        ****            
 109:main.c        ****             TFTSHIELD_1_ReadData(&x,&y,&z);
 204              		.loc 1 109 0
 205 014e 07F13C01 		add	r1, r7, #60
 206 0152 07F13A02 		add	r2, r7, #58
 207 0156 07F13903 		add	r3, r7, #57
 208 015a 0846     		mov	r0, r1
 209 015c 1146     		mov	r1, r2
 210 015e 1A46     		mov	r2, r3
 211 0160 FFF7FEFF 		bl	TFTSHIELD_1_ReadData
 110:main.c        ****             x = mapCoor(x, TS_MINX, TS_MAXX, 0, 240);
 212              		.loc 1 110 0
 213 0164 BB8F     		ldrh	r3, [r7, #60]
 214 0166 1A46     		mov	r2, r3
 215 0168 F023     		movs	r3, #240
 216 016a 0093     		str	r3, [sp]
 217 016c 1046     		mov	r0, r2
 218 016e 9621     		movs	r1, #150
 219 0170 40F6D862 		movw	r2, #3800
 220 0174 0023     		movs	r3, #0
 221 0176 FFF7FEFF 		bl	mapCoor
 222 017a 0346     		mov	r3, r0
 223 017c 9BB2     		uxth	r3, r3
 224 017e BB87     		strh	r3, [r7, #60]	@ movhi
 111:main.c        ****             y = mapCoor(y, TS_MINY, TS_MAXY, 0, 320);
 225              		.loc 1 111 0
 226 0180 7B8F     		ldrh	r3, [r7, #58]
 227 0182 1A46     		mov	r2, r3
 228 0184 4FF4A073 		mov	r3, #320
 229 0188 0093     		str	r3, [sp]
 230 018a 1046     		mov	r0, r2
 231 018c 8221     		movs	r1, #130
ARM GAS  C:\Users\LilRobby\AppData\Local\Temp\cc93a0vY.s 			page 7


 232 018e 4FF47A62 		mov	r2, #4000
 233 0192 0023     		movs	r3, #0
 234 0194 FFF7FEFF 		bl	mapCoor
 235 0198 0346     		mov	r3, r0
 236 019a 9BB2     		uxth	r3, r3
 237 019c 7B87     		strh	r3, [r7, #58]	@ movhi
 112:main.c        ****             Clock_1_SetDividerValue(1);
 238              		.loc 1 112 0
 239 019e 0020     		movs	r0, #0
 240 01a0 0121     		movs	r1, #1
 241 01a2 FFF7FEFF 		bl	Clock_1_SetDividerRegister
 113:main.c        ****             if(x > 175 && x < 225)
 242              		.loc 1 113 0
 243 01a6 BB8F     		ldrh	r3, [r7, #60]
 244 01a8 AF2B     		cmp	r3, #175
 245 01aa 5AD9     		bls	.L4
 246              		.loc 1 113 0 is_stmt 0 discriminator 1
 247 01ac BB8F     		ldrh	r3, [r7, #60]
 248 01ae E02B     		cmp	r3, #224
 249 01b0 57D8     		bhi	.L4
 114:main.c        ****             {
 115:main.c        ****                 if(y > 15 && y < 65)
 250              		.loc 1 115 0 is_stmt 1
 251 01b2 7B8F     		ldrh	r3, [r7, #58]
 252 01b4 0F2B     		cmp	r3, #15
 253 01b6 0AD9     		bls	.L5
 254              		.loc 1 115 0 is_stmt 0 discriminator 1
 255 01b8 7B8F     		ldrh	r3, [r7, #58]
 256 01ba 402B     		cmp	r3, #64
 257 01bc 07D8     		bhi	.L5
 116:main.c        ****                 {
 117:main.c        ****                     TFTSHIELD_1_FillCircle(120,40,20,RED);
 258              		.loc 1 117 0 is_stmt 1
 259 01be 7820     		movs	r0, #120
 260 01c0 2821     		movs	r1, #40
 261 01c2 1422     		movs	r2, #20
 262 01c4 4FF47843 		mov	r3, #63488
 263 01c8 FFF7FEFF 		bl	TFTSHIELD_1_FillCircle
 264 01cc 06E0     		b	.L6
 265              	.L5:
 118:main.c        ****                 }
 119:main.c        ****                 else
 120:main.c        ****                 {
 121:main.c        ****                     TFTSHIELD_1_FillCircle(120,40,20,GRAY);
 266              		.loc 1 121 0
 267 01ce 7820     		movs	r0, #120
 268 01d0 2821     		movs	r1, #40
 269 01d2 1422     		movs	r2, #20
 270 01d4 47F6EF33 		movw	r3, #31727
 271 01d8 FFF7FEFF 		bl	TFTSHIELD_1_FillCircle
 272              	.L6:
 122:main.c        ****                 }
 123:main.c        ****                  if(y > 95 && y < 145)
 273              		.loc 1 123 0
 274 01dc 7B8F     		ldrh	r3, [r7, #58]
 275 01de 5F2B     		cmp	r3, #95
 276 01e0 0AD9     		bls	.L7
ARM GAS  C:\Users\LilRobby\AppData\Local\Temp\cc93a0vY.s 			page 8


 277              		.loc 1 123 0 is_stmt 0 discriminator 1
 278 01e2 7B8F     		ldrh	r3, [r7, #58]
 279 01e4 902B     		cmp	r3, #144
 280 01e6 07D8     		bhi	.L7
 124:main.c        ****                 {
 125:main.c        ****                     TFTSHIELD_1_FillCircle(120,120,20,RED);
 281              		.loc 1 125 0 is_stmt 1
 282 01e8 7820     		movs	r0, #120
 283 01ea 7821     		movs	r1, #120
 284 01ec 1422     		movs	r2, #20
 285 01ee 4FF47843 		mov	r3, #63488
 286 01f2 FFF7FEFF 		bl	TFTSHIELD_1_FillCircle
 287 01f6 06E0     		b	.L8
 288              	.L7:
 126:main.c        ****                 }
 127:main.c        ****                 else
 128:main.c        ****                 {
 129:main.c        ****                     TFTSHIELD_1_FillCircle(120,120,20,GRAY);
 289              		.loc 1 129 0
 290 01f8 7820     		movs	r0, #120
 291 01fa 7821     		movs	r1, #120
 292 01fc 1422     		movs	r2, #20
 293 01fe 47F6EF33 		movw	r3, #31727
 294 0202 FFF7FEFF 		bl	TFTSHIELD_1_FillCircle
 295              	.L8:
 130:main.c        ****                  }
 131:main.c        ****                  if(y > 175 && y < 225)
 296              		.loc 1 131 0
 297 0206 7B8F     		ldrh	r3, [r7, #58]
 298 0208 AF2B     		cmp	r3, #175
 299 020a 0AD9     		bls	.L9
 300              		.loc 1 131 0 is_stmt 0 discriminator 1
 301 020c 7B8F     		ldrh	r3, [r7, #58]
 302 020e E02B     		cmp	r3, #224
 303 0210 07D8     		bhi	.L9
 132:main.c        ****                 {
 133:main.c        ****                     TFTSHIELD_1_FillCircle(120,200,20,RED);
 304              		.loc 1 133 0 is_stmt 1
 305 0212 7820     		movs	r0, #120
 306 0214 C821     		movs	r1, #200
 307 0216 1422     		movs	r2, #20
 308 0218 4FF47843 		mov	r3, #63488
 309 021c FFF7FEFF 		bl	TFTSHIELD_1_FillCircle
 310 0220 06E0     		b	.L10
 311              	.L9:
 134:main.c        ****                 }
 135:main.c        ****                 else
 136:main.c        ****                 {
 137:main.c        ****                     TFTSHIELD_1_FillCircle(120,200,20,GRAY);
 312              		.loc 1 137 0
 313 0222 7820     		movs	r0, #120
 314 0224 C821     		movs	r1, #200
 315 0226 1422     		movs	r2, #20
 316 0228 47F6EF33 		movw	r3, #31727
 317 022c FFF7FEFF 		bl	TFTSHIELD_1_FillCircle
 318              	.L10:
 138:main.c        ****                  }
ARM GAS  C:\Users\LilRobby\AppData\Local\Temp\cc93a0vY.s 			page 9


 139:main.c        ****                   if(y > 255 && y < 295)
 319              		.loc 1 139 0
 320 0230 7B8F     		ldrh	r3, [r7, #58]
 321 0232 FF2B     		cmp	r3, #255
 322 0234 0CD9     		bls	.L11
 323              		.loc 1 139 0 is_stmt 0 discriminator 1
 324 0236 7B8F     		ldrh	r3, [r7, #58]
 325 0238 B3F5937F 		cmp	r3, #294
 326 023c 08D8     		bhi	.L11
 140:main.c        ****                 {
 141:main.c        ****                     TFTSHIELD_1_FillCircle(120,280,20,RED);
 327              		.loc 1 141 0 is_stmt 1
 328 023e 7820     		movs	r0, #120
 329 0240 4FF48C71 		mov	r1, #280
 330 0244 1422     		movs	r2, #20
 331 0246 4FF47843 		mov	r3, #63488
 332 024a FFF7FEFF 		bl	TFTSHIELD_1_FillCircle
 139:main.c        ****                 {
 333              		.loc 1 139 0
 334 024e 26E0     		b	.L13
 335              	.L11:
 142:main.c        ****                 }
 143:main.c        ****                 
 144:main.c        ****                 else
 145:main.c        ****                 {
 146:main.c        ****                      TFTSHIELD_1_FillCircle(120,280,20,GRAY);
 336              		.loc 1 146 0
 337 0250 7820     		movs	r0, #120
 338 0252 4FF48C71 		mov	r1, #280
 339 0256 1422     		movs	r2, #20
 340 0258 47F6EF33 		movw	r3, #31727
 341 025c FFF7FEFF 		bl	TFTSHIELD_1_FillCircle
 139:main.c        ****                 {
 342              		.loc 1 139 0
 343 0260 1DE0     		b	.L13
 344              	.L4:
 147:main.c        ****                  }
 148:main.c        ****                 
 149:main.c        ****             }
 150:main.c        ****             else
 151:main.c        ****             {
 152:main.c        ****             TFTSHIELD_1_FillCircle(120,40,20,GRAY);
 345              		.loc 1 152 0
 346 0262 7820     		movs	r0, #120
 347 0264 2821     		movs	r1, #40
 348 0266 1422     		movs	r2, #20
 349 0268 47F6EF33 		movw	r3, #31727
 350 026c FFF7FEFF 		bl	TFTSHIELD_1_FillCircle
 153:main.c        ****             TFTSHIELD_1_FillCircle(120,120,20,GRAY);
 351              		.loc 1 153 0
 352 0270 7820     		movs	r0, #120
 353 0272 7821     		movs	r1, #120
 354 0274 1422     		movs	r2, #20
 355 0276 47F6EF33 		movw	r3, #31727
 356 027a FFF7FEFF 		bl	TFTSHIELD_1_FillCircle
 154:main.c        ****             TFTSHIELD_1_FillCircle(120,200,20,GRAY);
 357              		.loc 1 154 0
ARM GAS  C:\Users\LilRobby\AppData\Local\Temp\cc93a0vY.s 			page 10


 358 027e 7820     		movs	r0, #120
 359 0280 C821     		movs	r1, #200
 360 0282 1422     		movs	r2, #20
 361 0284 47F6EF33 		movw	r3, #31727
 362 0288 FFF7FEFF 		bl	TFTSHIELD_1_FillCircle
 155:main.c        ****             TFTSHIELD_1_FillCircle(120,280,20,GRAY);
 363              		.loc 1 155 0
 364 028c 7820     		movs	r0, #120
 365 028e 4FF48C71 		mov	r1, #280
 366 0292 1422     		movs	r2, #20
 367 0294 47F6EF33 		movw	r3, #31727
 368 0298 FFF7FEFF 		bl	TFTSHIELD_1_FillCircle
 369 029c 23E0     		b	.L14
 370              	.L13:
 371 029e 22E0     		b	.L14
 372              	.L3:
 156:main.c        ****             }
 157:main.c        ****         }
 158:main.c        ****         else
 159:main.c        ****         {
 160:main.c        ****             TFTSHIELD_1_ResetBuffer();
 373              		.loc 1 160 0
 374 02a0 FFF7FEFF 		bl	TFTSHIELD_1_ResetBuffer
 161:main.c        ****              Clock_1_SetDividerValue(1);
 375              		.loc 1 161 0
 376 02a4 0020     		movs	r0, #0
 377 02a6 0121     		movs	r1, #1
 378 02a8 FFF7FEFF 		bl	Clock_1_SetDividerRegister
 162:main.c        ****             //leds
 163:main.c        ****             TFTSHIELD_1_FillCircle(120,40,20,GRAY);
 379              		.loc 1 163 0
 380 02ac 7820     		movs	r0, #120
 381 02ae 2821     		movs	r1, #40
 382 02b0 1422     		movs	r2, #20
 383 02b2 47F6EF33 		movw	r3, #31727
 384 02b6 FFF7FEFF 		bl	TFTSHIELD_1_FillCircle
 164:main.c        ****             TFTSHIELD_1_FillCircle(120,120,20,GRAY);
 385              		.loc 1 164 0
 386 02ba 7820     		movs	r0, #120
 387 02bc 7821     		movs	r1, #120
 388 02be 1422     		movs	r2, #20
 389 02c0 47F6EF33 		movw	r3, #31727
 390 02c4 FFF7FEFF 		bl	TFTSHIELD_1_FillCircle
 165:main.c        ****             TFTSHIELD_1_FillCircle(120,200,20,GRAY);
 391              		.loc 1 165 0
 392 02c8 7820     		movs	r0, #120
 393 02ca C821     		movs	r1, #200
 394 02cc 1422     		movs	r2, #20
 395 02ce 47F6EF33 		movw	r3, #31727
 396 02d2 FFF7FEFF 		bl	TFTSHIELD_1_FillCircle
 166:main.c        ****             TFTSHIELD_1_FillCircle(120,280,20,GRAY);
 397              		.loc 1 166 0
 398 02d6 7820     		movs	r0, #120
 399 02d8 4FF48C71 		mov	r1, #280
 400 02dc 1422     		movs	r2, #20
 401 02de 47F6EF33 		movw	r3, #31727
 402 02e2 FFF7FEFF 		bl	TFTSHIELD_1_FillCircle
ARM GAS  C:\Users\LilRobby\AppData\Local\Temp\cc93a0vY.s 			page 11


 403              	.L14:
 404              	.LBE2:
 167:main.c        ****         }
 168:main.c        ****     
 169:main.c        ****     }
 405              		.loc 1 169 0 discriminator 2
 406 02e6 25E7     		b	.L15
 407              		.cfi_endproc
 408              	.LFE56:
 409              		.size	main, .-main
 410              		.section	.text.mapCoor,"ax",%progbits
 411              		.align	2
 412              		.global	mapCoor
 413              		.thumb
 414              		.thumb_func
 415              		.type	mapCoor, %function
 416              	mapCoor:
 417              	.LFB57:
 170:main.c        ****     
 171:main.c        ****     
 172:main.c        **** }
 173:main.c        **** 
 174:main.c        **** long mapCoor(long x, long in_min, long in_max, long out_min, long out_max)
 175:main.c        **** {
 418              		.loc 1 175 0
 419              		.cfi_startproc
 420              		@ args = 4, pretend = 0, frame = 16
 421              		@ frame_needed = 1, uses_anonymous_args = 0
 422              		@ link register save eliminated.
 423 0000 80B4     		push	{r7}
 424              		.cfi_def_cfa_offset 4
 425              		.cfi_offset 7, -4
 426 0002 85B0     		sub	sp, sp, #20
 427              		.cfi_def_cfa_offset 24
 428 0004 00AF     		add	r7, sp, #0
 429              		.cfi_def_cfa_register 7
 430 0006 F860     		str	r0, [r7, #12]
 431 0008 B960     		str	r1, [r7, #8]
 432 000a 7A60     		str	r2, [r7, #4]
 433 000c 3B60     		str	r3, [r7]
 176:main.c        ****   return (x - in_min) * (out_max - out_min) / (in_max - in_min) + out_min;
 434              		.loc 1 176 0
 435 000e FA68     		ldr	r2, [r7, #12]
 436 0010 BB68     		ldr	r3, [r7, #8]
 437 0012 D31A     		subs	r3, r2, r3
 438 0014 B969     		ldr	r1, [r7, #24]
 439 0016 3A68     		ldr	r2, [r7]
 440 0018 8A1A     		subs	r2, r1, r2
 441 001a 02FB03F2 		mul	r2, r2, r3
 442 001e 7968     		ldr	r1, [r7, #4]
 443 0020 BB68     		ldr	r3, [r7, #8]
 444 0022 CB1A     		subs	r3, r1, r3
 445 0024 92FBF3F2 		sdiv	r2, r2, r3
 446 0028 3B68     		ldr	r3, [r7]
 447 002a 1344     		add	r3, r3, r2
 177:main.c        **** }...
 448              		.loc 1 177 0
ARM GAS  C:\Users\LilRobby\AppData\Local\Temp\cc93a0vY.s 			page 12


 449 002c 1846     		mov	r0, r3
 450 002e 1437     		adds	r7, r7, #20
 451              		.cfi_def_cfa_offset 4
 452 0030 BD46     		mov	sp, r7
 453              		.cfi_def_cfa_register 13
 454              		@ sp needed
 455 0032 5DF8047B 		ldr	r7, [sp], #4
 456              		.cfi_restore 7
 457              		.cfi_def_cfa_offset 0
 458 0036 7047     		bx	lr
 459              		.cfi_endproc
 460              	.LFE57:
 461              		.size	mapCoor, .-mapCoor
 462              		.text
 463              	.Letext0:
 464              		.file 2 "c:\\program files (x86)\\cypress\\psoc creator\\4.0\\psoc creator\\import\\gnu\\arm\\4.9.
 465              		.file 3 "c:\\program files (x86)\\cypress\\psoc creator\\4.0\\psoc creator\\import\\gnu\\arm\\4.9.
 466              		.file 4 "Generated_Source\\PSoC5/TFTSHIELD_1.h"
 467              		.file 5 "Generated_Source\\PSoC5/core_cm3.h"