ARM GAS  C:\Users\barror2\AppData\Local\Temp\ccTtpImg.s 			page 1


   1              		.syntax unified
   2              		.cpu cortex-m3
   3              		.fpu softvfp
   4              		.eabi_attribute 20, 1
   5              		.eabi_attribute 21, 1
   6              		.eabi_attribute 23, 3
   7              		.eabi_attribute 24, 1
   8              		.eabi_attribute 25, 1
   9              		.eabi_attribute 26, 1
  10              		.eabi_attribute 30, 6
  11              		.eabi_attribute 34, 1
  12              		.eabi_attribute 18, 4
  13              		.thumb
  14              		.file	"cyfitter_cfg.c"
  15              		.text
  16              	.Ltext0:
  17              		.cfi_sections	.debug_frame
  18              		.section	.text.CYMEMZERO,"ax",%progbits
  19              		.align	2
  20              		.thumb
  21              		.thumb_func
  22              		.type	CYMEMZERO, %function
  23              	CYMEMZERO:
  24              	.LFB0:
  25              		.file 1 ".\\Generated_Source\\PSoC5\\cyfitter_cfg.c"
   1:.\Generated_Source\PSoC5/cyfitter_cfg.c **** /*******************************************************************************
   2:.\Generated_Source\PSoC5/cyfitter_cfg.c **** * FILENAME: cyfitter_cfg.c
   3:.\Generated_Source\PSoC5/cyfitter_cfg.c **** * PSoC Creator 3.0 Component Pack 7
   4:.\Generated_Source\PSoC5/cyfitter_cfg.c **** *
   5:.\Generated_Source\PSoC5/cyfitter_cfg.c **** * Description:
   6:.\Generated_Source\PSoC5/cyfitter_cfg.c **** * This file is automatically generated by PSoC Creator with device 
   7:.\Generated_Source\PSoC5/cyfitter_cfg.c **** * initialization code.  Except for the user defined sections in
   8:.\Generated_Source\PSoC5/cyfitter_cfg.c **** * CyClockStartupError(), this file should not be modified.
   9:.\Generated_Source\PSoC5/cyfitter_cfg.c **** *
  10:.\Generated_Source\PSoC5/cyfitter_cfg.c **** ********************************************************************************
  11:.\Generated_Source\PSoC5/cyfitter_cfg.c **** * Copyright 2013, Cypress Semiconductor Corporation.  All rights reserved.
  12:.\Generated_Source\PSoC5/cyfitter_cfg.c **** * You may use this file only in accordance with the license, terms, conditions, 
  13:.\Generated_Source\PSoC5/cyfitter_cfg.c **** * disclaimers, and limitations in the end user license agreement accompanying 
  14:.\Generated_Source\PSoC5/cyfitter_cfg.c **** * the software package with which this file was provided.
  15:.\Generated_Source\PSoC5/cyfitter_cfg.c **** ********************************************************************************/
  16:.\Generated_Source\PSoC5/cyfitter_cfg.c **** 
  17:.\Generated_Source\PSoC5/cyfitter_cfg.c **** #include <string.h>
  18:.\Generated_Source\PSoC5/cyfitter_cfg.c **** #include <cytypes.h>
  19:.\Generated_Source\PSoC5/cyfitter_cfg.c **** #include <cydevice_trm.h>
  20:.\Generated_Source\PSoC5/cyfitter_cfg.c **** #include <cyfitter.h>
  21:.\Generated_Source\PSoC5/cyfitter_cfg.c **** #include <CyLib.h>
  22:.\Generated_Source\PSoC5/cyfitter_cfg.c **** #include <cyfitter_cfg.h>
  23:.\Generated_Source\PSoC5/cyfitter_cfg.c **** 
  24:.\Generated_Source\PSoC5/cyfitter_cfg.c **** #define CY_NEED_CYCLOCKSTARTUPERROR 1
  25:.\Generated_Source\PSoC5/cyfitter_cfg.c **** 
  26:.\Generated_Source\PSoC5/cyfitter_cfg.c **** 
  27:.\Generated_Source\PSoC5/cyfitter_cfg.c **** #if defined(__GNUC__) || defined(__ARMCC_VERSION)
  28:.\Generated_Source\PSoC5/cyfitter_cfg.c ****     #define CYPACKED 
  29:.\Generated_Source\PSoC5/cyfitter_cfg.c ****     #define CYPACKED_ATTR __attribute__ ((packed))
  30:.\Generated_Source\PSoC5/cyfitter_cfg.c ****     #define CYALIGNED __attribute__ ((aligned))
  31:.\Generated_Source\PSoC5/cyfitter_cfg.c ****     #define CY_CFG_UNUSED __attribute__ ((unused))
  32:.\Generated_Source\PSoC5/cyfitter_cfg.c ****     #define CY_CFG_SECTION __attribute__ ((section(".psocinit")))
ARM GAS  C:\Users\barror2\AppData\Local\Temp\ccTtpImg.s 			page 2


  33:.\Generated_Source\PSoC5/cyfitter_cfg.c ****     
  34:.\Generated_Source\PSoC5/cyfitter_cfg.c ****     #if defined(__ARMCC_VERSION)
  35:.\Generated_Source\PSoC5/cyfitter_cfg.c ****         #define CY_CFG_MEMORY_BARRIER() __memory_changed()
  36:.\Generated_Source\PSoC5/cyfitter_cfg.c ****     #else
  37:.\Generated_Source\PSoC5/cyfitter_cfg.c ****         #define CY_CFG_MEMORY_BARRIER() __sync_synchronize()
  38:.\Generated_Source\PSoC5/cyfitter_cfg.c ****     #endif
  39:.\Generated_Source\PSoC5/cyfitter_cfg.c ****     
  40:.\Generated_Source\PSoC5/cyfitter_cfg.c **** #elif defined(__ICCARM__)
  41:.\Generated_Source\PSoC5/cyfitter_cfg.c ****     #include <intrinsics.h>
  42:.\Generated_Source\PSoC5/cyfitter_cfg.c **** 
  43:.\Generated_Source\PSoC5/cyfitter_cfg.c ****     #define CYPACKED __packed
  44:.\Generated_Source\PSoC5/cyfitter_cfg.c ****     #define CYPACKED_ATTR 
  45:.\Generated_Source\PSoC5/cyfitter_cfg.c ****     #define CYALIGNED _Pragma("data_alignment=4")
  46:.\Generated_Source\PSoC5/cyfitter_cfg.c ****     #define CY_CFG_UNUSED _Pragma("diag_suppress=Pe177")
  47:.\Generated_Source\PSoC5/cyfitter_cfg.c ****     #define CY_CFG_SECTION _Pragma("location=\".psocinit\"")
  48:.\Generated_Source\PSoC5/cyfitter_cfg.c ****     
  49:.\Generated_Source\PSoC5/cyfitter_cfg.c ****     #define CY_CFG_MEMORY_BARRIER() __DMB()
  50:.\Generated_Source\PSoC5/cyfitter_cfg.c ****     
  51:.\Generated_Source\PSoC5/cyfitter_cfg.c **** #else
  52:.\Generated_Source\PSoC5/cyfitter_cfg.c ****     #error Unsupported toolchain
  53:.\Generated_Source\PSoC5/cyfitter_cfg.c **** #endif
  54:.\Generated_Source\PSoC5/cyfitter_cfg.c **** 
  55:.\Generated_Source\PSoC5/cyfitter_cfg.c **** 
  56:.\Generated_Source\PSoC5/cyfitter_cfg.c **** CY_CFG_UNUSED
  57:.\Generated_Source\PSoC5/cyfitter_cfg.c **** static void CYMEMZERO(void *s, size_t n);
  58:.\Generated_Source\PSoC5/cyfitter_cfg.c **** CY_CFG_UNUSED
  59:.\Generated_Source\PSoC5/cyfitter_cfg.c **** static void CYMEMZERO(void *s, size_t n)
  60:.\Generated_Source\PSoC5/cyfitter_cfg.c **** {
  26              		.loc 1 60 0
  27              		.cfi_startproc
  28              		@ args = 0, pretend = 0, frame = 8
  29              		@ frame_needed = 1, uses_anonymous_args = 0
  30 0000 80B5     		push	{r7, lr}
  31              	.LCFI0:
  32              		.cfi_def_cfa_offset 8
  33              		.cfi_offset 7, -8
  34              		.cfi_offset 14, -4
  35 0002 82B0     		sub	sp, sp, #8
  36              	.LCFI1:
  37              		.cfi_def_cfa_offset 16
  38 0004 00AF     		add	r7, sp, #0
  39              	.LCFI2:
  40              		.cfi_def_cfa_register 7
  41 0006 7860     		str	r0, [r7, #4]
  42 0008 3960     		str	r1, [r7, #0]
  61:.\Generated_Source\PSoC5/cyfitter_cfg.c **** 	(void)memset(s, 0, n);
  43              		.loc 1 61 0
  44 000a 7868     		ldr	r0, [r7, #4]
  45 000c 4FF00001 		mov	r1, #0
  46 0010 3A68     		ldr	r2, [r7, #0]
  47 0012 FFF7FEFF 		bl	memset
  62:.\Generated_Source\PSoC5/cyfitter_cfg.c **** }
  48              		.loc 1 62 0
  49 0016 07F10807 		add	r7, r7, #8
  50 001a BD46     		mov	sp, r7
  51 001c 80BD     		pop	{r7, pc}
  52              		.cfi_endproc
ARM GAS  C:\Users\barror2\AppData\Local\Temp\ccTtpImg.s 			page 3


  53              	.LFE0:
  54              		.size	CYMEMZERO, .-CYMEMZERO
  55 001e 00BF     		.section	.text.CYCONFIGCPY,"ax",%progbits
  56              		.align	2
  57              		.thumb
  58              		.thumb_func
  59              		.type	CYCONFIGCPY, %function
  60              	CYCONFIGCPY:
  61              	.LFB1:
  63:.\Generated_Source\PSoC5/cyfitter_cfg.c **** CY_CFG_UNUSED
  64:.\Generated_Source\PSoC5/cyfitter_cfg.c **** static void CYCONFIGCPY(void *dest, const void *src, size_t n);
  65:.\Generated_Source\PSoC5/cyfitter_cfg.c **** CY_CFG_UNUSED
  66:.\Generated_Source\PSoC5/cyfitter_cfg.c **** static void CYCONFIGCPY(void *dest, const void *src, size_t n)
  67:.\Generated_Source\PSoC5/cyfitter_cfg.c **** {
  62              		.loc 1 67 0
  63              		.cfi_startproc
  64              		@ args = 0, pretend = 0, frame = 16
  65              		@ frame_needed = 1, uses_anonymous_args = 0
  66 0000 80B5     		push	{r7, lr}
  67              	.LCFI3:
  68              		.cfi_def_cfa_offset 8
  69              		.cfi_offset 7, -8
  70              		.cfi_offset 14, -4
  71 0002 84B0     		sub	sp, sp, #16
  72              	.LCFI4:
  73              		.cfi_def_cfa_offset 24
  74 0004 00AF     		add	r7, sp, #0
  75              	.LCFI5:
  76              		.cfi_def_cfa_register 7
  77 0006 F860     		str	r0, [r7, #12]
  78 0008 B960     		str	r1, [r7, #8]
  79 000a 7A60     		str	r2, [r7, #4]
  68:.\Generated_Source\PSoC5/cyfitter_cfg.c **** 	(void)memcpy(dest, src, n);
  80              		.loc 1 68 0
  81 000c F868     		ldr	r0, [r7, #12]
  82 000e B968     		ldr	r1, [r7, #8]
  83 0010 7A68     		ldr	r2, [r7, #4]
  84 0012 FFF7FEFF 		bl	memcpy
  69:.\Generated_Source\PSoC5/cyfitter_cfg.c **** }
  85              		.loc 1 69 0
  86 0016 07F11007 		add	r7, r7, #16
  87 001a BD46     		mov	sp, r7
  88 001c 80BD     		pop	{r7, pc}
  89              		.cfi_endproc
  90              	.LFE1:
  91              		.size	CYCONFIGCPY, .-CYCONFIGCPY
  92 001e 00BF     		.section	.text.CYCONFIGCPYCODE,"ax",%progbits
  93              		.align	2
  94              		.thumb
  95              		.thumb_func
  96              		.type	CYCONFIGCPYCODE, %function
  97              	CYCONFIGCPYCODE:
  98              	.LFB2:
  70:.\Generated_Source\PSoC5/cyfitter_cfg.c **** CY_CFG_UNUSED
  71:.\Generated_Source\PSoC5/cyfitter_cfg.c **** static void CYCONFIGCPYCODE(void *dest, const void *src, size_t n);
  72:.\Generated_Source\PSoC5/cyfitter_cfg.c **** CY_CFG_UNUSED
  73:.\Generated_Source\PSoC5/cyfitter_cfg.c **** static void CYCONFIGCPYCODE(void *dest, const void *src, size_t n)
ARM GAS  C:\Users\barror2\AppData\Local\Temp\ccTtpImg.s 			page 4


  74:.\Generated_Source\PSoC5/cyfitter_cfg.c **** {
  99              		.loc 1 74 0
 100              		.cfi_startproc
 101              		@ args = 0, pretend = 0, frame = 16
 102              		@ frame_needed = 1, uses_anonymous_args = 0
 103 0000 80B5     		push	{r7, lr}
 104              	.LCFI6:
 105              		.cfi_def_cfa_offset 8
 106              		.cfi_offset 7, -8
 107              		.cfi_offset 14, -4
 108 0002 84B0     		sub	sp, sp, #16
 109              	.LCFI7:
 110              		.cfi_def_cfa_offset 24
 111 0004 00AF     		add	r7, sp, #0
 112              	.LCFI8:
 113              		.cfi_def_cfa_register 7
 114 0006 F860     		str	r0, [r7, #12]
 115 0008 B960     		str	r1, [r7, #8]
 116 000a 7A60     		str	r2, [r7, #4]
  75:.\Generated_Source\PSoC5/cyfitter_cfg.c **** 	(void)memcpy(dest, src, n);
 117              		.loc 1 75 0
 118 000c F868     		ldr	r0, [r7, #12]
 119 000e B968     		ldr	r1, [r7, #8]
 120 0010 7A68     		ldr	r2, [r7, #4]
 121 0012 FFF7FEFF 		bl	memcpy
  76:.\Generated_Source\PSoC5/cyfitter_cfg.c **** }
 122              		.loc 1 76 0
 123 0016 07F11007 		add	r7, r7, #16
 124 001a BD46     		mov	sp, r7
 125 001c 80BD     		pop	{r7, pc}
 126              		.cfi_endproc
 127              	.LFE2:
 128              		.size	CYCONFIGCPYCODE, .-CYCONFIGCPYCODE
 129 001e 00BF     		.section	.text.CyClockStartupError,"ax",%progbits
 130              		.align	2
 131              		.thumb
 132              		.thumb_func
 133              		.type	CyClockStartupError, %function
 134              	CyClockStartupError:
 135              	.LFB3:
  77:.\Generated_Source\PSoC5/cyfitter_cfg.c **** 
  78:.\Generated_Source\PSoC5/cyfitter_cfg.c **** 
  79:.\Generated_Source\PSoC5/cyfitter_cfg.c **** 
  80:.\Generated_Source\PSoC5/cyfitter_cfg.c **** /* Clock startup error codes                                                   */
  81:.\Generated_Source\PSoC5/cyfitter_cfg.c **** #define CYCLOCKSTART_NO_ERROR    0u
  82:.\Generated_Source\PSoC5/cyfitter_cfg.c **** #define CYCLOCKSTART_XTAL_ERROR  1u
  83:.\Generated_Source\PSoC5/cyfitter_cfg.c **** #define CYCLOCKSTART_32KHZ_ERROR 2u
  84:.\Generated_Source\PSoC5/cyfitter_cfg.c **** #define CYCLOCKSTART_PLL_ERROR   3u
  85:.\Generated_Source\PSoC5/cyfitter_cfg.c **** 
  86:.\Generated_Source\PSoC5/cyfitter_cfg.c **** #ifdef CY_NEED_CYCLOCKSTARTUPERROR
  87:.\Generated_Source\PSoC5/cyfitter_cfg.c **** /*******************************************************************************
  88:.\Generated_Source\PSoC5/cyfitter_cfg.c **** * Function Name: CyClockStartupError
  89:.\Generated_Source\PSoC5/cyfitter_cfg.c **** ********************************************************************************
  90:.\Generated_Source\PSoC5/cyfitter_cfg.c **** * Summary:
  91:.\Generated_Source\PSoC5/cyfitter_cfg.c **** *  If an error is encountered during clock configuration (crystal startup error,
  92:.\Generated_Source\PSoC5/cyfitter_cfg.c **** *  PLL lock error, etc.), the system will end up here.  Unless reimplemented by
  93:.\Generated_Source\PSoC5/cyfitter_cfg.c **** *  the customer, this function will stop in an infinite loop.
ARM GAS  C:\Users\barror2\AppData\Local\Temp\ccTtpImg.s 			page 5


  94:.\Generated_Source\PSoC5/cyfitter_cfg.c **** *
  95:.\Generated_Source\PSoC5/cyfitter_cfg.c **** * Parameters:
  96:.\Generated_Source\PSoC5/cyfitter_cfg.c **** *   void
  97:.\Generated_Source\PSoC5/cyfitter_cfg.c **** *
  98:.\Generated_Source\PSoC5/cyfitter_cfg.c **** * Return:
  99:.\Generated_Source\PSoC5/cyfitter_cfg.c **** *   void
 100:.\Generated_Source\PSoC5/cyfitter_cfg.c **** *
 101:.\Generated_Source\PSoC5/cyfitter_cfg.c **** *******************************************************************************/
 102:.\Generated_Source\PSoC5/cyfitter_cfg.c **** CY_CFG_UNUSED
 103:.\Generated_Source\PSoC5/cyfitter_cfg.c **** static void CyClockStartupError(uint8 errorCode);
 104:.\Generated_Source\PSoC5/cyfitter_cfg.c **** CY_CFG_UNUSED
 105:.\Generated_Source\PSoC5/cyfitter_cfg.c **** static void CyClockStartupError(uint8 errorCode)
 106:.\Generated_Source\PSoC5/cyfitter_cfg.c **** {
 136              		.loc 1 106 0
 137              		.cfi_startproc
 138              		@ args = 0, pretend = 0, frame = 8
 139              		@ frame_needed = 1, uses_anonymous_args = 0
 140              		@ link register save eliminated.
 141 0000 80B4     		push	{r7}
 142              	.LCFI9:
 143              		.cfi_def_cfa_offset 4
 144              		.cfi_offset 7, -4
 145 0002 83B0     		sub	sp, sp, #12
 146              	.LCFI10:
 147              		.cfi_def_cfa_offset 16
 148 0004 00AF     		add	r7, sp, #0
 149              	.LCFI11:
 150              		.cfi_def_cfa_register 7
 151 0006 0346     		mov	r3, r0
 152 0008 FB71     		strb	r3, [r7, #7]
 153              	.L5:
 107:.\Generated_Source\PSoC5/cyfitter_cfg.c ****     /* To remove the compiler warning if errorCode not used.                */
 108:.\Generated_Source\PSoC5/cyfitter_cfg.c ****     errorCode = errorCode;
 109:.\Generated_Source\PSoC5/cyfitter_cfg.c **** 
 110:.\Generated_Source\PSoC5/cyfitter_cfg.c ****     /* `#START CyClockStartupError` */
 111:.\Generated_Source\PSoC5/cyfitter_cfg.c **** 
 112:.\Generated_Source\PSoC5/cyfitter_cfg.c ****     /* If we have a clock startup error (bad MHz crystal, PLL lock, etc.),  */
 113:.\Generated_Source\PSoC5/cyfitter_cfg.c ****     /* we will end up here to allow the customer to implement something to  */
 114:.\Generated_Source\PSoC5/cyfitter_cfg.c ****     /* deal with the clock condition.                                       */
 115:.\Generated_Source\PSoC5/cyfitter_cfg.c **** 
 116:.\Generated_Source\PSoC5/cyfitter_cfg.c ****     /* `#END` */
 117:.\Generated_Source\PSoC5/cyfitter_cfg.c **** 
 118:.\Generated_Source\PSoC5/cyfitter_cfg.c ****     /* If nothing else, stop here since the clocks have not started         */
 119:.\Generated_Source\PSoC5/cyfitter_cfg.c ****     /* correctly.                                                           */
 120:.\Generated_Source\PSoC5/cyfitter_cfg.c ****     while(1) {}
 154              		.loc 1 120 0 discriminator 1
 155 000a FEE7     		b	.L5
 156              		.cfi_endproc
 157              	.LFE3:
 158              		.size	CyClockStartupError, .-CyClockStartupError
 159              		.section	.text.cfg_write_bytes32,"ax",%progbits
 160              		.align	2
 161              		.thumb
 162              		.thumb_func
 163              		.type	cfg_write_bytes32, %function
 164              	cfg_write_bytes32:
 165              	.LFB4:
ARM GAS  C:\Users\barror2\AppData\Local\Temp\ccTtpImg.s 			page 6


 121:.\Generated_Source\PSoC5/cyfitter_cfg.c **** }
 122:.\Generated_Source\PSoC5/cyfitter_cfg.c **** #endif
 123:.\Generated_Source\PSoC5/cyfitter_cfg.c **** 
 124:.\Generated_Source\PSoC5/cyfitter_cfg.c **** #define CY_CFG_BASE_ADDR_COUNT 23u
 125:.\Generated_Source\PSoC5/cyfitter_cfg.c **** CYPACKED typedef struct
 126:.\Generated_Source\PSoC5/cyfitter_cfg.c **** {
 127:.\Generated_Source\PSoC5/cyfitter_cfg.c **** 	uint8 offset;
 128:.\Generated_Source\PSoC5/cyfitter_cfg.c **** 	uint8 value;
 129:.\Generated_Source\PSoC5/cyfitter_cfg.c **** } CYPACKED_ATTR cy_cfg_addrvalue_t;
 130:.\Generated_Source\PSoC5/cyfitter_cfg.c **** 
 131:.\Generated_Source\PSoC5/cyfitter_cfg.c **** #define cy_cfg_addr_table ((const uint32 CYFAR *)0x48000000u)
 132:.\Generated_Source\PSoC5/cyfitter_cfg.c **** #define cy_cfg_data_table ((const cy_cfg_addrvalue_t CYFAR *)0x4800005Cu)
 133:.\Generated_Source\PSoC5/cyfitter_cfg.c **** 
 134:.\Generated_Source\PSoC5/cyfitter_cfg.c **** /* UDB_0_4_0_CONFIG Address: CYDEV_UCFG_B0_P6_U1_BASE Size (bytes): 128 */
 135:.\Generated_Source\PSoC5/cyfitter_cfg.c **** #define BS_UDB_0_4_0_CONFIG_VAL ((const uint8 CYFAR *)0x48000338u)
 136:.\Generated_Source\PSoC5/cyfitter_cfg.c **** 
 137:.\Generated_Source\PSoC5/cyfitter_cfg.c **** /* UDB_0_5_0_CONFIG Address: CYDEV_UCFG_B0_P7_U0_BASE Size (bytes): 128 */
 138:.\Generated_Source\PSoC5/cyfitter_cfg.c **** #define BS_UDB_0_5_0_CONFIG_VAL ((const uint8 CYFAR *)0x480003B8u)
 139:.\Generated_Source\PSoC5/cyfitter_cfg.c **** 
 140:.\Generated_Source\PSoC5/cyfitter_cfg.c **** /* IOPINS0_1 Address: CYREG_PRT1_DM0 Size (bytes): 8 */
 141:.\Generated_Source\PSoC5/cyfitter_cfg.c **** #define BS_IOPINS0_1_VAL ((const uint8 CYFAR *)0x48000438u)
 142:.\Generated_Source\PSoC5/cyfitter_cfg.c **** 
 143:.\Generated_Source\PSoC5/cyfitter_cfg.c **** /* IOPINS0_4 Address: CYREG_PRT4_DM0 Size (bytes): 8 */
 144:.\Generated_Source\PSoC5/cyfitter_cfg.c **** #define BS_IOPINS0_4_VAL ((const uint8 CYFAR *)0x48000440u)
 145:.\Generated_Source\PSoC5/cyfitter_cfg.c **** 
 146:.\Generated_Source\PSoC5/cyfitter_cfg.c **** /* IOPINS0_6 Address: CYREG_PRT6_DM0 Size (bytes): 8 */
 147:.\Generated_Source\PSoC5/cyfitter_cfg.c **** #define BS_IOPINS0_6_VAL ((const uint8 CYFAR *)0x48000448u)
 148:.\Generated_Source\PSoC5/cyfitter_cfg.c **** 
 149:.\Generated_Source\PSoC5/cyfitter_cfg.c **** 
 150:.\Generated_Source\PSoC5/cyfitter_cfg.c **** /*******************************************************************************
 151:.\Generated_Source\PSoC5/cyfitter_cfg.c **** * Function Name: cfg_write_bytes32
 152:.\Generated_Source\PSoC5/cyfitter_cfg.c **** ********************************************************************************
 153:.\Generated_Source\PSoC5/cyfitter_cfg.c **** * Summary:
 154:.\Generated_Source\PSoC5/cyfitter_cfg.c **** *  This function is used for setting up the chip configuration areas that
 155:.\Generated_Source\PSoC5/cyfitter_cfg.c **** *  contain relatively sparse data.
 156:.\Generated_Source\PSoC5/cyfitter_cfg.c **** *
 157:.\Generated_Source\PSoC5/cyfitter_cfg.c **** * Parameters:
 158:.\Generated_Source\PSoC5/cyfitter_cfg.c **** *   void
 159:.\Generated_Source\PSoC5/cyfitter_cfg.c **** *
 160:.\Generated_Source\PSoC5/cyfitter_cfg.c **** * Return:
 161:.\Generated_Source\PSoC5/cyfitter_cfg.c **** *   void
 162:.\Generated_Source\PSoC5/cyfitter_cfg.c **** *
 163:.\Generated_Source\PSoC5/cyfitter_cfg.c **** *******************************************************************************/
 164:.\Generated_Source\PSoC5/cyfitter_cfg.c **** static void cfg_write_bytes32(const uint32 addr_table[], const cy_cfg_addrvalue_t data_table[]);
 165:.\Generated_Source\PSoC5/cyfitter_cfg.c **** static void cfg_write_bytes32(const uint32 addr_table[], const cy_cfg_addrvalue_t data_table[])
 166:.\Generated_Source\PSoC5/cyfitter_cfg.c **** {
 166              		.loc 1 166 0
 167              		.cfi_startproc
 168              		@ args = 0, pretend = 0, frame = 24
 169              		@ frame_needed = 1, uses_anonymous_args = 0
 170              		@ link register save eliminated.
 171 0000 80B4     		push	{r7}
 172              	.LCFI12:
 173              		.cfi_def_cfa_offset 4
 174              		.cfi_offset 7, -4
 175 0002 87B0     		sub	sp, sp, #28
 176              	.LCFI13:
ARM GAS  C:\Users\barror2\AppData\Local\Temp\ccTtpImg.s 			page 7


 177              		.cfi_def_cfa_offset 32
 178 0004 00AF     		add	r7, sp, #0
 179              	.LCFI14:
 180              		.cfi_def_cfa_register 7
 181 0006 7860     		str	r0, [r7, #4]
 182 0008 3960     		str	r1, [r7, #0]
 167:.\Generated_Source\PSoC5/cyfitter_cfg.c **** 	/* For 32-bit little-endian architectures */
 168:.\Generated_Source\PSoC5/cyfitter_cfg.c **** 	uint32 i, j = 0u;
 183              		.loc 1 168 0
 184 000a 4FF00003 		mov	r3, #0
 185 000e 3B61     		str	r3, [r7, #16]
 169:.\Generated_Source\PSoC5/cyfitter_cfg.c **** 	for (i = 0u; i < CY_CFG_BASE_ADDR_COUNT; i++)
 186              		.loc 1 169 0
 187 0010 4FF00003 		mov	r3, #0
 188 0014 7B61     		str	r3, [r7, #20]
 189 0016 2CE0     		b	.L7
 190              	.L10:
 191              	.LBB2:
 170:.\Generated_Source\PSoC5/cyfitter_cfg.c **** 	{
 171:.\Generated_Source\PSoC5/cyfitter_cfg.c **** 		uint32 baseAddr = addr_table[i];
 192              		.loc 1 171 0
 193 0018 7B69     		ldr	r3, [r7, #20]
 194 001a 4FEA8303 		lsl	r3, r3, #2
 195 001e 7A68     		ldr	r2, [r7, #4]
 196 0020 D318     		adds	r3, r2, r3
 197 0022 1B68     		ldr	r3, [r3, #0]
 198 0024 BB60     		str	r3, [r7, #8]
 172:.\Generated_Source\PSoC5/cyfitter_cfg.c **** 		uint8 count = (uint8)baseAddr;
 199              		.loc 1 172 0
 200 0026 BB68     		ldr	r3, [r7, #8]
 201 0028 FB73     		strb	r3, [r7, #15]
 173:.\Generated_Source\PSoC5/cyfitter_cfg.c **** 		baseAddr &= 0xFFFFFF00u;
 202              		.loc 1 173 0
 203 002a BB68     		ldr	r3, [r7, #8]
 204 002c 23F0FF03 		bic	r3, r3, #255
 205 0030 BB60     		str	r3, [r7, #8]
 174:.\Generated_Source\PSoC5/cyfitter_cfg.c **** 		while (count != 0u)
 206              		.loc 1 174 0
 207 0032 17E0     		b	.L8
 208              	.L9:
 175:.\Generated_Source\PSoC5/cyfitter_cfg.c **** 		{
 176:.\Generated_Source\PSoC5/cyfitter_cfg.c **** 			CY_SET_XTND_REG8((void CYFAR *)(baseAddr + data_table[j].offset), data_table[j].value);
 209              		.loc 1 176 0
 210 0034 3B69     		ldr	r3, [r7, #16]
 211 0036 4FEA4303 		lsl	r3, r3, #1
 212 003a 3A68     		ldr	r2, [r7, #0]
 213 003c D318     		adds	r3, r2, r3
 214 003e 1B78     		ldrb	r3, [r3, #0]	@ zero_extendqisi2
 215 0040 1A46     		mov	r2, r3
 216 0042 BB68     		ldr	r3, [r7, #8]
 217 0044 D318     		adds	r3, r2, r3
 218 0046 3A69     		ldr	r2, [r7, #16]
 219 0048 4FEA4202 		lsl	r2, r2, #1
 220 004c 3968     		ldr	r1, [r7, #0]
 221 004e 8A18     		adds	r2, r1, r2
 222 0050 5278     		ldrb	r2, [r2, #1]	@ zero_extendqisi2
 223 0052 1A70     		strb	r2, [r3, #0]
ARM GAS  C:\Users\barror2\AppData\Local\Temp\ccTtpImg.s 			page 8


 177:.\Generated_Source\PSoC5/cyfitter_cfg.c **** 			j++;
 224              		.loc 1 177 0
 225 0054 3B69     		ldr	r3, [r7, #16]
 226 0056 03F10103 		add	r3, r3, #1
 227 005a 3B61     		str	r3, [r7, #16]
 178:.\Generated_Source\PSoC5/cyfitter_cfg.c **** 			count--;
 228              		.loc 1 178 0
 229 005c FB7B     		ldrb	r3, [r7, #15]
 230 005e 03F1FF33 		add	r3, r3, #-1
 231 0062 FB73     		strb	r3, [r7, #15]
 232              	.L8:
 174:.\Generated_Source\PSoC5/cyfitter_cfg.c **** 		while (count != 0u)
 233              		.loc 1 174 0 discriminator 1
 234 0064 FB7B     		ldrb	r3, [r7, #15]	@ zero_extendqisi2
 235 0066 002B     		cmp	r3, #0
 236 0068 E4D1     		bne	.L9
 237              	.LBE2:
 169:.\Generated_Source\PSoC5/cyfitter_cfg.c **** 	for (i = 0u; i < CY_CFG_BASE_ADDR_COUNT; i++)
 238              		.loc 1 169 0
 239 006a 7B69     		ldr	r3, [r7, #20]
 240 006c 03F10103 		add	r3, r3, #1
 241 0070 7B61     		str	r3, [r7, #20]
 242              	.L7:
 169:.\Generated_Source\PSoC5/cyfitter_cfg.c **** 	for (i = 0u; i < CY_CFG_BASE_ADDR_COUNT; i++)
 243              		.loc 1 169 0 is_stmt 0 discriminator 1
 244 0072 7B69     		ldr	r3, [r7, #20]
 245 0074 162B     		cmp	r3, #22
 246 0076 CFD9     		bls	.L10
 179:.\Generated_Source\PSoC5/cyfitter_cfg.c **** 		}
 180:.\Generated_Source\PSoC5/cyfitter_cfg.c **** 	}
 181:.\Generated_Source\PSoC5/cyfitter_cfg.c **** }
 247              		.loc 1 181 0 is_stmt 1
 248 0078 07F11C07 		add	r7, r7, #28
 249 007c BD46     		mov	sp, r7
 250 007e 80BC     		pop	{r7}
 251 0080 7047     		bx	lr
 252              		.cfi_endproc
 253              	.LFE4:
 254              		.size	cfg_write_bytes32, .-cfg_write_bytes32
 255 0082 00BF     		.section	.text.ClockSetup,"ax",%progbits
 256              		.align	2
 257              		.thumb
 258              		.thumb_func
 259              		.type	ClockSetup, %function
 260              	ClockSetup:
 261              	.LFB5:
 182:.\Generated_Source\PSoC5/cyfitter_cfg.c **** 
 183:.\Generated_Source\PSoC5/cyfitter_cfg.c **** /*******************************************************************************
 184:.\Generated_Source\PSoC5/cyfitter_cfg.c **** * Function Name: ClockSetup
 185:.\Generated_Source\PSoC5/cyfitter_cfg.c **** ********************************************************************************
 186:.\Generated_Source\PSoC5/cyfitter_cfg.c **** *
 187:.\Generated_Source\PSoC5/cyfitter_cfg.c **** * Summary:
 188:.\Generated_Source\PSoC5/cyfitter_cfg.c **** *  Performs the initialization of all of the clocks in the device based on the
 189:.\Generated_Source\PSoC5/cyfitter_cfg.c **** *  settings in the Clock tab of the DWR.  This includes enabling the requested
 190:.\Generated_Source\PSoC5/cyfitter_cfg.c **** *  clocks and setting the necessary dividers to produce the desired frequency. 
 191:.\Generated_Source\PSoC5/cyfitter_cfg.c **** *
 192:.\Generated_Source\PSoC5/cyfitter_cfg.c **** * Parameters:
ARM GAS  C:\Users\barror2\AppData\Local\Temp\ccTtpImg.s 			page 9


 193:.\Generated_Source\PSoC5/cyfitter_cfg.c **** *  void
 194:.\Generated_Source\PSoC5/cyfitter_cfg.c **** *
 195:.\Generated_Source\PSoC5/cyfitter_cfg.c **** * Return:
 196:.\Generated_Source\PSoC5/cyfitter_cfg.c **** *  void
 197:.\Generated_Source\PSoC5/cyfitter_cfg.c **** *
 198:.\Generated_Source\PSoC5/cyfitter_cfg.c **** *******************************************************************************/
 199:.\Generated_Source\PSoC5/cyfitter_cfg.c **** static void ClockSetup(void);
 200:.\Generated_Source\PSoC5/cyfitter_cfg.c **** static void ClockSetup(void)
 201:.\Generated_Source\PSoC5/cyfitter_cfg.c **** {
 262              		.loc 1 201 0
 263              		.cfi_startproc
 264              		@ args = 0, pretend = 0, frame = 8
 265              		@ frame_needed = 1, uses_anonymous_args = 0
 266 0000 80B5     		push	{r7, lr}
 267              	.LCFI15:
 268              		.cfi_def_cfa_offset 8
 269              		.cfi_offset 7, -8
 270              		.cfi_offset 14, -4
 271 0002 82B0     		sub	sp, sp, #8
 272              	.LCFI16:
 273              		.cfi_def_cfa_offset 16
 274 0004 00AF     		add	r7, sp, #0
 275              	.LCFI17:
 276              		.cfi_def_cfa_register 7
 202:.\Generated_Source\PSoC5/cyfitter_cfg.c **** 	uint32 timeout;
 203:.\Generated_Source\PSoC5/cyfitter_cfg.c **** 	uint8 pllLock;
 204:.\Generated_Source\PSoC5/cyfitter_cfg.c **** 
 205:.\Generated_Source\PSoC5/cyfitter_cfg.c **** 
 206:.\Generated_Source\PSoC5/cyfitter_cfg.c **** 	/* Configure Digital Clocks based on settings from Clock DWR */
 207:.\Generated_Source\PSoC5/cyfitter_cfg.c **** 	CY_SET_XTND_REG16((void CYFAR *)(CYREG_CLKDIST_DCFG0_CFG0), 0x0002u);
 277              		.loc 1 207 0
 278 0006 4FF48143 		mov	r3, #16512
 279 000a C4F20003 		movt	r3, 16384
 280 000e 4FF00202 		mov	r2, #2
 281 0012 1A80     		strh	r2, [r3, #0]	@ movhi
 208:.\Generated_Source\PSoC5/cyfitter_cfg.c **** 	CY_SET_XTND_REG8((void CYFAR *)(CYREG_CLKDIST_DCFG0_CFG0 + 0x2u), 0x18u);
 282              		.loc 1 208 0
 283 0014 44F28203 		movw	r3, #16514
 284 0018 C4F20003 		movt	r3, 16384
 285 001c 4FF01802 		mov	r2, #24
 286 0020 1A70     		strb	r2, [r3, #0]
 209:.\Generated_Source\PSoC5/cyfitter_cfg.c **** 	CY_SET_XTND_REG16((void CYFAR *)(CYREG_CLKDIST_DCFG1_CFG0), 0x0019u);
 287              		.loc 1 209 0
 288 0022 44F28403 		movw	r3, #16516
 289 0026 C4F20003 		movt	r3, 16384
 290 002a 4FF01902 		mov	r2, #25
 291 002e 1A80     		strh	r2, [r3, #0]	@ movhi
 210:.\Generated_Source\PSoC5/cyfitter_cfg.c **** 	CY_SET_XTND_REG8((void CYFAR *)(CYREG_CLKDIST_DCFG1_CFG0 + 0x2u), 0x18u);
 292              		.loc 1 210 0
 293 0030 44F28603 		movw	r3, #16518
 294 0034 C4F20003 		movt	r3, 16384
 295 0038 4FF01802 		mov	r2, #24
 296 003c 1A70     		strb	r2, [r3, #0]
 211:.\Generated_Source\PSoC5/cyfitter_cfg.c **** 
 212:.\Generated_Source\PSoC5/cyfitter_cfg.c **** 	/* Configure ILO based on settings from Clock DWR */
 213:.\Generated_Source\PSoC5/cyfitter_cfg.c **** 	CY_SET_XTND_REG8((void CYFAR *)(CYREG_SLOWCLK_ILO_CR0), 0x02u);
 297              		.loc 1 213 0
ARM GAS  C:\Users\barror2\AppData\Local\Temp\ccTtpImg.s 			page 10


 298 003e 4FF48643 		mov	r3, #17152
 299 0042 C4F20003 		movt	r3, 16384
 300 0046 4FF00202 		mov	r2, #2
 301 004a 1A70     		strb	r2, [r3, #0]
 214:.\Generated_Source\PSoC5/cyfitter_cfg.c **** 	CY_SET_XTND_REG8((void CYFAR *)(CYREG_CLKDIST_CR), 0x08u);
 302              		.loc 1 214 0
 303 004c 4FF04023 		mov	r3, #1073758208
 304 0050 4FF00802 		mov	r2, #8
 305 0054 1A70     		strb	r2, [r3, #0]
 215:.\Generated_Source\PSoC5/cyfitter_cfg.c **** 
 216:.\Generated_Source\PSoC5/cyfitter_cfg.c **** 	/* Configure IMO based on settings from Clock DWR */
 217:.\Generated_Source\PSoC5/cyfitter_cfg.c **** 	CY_SET_XTND_REG8((void CYFAR *)(CYREG_FASTCLK_IMO_CR), 0x03u);
 306              		.loc 1 217 0
 307 0056 4FF48443 		mov	r3, #16896
 308 005a C4F20003 		movt	r3, 16384
 309 005e 4FF00302 		mov	r2, #3
 310 0062 1A70     		strb	r2, [r3, #0]
 218:.\Generated_Source\PSoC5/cyfitter_cfg.c **** 	CY_SET_XTND_REG8((void CYFAR *)(CYREG_IMO_TR1), (CY_GET_XTND_REG8((void CYFAR *)CYREG_FLSHID_CUST_
 311              		.loc 1 218 0
 312 0064 44F2A163 		movw	r3, #18081
 313 0068 C4F20003 		movt	r3, 16384
 314 006c 4FF48472 		mov	r2, #264
 315 0070 C4F60012 		movt	r2, 18688
 316 0074 1278     		ldrb	r2, [r2, #0]
 317 0076 D2B2     		uxtb	r2, r2
 318 0078 1A70     		strb	r2, [r3, #0]
 219:.\Generated_Source\PSoC5/cyfitter_cfg.c **** 
 220:.\Generated_Source\PSoC5/cyfitter_cfg.c **** 	/* Configure PLL based on settings from Clock DWR */
 221:.\Generated_Source\PSoC5/cyfitter_cfg.c **** 	CY_SET_XTND_REG16((void CYFAR *)(CYREG_FASTCLK_PLL_P), 0x0008u);
 319              		.loc 1 221 0
 320 007a 44F22223 		movw	r3, #16930
 321 007e C4F20003 		movt	r3, 16384
 322 0082 4FF00802 		mov	r2, #8
 323 0086 1A80     		strh	r2, [r3, #0]	@ movhi
 222:.\Generated_Source\PSoC5/cyfitter_cfg.c **** 	CY_SET_XTND_REG16((void CYFAR *)(CYREG_FASTCLK_PLL_CFG0), 0x1251u);
 324              		.loc 1 222 0
 325 0088 44F22023 		movw	r3, #16928
 326 008c C4F20003 		movt	r3, 16384
 327 0090 41F25122 		movw	r2, #4689
 328 0094 1A80     		strh	r2, [r3, #0]	@ movhi
 223:.\Generated_Source\PSoC5/cyfitter_cfg.c **** 	/* Wait up to 250us for the PLL to lock */
 224:.\Generated_Source\PSoC5/cyfitter_cfg.c **** 	pllLock = 0u;
 329              		.loc 1 224 0
 330 0096 4FF00003 		mov	r3, #0
 331 009a FB70     		strb	r3, [r7, #3]
 225:.\Generated_Source\PSoC5/cyfitter_cfg.c **** 	for (timeout = 250u / 10u; (timeout > 0u) && (pllLock != 0x03u); timeout--)
 332              		.loc 1 225 0
 333 009c 4FF01903 		mov	r3, #25
 334 00a0 7B60     		str	r3, [r7, #4]
 335 00a2 19E0     		b	.L12
 336              	.L14:
 226:.\Generated_Source\PSoC5/cyfitter_cfg.c **** 	{ 
 227:.\Generated_Source\PSoC5/cyfitter_cfg.c **** 		pllLock = 0x03u & ((uint8)((uint8)pllLock << 1) | ((CY_GET_XTND_REG8((void CYFAR *)CYREG_FASTCLK_
 337              		.loc 1 227 0 discriminator 1
 338 00a4 FB78     		ldrb	r3, [r7, #3]
 339 00a6 4FEA4303 		lsl	r3, r3, #1
 340 00aa DAB2     		uxtb	r2, r3
ARM GAS  C:\Users\barror2\AppData\Local\Temp\ccTtpImg.s 			page 11


 341 00ac 44F22523 		movw	r3, #16933
 342 00b0 C4F20003 		movt	r3, 16384
 343 00b4 1B78     		ldrb	r3, [r3, #0]
 344 00b6 DBB2     		uxtb	r3, r3
 345 00b8 03F00103 		and	r3, r3, #1
 346 00bc DBB2     		uxtb	r3, r3
 347 00be 1343     		orrs	r3, r3, r2
 348 00c0 DBB2     		uxtb	r3, r3
 349 00c2 03F00303 		and	r3, r3, #3
 350 00c6 FB70     		strb	r3, [r7, #3]
 228:.\Generated_Source\PSoC5/cyfitter_cfg.c **** 		CyDelayCycles(10u * 48u); /* Delay 10us based on 48MHz clock */
 351              		.loc 1 228 0 discriminator 1
 352 00c8 4FF4F070 		mov	r0, #480
 353 00cc FFF7FEFF 		bl	CyDelayCycles
 225:.\Generated_Source\PSoC5/cyfitter_cfg.c **** 	for (timeout = 250u / 10u; (timeout > 0u) && (pllLock != 0x03u); timeout--)
 354              		.loc 1 225 0 discriminator 1
 355 00d0 7B68     		ldr	r3, [r7, #4]
 356 00d2 03F1FF33 		add	r3, r3, #-1
 357 00d6 7B60     		str	r3, [r7, #4]
 358              	.L12:
 359 00d8 7B68     		ldr	r3, [r7, #4]
 360 00da 002B     		cmp	r3, #0
 361 00dc 02D0     		beq	.L13
 225:.\Generated_Source\PSoC5/cyfitter_cfg.c **** 	for (timeout = 250u / 10u; (timeout > 0u) && (pllLock != 0x03u); timeout--)
 362              		.loc 1 225 0 is_stmt 0 discriminator 2
 363 00de FB78     		ldrb	r3, [r7, #3]	@ zero_extendqisi2
 364 00e0 032B     		cmp	r3, #3
 365 00e2 DFD1     		bne	.L14
 366              	.L13:
 229:.\Generated_Source\PSoC5/cyfitter_cfg.c **** 	}
 230:.\Generated_Source\PSoC5/cyfitter_cfg.c **** 	/* If we ran out of time the PLL didn't lock so go to the error function */
 231:.\Generated_Source\PSoC5/cyfitter_cfg.c **** 	if (timeout == 0u)
 367              		.loc 1 231 0 is_stmt 1
 368 00e4 7B68     		ldr	r3, [r7, #4]
 369 00e6 002B     		cmp	r3, #0
 370 00e8 03D1     		bne	.L15
 232:.\Generated_Source\PSoC5/cyfitter_cfg.c **** 	{
 233:.\Generated_Source\PSoC5/cyfitter_cfg.c **** 		CyClockStartupError(CYCLOCKSTART_PLL_ERROR);
 371              		.loc 1 233 0
 372 00ea 4FF00300 		mov	r0, #3
 373 00ee FFF7FEFF 		bl	CyClockStartupError
 374              	.L15:
 234:.\Generated_Source\PSoC5/cyfitter_cfg.c **** 	}
 235:.\Generated_Source\PSoC5/cyfitter_cfg.c **** 
 236:.\Generated_Source\PSoC5/cyfitter_cfg.c **** 	/* Configure Bus/Master Clock based on settings from Clock DWR */
 237:.\Generated_Source\PSoC5/cyfitter_cfg.c **** 	CY_SET_XTND_REG16((void CYFAR *)(CYREG_CLKDIST_MSTR0), 0x0100u);
 375              		.loc 1 237 0
 376 00f2 44F20403 		movw	r3, #16388
 377 00f6 C4F20003 		movt	r3, 16384
 378 00fa 4FF48072 		mov	r2, #256
 379 00fe 1A80     		strh	r2, [r3, #0]	@ movhi
 238:.\Generated_Source\PSoC5/cyfitter_cfg.c **** 	CY_SET_XTND_REG8((void CYFAR *)(CYREG_CLKDIST_MSTR0), 0x07u);
 380              		.loc 1 238 0
 381 0100 44F20403 		movw	r3, #16388
 382 0104 C4F20003 		movt	r3, 16384
 383 0108 4FF00702 		mov	r2, #7
 384 010c 1A70     		strb	r2, [r3, #0]
ARM GAS  C:\Users\barror2\AppData\Local\Temp\ccTtpImg.s 			page 12


 239:.\Generated_Source\PSoC5/cyfitter_cfg.c **** 	CY_SET_XTND_REG8((void CYFAR *)(CYREG_CLKDIST_BCFG0), 0x00u);
 385              		.loc 1 239 0
 386 010e 44F20603 		movw	r3, #16390
 387 0112 C4F20003 		movt	r3, 16384
 388 0116 4FF00002 		mov	r2, #0
 389 011a 1A70     		strb	r2, [r3, #0]
 240:.\Generated_Source\PSoC5/cyfitter_cfg.c **** 	CY_SET_XTND_REG8((void CYFAR *)(CYREG_CLKDIST_BCFG2), 0x48u);
 390              		.loc 1 240 0
 391 011c 44F20803 		movw	r3, #16392
 392 0120 C4F20003 		movt	r3, 16384
 393 0124 4FF04802 		mov	r2, #72
 394 0128 1A70     		strb	r2, [r3, #0]
 241:.\Generated_Source\PSoC5/cyfitter_cfg.c **** 	CY_SET_XTND_REG8((void CYFAR *)(CYREG_CLKDIST_MSTR0), 0x00u);
 395              		.loc 1 241 0
 396 012a 44F20403 		movw	r3, #16388
 397 012e C4F20003 		movt	r3, 16384
 398 0132 4FF00002 		mov	r2, #0
 399 0136 1A70     		strb	r2, [r3, #0]
 242:.\Generated_Source\PSoC5/cyfitter_cfg.c **** 	CY_SET_XTND_REG8((void CYFAR *)(CYREG_CLKDIST_LD), 0x02u);
 400              		.loc 1 242 0
 401 0138 44F20103 		movw	r3, #16385
 402 013c C4F20003 		movt	r3, 16384
 403 0140 4FF00202 		mov	r2, #2
 404 0144 1A70     		strb	r2, [r3, #0]
 243:.\Generated_Source\PSoC5/cyfitter_cfg.c **** 
 244:.\Generated_Source\PSoC5/cyfitter_cfg.c **** 	CY_SET_XTND_REG8((void CYFAR *)(CYREG_PM_ACT_CFG2), ((CY_GET_XTND_REG8((void CYFAR *)CYREG_PM_ACT_
 405              		.loc 1 244 0
 406 0146 44F2A233 		movw	r3, #17314
 407 014a C4F20003 		movt	r3, 16384
 408 014e 44F2A232 		movw	r2, #17314
 409 0152 C4F20002 		movt	r2, 16384
 410 0156 1278     		ldrb	r2, [r2, #0]
 411 0158 D2B2     		uxtb	r2, r2
 412 015a 42F00302 		orr	r2, r2, #3
 413 015e D2B2     		uxtb	r2, r2
 414 0160 1A70     		strb	r2, [r3, #0]
 245:.\Generated_Source\PSoC5/cyfitter_cfg.c **** }
 415              		.loc 1 245 0
 416 0162 07F10807 		add	r7, r7, #8
 417 0166 BD46     		mov	sp, r7
 418 0168 80BD     		pop	{r7, pc}
 419              		.cfi_endproc
 420              	.LFE5:
 421              		.size	ClockSetup, .-ClockSetup
 422 016a 00BF     		.section	.text.AnalogSetDefault,"ax",%progbits
 423              		.align	2
 424              		.thumb
 425              		.thumb_func
 426              		.type	AnalogSetDefault, %function
 427              	AnalogSetDefault:
 428              	.LFB6:
 246:.\Generated_Source\PSoC5/cyfitter_cfg.c **** 
 247:.\Generated_Source\PSoC5/cyfitter_cfg.c **** 
 248:.\Generated_Source\PSoC5/cyfitter_cfg.c **** /* Analog API Functions */
 249:.\Generated_Source\PSoC5/cyfitter_cfg.c **** 
 250:.\Generated_Source\PSoC5/cyfitter_cfg.c **** 
 251:.\Generated_Source\PSoC5/cyfitter_cfg.c **** /*******************************************************************************
ARM GAS  C:\Users\barror2\AppData\Local\Temp\ccTtpImg.s 			page 13


 252:.\Generated_Source\PSoC5/cyfitter_cfg.c **** * Function Name: AnalogSetDefault
 253:.\Generated_Source\PSoC5/cyfitter_cfg.c **** ********************************************************************************
 254:.\Generated_Source\PSoC5/cyfitter_cfg.c **** *
 255:.\Generated_Source\PSoC5/cyfitter_cfg.c **** * Summary:
 256:.\Generated_Source\PSoC5/cyfitter_cfg.c **** *  Sets up the analog portions of the chip to default values based on chip
 257:.\Generated_Source\PSoC5/cyfitter_cfg.c **** *  configuration options from the project.
 258:.\Generated_Source\PSoC5/cyfitter_cfg.c **** *
 259:.\Generated_Source\PSoC5/cyfitter_cfg.c **** * Parameters:
 260:.\Generated_Source\PSoC5/cyfitter_cfg.c **** *  void
 261:.\Generated_Source\PSoC5/cyfitter_cfg.c **** *
 262:.\Generated_Source\PSoC5/cyfitter_cfg.c **** * Return:
 263:.\Generated_Source\PSoC5/cyfitter_cfg.c **** *  void
 264:.\Generated_Source\PSoC5/cyfitter_cfg.c **** *
 265:.\Generated_Source\PSoC5/cyfitter_cfg.c **** *******************************************************************************/
 266:.\Generated_Source\PSoC5/cyfitter_cfg.c **** static void AnalogSetDefault(void);
 267:.\Generated_Source\PSoC5/cyfitter_cfg.c **** static void AnalogSetDefault(void)
 268:.\Generated_Source\PSoC5/cyfitter_cfg.c **** {
 429              		.loc 1 268 0
 430              		.cfi_startproc
 431              		@ args = 0, pretend = 0, frame = 8
 432              		@ frame_needed = 1, uses_anonymous_args = 0
 433              		@ link register save eliminated.
 434 0000 80B4     		push	{r7}
 435              	.LCFI18:
 436              		.cfi_def_cfa_offset 4
 437              		.cfi_offset 7, -4
 438 0002 83B0     		sub	sp, sp, #12
 439              	.LCFI19:
 440              		.cfi_def_cfa_offset 16
 441 0004 00AF     		add	r7, sp, #0
 442              	.LCFI20:
 443              		.cfi_def_cfa_register 7
 269:.\Generated_Source\PSoC5/cyfitter_cfg.c **** 	uint8 bg_xover_inl_trim = CY_GET_XTND_REG8((void CYFAR *)(CYREG_FLSHID_MFG_CFG_BG_XOVER_INL_TRIM +
 444              		.loc 1 269 0
 445 0006 40F2CF13 		movw	r3, #463
 446 000a C4F60013 		movt	r3, 18688
 447 000e 1B78     		ldrb	r3, [r3, #0]
 448 0010 FB71     		strb	r3, [r7, #7]
 270:.\Generated_Source\PSoC5/cyfitter_cfg.c **** 	CY_SET_XTND_REG8((void CYFAR *)(CYREG_BG_DFT0), (bg_xover_inl_trim & 0x07u));
 449              		.loc 1 270 0
 450 0012 45F66E03 		movw	r3, #22638
 451 0016 C4F20003 		movt	r3, 16384
 452 001a FA79     		ldrb	r2, [r7, #7]
 453 001c 02F00702 		and	r2, r2, #7
 454 0020 D2B2     		uxtb	r2, r2
 455 0022 1A70     		strb	r2, [r3, #0]
 271:.\Generated_Source\PSoC5/cyfitter_cfg.c **** 	CY_SET_XTND_REG8((void CYFAR *)(CYREG_BG_DFT1), ((bg_xover_inl_trim >> 4) & 0x0Fu));
 456              		.loc 1 271 0
 457 0024 45F66F03 		movw	r3, #22639
 458 0028 C4F20003 		movt	r3, 16384
 459 002c FA79     		ldrb	r2, [r7, #7]	@ zero_extendqisi2
 460 002e 4FEA1212 		lsr	r2, r2, #4
 461 0032 D2B2     		uxtb	r2, r2
 462 0034 1A70     		strb	r2, [r3, #0]
 272:.\Generated_Source\PSoC5/cyfitter_cfg.c **** 	CY_SET_XTND_REG8((void CYFAR *)CYREG_PUMP_CR0, 0x44u);
 463              		.loc 1 272 0
 464 0036 45F67603 		movw	r3, #22646
ARM GAS  C:\Users\barror2\AppData\Local\Temp\ccTtpImg.s 			page 14


 465 003a C4F20003 		movt	r3, 16384
 466 003e 4FF04402 		mov	r2, #68
 467 0042 1A70     		strb	r2, [r3, #0]
 273:.\Generated_Source\PSoC5/cyfitter_cfg.c **** }
 468              		.loc 1 273 0
 469 0044 07F10C07 		add	r7, r7, #12
 470 0048 BD46     		mov	sp, r7
 471 004a 80BC     		pop	{r7}
 472 004c 7047     		bx	lr
 473              		.cfi_endproc
 474              	.LFE6:
 475              		.size	AnalogSetDefault, .-AnalogSetDefault
 476 004e 00BF     		.section	.text.SetAnalogRoutingPumps,"ax",%progbits
 477              		.align	2
 478              		.global	SetAnalogRoutingPumps
 479              		.thumb
 480              		.thumb_func
 481              		.type	SetAnalogRoutingPumps, %function
 482              	SetAnalogRoutingPumps:
 483              	.LFB7:
 274:.\Generated_Source\PSoC5/cyfitter_cfg.c **** 
 275:.\Generated_Source\PSoC5/cyfitter_cfg.c **** 
 276:.\Generated_Source\PSoC5/cyfitter_cfg.c **** /*******************************************************************************
 277:.\Generated_Source\PSoC5/cyfitter_cfg.c **** * Function Name: SetAnalogRoutingPumps
 278:.\Generated_Source\PSoC5/cyfitter_cfg.c **** ********************************************************************************
 279:.\Generated_Source\PSoC5/cyfitter_cfg.c **** *
 280:.\Generated_Source\PSoC5/cyfitter_cfg.c **** * Summary:
 281:.\Generated_Source\PSoC5/cyfitter_cfg.c **** * Enables or disables the analog pumps feeding analog routing switches.
 282:.\Generated_Source\PSoC5/cyfitter_cfg.c **** * Intended to be called at startup, based on the Vdda system configuration;
 283:.\Generated_Source\PSoC5/cyfitter_cfg.c **** * may be called during operation when the user informs us that the Vdda voltage
 284:.\Generated_Source\PSoC5/cyfitter_cfg.c **** * crossed the pump threshold.
 285:.\Generated_Source\PSoC5/cyfitter_cfg.c **** *
 286:.\Generated_Source\PSoC5/cyfitter_cfg.c **** * Parameters:
 287:.\Generated_Source\PSoC5/cyfitter_cfg.c **** *  enabled - 1 to enable the pumps, 0 to disable the pumps
 288:.\Generated_Source\PSoC5/cyfitter_cfg.c **** *
 289:.\Generated_Source\PSoC5/cyfitter_cfg.c **** * Return:
 290:.\Generated_Source\PSoC5/cyfitter_cfg.c **** *  void
 291:.\Generated_Source\PSoC5/cyfitter_cfg.c **** *
 292:.\Generated_Source\PSoC5/cyfitter_cfg.c **** *******************************************************************************/
 293:.\Generated_Source\PSoC5/cyfitter_cfg.c **** void SetAnalogRoutingPumps(uint8 enabled)
 294:.\Generated_Source\PSoC5/cyfitter_cfg.c **** {
 484              		.loc 1 294 0
 485              		.cfi_startproc
 486              		@ args = 0, pretend = 0, frame = 16
 487              		@ frame_needed = 1, uses_anonymous_args = 0
 488              		@ link register save eliminated.
 489 0000 80B4     		push	{r7}
 490              	.LCFI21:
 491              		.cfi_def_cfa_offset 4
 492              		.cfi_offset 7, -4
 493 0002 85B0     		sub	sp, sp, #20
 494              	.LCFI22:
 495              		.cfi_def_cfa_offset 24
 496 0004 00AF     		add	r7, sp, #0
 497              	.LCFI23:
 498              		.cfi_def_cfa_register 7
 499 0006 0346     		mov	r3, r0
ARM GAS  C:\Users\barror2\AppData\Local\Temp\ccTtpImg.s 			page 15


 500 0008 FB71     		strb	r3, [r7, #7]
 295:.\Generated_Source\PSoC5/cyfitter_cfg.c **** 	uint8 regValue = CY_GET_XTND_REG8((void CYFAR *)CYREG_PUMP_CR0);
 501              		.loc 1 295 0
 502 000a 45F67603 		movw	r3, #22646
 503 000e C4F20003 		movt	r3, 16384
 504 0012 1B78     		ldrb	r3, [r3, #0]
 505 0014 FB73     		strb	r3, [r7, #15]
 296:.\Generated_Source\PSoC5/cyfitter_cfg.c **** 	if (enabled != 0u)
 506              		.loc 1 296 0
 507 0016 FB79     		ldrb	r3, [r7, #7]	@ zero_extendqisi2
 508 0018 002B     		cmp	r3, #0
 297:.\Generated_Source\PSoC5/cyfitter_cfg.c **** 	{
 298:.\Generated_Source\PSoC5/cyfitter_cfg.c **** 		regValue |= 0x00u;
 509              		.loc 1 298 0
 510 001a 00BF     		nop
 299:.\Generated_Source\PSoC5/cyfitter_cfg.c **** 	}
 300:.\Generated_Source\PSoC5/cyfitter_cfg.c **** 	else
 301:.\Generated_Source\PSoC5/cyfitter_cfg.c **** 	{
 302:.\Generated_Source\PSoC5/cyfitter_cfg.c **** 		regValue &= (uint8)~0x00u;
 303:.\Generated_Source\PSoC5/cyfitter_cfg.c **** 	}
 304:.\Generated_Source\PSoC5/cyfitter_cfg.c **** 	CY_SET_XTND_REG8((void CYFAR *)CYREG_PUMP_CR0, regValue);
 511              		.loc 1 304 0
 512 001c 45F67603 		movw	r3, #22646
 513 0020 C4F20003 		movt	r3, 16384
 514 0024 FA7B     		ldrb	r2, [r7, #15]
 515 0026 1A70     		strb	r2, [r3, #0]
 305:.\Generated_Source\PSoC5/cyfitter_cfg.c **** }
 516              		.loc 1 305 0
 517 0028 07F11407 		add	r7, r7, #20
 518 002c BD46     		mov	sp, r7
 519 002e 80BC     		pop	{r7}
 520 0030 7047     		bx	lr
 521              		.cfi_endproc
 522              	.LFE7:
 523              		.size	SetAnalogRoutingPumps, .-SetAnalogRoutingPumps
 524 0032 00BF     		.section	.text.cyfitter_cfg,"ax",%progbits
 525              		.align	2
 526              		.global	cyfitter_cfg
 527              		.thumb
 528              		.thumb_func
 529              		.type	cyfitter_cfg, %function
 530              	cyfitter_cfg:
 531              	.LFB8:
 306:.\Generated_Source\PSoC5/cyfitter_cfg.c **** 
 307:.\Generated_Source\PSoC5/cyfitter_cfg.c **** #define CY_AMUX_UNUSED CYREG_BOOST_SR
 308:.\Generated_Source\PSoC5/cyfitter_cfg.c **** 
 309:.\Generated_Source\PSoC5/cyfitter_cfg.c **** 
 310:.\Generated_Source\PSoC5/cyfitter_cfg.c **** /*******************************************************************************
 311:.\Generated_Source\PSoC5/cyfitter_cfg.c **** * Function Name: cyfitter_cfg
 312:.\Generated_Source\PSoC5/cyfitter_cfg.c **** ********************************************************************************
 313:.\Generated_Source\PSoC5/cyfitter_cfg.c **** * Summary:
 314:.\Generated_Source\PSoC5/cyfitter_cfg.c **** *  This function is called by the start-up code for the selected device. It
 315:.\Generated_Source\PSoC5/cyfitter_cfg.c **** *  performs all of the necessary device configuration based on the design
 316:.\Generated_Source\PSoC5/cyfitter_cfg.c **** *  settings.  This includes settings from the Design Wide Resources (DWR) such
 317:.\Generated_Source\PSoC5/cyfitter_cfg.c **** *  as Clocks and Pins as well as any component configuration that is necessary.
 318:.\Generated_Source\PSoC5/cyfitter_cfg.c **** *
 319:.\Generated_Source\PSoC5/cyfitter_cfg.c **** * Parameters:  
ARM GAS  C:\Users\barror2\AppData\Local\Temp\ccTtpImg.s 			page 16


 320:.\Generated_Source\PSoC5/cyfitter_cfg.c **** *   void
 321:.\Generated_Source\PSoC5/cyfitter_cfg.c **** *
 322:.\Generated_Source\PSoC5/cyfitter_cfg.c **** * Return:
 323:.\Generated_Source\PSoC5/cyfitter_cfg.c **** *   void
 324:.\Generated_Source\PSoC5/cyfitter_cfg.c **** *
 325:.\Generated_Source\PSoC5/cyfitter_cfg.c **** *******************************************************************************/
 326:.\Generated_Source\PSoC5/cyfitter_cfg.c **** 
 327:.\Generated_Source\PSoC5/cyfitter_cfg.c **** void cyfitter_cfg(void)
 328:.\Generated_Source\PSoC5/cyfitter_cfg.c **** {
 532              		.loc 1 328 0
 533              		.cfi_startproc
 534              		@ args = 0, pretend = 0, frame = 24
 535              		@ frame_needed = 1, uses_anonymous_args = 0
 536 0000 80B5     		push	{r7, lr}
 537              	.LCFI24:
 538              		.cfi_def_cfa_offset 8
 539              		.cfi_offset 7, -8
 540              		.cfi_offset 14, -4
 541 0002 86B0     		sub	sp, sp, #24
 542              	.LCFI25:
 543              		.cfi_def_cfa_offset 32
 544 0004 00AF     		add	r7, sp, #0
 545              	.LCFI26:
 546              		.cfi_def_cfa_register 7
 329:.\Generated_Source\PSoC5/cyfitter_cfg.c **** #ifdef CYGlobalIntDisable
 330:.\Generated_Source\PSoC5/cyfitter_cfg.c **** 	/* Disable interrupts by default. Let user enable if/when they want. */
 331:.\Generated_Source\PSoC5/cyfitter_cfg.c **** 	CYGlobalIntDisable
 547              		.loc 1 331 0
 548              	@ 331 ".\Generated_Source\PSoC5\cyfitter_cfg.c" 1
 549 0006 72B6     		CPSID   i
 550              	@ 0 "" 2
 332:.\Generated_Source\PSoC5/cyfitter_cfg.c **** #endif
 333:.\Generated_Source\PSoC5/cyfitter_cfg.c **** 
 334:.\Generated_Source\PSoC5/cyfitter_cfg.c **** 	/* Enable/Disable Debug functionality based on settings from System DWR */
 335:.\Generated_Source\PSoC5/cyfitter_cfg.c **** 	CY_SET_XTND_REG8((void CYFAR *)CYREG_MLOGIC_DEBUG, (CY_GET_XTND_REG8((void CYFAR *)CYREG_MLOGIC_DE
 551              		.loc 1 335 0
 552              		.thumb
 553 0008 44F2E863 		movw	r3, #18152
 554 000c C4F20003 		movt	r3, 16384
 555 0010 44F2E862 		movw	r2, #18152
 556 0014 C4F20002 		movt	r2, 16384
 557 0018 1278     		ldrb	r2, [r2, #0]
 558 001a D2B2     		uxtb	r2, r2
 559 001c 42F00402 		orr	r2, r2, #4
 560 0020 D2B2     		uxtb	r2, r2
 561 0022 1A70     		strb	r2, [r3, #0]
 562              	.LBB3:
 336:.\Generated_Source\PSoC5/cyfitter_cfg.c **** 
 337:.\Generated_Source\PSoC5/cyfitter_cfg.c **** 	{
 338:.\Generated_Source\PSoC5/cyfitter_cfg.c **** 
 339:.\Generated_Source\PSoC5/cyfitter_cfg.c **** 		CYPACKED typedef struct {
 340:.\Generated_Source\PSoC5/cyfitter_cfg.c **** 			void CYFAR *address;
 341:.\Generated_Source\PSoC5/cyfitter_cfg.c **** 			uint16 size;
 342:.\Generated_Source\PSoC5/cyfitter_cfg.c **** 		} CYPACKED_ATTR cfg_memset_t;
 343:.\Generated_Source\PSoC5/cyfitter_cfg.c **** 
 344:.\Generated_Source\PSoC5/cyfitter_cfg.c **** 
 345:.\Generated_Source\PSoC5/cyfitter_cfg.c **** 		CYPACKED typedef struct {
ARM GAS  C:\Users\barror2\AppData\Local\Temp\ccTtpImg.s 			page 17


 346:.\Generated_Source\PSoC5/cyfitter_cfg.c **** 			void CYFAR *dest;
 347:.\Generated_Source\PSoC5/cyfitter_cfg.c **** 			const void CYFAR *src;
 348:.\Generated_Source\PSoC5/cyfitter_cfg.c **** 			uint16 size;
 349:.\Generated_Source\PSoC5/cyfitter_cfg.c **** 		} CYPACKED_ATTR cfg_memcpy_t;
 350:.\Generated_Source\PSoC5/cyfitter_cfg.c **** 
 351:.\Generated_Source\PSoC5/cyfitter_cfg.c **** 		static const cfg_memset_t CYCODE cfg_memset_list [] = {
 352:.\Generated_Source\PSoC5/cyfitter_cfg.c **** 			/* address, size */
 353:.\Generated_Source\PSoC5/cyfitter_cfg.c **** 			{(void CYFAR *)(CYREG_PRT0_DR), 16u},
 354:.\Generated_Source\PSoC5/cyfitter_cfg.c **** 			{(void CYFAR *)(CYREG_PRT2_DR), 32u},
 355:.\Generated_Source\PSoC5/cyfitter_cfg.c **** 			{(void CYFAR *)(CYREG_PRT5_DR), 16u},
 356:.\Generated_Source\PSoC5/cyfitter_cfg.c **** 			{(void CYFAR *)(CYREG_PRT12_DR), 16u},
 357:.\Generated_Source\PSoC5/cyfitter_cfg.c **** 			{(void CYFAR *)(CYREG_PRT15_DR), 16u},
 358:.\Generated_Source\PSoC5/cyfitter_cfg.c **** 			{(void CYFAR *)(CYDEV_UCFG_B0_P0_U0_BASE), 3200u},
 359:.\Generated_Source\PSoC5/cyfitter_cfg.c **** 			{(void CYFAR *)(CYDEV_UCFG_B0_P6_ROUTE_BASE), 256u},
 360:.\Generated_Source\PSoC5/cyfitter_cfg.c **** 			{(void CYFAR *)(CYDEV_UCFG_B0_P7_U1_BASE), 384u},
 361:.\Generated_Source\PSoC5/cyfitter_cfg.c **** 			{(void CYFAR *)(CYDEV_UCFG_B1_P2_U0_BASE), 2048u},
 362:.\Generated_Source\PSoC5/cyfitter_cfg.c **** 			{(void CYFAR *)(CYDEV_UCFG_DSI0_BASE), 2560u},
 363:.\Generated_Source\PSoC5/cyfitter_cfg.c **** 			{(void CYFAR *)(CYDEV_UCFG_DSI12_BASE), 512u},
 364:.\Generated_Source\PSoC5/cyfitter_cfg.c **** 			{(void CYFAR *)(CYREG_BCTL0_MDCLK_EN), 32u},
 365:.\Generated_Source\PSoC5/cyfitter_cfg.c **** 		};
 366:.\Generated_Source\PSoC5/cyfitter_cfg.c **** 
 367:.\Generated_Source\PSoC5/cyfitter_cfg.c **** 		static const cfg_memcpy_t CYCODE cfg_memcpy_list [] = {
 368:.\Generated_Source\PSoC5/cyfitter_cfg.c **** 			/* dest, src, size */
 369:.\Generated_Source\PSoC5/cyfitter_cfg.c **** 			{(void CYFAR *)(CYDEV_UCFG_B0_P6_U1_BASE), BS_UDB_0_4_0_CONFIG_VAL, 128u},
 370:.\Generated_Source\PSoC5/cyfitter_cfg.c **** 			{(void CYFAR *)(CYDEV_UCFG_B0_P7_U0_BASE), BS_UDB_0_5_0_CONFIG_VAL, 128u},
 371:.\Generated_Source\PSoC5/cyfitter_cfg.c **** 		};
 372:.\Generated_Source\PSoC5/cyfitter_cfg.c **** 
 373:.\Generated_Source\PSoC5/cyfitter_cfg.c **** 		uint8 CYDATA i;
 374:.\Generated_Source\PSoC5/cyfitter_cfg.c **** 
 375:.\Generated_Source\PSoC5/cyfitter_cfg.c **** 		/* Zero out critical memory blocks before beginning configuration */
 376:.\Generated_Source\PSoC5/cyfitter_cfg.c **** 		for (i = 0u; i < (sizeof(cfg_memset_list)/sizeof(cfg_memset_list[0])); i++)
 563              		.loc 1 376 0
 564 0024 4FF00003 		mov	r3, #0
 565 0028 FB75     		strb	r3, [r7, #23]
 566 002a 19E0     		b	.L21
 567              	.L22:
 568              	.LBB4:
 377:.\Generated_Source\PSoC5/cyfitter_cfg.c **** 		{
 378:.\Generated_Source\PSoC5/cyfitter_cfg.c **** 			const cfg_memset_t CYCODE * CYDATA ms = &cfg_memset_list[i];
 569              		.loc 1 378 0 discriminator 2
 570 002c FA7D     		ldrb	r2, [r7, #23]	@ zero_extendqisi2
 571 002e 1346     		mov	r3, r2
 572 0030 4FEA4303 		lsl	r3, r3, #1
 573 0034 9B18     		adds	r3, r3, r2
 574 0036 4FEA4303 		lsl	r3, r3, #1
 575 003a 40F20002 		movw	r2, #:lower16:cfg_memset_list.4813
 576 003e C0F20002 		movt	r2, #:upper16:cfg_memset_list.4813
 577 0042 9B18     		adds	r3, r3, r2
 578 0044 3B61     		str	r3, [r7, #16]
 379:.\Generated_Source\PSoC5/cyfitter_cfg.c **** 			CYMEMZERO(ms->address, (uint32)(ms->size));
 579              		.loc 1 379 0 discriminator 2
 580 0046 3B69     		ldr	r3, [r7, #16]
 581 0048 1A68     		ldr	r2, [r3, #0]	@ unaligned
 582 004a 3B69     		ldr	r3, [r7, #16]
 583 004c 9B88     		ldrh	r3, [r3, #4]	@ unaligned
 584 004e 9BB2     		uxth	r3, r3
 585 0050 1046     		mov	r0, r2
ARM GAS  C:\Users\barror2\AppData\Local\Temp\ccTtpImg.s 			page 18


 586 0052 1946     		mov	r1, r3
 587 0054 FFF7FEFF 		bl	CYMEMZERO
 588              	.LBE4:
 376:.\Generated_Source\PSoC5/cyfitter_cfg.c **** 		for (i = 0u; i < (sizeof(cfg_memset_list)/sizeof(cfg_memset_list[0])); i++)
 589              		.loc 1 376 0 discriminator 2
 590 0058 FB7D     		ldrb	r3, [r7, #23]
 591 005a 03F10103 		add	r3, r3, #1
 592 005e FB75     		strb	r3, [r7, #23]
 593              	.L21:
 376:.\Generated_Source\PSoC5/cyfitter_cfg.c **** 		for (i = 0u; i < (sizeof(cfg_memset_list)/sizeof(cfg_memset_list[0])); i++)
 594              		.loc 1 376 0 is_stmt 0 discriminator 1
 595 0060 FB7D     		ldrb	r3, [r7, #23]	@ zero_extendqisi2
 596 0062 0B2B     		cmp	r3, #11
 597 0064 E2D9     		bls	.L22
 380:.\Generated_Source\PSoC5/cyfitter_cfg.c **** 		}
 381:.\Generated_Source\PSoC5/cyfitter_cfg.c **** 
 382:.\Generated_Source\PSoC5/cyfitter_cfg.c **** 		/* Copy device configuration data into registers */
 383:.\Generated_Source\PSoC5/cyfitter_cfg.c **** 		for (i = 0u; i < (sizeof(cfg_memcpy_list)/sizeof(cfg_memcpy_list[0])); i++)
 598              		.loc 1 383 0 is_stmt 1
 599 0066 4FF00003 		mov	r3, #0
 600 006a FB75     		strb	r3, [r7, #23]
 601 006c 23E0     		b	.L23
 602              	.L24:
 603              	.LBB5:
 384:.\Generated_Source\PSoC5/cyfitter_cfg.c **** 		{
 385:.\Generated_Source\PSoC5/cyfitter_cfg.c **** 			const cfg_memcpy_t CYCODE * CYDATA mc = &cfg_memcpy_list[i];
 604              		.loc 1 385 0 discriminator 2
 605 006e FA7D     		ldrb	r2, [r7, #23]	@ zero_extendqisi2
 606 0070 1346     		mov	r3, r2
 607 0072 4FEA8303 		lsl	r3, r3, #2
 608 0076 9B18     		adds	r3, r3, r2
 609 0078 4FEA4303 		lsl	r3, r3, #1
 610 007c 40F20002 		movw	r2, #:lower16:cfg_memcpy_list.4814
 611 0080 C0F20002 		movt	r2, #:upper16:cfg_memcpy_list.4814
 612 0084 9B18     		adds	r3, r3, r2
 613 0086 FB60     		str	r3, [r7, #12]
 386:.\Generated_Source\PSoC5/cyfitter_cfg.c **** 			void * CYDATA destPtr = mc->dest;
 614              		.loc 1 386 0 discriminator 2
 615 0088 FB68     		ldr	r3, [r7, #12]
 616 008a 1B68     		ldr	r3, [r3, #0]	@ unaligned
 617 008c BB60     		str	r3, [r7, #8]
 387:.\Generated_Source\PSoC5/cyfitter_cfg.c **** 			const void * CYDATA srcPtr = mc->src;
 618              		.loc 1 387 0 discriminator 2
 619 008e FB68     		ldr	r3, [r7, #12]
 620 0090 5B68     		ldr	r3, [r3, #4]	@ unaligned
 621 0092 7B60     		str	r3, [r7, #4]
 388:.\Generated_Source\PSoC5/cyfitter_cfg.c **** 			uint16 CYDATA numBytes = mc->size;
 622              		.loc 1 388 0 discriminator 2
 623 0094 FB68     		ldr	r3, [r7, #12]
 624 0096 1A7A     		ldrb	r2, [r3, #8]	@ zero_extendqisi2
 625 0098 5B7A     		ldrb	r3, [r3, #9]	@ zero_extendqisi2
 626 009a 4FEA0323 		lsl	r3, r3, #8
 627 009e 1343     		orrs	r3, r3, r2
 628 00a0 7B80     		strh	r3, [r7, #2]	@ movhi
 389:.\Generated_Source\PSoC5/cyfitter_cfg.c **** 			CYCONFIGCPY(destPtr, srcPtr, numBytes);
 629              		.loc 1 389 0 discriminator 2
 630 00a2 7B88     		ldrh	r3, [r7, #2]
ARM GAS  C:\Users\barror2\AppData\Local\Temp\ccTtpImg.s 			page 19


 631 00a4 B868     		ldr	r0, [r7, #8]
 632 00a6 7968     		ldr	r1, [r7, #4]
 633 00a8 1A46     		mov	r2, r3
 634 00aa FFF7FEFF 		bl	CYCONFIGCPY
 635              	.LBE5:
 383:.\Generated_Source\PSoC5/cyfitter_cfg.c **** 		for (i = 0u; i < (sizeof(cfg_memcpy_list)/sizeof(cfg_memcpy_list[0])); i++)
 636              		.loc 1 383 0 discriminator 2
 637 00ae FB7D     		ldrb	r3, [r7, #23]
 638 00b0 03F10103 		add	r3, r3, #1
 639 00b4 FB75     		strb	r3, [r7, #23]
 640              	.L23:
 383:.\Generated_Source\PSoC5/cyfitter_cfg.c **** 		for (i = 0u; i < (sizeof(cfg_memcpy_list)/sizeof(cfg_memcpy_list[0])); i++)
 641              		.loc 1 383 0 is_stmt 0 discriminator 1
 642 00b6 FB7D     		ldrb	r3, [r7, #23]	@ zero_extendqisi2
 643 00b8 012B     		cmp	r3, #1
 644 00ba D8D9     		bls	.L24
 390:.\Generated_Source\PSoC5/cyfitter_cfg.c **** 		}
 391:.\Generated_Source\PSoC5/cyfitter_cfg.c **** 
 392:.\Generated_Source\PSoC5/cyfitter_cfg.c **** 		cfg_write_bytes32(cy_cfg_addr_table, cy_cfg_data_table);
 645              		.loc 1 392 0 is_stmt 1
 646 00bc 4FF09040 		mov	r0, #1207959552
 647 00c0 4FF05C01 		mov	r1, #92
 648 00c4 C4F60001 		movt	r1, 18432
 649 00c8 FFF7FEFF 		bl	cfg_write_bytes32
 393:.\Generated_Source\PSoC5/cyfitter_cfg.c **** 
 394:.\Generated_Source\PSoC5/cyfitter_cfg.c **** 		/* Enable digital routing */
 395:.\Generated_Source\PSoC5/cyfitter_cfg.c **** 		CY_SET_XTND_REG8((void CYFAR *)CYREG_BCTL0_BANK_CTL, CY_GET_XTND_REG8((void CYFAR *)CYREG_BCTL0_B
 650              		.loc 1 395 0
 651 00cc 45F20303 		movw	r3, #20483
 652 00d0 C4F20103 		movt	r3, 16385
 653 00d4 45F20302 		movw	r2, #20483
 654 00d8 C4F20102 		movt	r2, 16385
 655 00dc 1278     		ldrb	r2, [r2, #0]
 656 00de D2B2     		uxtb	r2, r2
 657 00e0 42F00202 		orr	r2, r2, #2
 658 00e4 D2B2     		uxtb	r2, r2
 659 00e6 1A70     		strb	r2, [r3, #0]
 396:.\Generated_Source\PSoC5/cyfitter_cfg.c **** 		CY_SET_XTND_REG8((void CYFAR *)CYREG_BCTL1_BANK_CTL, CY_GET_XTND_REG8((void CYFAR *)CYREG_BCTL1_B
 660              		.loc 1 396 0
 661 00e8 45F21303 		movw	r3, #20499
 662 00ec C4F20103 		movt	r3, 16385
 663 00f0 45F21302 		movw	r2, #20499
 664 00f4 C4F20102 		movt	r2, 16385
 665 00f8 1278     		ldrb	r2, [r2, #0]
 666 00fa D2B2     		uxtb	r2, r2
 667 00fc 42F00202 		orr	r2, r2, #2
 668 0100 D2B2     		uxtb	r2, r2
 669 0102 1A70     		strb	r2, [r3, #0]
 397:.\Generated_Source\PSoC5/cyfitter_cfg.c **** 
 398:.\Generated_Source\PSoC5/cyfitter_cfg.c **** 		/* Enable UDB array */
 399:.\Generated_Source\PSoC5/cyfitter_cfg.c **** 		CY_SET_XTND_REG8((void CYFAR *)CYREG_PM_ACT_CFG0, CY_GET_XTND_REG8((void CYFAR *)CYREG_PM_ACT_CFG
 670              		.loc 1 399 0
 671 0104 44F2A033 		movw	r3, #17312
 672 0108 C4F20003 		movt	r3, 16384
 673 010c 44F2A032 		movw	r2, #17312
 674 0110 C4F20002 		movt	r2, 16384
 675 0114 1278     		ldrb	r2, [r2, #0]
ARM GAS  C:\Users\barror2\AppData\Local\Temp\ccTtpImg.s 			page 20


 676 0116 D2B2     		uxtb	r2, r2
 677 0118 42F04002 		orr	r2, r2, #64
 678 011c D2B2     		uxtb	r2, r2
 679 011e 1A70     		strb	r2, [r3, #0]
 400:.\Generated_Source\PSoC5/cyfitter_cfg.c **** 		CY_SET_XTND_REG8((void CYFAR *)CYREG_PM_AVAIL_CR2, CY_GET_XTND_REG8((void CYFAR *)CYREG_PM_AVAIL_
 680              		.loc 1 400 0
 681 0120 44F2C233 		movw	r3, #17346
 682 0124 C4F20003 		movt	r3, 16384
 683 0128 44F2C232 		movw	r2, #17346
 684 012c C4F20002 		movt	r2, 16384
 685 0130 1278     		ldrb	r2, [r2, #0]
 686 0132 D2B2     		uxtb	r2, r2
 687 0134 42F01002 		orr	r2, r2, #16
 688 0138 D2B2     		uxtb	r2, r2
 689 013a 1A70     		strb	r2, [r3, #0]
 690              	.LBE3:
 401:.\Generated_Source\PSoC5/cyfitter_cfg.c **** 	}
 402:.\Generated_Source\PSoC5/cyfitter_cfg.c **** 
 403:.\Generated_Source\PSoC5/cyfitter_cfg.c **** 	/* Perform second pass device configuration. These items must be configured in specific order afte
 404:.\Generated_Source\PSoC5/cyfitter_cfg.c **** 	CYCONFIGCPY((void CYFAR *)(CYREG_PRT1_DM0), (const void CYFAR *)(BS_IOPINS0_1_VAL), 8u);
 691              		.loc 1 404 0
 692 013c 45F21210 		movw	r0, #20754
 693 0140 C4F20000 		movt	r0, 16384
 694 0144 4FF48761 		mov	r1, #1080
 695 0148 C4F60001 		movt	r1, 18432
 696 014c 4FF00802 		mov	r2, #8
 697 0150 FFF7FEFF 		bl	CYCONFIGCPY
 405:.\Generated_Source\PSoC5/cyfitter_cfg.c **** 	CYCONFIGCPY((void CYFAR *)(CYREG_PRT4_DM0), (const void CYFAR *)(BS_IOPINS0_4_VAL), 8u);
 698              		.loc 1 405 0
 699 0154 45F24210 		movw	r0, #20802
 700 0158 C4F20000 		movt	r0, 16384
 701 015c 4FF48861 		mov	r1, #1088
 702 0160 C4F60001 		movt	r1, 18432
 703 0164 4FF00802 		mov	r2, #8
 704 0168 FFF7FEFF 		bl	CYCONFIGCPY
 406:.\Generated_Source\PSoC5/cyfitter_cfg.c **** 	CYCONFIGCPY((void CYFAR *)(CYREG_PRT6_DM0), (const void CYFAR *)(BS_IOPINS0_6_VAL), 8u);
 705              		.loc 1 406 0
 706 016c 45F26210 		movw	r0, #20834
 707 0170 C4F20000 		movt	r0, 16384
 708 0174 4FF48961 		mov	r1, #1096
 709 0178 C4F60001 		movt	r1, 18432
 710 017c 4FF00802 		mov	r2, #8
 711 0180 FFF7FEFF 		bl	CYCONFIGCPY
 407:.\Generated_Source\PSoC5/cyfitter_cfg.c **** 
 408:.\Generated_Source\PSoC5/cyfitter_cfg.c **** 	/* Switch Boost to the precision bandgap reference from its internal reference */
 409:.\Generated_Source\PSoC5/cyfitter_cfg.c **** 	CY_SET_REG8((void CYXDATA *)CYREG_BOOST_CR2, (CY_GET_REG8((void CYXDATA *)CYREG_BOOST_CR2) | 0x08u
 712              		.loc 1 409 0
 713 0184 44F22233 		movw	r3, #17186
 714 0188 C4F20003 		movt	r3, 16384
 715 018c 44F22232 		movw	r2, #17186
 716 0190 C4F20002 		movt	r2, 16384
 717 0194 1278     		ldrb	r2, [r2, #0]
 718 0196 D2B2     		uxtb	r2, r2
 719 0198 42F00802 		orr	r2, r2, #8
 720 019c D2B2     		uxtb	r2, r2
 721 019e 1A70     		strb	r2, [r3, #0]
 410:.\Generated_Source\PSoC5/cyfitter_cfg.c **** 
ARM GAS  C:\Users\barror2\AppData\Local\Temp\ccTtpImg.s 			page 21


 411:.\Generated_Source\PSoC5/cyfitter_cfg.c **** 	/* Set Flash Cycles based on max possible frequency in case a glitch occurs during ClockSetup(). *
 412:.\Generated_Source\PSoC5/cyfitter_cfg.c **** 	CY_SET_XTND_REG8((void CYFAR *)(CYREG_CACHE_CC_CTL), (((CYDEV_INSTRUCT_CACHE_ENABLED) != 0) ? 0x01
 722              		.loc 1 412 0
 723 01a0 4FF49043 		mov	r3, #18432
 724 01a4 C4F20003 		movt	r3, 16384
 725 01a8 4FF00102 		mov	r2, #1
 726 01ac 1A70     		strb	r2, [r3, #0]
 413:.\Generated_Source\PSoC5/cyfitter_cfg.c **** 	/* Setup clocks based on selections from Clock DWR */
 414:.\Generated_Source\PSoC5/cyfitter_cfg.c **** 	ClockSetup();
 727              		.loc 1 414 0
 728 01ae FFF7FEFF 		bl	ClockSetup
 415:.\Generated_Source\PSoC5/cyfitter_cfg.c **** 	/* Set Flash Cycles based on newly configured 24.00MHz Bus Clock. */
 416:.\Generated_Source\PSoC5/cyfitter_cfg.c **** 	CY_SET_XTND_REG8((void CYFAR *)(CYREG_CACHE_CC_CTL), (((CYDEV_INSTRUCT_CACHE_ENABLED) != 0) ? 0x81
 729              		.loc 1 416 0
 730 01b2 4FF49043 		mov	r3, #18432
 731 01b6 C4F20003 		movt	r3, 16384
 732 01ba 4FF08102 		mov	r2, #129
 733 01be 1A70     		strb	r2, [r3, #0]
 417:.\Generated_Source\PSoC5/cyfitter_cfg.c **** 	CY_SET_XTND_REG8((void CYFAR *)(CYREG_PANTHER_WAITPIPE), 0x01u);
 734              		.loc 1 417 0
 735 01c0 4FF00403 		mov	r3, #4
 736 01c4 C4F20803 		movt	r3, 16392
 737 01c8 4FF00102 		mov	r2, #1
 738 01cc 1A70     		strb	r2, [r3, #0]
 418:.\Generated_Source\PSoC5/cyfitter_cfg.c **** 
 419:.\Generated_Source\PSoC5/cyfitter_cfg.c **** 	/* Perform basic analog initialization to defaults */
 420:.\Generated_Source\PSoC5/cyfitter_cfg.c **** 	AnalogSetDefault();
 739              		.loc 1 420 0
 740 01ce FFF7FEFF 		bl	AnalogSetDefault
 421:.\Generated_Source\PSoC5/cyfitter_cfg.c **** 
 422:.\Generated_Source\PSoC5/cyfitter_cfg.c **** 	/* Configure alternate active mode */
 423:.\Generated_Source\PSoC5/cyfitter_cfg.c **** 	CYCONFIGCPY((void CYFAR *)CYDEV_PM_STBY_BASE, (const void CYFAR *)CYDEV_PM_ACT_BASE, 14u);
 741              		.loc 1 423 0
 742 01d2 44F2B030 		movw	r0, #17328
 743 01d6 C4F20000 		movt	r0, 16384
 744 01da 44F2A031 		movw	r1, #17312
 745 01de C4F20001 		movt	r1, 16384
 746 01e2 4FF00E02 		mov	r2, #14
 747 01e6 FFF7FEFF 		bl	CYCONFIGCPY
 424:.\Generated_Source\PSoC5/cyfitter_cfg.c **** }
 748              		.loc 1 424 0
 749 01ea 07F11807 		add	r7, r7, #24
 750 01ee BD46     		mov	sp, r7
 751 01f0 80BD     		pop	{r7, pc}
 752              		.cfi_endproc
 753              	.LFE8:
 754              		.size	cyfitter_cfg, .-cyfitter_cfg
 755              		.section	.rodata
 756              		.align	2
 757              		.type	cfg_memset_list.4813, %object
 758              		.size	cfg_memset_list.4813, 72
 759              	cfg_memset_list.4813:
 760 0000 00510040 		.word	1073762560
 761 0004 1000     		.short	16
 762 0006 20510040 		.4byte	1073762592
 763 000a 2000     		.short	32
 764 000c 50510040 		.word	1073762640
ARM GAS  C:\Users\barror2\AppData\Local\Temp\ccTtpImg.s 			page 22


 765 0010 1000     		.short	16
 766 0012 C0510040 		.4byte	1073762752
 767 0016 1000     		.short	16
 768 0018 F0510040 		.word	1073762800
 769 001c 1000     		.short	16
 770 001e 00000140 		.4byte	1073807360
 771 0022 800C     		.short	3200
 772 0024 000D0140 		.word	1073810688
 773 0028 0001     		.short	256
 774 002a 800E0140 		.4byte	1073811072
 775 002e 8001     		.short	384
 776 0030 00140140 		.word	1073812480
 777 0034 0008     		.short	2048
 778 0036 00400140 		.4byte	1073823744
 779 003a 000A     		.short	2560
 780 003c 004C0140 		.word	1073826816
 781 0040 0002     		.short	512
 782 0042 00500140 		.4byte	1073827840
 783 0046 2000     		.short	32
 784              		.align	2
 785              		.type	cfg_memcpy_list.4814, %object
 786              		.size	cfg_memcpy_list.4814, 20
 787              	cfg_memcpy_list.4814:
 788 0048 800C0140 		.word	1073810560
 789 004c 38030048 		.word	1207960376
 790 0050 8000     		.short	128
 791 0052 000E0140 		.4byte	1073810944
 792 0056 B8030048 		.4byte	1207960504
 793 005a 8000     		.short	128
 794              		.text
 795              	.Letext0:
 796              		.file 2 "c:\\program files (x86)\\cypress\\psoc creator\\3.0\\psoc creator\\import\\gnu_cs\\arm\\4
 797              		.file 3 "./Generated_Source/PSoC5/cytypes.h"