ARM GAS  C:\Users\barror2\AppData\Local\Temp\ccRIyRb2.s 			page 1


   1              		.syntax unified
   2              		.cpu cortex-m3
   3              		.fpu softvfp
   4              		.eabi_attribute 20, 1
   5              		.eabi_attribute 21, 1
   6              		.eabi_attribute 23, 3
   7              		.eabi_attribute 24, 1
   8              		.eabi_attribute 25, 1
   9              		.eabi_attribute 26, 1
  10              		.eabi_attribute 30, 6
  11              		.eabi_attribute 34, 1
  12              		.eabi_attribute 18, 4
  13              		.thumb
  14              		.file	"main.c"
  15              		.text
  16              	.Ltext0:
  17              		.cfi_sections	.debug_frame
  18              		.comm	cursor_x,2,2
  19              		.comm	cursor_y,2,2
  20              		.comm	textcolor,2,2
  21              		.comm	textbgcolor,2,2
  22              		.comm	textsize,1,1
  23              		.comm	rotation,1,1
  24              		.comm	wrap,1,1
  25              		.comm	_width,4,4
  26              		.comm	_height,4,4
  27              		.section	.text.main,"ax",%progbits
  28              		.align	2
  29              		.global	main
  30              		.thumb
  31              		.thumb_func
  32              		.type	main, %function
  33              	main:
  34              	.LFB56:
  35              		.file 1 ".\\main.c"
   1:.\main.c      **** /*******************************************************************************
   2:.\main.c      **** * \file main.c
   3:.\main.c      **** * \brief This file is used for the tft_twitter project. It listens on a UART and sends the input to
   4:.\main.c      **** *
   5:.\main.c      **** * Version 1.0
   6:.\main.c      **** *
   7:.\main.c      **** * \author Robert Barron
   8:.\main.c      **** *
   9:.\main.c      **** * \bug Sometimes adds an extra space to text in random places. This is likely an underlying problem
  10:.\main.c      **** *******************************************************************************/
  11:.\main.c      **** 
  12:.\main.c      **** #include <device.h>
  13:.\main.c      **** 
  14:.\main.c      **** int main()
  15:.\main.c      **** {   
  36              		.loc 1 15 0
  37              		.cfi_startproc
  38              		@ args = 0, pretend = 0, frame = 208
  39              		@ frame_needed = 1, uses_anonymous_args = 0
  40 0000 80B5     		push	{r7, lr}
  41              	.LCFI0:
  42              		.cfi_def_cfa_offset 8
ARM GAS  C:\Users\barror2\AppData\Local\Temp\ccRIyRb2.s 			page 2


  43              		.cfi_offset 7, -8
  44              		.cfi_offset 14, -4
  45 0002 B4B0     		sub	sp, sp, #208
  46              	.LCFI1:
  47              		.cfi_def_cfa_offset 216
  48 0004 00AF     		add	r7, sp, #0
  49              	.LCFI2:
  50              		.cfi_def_cfa_register 7
  16:.\main.c      ****     char ch[1];       /* Data received from the Serial port */
  17:.\main.c      ****     int count = 0;
  51              		.loc 1 17 0
  52 0006 4FF00003 		mov	r3, #0
  53 000a C7F8CC30 		str	r3, [r7, #204]
  18:.\main.c      **** 
  19:.\main.c      ****     CyGlobalIntEnable; /* Enable all interrupts by the processor. */
  54              		.loc 1 19 0
  55              	@ 19 ".\main.c" 1
  56 000e 62B6     		CPSIE   i
  57              	@ 0 "" 2
  20:.\main.c      **** 
  21:.\main.c      ****     TFTSHIELD_1_Start();
  58              		.loc 1 21 0
  59              		.thumb
  60 0010 FFF7FEFF 		bl	TFTSHIELD_1_Start
  22:.\main.c      ****     UART_1_Start();
  61              		.loc 1 22 0
  62 0014 FFF7FEFF 		bl	UART_1_Start
  23:.\main.c      ****     TFTSHIELD_1_FillScreen(BLACK);
  63              		.loc 1 23 0
  64 0018 4FF00000 		mov	r0, #0
  65 001c FFF7FEFF 		bl	TFTSHIELD_1_FillScreen
  24:.\main.c      ****     TFTSHIELD_1_SetCursor(0,0);
  66              		.loc 1 24 0
  67 0020 4FF00000 		mov	r0, #0
  68 0024 4FF00001 		mov	r1, #0
  69 0028 FFF7FEFF 		bl	TFTSHIELD_1_SetCursor
  25:.\main.c      ****     TFTSHIELD_1_SetTextColor(WHITE);  
  70              		.loc 1 25 0
  71 002c 4FF6FF70 		movw	r0, #65535
  72 0030 FFF7FEFF 		bl	TFTSHIELD_1_SetTextColor
  26:.\main.c      ****     TFTSHIELD_1_SetTextSize(2);
  73              		.loc 1 26 0
  74 0034 4FF00200 		mov	r0, #2
  75 0038 FFF7FEFF 		bl	TFTSHIELD_1_SetTextSize
  27:.\main.c      ****     TFTSHIELD_1_SetRotation(1);
  76              		.loc 1 27 0
  77 003c 4FF00100 		mov	r0, #1
  78 0040 FFF7FEFF 		bl	TFTSHIELD_1_SetRotation
  79 0044 00E0     		b	.L5
  80              	.L6:
  28:.\main.c      ****     
  29:.\main.c      ****     //will hold the contents of a tweet plus any extra needed characters
  30:.\main.c      ****     char tweet[200];
  31:.\main.c      ****     
  32:.\main.c      ****     while(1)
  33:.\main.c      ****     {
  34:.\main.c      ****         // Check the UART status
ARM GAS  C:\Users\barror2\AppData\Local\Temp\ccRIyRb2.s 			page 3


  35:.\main.c      ****         //get all available chars
  36:.\main.c      ****         ch[0] = UART_1_GetChar();
  37:.\main.c      ****         
  38:.\main.c      ****         //string has not been initialized
  39:.\main.c      ****         if(ch[0] != 0 && count == 0)
  40:.\main.c      ****         {
  41:.\main.c      ****             strcpy(tweet,ch);
  42:.\main.c      ****             count++;
  43:.\main.c      ****         }
  44:.\main.c      ****         else if(ch[0] != 0)//str cat to string
  45:.\main.c      ****         {
  46:.\main.c      ****             strcat(tweet,ch);
  47:.\main.c      ****             //count++;
  48:.\main.c      ****         }
  49:.\main.c      ****         //if ch = 0, no chars available. print the string
  50:.\main.c      ****         if(ch[0] == 0 && count > 0)
  51:.\main.c      ****         {
  52:.\main.c      ****             TFTSHIELD_1_PrintString(tweet);
  53:.\main.c      ****             //clear the string
  54:.\main.c      ****             memset(&tweet[0], 0, sizeof(tweet));
  55:.\main.c      ****             count = 0;
  56:.\main.c      ****         }
  57:.\main.c      ****     }
  81              		.loc 1 57 0
  82 0046 00BF     		nop
  83              	.L5:
  36:.\main.c      ****         ch[0] = UART_1_GetChar();
  84              		.loc 1 36 0
  85 0048 FFF7FEFF 		bl	UART_1_GetChar
  86 004c 0346     		mov	r3, r0
  87 004e 87F8C830 		strb	r3, [r7, #200]
  39:.\main.c      ****         if(ch[0] != 0 && count == 0)
  88              		.loc 1 39 0
  89 0052 97F8C830 		ldrb	r3, [r7, #200]	@ zero_extendqisi2
  90 0056 002B     		cmp	r3, #0
  91 0058 11D0     		beq	.L2
  39:.\main.c      ****         if(ch[0] != 0 && count == 0)
  92              		.loc 1 39 0 is_stmt 0 discriminator 1
  93 005a D7F8CC30 		ldr	r3, [r7, #204]
  94 005e 002B     		cmp	r3, #0
  95 0060 0DD1     		bne	.L2
  41:.\main.c      ****             strcpy(tweet,ch);
  96              		.loc 1 41 0 is_stmt 1
  97 0062 3A46     		mov	r2, r7
  98 0064 07F1C803 		add	r3, r7, #200
  99 0068 1046     		mov	r0, r2
 100 006a 1946     		mov	r1, r3
 101 006c FFF7FEFF 		bl	strcpy
  42:.\main.c      ****             count++;
 102              		.loc 1 42 0
 103 0070 D7F8CC30 		ldr	r3, [r7, #204]
 104 0074 03F10103 		add	r3, r3, #1
 105 0078 C7F8CC30 		str	r3, [r7, #204]
 106 007c 0AE0     		b	.L3
 107              	.L2:
  44:.\main.c      ****         else if(ch[0] != 0)//str cat to string
 108              		.loc 1 44 0
ARM GAS  C:\Users\barror2\AppData\Local\Temp\ccRIyRb2.s 			page 4


 109 007e 97F8C830 		ldrb	r3, [r7, #200]	@ zero_extendqisi2
 110 0082 002B     		cmp	r3, #0
 111 0084 06D0     		beq	.L3
  46:.\main.c      ****             strcat(tweet,ch);
 112              		.loc 1 46 0
 113 0086 3A46     		mov	r2, r7
 114 0088 07F1C803 		add	r3, r7, #200
 115 008c 1046     		mov	r0, r2
 116 008e 1946     		mov	r1, r3
 117 0090 FFF7FEFF 		bl	strcat
 118              	.L3:
  50:.\main.c      ****         if(ch[0] == 0 && count > 0)
 119              		.loc 1 50 0
 120 0094 97F8C830 		ldrb	r3, [r7, #200]	@ zero_extendqisi2
 121 0098 002B     		cmp	r3, #0
 122 009a D4D1     		bne	.L6
  50:.\main.c      ****         if(ch[0] == 0 && count > 0)
 123              		.loc 1 50 0 is_stmt 0 discriminator 1
 124 009c D7F8CC30 		ldr	r3, [r7, #204]
 125 00a0 002B     		cmp	r3, #0
 126 00a2 D0DD     		ble	.L6
  52:.\main.c      ****             TFTSHIELD_1_PrintString(tweet);
 127              		.loc 1 52 0 is_stmt 1
 128 00a4 3B46     		mov	r3, r7
 129 00a6 1846     		mov	r0, r3
 130 00a8 FFF7FEFF 		bl	TFTSHIELD_1_PrintString
  54:.\main.c      ****             memset(&tweet[0], 0, sizeof(tweet));
 131              		.loc 1 54 0
 132 00ac 3B46     		mov	r3, r7
 133 00ae 1846     		mov	r0, r3
 134 00b0 4FF00001 		mov	r1, #0
 135 00b4 4FF0C802 		mov	r2, #200
 136 00b8 FFF7FEFF 		bl	memset
  55:.\main.c      ****             count = 0;
 137              		.loc 1 55 0
 138 00bc 4FF00003 		mov	r3, #0
 139 00c0 C7F8CC30 		str	r3, [r7, #204]
 140              		.loc 1 57 0
 141 00c4 BFE7     		b	.L6
 142              		.cfi_endproc
 143              	.LFE56:
 144              		.size	main, .-main
 145 00c6 00BF     		.text
 146              	.Letext0:
 147              		.file 2 "c:\\program files (x86)\\cypress\\psoc creator\\3.0\\psoc creator\\import\\gnu_cs\\arm\\4
 148              		.file 3 "./Generated_Source/PSoC5/TFTSHIELD_1.h"
 149              		.file 4 "./Generated_Source/PSoC5/core_cm3.h"