ARM GAS  C:\Users\barror2\AppData\Local\Temp\ccyzxiTb.s 			page 1


   1              		.syntax unified
   2              		.cpu cortex-m3
   3              		.fpu softvfp
   4              		.eabi_attribute 20, 1
   5              		.eabi_attribute 21, 1
   6              		.eabi_attribute 23, 3
   7              		.eabi_attribute 24, 1
   8              		.eabi_attribute 25, 1
   9              		.eabi_attribute 26, 1
  10              		.eabi_attribute 30, 6
  11              		.eabi_attribute 34, 1
  12              		.eabi_attribute 18, 4
  13              		.thumb
  14              		.file	"TFTSHIELD_1_SPIM_1.c"
  15              		.text
  16              	.Ltext0:
  17              		.cfi_sections	.debug_frame
  18              		.global	TFTSHIELD_1_SPIM_1_txBuffer
  19              		.bss
  20              		.align	2
  21              		.type	TFTSHIELD_1_SPIM_1_txBuffer, %object
  22              		.size	TFTSHIELD_1_SPIM_1_txBuffer, 8
  23              	TFTSHIELD_1_SPIM_1_txBuffer:
  24 0000 00000000 		.space	8
  24      00000000 
  25              		.comm	TFTSHIELD_1_SPIM_1_txBufferFull,1,1
  26              		.comm	TFTSHIELD_1_SPIM_1_txBufferRead,1,1
  27              		.comm	TFTSHIELD_1_SPIM_1_txBufferWrite,1,1
  28              		.global	TFTSHIELD_1_SPIM_1_rxBuffer
  29              		.align	2
  30              		.type	TFTSHIELD_1_SPIM_1_rxBuffer, %object
  31              		.size	TFTSHIELD_1_SPIM_1_rxBuffer, 8
  32              	TFTSHIELD_1_SPIM_1_rxBuffer:
  33 0008 00000000 		.space	8
  33      00000000 
  34              		.comm	TFTSHIELD_1_SPIM_1_rxBufferFull,1,1
  35              		.comm	TFTSHIELD_1_SPIM_1_rxBufferRead,1,1
  36              		.comm	TFTSHIELD_1_SPIM_1_rxBufferWrite,1,1
  37              		.global	TFTSHIELD_1_SPIM_1_initVar
  38              		.type	TFTSHIELD_1_SPIM_1_initVar, %object
  39              		.size	TFTSHIELD_1_SPIM_1_initVar, 1
  40              	TFTSHIELD_1_SPIM_1_initVar:
  41 0010 00       		.space	1
  42              		.comm	TFTSHIELD_1_SPIM_1_swStatusTx,1,1
  43              		.comm	TFTSHIELD_1_SPIM_1_swStatusRx,1,1
  44 0011 000000   		.section	.text.TFTSHIELD_1_SPIM_1_Init,"ax",%progbits
  45              		.align	2
  46              		.global	TFTSHIELD_1_SPIM_1_Init
  47              		.thumb
  48              		.thumb_func
  49              		.type	TFTSHIELD_1_SPIM_1_Init, %function
  50              	TFTSHIELD_1_SPIM_1_Init:
  51              	.LFB0:
  52              		.file 1 ".\\Generated_Source\\PSoC5\\TFTSHIELD_1_SPIM_1.c"
   1:.\Generated_Source\PSoC5/TFTSHIELD_1_SPIM_1.c **** /*******************************************************************************
   2:.\Generated_Source\PSoC5/TFTSHIELD_1_SPIM_1.c **** * File Name: TFTSHIELD_1_SPIM_1.c
   3:.\Generated_Source\PSoC5/TFTSHIELD_1_SPIM_1.c **** * Version 2.40
ARM GAS  C:\Users\barror2\AppData\Local\Temp\ccyzxiTb.s 			page 2


   4:.\Generated_Source\PSoC5/TFTSHIELD_1_SPIM_1.c **** *
   5:.\Generated_Source\PSoC5/TFTSHIELD_1_SPIM_1.c **** * Description:
   6:.\Generated_Source\PSoC5/TFTSHIELD_1_SPIM_1.c **** *  This file provides all API functionality of the SPI Master component.
   7:.\Generated_Source\PSoC5/TFTSHIELD_1_SPIM_1.c **** *
   8:.\Generated_Source\PSoC5/TFTSHIELD_1_SPIM_1.c **** * Note:
   9:.\Generated_Source\PSoC5/TFTSHIELD_1_SPIM_1.c **** *  None.
  10:.\Generated_Source\PSoC5/TFTSHIELD_1_SPIM_1.c **** *
  11:.\Generated_Source\PSoC5/TFTSHIELD_1_SPIM_1.c **** ********************************************************************************
  12:.\Generated_Source\PSoC5/TFTSHIELD_1_SPIM_1.c **** * Copyright 2008-2012, Cypress Semiconductor Corporation.  All rights reserved.
  13:.\Generated_Source\PSoC5/TFTSHIELD_1_SPIM_1.c **** * You may use this file only in accordance with the license, terms, conditions,
  14:.\Generated_Source\PSoC5/TFTSHIELD_1_SPIM_1.c **** * disclaimers, and limitations in the end user license agreement accompanying
  15:.\Generated_Source\PSoC5/TFTSHIELD_1_SPIM_1.c **** * the software package with which this file was provided.
  16:.\Generated_Source\PSoC5/TFTSHIELD_1_SPIM_1.c **** *******************************************************************************/
  17:.\Generated_Source\PSoC5/TFTSHIELD_1_SPIM_1.c **** 
  18:.\Generated_Source\PSoC5/TFTSHIELD_1_SPIM_1.c **** #include "TFTSHIELD_1_SPIM_1_PVT.h"
  19:.\Generated_Source\PSoC5/TFTSHIELD_1_SPIM_1.c **** 
  20:.\Generated_Source\PSoC5/TFTSHIELD_1_SPIM_1.c **** #if(TFTSHIELD_1_SPIM_1_TX_SOFTWARE_BUF_ENABLED)
  21:.\Generated_Source\PSoC5/TFTSHIELD_1_SPIM_1.c ****     volatile uint8 TFTSHIELD_1_SPIM_1_txBuffer[TFTSHIELD_1_SPIM_1_TX_BUFFER_SIZE] = {0u};
  22:.\Generated_Source\PSoC5/TFTSHIELD_1_SPIM_1.c ****     volatile uint8 TFTSHIELD_1_SPIM_1_txBufferFull;
  23:.\Generated_Source\PSoC5/TFTSHIELD_1_SPIM_1.c ****     volatile uint8 TFTSHIELD_1_SPIM_1_txBufferRead;
  24:.\Generated_Source\PSoC5/TFTSHIELD_1_SPIM_1.c ****     volatile uint8 TFTSHIELD_1_SPIM_1_txBufferWrite;
  25:.\Generated_Source\PSoC5/TFTSHIELD_1_SPIM_1.c **** #endif /* (TFTSHIELD_1_SPIM_1_TX_SOFTWARE_BUF_ENABLED) */
  26:.\Generated_Source\PSoC5/TFTSHIELD_1_SPIM_1.c **** 
  27:.\Generated_Source\PSoC5/TFTSHIELD_1_SPIM_1.c **** #if(TFTSHIELD_1_SPIM_1_RX_SOFTWARE_BUF_ENABLED)
  28:.\Generated_Source\PSoC5/TFTSHIELD_1_SPIM_1.c ****     volatile uint8 TFTSHIELD_1_SPIM_1_rxBuffer[TFTSHIELD_1_SPIM_1_RX_BUFFER_SIZE] = {0u};
  29:.\Generated_Source\PSoC5/TFTSHIELD_1_SPIM_1.c ****     volatile uint8 TFTSHIELD_1_SPIM_1_rxBufferFull;
  30:.\Generated_Source\PSoC5/TFTSHIELD_1_SPIM_1.c ****     volatile uint8 TFTSHIELD_1_SPIM_1_rxBufferRead;
  31:.\Generated_Source\PSoC5/TFTSHIELD_1_SPIM_1.c ****     volatile uint8 TFTSHIELD_1_SPIM_1_rxBufferWrite;
  32:.\Generated_Source\PSoC5/TFTSHIELD_1_SPIM_1.c **** #endif /* (TFTSHIELD_1_SPIM_1_RX_SOFTWARE_BUF_ENABLED) */
  33:.\Generated_Source\PSoC5/TFTSHIELD_1_SPIM_1.c **** 
  34:.\Generated_Source\PSoC5/TFTSHIELD_1_SPIM_1.c **** uint8 TFTSHIELD_1_SPIM_1_initVar = 0u;
  35:.\Generated_Source\PSoC5/TFTSHIELD_1_SPIM_1.c **** 
  36:.\Generated_Source\PSoC5/TFTSHIELD_1_SPIM_1.c **** volatile uint8 TFTSHIELD_1_SPIM_1_swStatusTx;
  37:.\Generated_Source\PSoC5/TFTSHIELD_1_SPIM_1.c **** volatile uint8 TFTSHIELD_1_SPIM_1_swStatusRx;
  38:.\Generated_Source\PSoC5/TFTSHIELD_1_SPIM_1.c **** 
  39:.\Generated_Source\PSoC5/TFTSHIELD_1_SPIM_1.c **** 
  40:.\Generated_Source\PSoC5/TFTSHIELD_1_SPIM_1.c **** /*******************************************************************************
  41:.\Generated_Source\PSoC5/TFTSHIELD_1_SPIM_1.c **** * Function Name: TFTSHIELD_1_SPIM_1_Init
  42:.\Generated_Source\PSoC5/TFTSHIELD_1_SPIM_1.c **** ********************************************************************************
  43:.\Generated_Source\PSoC5/TFTSHIELD_1_SPIM_1.c **** *
  44:.\Generated_Source\PSoC5/TFTSHIELD_1_SPIM_1.c **** * Summary:
  45:.\Generated_Source\PSoC5/TFTSHIELD_1_SPIM_1.c **** *  Inits/Restores default SPIM configuration provided with customizer.
  46:.\Generated_Source\PSoC5/TFTSHIELD_1_SPIM_1.c **** *
  47:.\Generated_Source\PSoC5/TFTSHIELD_1_SPIM_1.c **** * Parameters:
  48:.\Generated_Source\PSoC5/TFTSHIELD_1_SPIM_1.c **** *  None.
  49:.\Generated_Source\PSoC5/TFTSHIELD_1_SPIM_1.c **** *
  50:.\Generated_Source\PSoC5/TFTSHIELD_1_SPIM_1.c **** * Return:
  51:.\Generated_Source\PSoC5/TFTSHIELD_1_SPIM_1.c **** *  None.
  52:.\Generated_Source\PSoC5/TFTSHIELD_1_SPIM_1.c **** *
  53:.\Generated_Source\PSoC5/TFTSHIELD_1_SPIM_1.c **** * Side Effects:
  54:.\Generated_Source\PSoC5/TFTSHIELD_1_SPIM_1.c **** *  When this function is called it initializes all of the necessary parameters
  55:.\Generated_Source\PSoC5/TFTSHIELD_1_SPIM_1.c **** *  for execution. i.e. setting the initial interrupt mask, configuring the
  56:.\Generated_Source\PSoC5/TFTSHIELD_1_SPIM_1.c **** *  interrupt service routine, configuring the bit-counter parameters and
  57:.\Generated_Source\PSoC5/TFTSHIELD_1_SPIM_1.c **** *  clearing the FIFO and Status Register.
  58:.\Generated_Source\PSoC5/TFTSHIELD_1_SPIM_1.c **** *
  59:.\Generated_Source\PSoC5/TFTSHIELD_1_SPIM_1.c **** * Reentrant:
  60:.\Generated_Source\PSoC5/TFTSHIELD_1_SPIM_1.c **** *  No.
ARM GAS  C:\Users\barror2\AppData\Local\Temp\ccyzxiTb.s 			page 3


  61:.\Generated_Source\PSoC5/TFTSHIELD_1_SPIM_1.c **** *
  62:.\Generated_Source\PSoC5/TFTSHIELD_1_SPIM_1.c **** *******************************************************************************/
  63:.\Generated_Source\PSoC5/TFTSHIELD_1_SPIM_1.c **** void TFTSHIELD_1_SPIM_1_Init(void) 
  64:.\Generated_Source\PSoC5/TFTSHIELD_1_SPIM_1.c **** {
  53              		.loc 1 64 0
  54              		.cfi_startproc
  55              		@ args = 0, pretend = 0, frame = 0
  56              		@ frame_needed = 1, uses_anonymous_args = 0
  57 0000 80B5     		push	{r7, lr}
  58              	.LCFI0:
  59              		.cfi_def_cfa_offset 8
  60              		.cfi_offset 7, -8
  61              		.cfi_offset 14, -4
  62 0002 00AF     		add	r7, sp, #0
  63              	.LCFI1:
  64              		.cfi_def_cfa_register 7
  65:.\Generated_Source\PSoC5/TFTSHIELD_1_SPIM_1.c ****     /* Initialize the Bit counter */
  66:.\Generated_Source\PSoC5/TFTSHIELD_1_SPIM_1.c ****     TFTSHIELD_1_SPIM_1_COUNTER_PERIOD_REG = TFTSHIELD_1_SPIM_1_BITCTR_INIT;
  65              		.loc 1 66 0
  66 0004 46F28D43 		movw	r3, #25741
  67 0008 C4F20003 		movt	r3, 16384
  68 000c 4FF00F02 		mov	r2, #15
  69 0010 1A70     		strb	r2, [r3, #0]
  67:.\Generated_Source\PSoC5/TFTSHIELD_1_SPIM_1.c **** 
  68:.\Generated_Source\PSoC5/TFTSHIELD_1_SPIM_1.c ****     /* Init TX ISR  */
  69:.\Generated_Source\PSoC5/TFTSHIELD_1_SPIM_1.c ****     #if(0u != TFTSHIELD_1_SPIM_1_INTERNAL_TX_INT_ENABLED)
  70:.\Generated_Source\PSoC5/TFTSHIELD_1_SPIM_1.c ****         CyIntDisable         (TFTSHIELD_1_SPIM_1_TX_ISR_NUMBER);
  70              		.loc 1 70 0
  71 0012 4EF28013 		movw	r3, #57728
  72 0016 CEF20003 		movt	r3, 57344
  73 001a 4FF00202 		mov	r2, #2
  74 001e 1A60     		str	r2, [r3, #0]
  71:.\Generated_Source\PSoC5/TFTSHIELD_1_SPIM_1.c ****         CyIntSetPriority     (TFTSHIELD_1_SPIM_1_TX_ISR_NUMBER,  TFTSHIELD_1_SPIM_1_TX_ISR_PRIORITY
  75              		.loc 1 71 0
  76 0020 4FF00100 		mov	r0, #1
  77 0024 4FF00701 		mov	r1, #7
  78 0028 FFF7FEFF 		bl	CyIntSetPriority
  72:.\Generated_Source\PSoC5/TFTSHIELD_1_SPIM_1.c ****         (void) CyIntSetVector(TFTSHIELD_1_SPIM_1_TX_ISR_NUMBER, &TFTSHIELD_1_SPIM_1_TX_ISR);
  79              		.loc 1 72 0
  80 002c 4FF00100 		mov	r0, #1
  81 0030 40F20001 		movw	r1, #:lower16:TFTSHIELD_1_SPIM_1_TX_ISR
  82 0034 C0F20001 		movt	r1, #:upper16:TFTSHIELD_1_SPIM_1_TX_ISR
  83 0038 FFF7FEFF 		bl	CyIntSetVector
  73:.\Generated_Source\PSoC5/TFTSHIELD_1_SPIM_1.c ****     #endif /* (0u != TFTSHIELD_1_SPIM_1_INTERNAL_TX_INT_ENABLED) */
  74:.\Generated_Source\PSoC5/TFTSHIELD_1_SPIM_1.c **** 
  75:.\Generated_Source\PSoC5/TFTSHIELD_1_SPIM_1.c ****     /* Init RX ISR  */
  76:.\Generated_Source\PSoC5/TFTSHIELD_1_SPIM_1.c ****     #if(0u != TFTSHIELD_1_SPIM_1_INTERNAL_RX_INT_ENABLED)
  77:.\Generated_Source\PSoC5/TFTSHIELD_1_SPIM_1.c ****         CyIntDisable         (TFTSHIELD_1_SPIM_1_RX_ISR_NUMBER);
  84              		.loc 1 77 0
  85 003c 4EF28013 		movw	r3, #57728
  86 0040 CEF20003 		movt	r3, 57344
  87 0044 4FF00102 		mov	r2, #1
  88 0048 1A60     		str	r2, [r3, #0]
  78:.\Generated_Source\PSoC5/TFTSHIELD_1_SPIM_1.c ****         CyIntSetPriority     (TFTSHIELD_1_SPIM_1_RX_ISR_NUMBER,  TFTSHIELD_1_SPIM_1_RX_ISR_PRIORITY
  89              		.loc 1 78 0
  90 004a 4FF00000 		mov	r0, #0
  91 004e 4FF00701 		mov	r1, #7
ARM GAS  C:\Users\barror2\AppData\Local\Temp\ccyzxiTb.s 			page 4


  92 0052 FFF7FEFF 		bl	CyIntSetPriority
  79:.\Generated_Source\PSoC5/TFTSHIELD_1_SPIM_1.c ****         (void) CyIntSetVector(TFTSHIELD_1_SPIM_1_RX_ISR_NUMBER, &TFTSHIELD_1_SPIM_1_RX_ISR);
  93              		.loc 1 79 0
  94 0056 4FF00000 		mov	r0, #0
  95 005a 40F20001 		movw	r1, #:lower16:TFTSHIELD_1_SPIM_1_RX_ISR
  96 005e C0F20001 		movt	r1, #:upper16:TFTSHIELD_1_SPIM_1_RX_ISR
  97 0062 FFF7FEFF 		bl	CyIntSetVector
  80:.\Generated_Source\PSoC5/TFTSHIELD_1_SPIM_1.c ****     #endif /* (0u != TFTSHIELD_1_SPIM_1_INTERNAL_RX_INT_ENABLED) */
  81:.\Generated_Source\PSoC5/TFTSHIELD_1_SPIM_1.c **** 
  82:.\Generated_Source\PSoC5/TFTSHIELD_1_SPIM_1.c ****     /* Clear any stray data from the RX and TX FIFO */
  83:.\Generated_Source\PSoC5/TFTSHIELD_1_SPIM_1.c ****     TFTSHIELD_1_SPIM_1_ClearFIFO();
  98              		.loc 1 83 0
  99 0066 FFF7FEFF 		bl	TFTSHIELD_1_SPIM_1_ClearFIFO
  84:.\Generated_Source\PSoC5/TFTSHIELD_1_SPIM_1.c **** 
  85:.\Generated_Source\PSoC5/TFTSHIELD_1_SPIM_1.c ****     #if(TFTSHIELD_1_SPIM_1_RX_SOFTWARE_BUF_ENABLED)
  86:.\Generated_Source\PSoC5/TFTSHIELD_1_SPIM_1.c ****         TFTSHIELD_1_SPIM_1_rxBufferFull  = 0u;
 100              		.loc 1 86 0
 101 006a 40F20003 		movw	r3, #:lower16:TFTSHIELD_1_SPIM_1_rxBufferFull
 102 006e C0F20003 		movt	r3, #:upper16:TFTSHIELD_1_SPIM_1_rxBufferFull
 103 0072 4FF00002 		mov	r2, #0
 104 0076 1A70     		strb	r2, [r3, #0]
  87:.\Generated_Source\PSoC5/TFTSHIELD_1_SPIM_1.c ****         TFTSHIELD_1_SPIM_1_rxBufferRead  = 0u;
 105              		.loc 1 87 0
 106 0078 40F20003 		movw	r3, #:lower16:TFTSHIELD_1_SPIM_1_rxBufferRead
 107 007c C0F20003 		movt	r3, #:upper16:TFTSHIELD_1_SPIM_1_rxBufferRead
 108 0080 4FF00002 		mov	r2, #0
 109 0084 1A70     		strb	r2, [r3, #0]
  88:.\Generated_Source\PSoC5/TFTSHIELD_1_SPIM_1.c ****         TFTSHIELD_1_SPIM_1_rxBufferWrite = 0u;
 110              		.loc 1 88 0
 111 0086 40F20003 		movw	r3, #:lower16:TFTSHIELD_1_SPIM_1_rxBufferWrite
 112 008a C0F20003 		movt	r3, #:upper16:TFTSHIELD_1_SPIM_1_rxBufferWrite
 113 008e 4FF00002 		mov	r2, #0
 114 0092 1A70     		strb	r2, [r3, #0]
  89:.\Generated_Source\PSoC5/TFTSHIELD_1_SPIM_1.c ****     #endif /* (TFTSHIELD_1_SPIM_1_RX_SOFTWARE_BUF_ENABLED) */
  90:.\Generated_Source\PSoC5/TFTSHIELD_1_SPIM_1.c **** 
  91:.\Generated_Source\PSoC5/TFTSHIELD_1_SPIM_1.c ****     #if(TFTSHIELD_1_SPIM_1_TX_SOFTWARE_BUF_ENABLED)
  92:.\Generated_Source\PSoC5/TFTSHIELD_1_SPIM_1.c ****         TFTSHIELD_1_SPIM_1_txBufferFull  = 0u;
 115              		.loc 1 92 0
 116 0094 40F20003 		movw	r3, #:lower16:TFTSHIELD_1_SPIM_1_txBufferFull
 117 0098 C0F20003 		movt	r3, #:upper16:TFTSHIELD_1_SPIM_1_txBufferFull
 118 009c 4FF00002 		mov	r2, #0
 119 00a0 1A70     		strb	r2, [r3, #0]
  93:.\Generated_Source\PSoC5/TFTSHIELD_1_SPIM_1.c ****         TFTSHIELD_1_SPIM_1_txBufferRead  = 0u;
 120              		.loc 1 93 0
 121 00a2 40F20003 		movw	r3, #:lower16:TFTSHIELD_1_SPIM_1_txBufferRead
 122 00a6 C0F20003 		movt	r3, #:upper16:TFTSHIELD_1_SPIM_1_txBufferRead
 123 00aa 4FF00002 		mov	r2, #0
 124 00ae 1A70     		strb	r2, [r3, #0]
  94:.\Generated_Source\PSoC5/TFTSHIELD_1_SPIM_1.c ****         TFTSHIELD_1_SPIM_1_txBufferWrite = 0u;
 125              		.loc 1 94 0
 126 00b0 40F20003 		movw	r3, #:lower16:TFTSHIELD_1_SPIM_1_txBufferWrite
 127 00b4 C0F20003 		movt	r3, #:upper16:TFTSHIELD_1_SPIM_1_txBufferWrite
 128 00b8 4FF00002 		mov	r2, #0
 129 00bc 1A70     		strb	r2, [r3, #0]
  95:.\Generated_Source\PSoC5/TFTSHIELD_1_SPIM_1.c ****     #endif /* (TFTSHIELD_1_SPIM_1_TX_SOFTWARE_BUF_ENABLED) */
  96:.\Generated_Source\PSoC5/TFTSHIELD_1_SPIM_1.c **** 
  97:.\Generated_Source\PSoC5/TFTSHIELD_1_SPIM_1.c ****     (void) TFTSHIELD_1_SPIM_1_ReadTxStatus(); /* Clear Tx status and swStatusTx */
ARM GAS  C:\Users\barror2\AppData\Local\Temp\ccyzxiTb.s 			page 5


 130              		.loc 1 97 0
 131 00be FFF7FEFF 		bl	TFTSHIELD_1_SPIM_1_ReadTxStatus
  98:.\Generated_Source\PSoC5/TFTSHIELD_1_SPIM_1.c ****     (void) TFTSHIELD_1_SPIM_1_ReadRxStatus(); /* Clear Rx status and swStatusRx */
 132              		.loc 1 98 0
 133 00c2 FFF7FEFF 		bl	TFTSHIELD_1_SPIM_1_ReadRxStatus
  99:.\Generated_Source\PSoC5/TFTSHIELD_1_SPIM_1.c **** 
 100:.\Generated_Source\PSoC5/TFTSHIELD_1_SPIM_1.c ****     /* Configure TX and RX interrupt mask */
 101:.\Generated_Source\PSoC5/TFTSHIELD_1_SPIM_1.c ****     TFTSHIELD_1_SPIM_1_TX_STATUS_MASK_REG = TFTSHIELD_1_SPIM_1_TX_INIT_INTERRUPTS_MASK;
 134              		.loc 1 101 0
 135 00c6 46F28E43 		movw	r3, #25742
 136 00ca C4F20003 		movt	r3, 16384
 137 00ce 4FF00002 		mov	r2, #0
 138 00d2 1A70     		strb	r2, [r3, #0]
 102:.\Generated_Source\PSoC5/TFTSHIELD_1_SPIM_1.c ****     TFTSHIELD_1_SPIM_1_RX_STATUS_MASK_REG = TFTSHIELD_1_SPIM_1_RX_INIT_INTERRUPTS_MASK;
 139              		.loc 1 102 0
 140 00d4 46F28C43 		movw	r3, #25740
 141 00d8 C4F20003 		movt	r3, 16384
 142 00dc 4FF02002 		mov	r2, #32
 143 00e0 1A70     		strb	r2, [r3, #0]
 103:.\Generated_Source\PSoC5/TFTSHIELD_1_SPIM_1.c **** }
 144              		.loc 1 103 0
 145 00e2 80BD     		pop	{r7, pc}
 146              		.cfi_endproc
 147              	.LFE0:
 148              		.size	TFTSHIELD_1_SPIM_1_Init, .-TFTSHIELD_1_SPIM_1_Init
 149              		.section	.text.TFTSHIELD_1_SPIM_1_Enable,"ax",%progbits
 150              		.align	2
 151              		.global	TFTSHIELD_1_SPIM_1_Enable
 152              		.thumb
 153              		.thumb_func
 154              		.type	TFTSHIELD_1_SPIM_1_Enable, %function
 155              	TFTSHIELD_1_SPIM_1_Enable:
 156              	.LFB1:
 104:.\Generated_Source\PSoC5/TFTSHIELD_1_SPIM_1.c **** 
 105:.\Generated_Source\PSoC5/TFTSHIELD_1_SPIM_1.c **** 
 106:.\Generated_Source\PSoC5/TFTSHIELD_1_SPIM_1.c **** /*******************************************************************************
 107:.\Generated_Source\PSoC5/TFTSHIELD_1_SPIM_1.c **** * Function Name: TFTSHIELD_1_SPIM_1_Enable
 108:.\Generated_Source\PSoC5/TFTSHIELD_1_SPIM_1.c **** ********************************************************************************
 109:.\Generated_Source\PSoC5/TFTSHIELD_1_SPIM_1.c **** *
 110:.\Generated_Source\PSoC5/TFTSHIELD_1_SPIM_1.c **** * Summary:
 111:.\Generated_Source\PSoC5/TFTSHIELD_1_SPIM_1.c **** *  Enable SPIM component.
 112:.\Generated_Source\PSoC5/TFTSHIELD_1_SPIM_1.c **** *
 113:.\Generated_Source\PSoC5/TFTSHIELD_1_SPIM_1.c **** * Parameters:
 114:.\Generated_Source\PSoC5/TFTSHIELD_1_SPIM_1.c **** *  None.
 115:.\Generated_Source\PSoC5/TFTSHIELD_1_SPIM_1.c **** *
 116:.\Generated_Source\PSoC5/TFTSHIELD_1_SPIM_1.c **** * Return:
 117:.\Generated_Source\PSoC5/TFTSHIELD_1_SPIM_1.c **** *  None.
 118:.\Generated_Source\PSoC5/TFTSHIELD_1_SPIM_1.c **** *
 119:.\Generated_Source\PSoC5/TFTSHIELD_1_SPIM_1.c **** *******************************************************************************/
 120:.\Generated_Source\PSoC5/TFTSHIELD_1_SPIM_1.c **** void TFTSHIELD_1_SPIM_1_Enable(void) 
 121:.\Generated_Source\PSoC5/TFTSHIELD_1_SPIM_1.c **** {
 157              		.loc 1 121 0
 158              		.cfi_startproc
 159              		@ args = 0, pretend = 0, frame = 8
 160              		@ frame_needed = 1, uses_anonymous_args = 0
 161 0000 80B5     		push	{r7, lr}
 162              	.LCFI2:
ARM GAS  C:\Users\barror2\AppData\Local\Temp\ccyzxiTb.s 			page 6


 163              		.cfi_def_cfa_offset 8
 164              		.cfi_offset 7, -8
 165              		.cfi_offset 14, -4
 166 0002 82B0     		sub	sp, sp, #8
 167              	.LCFI3:
 168              		.cfi_def_cfa_offset 16
 169 0004 00AF     		add	r7, sp, #0
 170              	.LCFI4:
 171              		.cfi_def_cfa_register 7
 122:.\Generated_Source\PSoC5/TFTSHIELD_1_SPIM_1.c ****     uint8 enableInterrupts;
 123:.\Generated_Source\PSoC5/TFTSHIELD_1_SPIM_1.c **** 
 124:.\Generated_Source\PSoC5/TFTSHIELD_1_SPIM_1.c ****     enableInterrupts = CyEnterCriticalSection();
 172              		.loc 1 124 0
 173 0006 FFF7FEFF 		bl	CyEnterCriticalSection
 174 000a 0346     		mov	r3, r0
 175 000c FB71     		strb	r3, [r7, #7]
 125:.\Generated_Source\PSoC5/TFTSHIELD_1_SPIM_1.c ****     TFTSHIELD_1_SPIM_1_COUNTER_CONTROL_REG |= TFTSHIELD_1_SPIM_1_CNTR_ENABLE;
 176              		.loc 1 125 0
 177 000e 46F29D43 		movw	r3, #25757
 178 0012 C4F20003 		movt	r3, 16384
 179 0016 46F29D42 		movw	r2, #25757
 180 001a C4F20002 		movt	r2, 16384
 181 001e 1278     		ldrb	r2, [r2, #0]
 182 0020 D2B2     		uxtb	r2, r2
 183 0022 42F02002 		orr	r2, r2, #32
 184 0026 D2B2     		uxtb	r2, r2
 185 0028 1A70     		strb	r2, [r3, #0]
 126:.\Generated_Source\PSoC5/TFTSHIELD_1_SPIM_1.c ****     TFTSHIELD_1_SPIM_1_TX_STATUS_ACTL_REG  |= TFTSHIELD_1_SPIM_1_INT_ENABLE;
 186              		.loc 1 126 0
 187 002a 46F29E43 		movw	r3, #25758
 188 002e C4F20003 		movt	r3, 16384
 189 0032 46F29E42 		movw	r2, #25758
 190 0036 C4F20002 		movt	r2, 16384
 191 003a 1278     		ldrb	r2, [r2, #0]
 192 003c D2B2     		uxtb	r2, r2
 193 003e 42F01002 		orr	r2, r2, #16
 194 0042 D2B2     		uxtb	r2, r2
 195 0044 1A70     		strb	r2, [r3, #0]
 127:.\Generated_Source\PSoC5/TFTSHIELD_1_SPIM_1.c ****     TFTSHIELD_1_SPIM_1_RX_STATUS_ACTL_REG  |= TFTSHIELD_1_SPIM_1_INT_ENABLE;
 196              		.loc 1 127 0
 197 0046 46F29C43 		movw	r3, #25756
 198 004a C4F20003 		movt	r3, 16384
 199 004e 46F29C42 		movw	r2, #25756
 200 0052 C4F20002 		movt	r2, 16384
 201 0056 1278     		ldrb	r2, [r2, #0]
 202 0058 D2B2     		uxtb	r2, r2
 203 005a 42F01002 		orr	r2, r2, #16
 204 005e D2B2     		uxtb	r2, r2
 205 0060 1A70     		strb	r2, [r3, #0]
 128:.\Generated_Source\PSoC5/TFTSHIELD_1_SPIM_1.c ****     CyExitCriticalSection(enableInterrupts);
 206              		.loc 1 128 0
 207 0062 FB79     		ldrb	r3, [r7, #7]	@ zero_extendqisi2
 208 0064 1846     		mov	r0, r3
 209 0066 FFF7FEFF 		bl	CyExitCriticalSection
 129:.\Generated_Source\PSoC5/TFTSHIELD_1_SPIM_1.c **** 
 130:.\Generated_Source\PSoC5/TFTSHIELD_1_SPIM_1.c ****     #if(0u != TFTSHIELD_1_SPIM_1_INTERNAL_CLOCK)
 131:.\Generated_Source\PSoC5/TFTSHIELD_1_SPIM_1.c ****         TFTSHIELD_1_SPIM_1_IntClock_Enable();
ARM GAS  C:\Users\barror2\AppData\Local\Temp\ccyzxiTb.s 			page 7


 132:.\Generated_Source\PSoC5/TFTSHIELD_1_SPIM_1.c ****     #endif /* (0u != TFTSHIELD_1_SPIM_1_INTERNAL_CLOCK) */
 133:.\Generated_Source\PSoC5/TFTSHIELD_1_SPIM_1.c **** 
 134:.\Generated_Source\PSoC5/TFTSHIELD_1_SPIM_1.c ****     TFTSHIELD_1_SPIM_1_EnableTxInt();
 210              		.loc 1 134 0
 211 006a FFF7FEFF 		bl	TFTSHIELD_1_SPIM_1_EnableTxInt
 135:.\Generated_Source\PSoC5/TFTSHIELD_1_SPIM_1.c ****     TFTSHIELD_1_SPIM_1_EnableRxInt();
 212              		.loc 1 135 0
 213 006e FFF7FEFF 		bl	TFTSHIELD_1_SPIM_1_EnableRxInt
 136:.\Generated_Source\PSoC5/TFTSHIELD_1_SPIM_1.c **** }
 214              		.loc 1 136 0
 215 0072 07F10807 		add	r7, r7, #8
 216 0076 BD46     		mov	sp, r7
 217 0078 80BD     		pop	{r7, pc}
 218              		.cfi_endproc
 219              	.LFE1:
 220              		.size	TFTSHIELD_1_SPIM_1_Enable, .-TFTSHIELD_1_SPIM_1_Enable
 221              		.section	.text.TFTSHIELD_1_SPIM_1_Start,"ax",%progbits
 222              		.align	2
 223              		.global	TFTSHIELD_1_SPIM_1_Start
 224              		.thumb
 225              		.thumb_func
 226              		.type	TFTSHIELD_1_SPIM_1_Start, %function
 227              	TFTSHIELD_1_SPIM_1_Start:
 228              	.LFB2:
 137:.\Generated_Source\PSoC5/TFTSHIELD_1_SPIM_1.c **** 
 138:.\Generated_Source\PSoC5/TFTSHIELD_1_SPIM_1.c **** 
 139:.\Generated_Source\PSoC5/TFTSHIELD_1_SPIM_1.c **** /*******************************************************************************
 140:.\Generated_Source\PSoC5/TFTSHIELD_1_SPIM_1.c **** * Function Name: TFTSHIELD_1_SPIM_1_Start
 141:.\Generated_Source\PSoC5/TFTSHIELD_1_SPIM_1.c **** ********************************************************************************
 142:.\Generated_Source\PSoC5/TFTSHIELD_1_SPIM_1.c **** *
 143:.\Generated_Source\PSoC5/TFTSHIELD_1_SPIM_1.c **** * Summary:
 144:.\Generated_Source\PSoC5/TFTSHIELD_1_SPIM_1.c **** *  Initialize and Enable the SPI Master component.
 145:.\Generated_Source\PSoC5/TFTSHIELD_1_SPIM_1.c **** *
 146:.\Generated_Source\PSoC5/TFTSHIELD_1_SPIM_1.c **** * Parameters:
 147:.\Generated_Source\PSoC5/TFTSHIELD_1_SPIM_1.c **** *  None.
 148:.\Generated_Source\PSoC5/TFTSHIELD_1_SPIM_1.c **** *
 149:.\Generated_Source\PSoC5/TFTSHIELD_1_SPIM_1.c **** * Return:
 150:.\Generated_Source\PSoC5/TFTSHIELD_1_SPIM_1.c **** *  None.
 151:.\Generated_Source\PSoC5/TFTSHIELD_1_SPIM_1.c **** *
 152:.\Generated_Source\PSoC5/TFTSHIELD_1_SPIM_1.c **** * Global variables:
 153:.\Generated_Source\PSoC5/TFTSHIELD_1_SPIM_1.c **** *  TFTSHIELD_1_SPIM_1_initVar - used to check initial configuration, modified on
 154:.\Generated_Source\PSoC5/TFTSHIELD_1_SPIM_1.c **** *  first function call.
 155:.\Generated_Source\PSoC5/TFTSHIELD_1_SPIM_1.c **** *
 156:.\Generated_Source\PSoC5/TFTSHIELD_1_SPIM_1.c **** * Theory:
 157:.\Generated_Source\PSoC5/TFTSHIELD_1_SPIM_1.c **** *  Enable the clock input to enable operation.
 158:.\Generated_Source\PSoC5/TFTSHIELD_1_SPIM_1.c **** *
 159:.\Generated_Source\PSoC5/TFTSHIELD_1_SPIM_1.c **** * Reentrant:
 160:.\Generated_Source\PSoC5/TFTSHIELD_1_SPIM_1.c **** *  No.
 161:.\Generated_Source\PSoC5/TFTSHIELD_1_SPIM_1.c **** *
 162:.\Generated_Source\PSoC5/TFTSHIELD_1_SPIM_1.c **** *******************************************************************************/
 163:.\Generated_Source\PSoC5/TFTSHIELD_1_SPIM_1.c **** void TFTSHIELD_1_SPIM_1_Start(void) 
 164:.\Generated_Source\PSoC5/TFTSHIELD_1_SPIM_1.c **** {
 229              		.loc 1 164 0
 230              		.cfi_startproc
 231              		@ args = 0, pretend = 0, frame = 0
 232              		@ frame_needed = 1, uses_anonymous_args = 0
 233 0000 80B5     		push	{r7, lr}
ARM GAS  C:\Users\barror2\AppData\Local\Temp\ccyzxiTb.s 			page 8


 234              	.LCFI5:
 235              		.cfi_def_cfa_offset 8
 236              		.cfi_offset 7, -8
 237              		.cfi_offset 14, -4
 238 0002 00AF     		add	r7, sp, #0
 239              	.LCFI6:
 240              		.cfi_def_cfa_register 7
 165:.\Generated_Source\PSoC5/TFTSHIELD_1_SPIM_1.c ****     if(0u == TFTSHIELD_1_SPIM_1_initVar)
 241              		.loc 1 165 0
 242 0004 40F20003 		movw	r3, #:lower16:TFTSHIELD_1_SPIM_1_initVar
 243 0008 C0F20003 		movt	r3, #:upper16:TFTSHIELD_1_SPIM_1_initVar
 244 000c 1B78     		ldrb	r3, [r3, #0]	@ zero_extendqisi2
 245 000e 002B     		cmp	r3, #0
 246 0010 08D1     		bne	.L4
 166:.\Generated_Source\PSoC5/TFTSHIELD_1_SPIM_1.c ****     {
 167:.\Generated_Source\PSoC5/TFTSHIELD_1_SPIM_1.c ****         TFTSHIELD_1_SPIM_1_Init();
 247              		.loc 1 167 0
 248 0012 FFF7FEFF 		bl	TFTSHIELD_1_SPIM_1_Init
 168:.\Generated_Source\PSoC5/TFTSHIELD_1_SPIM_1.c ****         TFTSHIELD_1_SPIM_1_initVar = 1u;
 249              		.loc 1 168 0
 250 0016 40F20003 		movw	r3, #:lower16:TFTSHIELD_1_SPIM_1_initVar
 251 001a C0F20003 		movt	r3, #:upper16:TFTSHIELD_1_SPIM_1_initVar
 252 001e 4FF00102 		mov	r2, #1
 253 0022 1A70     		strb	r2, [r3, #0]
 254              	.L4:
 169:.\Generated_Source\PSoC5/TFTSHIELD_1_SPIM_1.c ****     }
 170:.\Generated_Source\PSoC5/TFTSHIELD_1_SPIM_1.c **** 
 171:.\Generated_Source\PSoC5/TFTSHIELD_1_SPIM_1.c ****     TFTSHIELD_1_SPIM_1_Enable();
 255              		.loc 1 171 0
 256 0024 FFF7FEFF 		bl	TFTSHIELD_1_SPIM_1_Enable
 172:.\Generated_Source\PSoC5/TFTSHIELD_1_SPIM_1.c **** }
 257              		.loc 1 172 0
 258 0028 80BD     		pop	{r7, pc}
 259              		.cfi_endproc
 260              	.LFE2:
 261              		.size	TFTSHIELD_1_SPIM_1_Start, .-TFTSHIELD_1_SPIM_1_Start
 262 002a 00BF     		.section	.text.TFTSHIELD_1_SPIM_1_Stop,"ax",%progbits
 263              		.align	2
 264              		.global	TFTSHIELD_1_SPIM_1_Stop
 265              		.thumb
 266              		.thumb_func
 267              		.type	TFTSHIELD_1_SPIM_1_Stop, %function
 268              	TFTSHIELD_1_SPIM_1_Stop:
 269              	.LFB3:
 173:.\Generated_Source\PSoC5/TFTSHIELD_1_SPIM_1.c **** 
 174:.\Generated_Source\PSoC5/TFTSHIELD_1_SPIM_1.c **** 
 175:.\Generated_Source\PSoC5/TFTSHIELD_1_SPIM_1.c **** /*******************************************************************************
 176:.\Generated_Source\PSoC5/TFTSHIELD_1_SPIM_1.c **** * Function Name: TFTSHIELD_1_SPIM_1_Stop
 177:.\Generated_Source\PSoC5/TFTSHIELD_1_SPIM_1.c **** ********************************************************************************
 178:.\Generated_Source\PSoC5/TFTSHIELD_1_SPIM_1.c **** *
 179:.\Generated_Source\PSoC5/TFTSHIELD_1_SPIM_1.c **** * Summary:
 180:.\Generated_Source\PSoC5/TFTSHIELD_1_SPIM_1.c **** *  Disable the SPI Master component.
 181:.\Generated_Source\PSoC5/TFTSHIELD_1_SPIM_1.c **** *
 182:.\Generated_Source\PSoC5/TFTSHIELD_1_SPIM_1.c **** * Parameters:
 183:.\Generated_Source\PSoC5/TFTSHIELD_1_SPIM_1.c **** *  None.
 184:.\Generated_Source\PSoC5/TFTSHIELD_1_SPIM_1.c **** *
 185:.\Generated_Source\PSoC5/TFTSHIELD_1_SPIM_1.c **** * Return:
ARM GAS  C:\Users\barror2\AppData\Local\Temp\ccyzxiTb.s 			page 9


 186:.\Generated_Source\PSoC5/TFTSHIELD_1_SPIM_1.c **** *  None.
 187:.\Generated_Source\PSoC5/TFTSHIELD_1_SPIM_1.c **** *
 188:.\Generated_Source\PSoC5/TFTSHIELD_1_SPIM_1.c **** * Theory:
 189:.\Generated_Source\PSoC5/TFTSHIELD_1_SPIM_1.c **** *  Disable the clock input to enable operation.
 190:.\Generated_Source\PSoC5/TFTSHIELD_1_SPIM_1.c **** *
 191:.\Generated_Source\PSoC5/TFTSHIELD_1_SPIM_1.c **** *******************************************************************************/
 192:.\Generated_Source\PSoC5/TFTSHIELD_1_SPIM_1.c **** void TFTSHIELD_1_SPIM_1_Stop(void) 
 193:.\Generated_Source\PSoC5/TFTSHIELD_1_SPIM_1.c **** {
 270              		.loc 1 193 0
 271              		.cfi_startproc
 272              		@ args = 0, pretend = 0, frame = 8
 273              		@ frame_needed = 1, uses_anonymous_args = 0
 274 0000 80B5     		push	{r7, lr}
 275              	.LCFI7:
 276              		.cfi_def_cfa_offset 8
 277              		.cfi_offset 7, -8
 278              		.cfi_offset 14, -4
 279 0002 82B0     		sub	sp, sp, #8
 280              	.LCFI8:
 281              		.cfi_def_cfa_offset 16
 282 0004 00AF     		add	r7, sp, #0
 283              	.LCFI9:
 284              		.cfi_def_cfa_register 7
 194:.\Generated_Source\PSoC5/TFTSHIELD_1_SPIM_1.c ****     uint8 enableInterrupts;
 195:.\Generated_Source\PSoC5/TFTSHIELD_1_SPIM_1.c **** 
 196:.\Generated_Source\PSoC5/TFTSHIELD_1_SPIM_1.c ****     enableInterrupts = CyEnterCriticalSection();
 285              		.loc 1 196 0
 286 0006 FFF7FEFF 		bl	CyEnterCriticalSection
 287 000a 0346     		mov	r3, r0
 288 000c FB71     		strb	r3, [r7, #7]
 197:.\Generated_Source\PSoC5/TFTSHIELD_1_SPIM_1.c ****     TFTSHIELD_1_SPIM_1_TX_STATUS_ACTL_REG &= ((uint8) ~TFTSHIELD_1_SPIM_1_INT_ENABLE);
 289              		.loc 1 197 0
 290 000e 46F29E43 		movw	r3, #25758
 291 0012 C4F20003 		movt	r3, 16384
 292 0016 46F29E42 		movw	r2, #25758
 293 001a C4F20002 		movt	r2, 16384
 294 001e 1278     		ldrb	r2, [r2, #0]
 295 0020 D2B2     		uxtb	r2, r2
 296 0022 22F01002 		bic	r2, r2, #16
 297 0026 D2B2     		uxtb	r2, r2
 298 0028 1A70     		strb	r2, [r3, #0]
 198:.\Generated_Source\PSoC5/TFTSHIELD_1_SPIM_1.c ****     TFTSHIELD_1_SPIM_1_RX_STATUS_ACTL_REG &= ((uint8) ~TFTSHIELD_1_SPIM_1_INT_ENABLE);
 299              		.loc 1 198 0
 300 002a 46F29C43 		movw	r3, #25756
 301 002e C4F20003 		movt	r3, 16384
 302 0032 46F29C42 		movw	r2, #25756
 303 0036 C4F20002 		movt	r2, 16384
 304 003a 1278     		ldrb	r2, [r2, #0]
 305 003c D2B2     		uxtb	r2, r2
 306 003e 22F01002 		bic	r2, r2, #16
 307 0042 D2B2     		uxtb	r2, r2
 308 0044 1A70     		strb	r2, [r3, #0]
 199:.\Generated_Source\PSoC5/TFTSHIELD_1_SPIM_1.c ****     CyExitCriticalSection(enableInterrupts);
 309              		.loc 1 199 0
 310 0046 FB79     		ldrb	r3, [r7, #7]	@ zero_extendqisi2
 311 0048 1846     		mov	r0, r3
 312 004a FFF7FEFF 		bl	CyExitCriticalSection
ARM GAS  C:\Users\barror2\AppData\Local\Temp\ccyzxiTb.s 			page 10


 200:.\Generated_Source\PSoC5/TFTSHIELD_1_SPIM_1.c **** 
 201:.\Generated_Source\PSoC5/TFTSHIELD_1_SPIM_1.c ****     #if(0u != TFTSHIELD_1_SPIM_1_INTERNAL_CLOCK)
 202:.\Generated_Source\PSoC5/TFTSHIELD_1_SPIM_1.c ****         TFTSHIELD_1_SPIM_1_IntClock_Disable();
 203:.\Generated_Source\PSoC5/TFTSHIELD_1_SPIM_1.c ****     #endif /* (0u != TFTSHIELD_1_SPIM_1_INTERNAL_CLOCK) */
 204:.\Generated_Source\PSoC5/TFTSHIELD_1_SPIM_1.c **** 
 205:.\Generated_Source\PSoC5/TFTSHIELD_1_SPIM_1.c ****     TFTSHIELD_1_SPIM_1_DisableTxInt();
 313              		.loc 1 205 0
 314 004e FFF7FEFF 		bl	TFTSHIELD_1_SPIM_1_DisableTxInt
 206:.\Generated_Source\PSoC5/TFTSHIELD_1_SPIM_1.c ****     TFTSHIELD_1_SPIM_1_DisableRxInt();
 315              		.loc 1 206 0
 316 0052 FFF7FEFF 		bl	TFTSHIELD_1_SPIM_1_DisableRxInt
 207:.\Generated_Source\PSoC5/TFTSHIELD_1_SPIM_1.c **** }
 317              		.loc 1 207 0
 318 0056 07F10807 		add	r7, r7, #8
 319 005a BD46     		mov	sp, r7
 320 005c 80BD     		pop	{r7, pc}
 321              		.cfi_endproc
 322              	.LFE3:
 323              		.size	TFTSHIELD_1_SPIM_1_Stop, .-TFTSHIELD_1_SPIM_1_Stop
 324 005e 00BF     		.section	.text.TFTSHIELD_1_SPIM_1_EnableTxInt,"ax",%progbits
 325              		.align	2
 326              		.global	TFTSHIELD_1_SPIM_1_EnableTxInt
 327              		.thumb
 328              		.thumb_func
 329              		.type	TFTSHIELD_1_SPIM_1_EnableTxInt, %function
 330              	TFTSHIELD_1_SPIM_1_EnableTxInt:
 331              	.LFB4:
 208:.\Generated_Source\PSoC5/TFTSHIELD_1_SPIM_1.c **** 
 209:.\Generated_Source\PSoC5/TFTSHIELD_1_SPIM_1.c **** 
 210:.\Generated_Source\PSoC5/TFTSHIELD_1_SPIM_1.c **** /*******************************************************************************
 211:.\Generated_Source\PSoC5/TFTSHIELD_1_SPIM_1.c **** * Function Name: TFTSHIELD_1_SPIM_1_EnableTxInt
 212:.\Generated_Source\PSoC5/TFTSHIELD_1_SPIM_1.c **** ********************************************************************************
 213:.\Generated_Source\PSoC5/TFTSHIELD_1_SPIM_1.c **** *
 214:.\Generated_Source\PSoC5/TFTSHIELD_1_SPIM_1.c **** * Summary:
 215:.\Generated_Source\PSoC5/TFTSHIELD_1_SPIM_1.c **** *  Enable internal Tx interrupt generation.
 216:.\Generated_Source\PSoC5/TFTSHIELD_1_SPIM_1.c **** *
 217:.\Generated_Source\PSoC5/TFTSHIELD_1_SPIM_1.c **** * Parameters:
 218:.\Generated_Source\PSoC5/TFTSHIELD_1_SPIM_1.c **** *  None.
 219:.\Generated_Source\PSoC5/TFTSHIELD_1_SPIM_1.c **** *
 220:.\Generated_Source\PSoC5/TFTSHIELD_1_SPIM_1.c **** * Return:
 221:.\Generated_Source\PSoC5/TFTSHIELD_1_SPIM_1.c **** *  None.
 222:.\Generated_Source\PSoC5/TFTSHIELD_1_SPIM_1.c **** *
 223:.\Generated_Source\PSoC5/TFTSHIELD_1_SPIM_1.c **** * Theory:
 224:.\Generated_Source\PSoC5/TFTSHIELD_1_SPIM_1.c **** *  Enable the internal Tx interrupt output -or- the interrupt component itself.
 225:.\Generated_Source\PSoC5/TFTSHIELD_1_SPIM_1.c **** *
 226:.\Generated_Source\PSoC5/TFTSHIELD_1_SPIM_1.c **** *******************************************************************************/
 227:.\Generated_Source\PSoC5/TFTSHIELD_1_SPIM_1.c **** void TFTSHIELD_1_SPIM_1_EnableTxInt(void) 
 228:.\Generated_Source\PSoC5/TFTSHIELD_1_SPIM_1.c **** {
 332              		.loc 1 228 0
 333              		.cfi_startproc
 334              		@ args = 0, pretend = 0, frame = 0
 335              		@ frame_needed = 1, uses_anonymous_args = 0
 336              		@ link register save eliminated.
 337 0000 80B4     		push	{r7}
 338              	.LCFI10:
 339              		.cfi_def_cfa_offset 4
 340              		.cfi_offset 7, -4
ARM GAS  C:\Users\barror2\AppData\Local\Temp\ccyzxiTb.s 			page 11


 341 0002 00AF     		add	r7, sp, #0
 342              	.LCFI11:
 343              		.cfi_def_cfa_register 7
 229:.\Generated_Source\PSoC5/TFTSHIELD_1_SPIM_1.c ****     #if(0u != TFTSHIELD_1_SPIM_1_INTERNAL_TX_INT_ENABLED)
 230:.\Generated_Source\PSoC5/TFTSHIELD_1_SPIM_1.c ****         CyIntEnable(TFTSHIELD_1_SPIM_1_TX_ISR_NUMBER);
 344              		.loc 1 230 0
 345 0004 4FF46143 		mov	r3, #57600
 346 0008 CEF20003 		movt	r3, 57344
 347 000c 4FF00202 		mov	r2, #2
 348 0010 1A60     		str	r2, [r3, #0]
 231:.\Generated_Source\PSoC5/TFTSHIELD_1_SPIM_1.c ****     #endif /* (0u != TFTSHIELD_1_SPIM_1_INTERNAL_TX_INT_ENABLED) */
 232:.\Generated_Source\PSoC5/TFTSHIELD_1_SPIM_1.c **** }
 349              		.loc 1 232 0
 350 0012 BD46     		mov	sp, r7
 351 0014 80BC     		pop	{r7}
 352 0016 7047     		bx	lr
 353              		.cfi_endproc
 354              	.LFE4:
 355              		.size	TFTSHIELD_1_SPIM_1_EnableTxInt, .-TFTSHIELD_1_SPIM_1_EnableTxInt
 356              		.section	.text.TFTSHIELD_1_SPIM_1_EnableRxInt,"ax",%progbits
 357              		.align	2
 358              		.global	TFTSHIELD_1_SPIM_1_EnableRxInt
 359              		.thumb
 360              		.thumb_func
 361              		.type	TFTSHIELD_1_SPIM_1_EnableRxInt, %function
 362              	TFTSHIELD_1_SPIM_1_EnableRxInt:
 363              	.LFB5:
 233:.\Generated_Source\PSoC5/TFTSHIELD_1_SPIM_1.c **** 
 234:.\Generated_Source\PSoC5/TFTSHIELD_1_SPIM_1.c **** 
 235:.\Generated_Source\PSoC5/TFTSHIELD_1_SPIM_1.c **** /*******************************************************************************
 236:.\Generated_Source\PSoC5/TFTSHIELD_1_SPIM_1.c **** * Function Name: TFTSHIELD_1_SPIM_1_EnableRxInt
 237:.\Generated_Source\PSoC5/TFTSHIELD_1_SPIM_1.c **** ********************************************************************************
 238:.\Generated_Source\PSoC5/TFTSHIELD_1_SPIM_1.c **** *
 239:.\Generated_Source\PSoC5/TFTSHIELD_1_SPIM_1.c **** * Summary:
 240:.\Generated_Source\PSoC5/TFTSHIELD_1_SPIM_1.c **** *  Enable internal Rx interrupt generation.
 241:.\Generated_Source\PSoC5/TFTSHIELD_1_SPIM_1.c **** *
 242:.\Generated_Source\PSoC5/TFTSHIELD_1_SPIM_1.c **** * Parameters:
 243:.\Generated_Source\PSoC5/TFTSHIELD_1_SPIM_1.c **** *  None.
 244:.\Generated_Source\PSoC5/TFTSHIELD_1_SPIM_1.c **** *
 245:.\Generated_Source\PSoC5/TFTSHIELD_1_SPIM_1.c **** * Return:
 246:.\Generated_Source\PSoC5/TFTSHIELD_1_SPIM_1.c **** *  None.
 247:.\Generated_Source\PSoC5/TFTSHIELD_1_SPIM_1.c **** *
 248:.\Generated_Source\PSoC5/TFTSHIELD_1_SPIM_1.c **** * Theory:
 249:.\Generated_Source\PSoC5/TFTSHIELD_1_SPIM_1.c **** *  Enable the internal Rx interrupt output -or- the interrupt component itself.
 250:.\Generated_Source\PSoC5/TFTSHIELD_1_SPIM_1.c **** *
 251:.\Generated_Source\PSoC5/TFTSHIELD_1_SPIM_1.c **** *******************************************************************************/
 252:.\Generated_Source\PSoC5/TFTSHIELD_1_SPIM_1.c **** void TFTSHIELD_1_SPIM_1_EnableRxInt(void) 
 253:.\Generated_Source\PSoC5/TFTSHIELD_1_SPIM_1.c **** {
 364              		.loc 1 253 0
 365              		.cfi_startproc
 366              		@ args = 0, pretend = 0, frame = 0
 367              		@ frame_needed = 1, uses_anonymous_args = 0
 368              		@ link register save eliminated.
 369 0000 80B4     		push	{r7}
 370              	.LCFI12:
 371              		.cfi_def_cfa_offset 4
 372              		.cfi_offset 7, -4
ARM GAS  C:\Users\barror2\AppData\Local\Temp\ccyzxiTb.s 			page 12


 373 0002 00AF     		add	r7, sp, #0
 374              	.LCFI13:
 375              		.cfi_def_cfa_register 7
 254:.\Generated_Source\PSoC5/TFTSHIELD_1_SPIM_1.c ****     #if(0u != TFTSHIELD_1_SPIM_1_INTERNAL_RX_INT_ENABLED)
 255:.\Generated_Source\PSoC5/TFTSHIELD_1_SPIM_1.c ****         CyIntEnable(TFTSHIELD_1_SPIM_1_RX_ISR_NUMBER);
 376              		.loc 1 255 0
 377 0004 4FF46143 		mov	r3, #57600
 378 0008 CEF20003 		movt	r3, 57344
 379 000c 4FF00102 		mov	r2, #1
 380 0010 1A60     		str	r2, [r3, #0]
 256:.\Generated_Source\PSoC5/TFTSHIELD_1_SPIM_1.c ****     #endif /* (0u != TFTSHIELD_1_SPIM_1_INTERNAL_RX_INT_ENABLED) */
 257:.\Generated_Source\PSoC5/TFTSHIELD_1_SPIM_1.c **** }
 381              		.loc 1 257 0
 382 0012 BD46     		mov	sp, r7
 383 0014 80BC     		pop	{r7}
 384 0016 7047     		bx	lr
 385              		.cfi_endproc
 386              	.LFE5:
 387              		.size	TFTSHIELD_1_SPIM_1_EnableRxInt, .-TFTSHIELD_1_SPIM_1_EnableRxInt
 388              		.section	.text.TFTSHIELD_1_SPIM_1_DisableTxInt,"ax",%progbits
 389              		.align	2
 390              		.global	TFTSHIELD_1_SPIM_1_DisableTxInt
 391              		.thumb
 392              		.thumb_func
 393              		.type	TFTSHIELD_1_SPIM_1_DisableTxInt, %function
 394              	TFTSHIELD_1_SPIM_1_DisableTxInt:
 395              	.LFB6:
 258:.\Generated_Source\PSoC5/TFTSHIELD_1_SPIM_1.c **** 
 259:.\Generated_Source\PSoC5/TFTSHIELD_1_SPIM_1.c **** 
 260:.\Generated_Source\PSoC5/TFTSHIELD_1_SPIM_1.c **** /*******************************************************************************
 261:.\Generated_Source\PSoC5/TFTSHIELD_1_SPIM_1.c **** * Function Name: TFTSHIELD_1_SPIM_1_DisableTxInt
 262:.\Generated_Source\PSoC5/TFTSHIELD_1_SPIM_1.c **** ********************************************************************************
 263:.\Generated_Source\PSoC5/TFTSHIELD_1_SPIM_1.c **** *
 264:.\Generated_Source\PSoC5/TFTSHIELD_1_SPIM_1.c **** * Summary:
 265:.\Generated_Source\PSoC5/TFTSHIELD_1_SPIM_1.c **** *  Disable internal Tx interrupt generation.
 266:.\Generated_Source\PSoC5/TFTSHIELD_1_SPIM_1.c **** *
 267:.\Generated_Source\PSoC5/TFTSHIELD_1_SPIM_1.c **** * Parameters:
 268:.\Generated_Source\PSoC5/TFTSHIELD_1_SPIM_1.c **** *  None.
 269:.\Generated_Source\PSoC5/TFTSHIELD_1_SPIM_1.c **** *
 270:.\Generated_Source\PSoC5/TFTSHIELD_1_SPIM_1.c **** * Return:
 271:.\Generated_Source\PSoC5/TFTSHIELD_1_SPIM_1.c **** *  None.
 272:.\Generated_Source\PSoC5/TFTSHIELD_1_SPIM_1.c **** *
 273:.\Generated_Source\PSoC5/TFTSHIELD_1_SPIM_1.c **** * Theory:
 274:.\Generated_Source\PSoC5/TFTSHIELD_1_SPIM_1.c **** *  Disable the internal Tx interrupt output -or- the interrupt component itself.
 275:.\Generated_Source\PSoC5/TFTSHIELD_1_SPIM_1.c **** *
 276:.\Generated_Source\PSoC5/TFTSHIELD_1_SPIM_1.c **** *******************************************************************************/
 277:.\Generated_Source\PSoC5/TFTSHIELD_1_SPIM_1.c **** void TFTSHIELD_1_SPIM_1_DisableTxInt(void) 
 278:.\Generated_Source\PSoC5/TFTSHIELD_1_SPIM_1.c **** {
 396              		.loc 1 278 0
 397              		.cfi_startproc
 398              		@ args = 0, pretend = 0, frame = 0
 399              		@ frame_needed = 1, uses_anonymous_args = 0
 400              		@ link register save eliminated.
 401 0000 80B4     		push	{r7}
 402              	.LCFI14:
 403              		.cfi_def_cfa_offset 4
 404              		.cfi_offset 7, -4
ARM GAS  C:\Users\barror2\AppData\Local\Temp\ccyzxiTb.s 			page 13


 405 0002 00AF     		add	r7, sp, #0
 406              	.LCFI15:
 407              		.cfi_def_cfa_register 7
 279:.\Generated_Source\PSoC5/TFTSHIELD_1_SPIM_1.c ****     #if(0u != TFTSHIELD_1_SPIM_1_INTERNAL_TX_INT_ENABLED)
 280:.\Generated_Source\PSoC5/TFTSHIELD_1_SPIM_1.c ****         CyIntDisable(TFTSHIELD_1_SPIM_1_TX_ISR_NUMBER);
 408              		.loc 1 280 0
 409 0004 4EF28013 		movw	r3, #57728
 410 0008 CEF20003 		movt	r3, 57344
 411 000c 4FF00202 		mov	r2, #2
 412 0010 1A60     		str	r2, [r3, #0]
 281:.\Generated_Source\PSoC5/TFTSHIELD_1_SPIM_1.c ****     #endif /* (0u != TFTSHIELD_1_SPIM_1_INTERNAL_TX_INT_ENABLED) */
 282:.\Generated_Source\PSoC5/TFTSHIELD_1_SPIM_1.c **** }
 413              		.loc 1 282 0
 414 0012 BD46     		mov	sp, r7
 415 0014 80BC     		pop	{r7}
 416 0016 7047     		bx	lr
 417              		.cfi_endproc
 418              	.LFE6:
 419              		.size	TFTSHIELD_1_SPIM_1_DisableTxInt, .-TFTSHIELD_1_SPIM_1_DisableTxInt
 420              		.section	.text.TFTSHIELD_1_SPIM_1_DisableRxInt,"ax",%progbits
 421              		.align	2
 422              		.global	TFTSHIELD_1_SPIM_1_DisableRxInt
 423              		.thumb
 424              		.thumb_func
 425              		.type	TFTSHIELD_1_SPIM_1_DisableRxInt, %function
 426              	TFTSHIELD_1_SPIM_1_DisableRxInt:
 427              	.LFB7:
 283:.\Generated_Source\PSoC5/TFTSHIELD_1_SPIM_1.c **** 
 284:.\Generated_Source\PSoC5/TFTSHIELD_1_SPIM_1.c **** 
 285:.\Generated_Source\PSoC5/TFTSHIELD_1_SPIM_1.c **** /*******************************************************************************
 286:.\Generated_Source\PSoC5/TFTSHIELD_1_SPIM_1.c **** * Function Name: TFTSHIELD_1_SPIM_1_DisableRxInt
 287:.\Generated_Source\PSoC5/TFTSHIELD_1_SPIM_1.c **** ********************************************************************************
 288:.\Generated_Source\PSoC5/TFTSHIELD_1_SPIM_1.c **** *
 289:.\Generated_Source\PSoC5/TFTSHIELD_1_SPIM_1.c **** * Summary:
 290:.\Generated_Source\PSoC5/TFTSHIELD_1_SPIM_1.c **** *  Disable internal Rx interrupt generation.
 291:.\Generated_Source\PSoC5/TFTSHIELD_1_SPIM_1.c **** *
 292:.\Generated_Source\PSoC5/TFTSHIELD_1_SPIM_1.c **** * Parameters:
 293:.\Generated_Source\PSoC5/TFTSHIELD_1_SPIM_1.c **** *  None.
 294:.\Generated_Source\PSoC5/TFTSHIELD_1_SPIM_1.c **** *
 295:.\Generated_Source\PSoC5/TFTSHIELD_1_SPIM_1.c **** * Return:
 296:.\Generated_Source\PSoC5/TFTSHIELD_1_SPIM_1.c **** *  None.
 297:.\Generated_Source\PSoC5/TFTSHIELD_1_SPIM_1.c **** *
 298:.\Generated_Source\PSoC5/TFTSHIELD_1_SPIM_1.c **** * Theory:
 299:.\Generated_Source\PSoC5/TFTSHIELD_1_SPIM_1.c **** *  Disable the internal Rx interrupt output -or- the interrupt component itself.
 300:.\Generated_Source\PSoC5/TFTSHIELD_1_SPIM_1.c **** *
 301:.\Generated_Source\PSoC5/TFTSHIELD_1_SPIM_1.c **** *******************************************************************************/
 302:.\Generated_Source\PSoC5/TFTSHIELD_1_SPIM_1.c **** void TFTSHIELD_1_SPIM_1_DisableRxInt(void) 
 303:.\Generated_Source\PSoC5/TFTSHIELD_1_SPIM_1.c **** {
 428              		.loc 1 303 0
 429              		.cfi_startproc
 430              		@ args = 0, pretend = 0, frame = 0
 431              		@ frame_needed = 1, uses_anonymous_args = 0
 432              		@ link register save eliminated.
 433 0000 80B4     		push	{r7}
 434              	.LCFI16:
 435              		.cfi_def_cfa_offset 4
 436              		.cfi_offset 7, -4
ARM GAS  C:\Users\barror2\AppData\Local\Temp\ccyzxiTb.s 			page 14


 437 0002 00AF     		add	r7, sp, #0
 438              	.LCFI17:
 439              		.cfi_def_cfa_register 7
 304:.\Generated_Source\PSoC5/TFTSHIELD_1_SPIM_1.c ****     #if(0u != TFTSHIELD_1_SPIM_1_INTERNAL_RX_INT_ENABLED)
 305:.\Generated_Source\PSoC5/TFTSHIELD_1_SPIM_1.c ****         CyIntDisable(TFTSHIELD_1_SPIM_1_RX_ISR_NUMBER);
 440              		.loc 1 305 0
 441 0004 4EF28013 		movw	r3, #57728
 442 0008 CEF20003 		movt	r3, 57344
 443 000c 4FF00102 		mov	r2, #1
 444 0010 1A60     		str	r2, [r3, #0]
 306:.\Generated_Source\PSoC5/TFTSHIELD_1_SPIM_1.c ****     #endif /* (0u != TFTSHIELD_1_SPIM_1_INTERNAL_RX_INT_ENABLED) */
 307:.\Generated_Source\PSoC5/TFTSHIELD_1_SPIM_1.c **** }
 445              		.loc 1 307 0
 446 0012 BD46     		mov	sp, r7
 447 0014 80BC     		pop	{r7}
 448 0016 7047     		bx	lr
 449              		.cfi_endproc
 450              	.LFE7:
 451              		.size	TFTSHIELD_1_SPIM_1_DisableRxInt, .-TFTSHIELD_1_SPIM_1_DisableRxInt
 452              		.section	.text.TFTSHIELD_1_SPIM_1_SetTxInterruptMode,"ax",%progbits
 453              		.align	2
 454              		.global	TFTSHIELD_1_SPIM_1_SetTxInterruptMode
 455              		.thumb
 456              		.thumb_func
 457              		.type	TFTSHIELD_1_SPIM_1_SetTxInterruptMode, %function
 458              	TFTSHIELD_1_SPIM_1_SetTxInterruptMode:
 459              	.LFB8:
 308:.\Generated_Source\PSoC5/TFTSHIELD_1_SPIM_1.c **** 
 309:.\Generated_Source\PSoC5/TFTSHIELD_1_SPIM_1.c **** 
 310:.\Generated_Source\PSoC5/TFTSHIELD_1_SPIM_1.c **** /*******************************************************************************
 311:.\Generated_Source\PSoC5/TFTSHIELD_1_SPIM_1.c **** * Function Name: TFTSHIELD_1_SPIM_1_SetTxInterruptMode
 312:.\Generated_Source\PSoC5/TFTSHIELD_1_SPIM_1.c **** ********************************************************************************
 313:.\Generated_Source\PSoC5/TFTSHIELD_1_SPIM_1.c **** *
 314:.\Generated_Source\PSoC5/TFTSHIELD_1_SPIM_1.c **** * Summary:
 315:.\Generated_Source\PSoC5/TFTSHIELD_1_SPIM_1.c **** *  Configure which status bits trigger an interrupt event.
 316:.\Generated_Source\PSoC5/TFTSHIELD_1_SPIM_1.c **** *
 317:.\Generated_Source\PSoC5/TFTSHIELD_1_SPIM_1.c **** * Parameters:
 318:.\Generated_Source\PSoC5/TFTSHIELD_1_SPIM_1.c **** *  intSrc: An or'd combination of the desired status bit masks (defined in the
 319:.\Generated_Source\PSoC5/TFTSHIELD_1_SPIM_1.c **** *  header file).
 320:.\Generated_Source\PSoC5/TFTSHIELD_1_SPIM_1.c **** *
 321:.\Generated_Source\PSoC5/TFTSHIELD_1_SPIM_1.c **** * Return:
 322:.\Generated_Source\PSoC5/TFTSHIELD_1_SPIM_1.c **** *  None.
 323:.\Generated_Source\PSoC5/TFTSHIELD_1_SPIM_1.c **** *
 324:.\Generated_Source\PSoC5/TFTSHIELD_1_SPIM_1.c **** * Theory:
 325:.\Generated_Source\PSoC5/TFTSHIELD_1_SPIM_1.c **** *  Enables the output of specific status bits to the interrupt controller.
 326:.\Generated_Source\PSoC5/TFTSHIELD_1_SPIM_1.c **** *
 327:.\Generated_Source\PSoC5/TFTSHIELD_1_SPIM_1.c **** *******************************************************************************/
 328:.\Generated_Source\PSoC5/TFTSHIELD_1_SPIM_1.c **** void TFTSHIELD_1_SPIM_1_SetTxInterruptMode(uint8 intSrc) 
 329:.\Generated_Source\PSoC5/TFTSHIELD_1_SPIM_1.c **** {
 460              		.loc 1 329 0
 461              		.cfi_startproc
 462              		@ args = 0, pretend = 0, frame = 8
 463              		@ frame_needed = 1, uses_anonymous_args = 0
 464              		@ link register save eliminated.
 465 0000 80B4     		push	{r7}
 466              	.LCFI18:
 467              		.cfi_def_cfa_offset 4
ARM GAS  C:\Users\barror2\AppData\Local\Temp\ccyzxiTb.s 			page 15


 468              		.cfi_offset 7, -4
 469 0002 83B0     		sub	sp, sp, #12
 470              	.LCFI19:
 471              		.cfi_def_cfa_offset 16
 472 0004 00AF     		add	r7, sp, #0
 473              	.LCFI20:
 474              		.cfi_def_cfa_register 7
 475 0006 0346     		mov	r3, r0
 476 0008 FB71     		strb	r3, [r7, #7]
 330:.\Generated_Source\PSoC5/TFTSHIELD_1_SPIM_1.c ****     TFTSHIELD_1_SPIM_1_TX_STATUS_MASK_REG = intSrc;
 477              		.loc 1 330 0
 478 000a 46F28E43 		movw	r3, #25742
 479 000e C4F20003 		movt	r3, 16384
 480 0012 FA79     		ldrb	r2, [r7, #7]
 481 0014 1A70     		strb	r2, [r3, #0]
 331:.\Generated_Source\PSoC5/TFTSHIELD_1_SPIM_1.c **** }
 482              		.loc 1 331 0
 483 0016 07F10C07 		add	r7, r7, #12
 484 001a BD46     		mov	sp, r7
 485 001c 80BC     		pop	{r7}
 486 001e 7047     		bx	lr
 487              		.cfi_endproc
 488              	.LFE8:
 489              		.size	TFTSHIELD_1_SPIM_1_SetTxInterruptMode, .-TFTSHIELD_1_SPIM_1_SetTxInterruptMode
 490              		.section	.text.TFTSHIELD_1_SPIM_1_SetRxInterruptMode,"ax",%progbits
 491              		.align	2
 492              		.global	TFTSHIELD_1_SPIM_1_SetRxInterruptMode
 493              		.thumb
 494              		.thumb_func
 495              		.type	TFTSHIELD_1_SPIM_1_SetRxInterruptMode, %function
 496              	TFTSHIELD_1_SPIM_1_SetRxInterruptMode:
 497              	.LFB9:
 332:.\Generated_Source\PSoC5/TFTSHIELD_1_SPIM_1.c **** 
 333:.\Generated_Source\PSoC5/TFTSHIELD_1_SPIM_1.c **** 
 334:.\Generated_Source\PSoC5/TFTSHIELD_1_SPIM_1.c **** /*******************************************************************************
 335:.\Generated_Source\PSoC5/TFTSHIELD_1_SPIM_1.c **** * Function Name: TFTSHIELD_1_SPIM_1_SetRxInterruptMode
 336:.\Generated_Source\PSoC5/TFTSHIELD_1_SPIM_1.c **** ********************************************************************************
 337:.\Generated_Source\PSoC5/TFTSHIELD_1_SPIM_1.c **** *
 338:.\Generated_Source\PSoC5/TFTSHIELD_1_SPIM_1.c **** * Summary:
 339:.\Generated_Source\PSoC5/TFTSHIELD_1_SPIM_1.c **** *  Configure which status bits trigger an interrupt event.
 340:.\Generated_Source\PSoC5/TFTSHIELD_1_SPIM_1.c **** *
 341:.\Generated_Source\PSoC5/TFTSHIELD_1_SPIM_1.c **** * Parameters:
 342:.\Generated_Source\PSoC5/TFTSHIELD_1_SPIM_1.c **** *  intSrc: An or'd combination of the desired status bit masks (defined in the
 343:.\Generated_Source\PSoC5/TFTSHIELD_1_SPIM_1.c **** *  header file).
 344:.\Generated_Source\PSoC5/TFTSHIELD_1_SPIM_1.c **** *
 345:.\Generated_Source\PSoC5/TFTSHIELD_1_SPIM_1.c **** * Return:
 346:.\Generated_Source\PSoC5/TFTSHIELD_1_SPIM_1.c **** *  None.
 347:.\Generated_Source\PSoC5/TFTSHIELD_1_SPIM_1.c **** *
 348:.\Generated_Source\PSoC5/TFTSHIELD_1_SPIM_1.c **** * Theory:
 349:.\Generated_Source\PSoC5/TFTSHIELD_1_SPIM_1.c **** *  Enables the output of specific status bits to the interrupt controller.
 350:.\Generated_Source\PSoC5/TFTSHIELD_1_SPIM_1.c **** *
 351:.\Generated_Source\PSoC5/TFTSHIELD_1_SPIM_1.c **** *******************************************************************************/
 352:.\Generated_Source\PSoC5/TFTSHIELD_1_SPIM_1.c **** void TFTSHIELD_1_SPIM_1_SetRxInterruptMode(uint8 intSrc) 
 353:.\Generated_Source\PSoC5/TFTSHIELD_1_SPIM_1.c **** {
 498              		.loc 1 353 0
 499              		.cfi_startproc
 500              		@ args = 0, pretend = 0, frame = 8
ARM GAS  C:\Users\barror2\AppData\Local\Temp\ccyzxiTb.s 			page 16


 501              		@ frame_needed = 1, uses_anonymous_args = 0
 502              		@ link register save eliminated.
 503 0000 80B4     		push	{r7}
 504              	.LCFI21:
 505              		.cfi_def_cfa_offset 4
 506              		.cfi_offset 7, -4
 507 0002 83B0     		sub	sp, sp, #12
 508              	.LCFI22:
 509              		.cfi_def_cfa_offset 16
 510 0004 00AF     		add	r7, sp, #0
 511              	.LCFI23:
 512              		.cfi_def_cfa_register 7
 513 0006 0346     		mov	r3, r0
 514 0008 FB71     		strb	r3, [r7, #7]
 354:.\Generated_Source\PSoC5/TFTSHIELD_1_SPIM_1.c ****     TFTSHIELD_1_SPIM_1_RX_STATUS_MASK_REG  = intSrc;
 515              		.loc 1 354 0
 516 000a 46F28C43 		movw	r3, #25740
 517 000e C4F20003 		movt	r3, 16384
 518 0012 FA79     		ldrb	r2, [r7, #7]
 519 0014 1A70     		strb	r2, [r3, #0]
 355:.\Generated_Source\PSoC5/TFTSHIELD_1_SPIM_1.c **** }
 520              		.loc 1 355 0
 521 0016 07F10C07 		add	r7, r7, #12
 522 001a BD46     		mov	sp, r7
 523 001c 80BC     		pop	{r7}
 524 001e 7047     		bx	lr
 525              		.cfi_endproc
 526              	.LFE9:
 527              		.size	TFTSHIELD_1_SPIM_1_SetRxInterruptMode, .-TFTSHIELD_1_SPIM_1_SetRxInterruptMode
 528              		.section	.text.TFTSHIELD_1_SPIM_1_ReadTxStatus,"ax",%progbits
 529              		.align	2
 530              		.global	TFTSHIELD_1_SPIM_1_ReadTxStatus
 531              		.thumb
 532              		.thumb_func
 533              		.type	TFTSHIELD_1_SPIM_1_ReadTxStatus, %function
 534              	TFTSHIELD_1_SPIM_1_ReadTxStatus:
 535              	.LFB10:
 356:.\Generated_Source\PSoC5/TFTSHIELD_1_SPIM_1.c **** 
 357:.\Generated_Source\PSoC5/TFTSHIELD_1_SPIM_1.c **** 
 358:.\Generated_Source\PSoC5/TFTSHIELD_1_SPIM_1.c **** /*******************************************************************************
 359:.\Generated_Source\PSoC5/TFTSHIELD_1_SPIM_1.c **** * Function Name: TFTSHIELD_1_SPIM_1_ReadTxStatus
 360:.\Generated_Source\PSoC5/TFTSHIELD_1_SPIM_1.c **** ********************************************************************************
 361:.\Generated_Source\PSoC5/TFTSHIELD_1_SPIM_1.c **** *
 362:.\Generated_Source\PSoC5/TFTSHIELD_1_SPIM_1.c **** * Summary:
 363:.\Generated_Source\PSoC5/TFTSHIELD_1_SPIM_1.c **** *  Read the Tx status register for the component.
 364:.\Generated_Source\PSoC5/TFTSHIELD_1_SPIM_1.c **** *
 365:.\Generated_Source\PSoC5/TFTSHIELD_1_SPIM_1.c **** * Parameters:
 366:.\Generated_Source\PSoC5/TFTSHIELD_1_SPIM_1.c **** *  None.
 367:.\Generated_Source\PSoC5/TFTSHIELD_1_SPIM_1.c **** *
 368:.\Generated_Source\PSoC5/TFTSHIELD_1_SPIM_1.c **** * Return:
 369:.\Generated_Source\PSoC5/TFTSHIELD_1_SPIM_1.c **** *  Contents of the Tx status register.
 370:.\Generated_Source\PSoC5/TFTSHIELD_1_SPIM_1.c **** *
 371:.\Generated_Source\PSoC5/TFTSHIELD_1_SPIM_1.c **** * Global variables:
 372:.\Generated_Source\PSoC5/TFTSHIELD_1_SPIM_1.c **** *  TFTSHIELD_1_SPIM_1_swStatusTx - used to store in software status register,
 373:.\Generated_Source\PSoC5/TFTSHIELD_1_SPIM_1.c **** *  modified every function call - resets to zero.
 374:.\Generated_Source\PSoC5/TFTSHIELD_1_SPIM_1.c **** *
 375:.\Generated_Source\PSoC5/TFTSHIELD_1_SPIM_1.c **** * Theory:
ARM GAS  C:\Users\barror2\AppData\Local\Temp\ccyzxiTb.s 			page 17


 376:.\Generated_Source\PSoC5/TFTSHIELD_1_SPIM_1.c **** *  Allows the user and the API to read the Tx status register for error
 377:.\Generated_Source\PSoC5/TFTSHIELD_1_SPIM_1.c **** *  detection and flow control.
 378:.\Generated_Source\PSoC5/TFTSHIELD_1_SPIM_1.c **** *
 379:.\Generated_Source\PSoC5/TFTSHIELD_1_SPIM_1.c **** * Side Effects:
 380:.\Generated_Source\PSoC5/TFTSHIELD_1_SPIM_1.c **** *  Clear Tx status register of the component.
 381:.\Generated_Source\PSoC5/TFTSHIELD_1_SPIM_1.c **** *
 382:.\Generated_Source\PSoC5/TFTSHIELD_1_SPIM_1.c **** * Reentrant:
 383:.\Generated_Source\PSoC5/TFTSHIELD_1_SPIM_1.c **** *  No.
 384:.\Generated_Source\PSoC5/TFTSHIELD_1_SPIM_1.c **** *
 385:.\Generated_Source\PSoC5/TFTSHIELD_1_SPIM_1.c **** *******************************************************************************/
 386:.\Generated_Source\PSoC5/TFTSHIELD_1_SPIM_1.c **** uint8 TFTSHIELD_1_SPIM_1_ReadTxStatus(void) 
 387:.\Generated_Source\PSoC5/TFTSHIELD_1_SPIM_1.c **** {
 536              		.loc 1 387 0
 537              		.cfi_startproc
 538              		@ args = 0, pretend = 0, frame = 8
 539              		@ frame_needed = 1, uses_anonymous_args = 0
 540 0000 80B5     		push	{r7, lr}
 541              	.LCFI24:
 542              		.cfi_def_cfa_offset 8
 543              		.cfi_offset 7, -8
 544              		.cfi_offset 14, -4
 545 0002 82B0     		sub	sp, sp, #8
 546              	.LCFI25:
 547              		.cfi_def_cfa_offset 16
 548 0004 00AF     		add	r7, sp, #0
 549              	.LCFI26:
 550              		.cfi_def_cfa_register 7
 388:.\Generated_Source\PSoC5/TFTSHIELD_1_SPIM_1.c ****     uint8 tmpStatus;
 389:.\Generated_Source\PSoC5/TFTSHIELD_1_SPIM_1.c **** 
 390:.\Generated_Source\PSoC5/TFTSHIELD_1_SPIM_1.c ****     #if(TFTSHIELD_1_SPIM_1_TX_SOFTWARE_BUF_ENABLED)
 391:.\Generated_Source\PSoC5/TFTSHIELD_1_SPIM_1.c ****         /* Disable TX interrupt to protect global veriables */
 392:.\Generated_Source\PSoC5/TFTSHIELD_1_SPIM_1.c ****         TFTSHIELD_1_SPIM_1_DisableTxInt();
 551              		.loc 1 392 0
 552 0006 FFF7FEFF 		bl	TFTSHIELD_1_SPIM_1_DisableTxInt
 393:.\Generated_Source\PSoC5/TFTSHIELD_1_SPIM_1.c **** 
 394:.\Generated_Source\PSoC5/TFTSHIELD_1_SPIM_1.c ****         tmpStatus = TFTSHIELD_1_SPIM_1_GET_STATUS_TX(TFTSHIELD_1_SPIM_1_swStatusTx);
 553              		.loc 1 394 0
 554 000a 46F26E43 		movw	r3, #25710
 555 000e C4F20003 		movt	r3, 16384
 556 0012 1B78     		ldrb	r3, [r3, #0]
 557 0014 DAB2     		uxtb	r2, r3
 558 0016 40F20003 		movw	r3, #:lower16:TFTSHIELD_1_SPIM_1_swStatusTx
 559 001a C0F20003 		movt	r3, #:upper16:TFTSHIELD_1_SPIM_1_swStatusTx
 560 001e 1B78     		ldrb	r3, [r3, #0]
 561 0020 DBB2     		uxtb	r3, r3
 562 0022 03F00903 		and	r3, r3, #9
 563 0026 DBB2     		uxtb	r3, r3
 564 0028 1343     		orrs	r3, r3, r2
 565 002a FB71     		strb	r3, [r7, #7]
 395:.\Generated_Source\PSoC5/TFTSHIELD_1_SPIM_1.c ****         TFTSHIELD_1_SPIM_1_swStatusTx = 0u;
 566              		.loc 1 395 0
 567 002c 40F20003 		movw	r3, #:lower16:TFTSHIELD_1_SPIM_1_swStatusTx
 568 0030 C0F20003 		movt	r3, #:upper16:TFTSHIELD_1_SPIM_1_swStatusTx
 569 0034 4FF00002 		mov	r2, #0
 570 0038 1A70     		strb	r2, [r3, #0]
 396:.\Generated_Source\PSoC5/TFTSHIELD_1_SPIM_1.c **** 
 397:.\Generated_Source\PSoC5/TFTSHIELD_1_SPIM_1.c ****         TFTSHIELD_1_SPIM_1_EnableTxInt();
ARM GAS  C:\Users\barror2\AppData\Local\Temp\ccyzxiTb.s 			page 18


 571              		.loc 1 397 0
 572 003a FFF7FEFF 		bl	TFTSHIELD_1_SPIM_1_EnableTxInt
 398:.\Generated_Source\PSoC5/TFTSHIELD_1_SPIM_1.c **** 
 399:.\Generated_Source\PSoC5/TFTSHIELD_1_SPIM_1.c ****     #else
 400:.\Generated_Source\PSoC5/TFTSHIELD_1_SPIM_1.c **** 
 401:.\Generated_Source\PSoC5/TFTSHIELD_1_SPIM_1.c ****         tmpStatus = TFTSHIELD_1_SPIM_1_TX_STATUS_REG;
 402:.\Generated_Source\PSoC5/TFTSHIELD_1_SPIM_1.c **** 
 403:.\Generated_Source\PSoC5/TFTSHIELD_1_SPIM_1.c ****     #endif /* (TFTSHIELD_1_SPIM_1_TX_SOFTWARE_BUF_ENABLED) */
 404:.\Generated_Source\PSoC5/TFTSHIELD_1_SPIM_1.c **** 
 405:.\Generated_Source\PSoC5/TFTSHIELD_1_SPIM_1.c ****     return(tmpStatus);
 573              		.loc 1 405 0
 574 003e FB79     		ldrb	r3, [r7, #7]	@ zero_extendqisi2
 406:.\Generated_Source\PSoC5/TFTSHIELD_1_SPIM_1.c **** }
 575              		.loc 1 406 0
 576 0040 1846     		mov	r0, r3
 577 0042 07F10807 		add	r7, r7, #8
 578 0046 BD46     		mov	sp, r7
 579 0048 80BD     		pop	{r7, pc}
 580              		.cfi_endproc
 581              	.LFE10:
 582              		.size	TFTSHIELD_1_SPIM_1_ReadTxStatus, .-TFTSHIELD_1_SPIM_1_ReadTxStatus
 583 004a 00BF     		.section	.text.TFTSHIELD_1_SPIM_1_ReadRxStatus,"ax",%progbits
 584              		.align	2
 585              		.global	TFTSHIELD_1_SPIM_1_ReadRxStatus
 586              		.thumb
 587              		.thumb_func
 588              		.type	TFTSHIELD_1_SPIM_1_ReadRxStatus, %function
 589              	TFTSHIELD_1_SPIM_1_ReadRxStatus:
 590              	.LFB11:
 407:.\Generated_Source\PSoC5/TFTSHIELD_1_SPIM_1.c **** 
 408:.\Generated_Source\PSoC5/TFTSHIELD_1_SPIM_1.c **** 
 409:.\Generated_Source\PSoC5/TFTSHIELD_1_SPIM_1.c **** /*******************************************************************************
 410:.\Generated_Source\PSoC5/TFTSHIELD_1_SPIM_1.c **** * Function Name: TFTSHIELD_1_SPIM_1_ReadRxStatus
 411:.\Generated_Source\PSoC5/TFTSHIELD_1_SPIM_1.c **** ********************************************************************************
 412:.\Generated_Source\PSoC5/TFTSHIELD_1_SPIM_1.c **** *
 413:.\Generated_Source\PSoC5/TFTSHIELD_1_SPIM_1.c **** * Summary:
 414:.\Generated_Source\PSoC5/TFTSHIELD_1_SPIM_1.c **** *  Read the Rx status register for the component.
 415:.\Generated_Source\PSoC5/TFTSHIELD_1_SPIM_1.c **** *
 416:.\Generated_Source\PSoC5/TFTSHIELD_1_SPIM_1.c **** * Parameters:
 417:.\Generated_Source\PSoC5/TFTSHIELD_1_SPIM_1.c **** *  None.
 418:.\Generated_Source\PSoC5/TFTSHIELD_1_SPIM_1.c **** *
 419:.\Generated_Source\PSoC5/TFTSHIELD_1_SPIM_1.c **** * Return:
 420:.\Generated_Source\PSoC5/TFTSHIELD_1_SPIM_1.c **** *  Contents of the Rx status register.
 421:.\Generated_Source\PSoC5/TFTSHIELD_1_SPIM_1.c **** *
 422:.\Generated_Source\PSoC5/TFTSHIELD_1_SPIM_1.c **** * Global variables:
 423:.\Generated_Source\PSoC5/TFTSHIELD_1_SPIM_1.c **** *  TFTSHIELD_1_SPIM_1_swStatusRx - used to store in software Rx status register,
 424:.\Generated_Source\PSoC5/TFTSHIELD_1_SPIM_1.c **** *  modified every function call - resets to zero.
 425:.\Generated_Source\PSoC5/TFTSHIELD_1_SPIM_1.c **** *
 426:.\Generated_Source\PSoC5/TFTSHIELD_1_SPIM_1.c **** * Theory:
 427:.\Generated_Source\PSoC5/TFTSHIELD_1_SPIM_1.c **** *  Allows the user and the API to read the Rx status register for error
 428:.\Generated_Source\PSoC5/TFTSHIELD_1_SPIM_1.c **** *  detection and flow control.
 429:.\Generated_Source\PSoC5/TFTSHIELD_1_SPIM_1.c **** *
 430:.\Generated_Source\PSoC5/TFTSHIELD_1_SPIM_1.c **** * Side Effects:
 431:.\Generated_Source\PSoC5/TFTSHIELD_1_SPIM_1.c **** *  Clear Rx status register of the component.
 432:.\Generated_Source\PSoC5/TFTSHIELD_1_SPIM_1.c **** *
 433:.\Generated_Source\PSoC5/TFTSHIELD_1_SPIM_1.c **** * Reentrant:
 434:.\Generated_Source\PSoC5/TFTSHIELD_1_SPIM_1.c **** *  No.
ARM GAS  C:\Users\barror2\AppData\Local\Temp\ccyzxiTb.s 			page 19


 435:.\Generated_Source\PSoC5/TFTSHIELD_1_SPIM_1.c **** *
 436:.\Generated_Source\PSoC5/TFTSHIELD_1_SPIM_1.c **** *******************************************************************************/
 437:.\Generated_Source\PSoC5/TFTSHIELD_1_SPIM_1.c **** uint8 TFTSHIELD_1_SPIM_1_ReadRxStatus(void) 
 438:.\Generated_Source\PSoC5/TFTSHIELD_1_SPIM_1.c **** {
 591              		.loc 1 438 0
 592              		.cfi_startproc
 593              		@ args = 0, pretend = 0, frame = 8
 594              		@ frame_needed = 1, uses_anonymous_args = 0
 595 0000 80B5     		push	{r7, lr}
 596              	.LCFI27:
 597              		.cfi_def_cfa_offset 8
 598              		.cfi_offset 7, -8
 599              		.cfi_offset 14, -4
 600 0002 82B0     		sub	sp, sp, #8
 601              	.LCFI28:
 602              		.cfi_def_cfa_offset 16
 603 0004 00AF     		add	r7, sp, #0
 604              	.LCFI29:
 605              		.cfi_def_cfa_register 7
 439:.\Generated_Source\PSoC5/TFTSHIELD_1_SPIM_1.c ****     uint8 tmpStatus;
 440:.\Generated_Source\PSoC5/TFTSHIELD_1_SPIM_1.c **** 
 441:.\Generated_Source\PSoC5/TFTSHIELD_1_SPIM_1.c ****     #if(TFTSHIELD_1_SPIM_1_RX_SOFTWARE_BUF_ENABLED)
 442:.\Generated_Source\PSoC5/TFTSHIELD_1_SPIM_1.c ****         /* Disable RX interrupt to protect global veriables */
 443:.\Generated_Source\PSoC5/TFTSHIELD_1_SPIM_1.c ****         TFTSHIELD_1_SPIM_1_DisableRxInt();
 606              		.loc 1 443 0
 607 0006 FFF7FEFF 		bl	TFTSHIELD_1_SPIM_1_DisableRxInt
 444:.\Generated_Source\PSoC5/TFTSHIELD_1_SPIM_1.c **** 
 445:.\Generated_Source\PSoC5/TFTSHIELD_1_SPIM_1.c ****         tmpStatus = TFTSHIELD_1_SPIM_1_GET_STATUS_RX(TFTSHIELD_1_SPIM_1_swStatusRx);
 608              		.loc 1 445 0
 609 000a 46F26C43 		movw	r3, #25708
 610 000e C4F20003 		movt	r3, 16384
 611 0012 1B78     		ldrb	r3, [r3, #0]
 612 0014 DAB2     		uxtb	r2, r3
 613 0016 40F20003 		movw	r3, #:lower16:TFTSHIELD_1_SPIM_1_swStatusRx
 614 001a C0F20003 		movt	r3, #:upper16:TFTSHIELD_1_SPIM_1_swStatusRx
 615 001e 1B78     		ldrb	r3, [r3, #0]
 616 0020 DBB2     		uxtb	r3, r3
 617 0022 03F04003 		and	r3, r3, #64
 618 0026 DBB2     		uxtb	r3, r3
 619 0028 1343     		orrs	r3, r3, r2
 620 002a FB71     		strb	r3, [r7, #7]
 446:.\Generated_Source\PSoC5/TFTSHIELD_1_SPIM_1.c ****         TFTSHIELD_1_SPIM_1_swStatusRx = 0u;
 621              		.loc 1 446 0
 622 002c 40F20003 		movw	r3, #:lower16:TFTSHIELD_1_SPIM_1_swStatusRx
 623 0030 C0F20003 		movt	r3, #:upper16:TFTSHIELD_1_SPIM_1_swStatusRx
 624 0034 4FF00002 		mov	r2, #0
 625 0038 1A70     		strb	r2, [r3, #0]
 447:.\Generated_Source\PSoC5/TFTSHIELD_1_SPIM_1.c **** 
 448:.\Generated_Source\PSoC5/TFTSHIELD_1_SPIM_1.c ****         TFTSHIELD_1_SPIM_1_EnableRxInt();
 626              		.loc 1 448 0
 627 003a FFF7FEFF 		bl	TFTSHIELD_1_SPIM_1_EnableRxInt
 449:.\Generated_Source\PSoC5/TFTSHIELD_1_SPIM_1.c **** 
 450:.\Generated_Source\PSoC5/TFTSHIELD_1_SPIM_1.c ****     #else
 451:.\Generated_Source\PSoC5/TFTSHIELD_1_SPIM_1.c **** 
 452:.\Generated_Source\PSoC5/TFTSHIELD_1_SPIM_1.c ****         tmpStatus = TFTSHIELD_1_SPIM_1_RX_STATUS_REG;
 453:.\Generated_Source\PSoC5/TFTSHIELD_1_SPIM_1.c **** 
 454:.\Generated_Source\PSoC5/TFTSHIELD_1_SPIM_1.c ****     #endif /* (TFTSHIELD_1_SPIM_1_RX_SOFTWARE_BUF_ENABLED) */
ARM GAS  C:\Users\barror2\AppData\Local\Temp\ccyzxiTb.s 			page 20


 455:.\Generated_Source\PSoC5/TFTSHIELD_1_SPIM_1.c **** 
 456:.\Generated_Source\PSoC5/TFTSHIELD_1_SPIM_1.c ****     return(tmpStatus);
 628              		.loc 1 456 0
 629 003e FB79     		ldrb	r3, [r7, #7]	@ zero_extendqisi2
 457:.\Generated_Source\PSoC5/TFTSHIELD_1_SPIM_1.c **** }
 630              		.loc 1 457 0
 631 0040 1846     		mov	r0, r3
 632 0042 07F10807 		add	r7, r7, #8
 633 0046 BD46     		mov	sp, r7
 634 0048 80BD     		pop	{r7, pc}
 635              		.cfi_endproc
 636              	.LFE11:
 637              		.size	TFTSHIELD_1_SPIM_1_ReadRxStatus, .-TFTSHIELD_1_SPIM_1_ReadRxStatus
 638 004a 00BF     		.section	.text.TFTSHIELD_1_SPIM_1_WriteTxData,"ax",%progbits
 639              		.align	2
 640              		.global	TFTSHIELD_1_SPIM_1_WriteTxData
 641              		.thumb
 642              		.thumb_func
 643              		.type	TFTSHIELD_1_SPIM_1_WriteTxData, %function
 644              	TFTSHIELD_1_SPIM_1_WriteTxData:
 645              	.LFB12:
 458:.\Generated_Source\PSoC5/TFTSHIELD_1_SPIM_1.c **** 
 459:.\Generated_Source\PSoC5/TFTSHIELD_1_SPIM_1.c **** 
 460:.\Generated_Source\PSoC5/TFTSHIELD_1_SPIM_1.c **** /*******************************************************************************
 461:.\Generated_Source\PSoC5/TFTSHIELD_1_SPIM_1.c **** * Function Name: TFTSHIELD_1_SPIM_1_WriteTxData
 462:.\Generated_Source\PSoC5/TFTSHIELD_1_SPIM_1.c **** ********************************************************************************
 463:.\Generated_Source\PSoC5/TFTSHIELD_1_SPIM_1.c **** *
 464:.\Generated_Source\PSoC5/TFTSHIELD_1_SPIM_1.c **** * Summary:
 465:.\Generated_Source\PSoC5/TFTSHIELD_1_SPIM_1.c **** *  Write a byte of data to be sent across the SPI.
 466:.\Generated_Source\PSoC5/TFTSHIELD_1_SPIM_1.c **** *
 467:.\Generated_Source\PSoC5/TFTSHIELD_1_SPIM_1.c **** * Parameters:
 468:.\Generated_Source\PSoC5/TFTSHIELD_1_SPIM_1.c **** *  txDataByte: The data value to send across the SPI.
 469:.\Generated_Source\PSoC5/TFTSHIELD_1_SPIM_1.c **** *
 470:.\Generated_Source\PSoC5/TFTSHIELD_1_SPIM_1.c **** * Return:
 471:.\Generated_Source\PSoC5/TFTSHIELD_1_SPIM_1.c **** *  None.
 472:.\Generated_Source\PSoC5/TFTSHIELD_1_SPIM_1.c **** *
 473:.\Generated_Source\PSoC5/TFTSHIELD_1_SPIM_1.c **** * Global variables:
 474:.\Generated_Source\PSoC5/TFTSHIELD_1_SPIM_1.c **** *  TFTSHIELD_1_SPIM_1_txBufferWrite - used for the account of the bytes which
 475:.\Generated_Source\PSoC5/TFTSHIELD_1_SPIM_1.c **** *  have been written down in the TX software buffer, modified every function
 476:.\Generated_Source\PSoC5/TFTSHIELD_1_SPIM_1.c **** *  call if TX Software Buffer is used.
 477:.\Generated_Source\PSoC5/TFTSHIELD_1_SPIM_1.c **** *  TFTSHIELD_1_SPIM_1_txBufferRead - used for the account of the bytes which
 478:.\Generated_Source\PSoC5/TFTSHIELD_1_SPIM_1.c **** *  have been read from the TX software buffer.
 479:.\Generated_Source\PSoC5/TFTSHIELD_1_SPIM_1.c **** *  TFTSHIELD_1_SPIM_1_txBuffer[TFTSHIELD_1_SPIM_1_TX_BUFFER_SIZE] - used to store
 480:.\Generated_Source\PSoC5/TFTSHIELD_1_SPIM_1.c **** *  data to sending, modified every function call if TX Software Buffer is used.
 481:.\Generated_Source\PSoC5/TFTSHIELD_1_SPIM_1.c **** *
 482:.\Generated_Source\PSoC5/TFTSHIELD_1_SPIM_1.c **** * Theory:
 483:.\Generated_Source\PSoC5/TFTSHIELD_1_SPIM_1.c **** *  Allows the user to transmit any byte of data in a single transfer.
 484:.\Generated_Source\PSoC5/TFTSHIELD_1_SPIM_1.c **** *
 485:.\Generated_Source\PSoC5/TFTSHIELD_1_SPIM_1.c **** * Side Effects:
 486:.\Generated_Source\PSoC5/TFTSHIELD_1_SPIM_1.c **** *  If this function is called again before the previous byte is finished then
 487:.\Generated_Source\PSoC5/TFTSHIELD_1_SPIM_1.c **** *  the next byte will be appended to the transfer with no time between
 488:.\Generated_Source\PSoC5/TFTSHIELD_1_SPIM_1.c **** *  the byte transfers. Clear Tx status register of the component.
 489:.\Generated_Source\PSoC5/TFTSHIELD_1_SPIM_1.c **** *
 490:.\Generated_Source\PSoC5/TFTSHIELD_1_SPIM_1.c **** * Reentrant:
 491:.\Generated_Source\PSoC5/TFTSHIELD_1_SPIM_1.c **** *  No.
 492:.\Generated_Source\PSoC5/TFTSHIELD_1_SPIM_1.c **** *
 493:.\Generated_Source\PSoC5/TFTSHIELD_1_SPIM_1.c **** *******************************************************************************/
ARM GAS  C:\Users\barror2\AppData\Local\Temp\ccyzxiTb.s 			page 21


 494:.\Generated_Source\PSoC5/TFTSHIELD_1_SPIM_1.c **** void TFTSHIELD_1_SPIM_1_WriteTxData(uint8 txData) 
 495:.\Generated_Source\PSoC5/TFTSHIELD_1_SPIM_1.c **** {
 646              		.loc 1 495 0
 647              		.cfi_startproc
 648              		@ args = 0, pretend = 0, frame = 16
 649              		@ frame_needed = 1, uses_anonymous_args = 0
 650 0000 80B5     		push	{r7, lr}
 651              	.LCFI30:
 652              		.cfi_def_cfa_offset 8
 653              		.cfi_offset 7, -8
 654              		.cfi_offset 14, -4
 655 0002 84B0     		sub	sp, sp, #16
 656              	.LCFI31:
 657              		.cfi_def_cfa_offset 24
 658 0004 00AF     		add	r7, sp, #0
 659              	.LCFI32:
 660              		.cfi_def_cfa_register 7
 661 0006 0346     		mov	r3, r0
 662 0008 FB71     		strb	r3, [r7, #7]
 663              	.L19:
 496:.\Generated_Source\PSoC5/TFTSHIELD_1_SPIM_1.c ****     #if(TFTSHIELD_1_SPIM_1_TX_SOFTWARE_BUF_ENABLED)
 497:.\Generated_Source\PSoC5/TFTSHIELD_1_SPIM_1.c **** 
 498:.\Generated_Source\PSoC5/TFTSHIELD_1_SPIM_1.c ****         uint8 tempStatus;
 499:.\Generated_Source\PSoC5/TFTSHIELD_1_SPIM_1.c ****         uint8 tmpTxBufferRead;
 500:.\Generated_Source\PSoC5/TFTSHIELD_1_SPIM_1.c **** 
 501:.\Generated_Source\PSoC5/TFTSHIELD_1_SPIM_1.c ****         /* Block if TX buffer is FULL: don't overwrite */
 502:.\Generated_Source\PSoC5/TFTSHIELD_1_SPIM_1.c ****         do
 503:.\Generated_Source\PSoC5/TFTSHIELD_1_SPIM_1.c ****         {
 504:.\Generated_Source\PSoC5/TFTSHIELD_1_SPIM_1.c ****             tmpTxBufferRead = TFTSHIELD_1_SPIM_1_txBufferRead;
 664              		.loc 1 504 0
 665 000a 40F20003 		movw	r3, #:lower16:TFTSHIELD_1_SPIM_1_txBufferRead
 666 000e C0F20003 		movt	r3, #:upper16:TFTSHIELD_1_SPIM_1_txBufferRead
 667 0012 1B78     		ldrb	r3, [r3, #0]
 668 0014 FB73     		strb	r3, [r7, #15]
 505:.\Generated_Source\PSoC5/TFTSHIELD_1_SPIM_1.c ****             if(0u == tmpTxBufferRead)
 669              		.loc 1 505 0
 670 0016 FB7B     		ldrb	r3, [r7, #15]	@ zero_extendqisi2
 671 0018 002B     		cmp	r3, #0
 672 001a 03D1     		bne	.L17
 506:.\Generated_Source\PSoC5/TFTSHIELD_1_SPIM_1.c ****             {
 507:.\Generated_Source\PSoC5/TFTSHIELD_1_SPIM_1.c ****                 tmpTxBufferRead = (TFTSHIELD_1_SPIM_1_TX_BUFFER_SIZE - 1u);
 673              		.loc 1 507 0
 674 001c 4FF00703 		mov	r3, #7
 675 0020 FB73     		strb	r3, [r7, #15]
 676 0022 03E0     		b	.L18
 677              	.L17:
 508:.\Generated_Source\PSoC5/TFTSHIELD_1_SPIM_1.c ****             }
 509:.\Generated_Source\PSoC5/TFTSHIELD_1_SPIM_1.c ****             else
 510:.\Generated_Source\PSoC5/TFTSHIELD_1_SPIM_1.c ****             {
 511:.\Generated_Source\PSoC5/TFTSHIELD_1_SPIM_1.c ****                 tmpTxBufferRead--;
 678              		.loc 1 511 0
 679 0024 FB7B     		ldrb	r3, [r7, #15]
 680 0026 03F1FF33 		add	r3, r3, #-1
 681 002a FB73     		strb	r3, [r7, #15]
 682              	.L18:
 512:.\Generated_Source\PSoC5/TFTSHIELD_1_SPIM_1.c ****             }
 513:.\Generated_Source\PSoC5/TFTSHIELD_1_SPIM_1.c **** 
ARM GAS  C:\Users\barror2\AppData\Local\Temp\ccyzxiTb.s 			page 22


 514:.\Generated_Source\PSoC5/TFTSHIELD_1_SPIM_1.c ****         }while(tmpTxBufferRead == TFTSHIELD_1_SPIM_1_txBufferWrite);
 683              		.loc 1 514 0
 684 002c 40F20003 		movw	r3, #:lower16:TFTSHIELD_1_SPIM_1_txBufferWrite
 685 0030 C0F20003 		movt	r3, #:upper16:TFTSHIELD_1_SPIM_1_txBufferWrite
 686 0034 1B78     		ldrb	r3, [r3, #0]
 687 0036 DBB2     		uxtb	r3, r3
 688 0038 FA7B     		ldrb	r2, [r7, #15]	@ zero_extendqisi2
 689 003a 9A42     		cmp	r2, r3
 690 003c E5D0     		beq	.L19
 515:.\Generated_Source\PSoC5/TFTSHIELD_1_SPIM_1.c **** 
 516:.\Generated_Source\PSoC5/TFTSHIELD_1_SPIM_1.c ****         /* Disable TX interrupt to protect global veriables */
 517:.\Generated_Source\PSoC5/TFTSHIELD_1_SPIM_1.c ****         TFTSHIELD_1_SPIM_1_DisableTxInt();
 691              		.loc 1 517 0
 692 003e FFF7FEFF 		bl	TFTSHIELD_1_SPIM_1_DisableTxInt
 518:.\Generated_Source\PSoC5/TFTSHIELD_1_SPIM_1.c **** 
 519:.\Generated_Source\PSoC5/TFTSHIELD_1_SPIM_1.c ****         tempStatus = TFTSHIELD_1_SPIM_1_GET_STATUS_TX(TFTSHIELD_1_SPIM_1_swStatusTx);
 693              		.loc 1 519 0
 694 0042 46F26E43 		movw	r3, #25710
 695 0046 C4F20003 		movt	r3, 16384
 696 004a 1B78     		ldrb	r3, [r3, #0]
 697 004c DAB2     		uxtb	r2, r3
 698 004e 40F20003 		movw	r3, #:lower16:TFTSHIELD_1_SPIM_1_swStatusTx
 699 0052 C0F20003 		movt	r3, #:upper16:TFTSHIELD_1_SPIM_1_swStatusTx
 700 0056 1B78     		ldrb	r3, [r3, #0]
 701 0058 DBB2     		uxtb	r3, r3
 702 005a 03F00903 		and	r3, r3, #9
 703 005e DBB2     		uxtb	r3, r3
 704 0060 1343     		orrs	r3, r3, r2
 705 0062 BB73     		strb	r3, [r7, #14]
 520:.\Generated_Source\PSoC5/TFTSHIELD_1_SPIM_1.c ****         TFTSHIELD_1_SPIM_1_swStatusTx = tempStatus;
 706              		.loc 1 520 0
 707 0064 40F20003 		movw	r3, #:lower16:TFTSHIELD_1_SPIM_1_swStatusTx
 708 0068 C0F20003 		movt	r3, #:upper16:TFTSHIELD_1_SPIM_1_swStatusTx
 709 006c BA7B     		ldrb	r2, [r7, #14]
 710 006e 1A70     		strb	r2, [r3, #0]
 521:.\Generated_Source\PSoC5/TFTSHIELD_1_SPIM_1.c **** 
 522:.\Generated_Source\PSoC5/TFTSHIELD_1_SPIM_1.c **** 
 523:.\Generated_Source\PSoC5/TFTSHIELD_1_SPIM_1.c ****         if((TFTSHIELD_1_SPIM_1_txBufferRead == TFTSHIELD_1_SPIM_1_txBufferWrite) &&
 711              		.loc 1 523 0
 712 0070 40F20003 		movw	r3, #:lower16:TFTSHIELD_1_SPIM_1_txBufferRead
 713 0074 C0F20003 		movt	r3, #:upper16:TFTSHIELD_1_SPIM_1_txBufferRead
 714 0078 1B78     		ldrb	r3, [r3, #0]
 715 007a DAB2     		uxtb	r2, r3
 716 007c 40F20003 		movw	r3, #:lower16:TFTSHIELD_1_SPIM_1_txBufferWrite
 717 0080 C0F20003 		movt	r3, #:upper16:TFTSHIELD_1_SPIM_1_txBufferWrite
 718 0084 1B78     		ldrb	r3, [r3, #0]
 719 0086 DBB2     		uxtb	r3, r3
 720 0088 9A42     		cmp	r2, r3
 721 008a 10D1     		bne	.L20
 524:.\Generated_Source\PSoC5/TFTSHIELD_1_SPIM_1.c ****            (0u != (TFTSHIELD_1_SPIM_1_swStatusTx & TFTSHIELD_1_SPIM_1_STS_TX_FIFO_NOT_FULL)))
 722              		.loc 1 524 0 discriminator 1
 723 008c 40F20003 		movw	r3, #:lower16:TFTSHIELD_1_SPIM_1_swStatusTx
 724 0090 C0F20003 		movt	r3, #:upper16:TFTSHIELD_1_SPIM_1_swStatusTx
 725 0094 1B78     		ldrb	r3, [r3, #0]
 726 0096 DBB2     		uxtb	r3, r3
 727 0098 03F00403 		and	r3, r3, #4
 523:.\Generated_Source\PSoC5/TFTSHIELD_1_SPIM_1.c ****         if((TFTSHIELD_1_SPIM_1_txBufferRead == TFTSHIELD_1_SPIM_1_txBufferWrite) &&
ARM GAS  C:\Users\barror2\AppData\Local\Temp\ccyzxiTb.s 			page 23


 728              		.loc 1 523 0 discriminator 1
 729 009c 002B     		cmp	r3, #0
 730 009e 06D0     		beq	.L20
 525:.\Generated_Source\PSoC5/TFTSHIELD_1_SPIM_1.c ****         {
 526:.\Generated_Source\PSoC5/TFTSHIELD_1_SPIM_1.c ****             /* Add directly to the TX FIFO */
 527:.\Generated_Source\PSoC5/TFTSHIELD_1_SPIM_1.c ****             CY_SET_REG8(TFTSHIELD_1_SPIM_1_TXDATA_PTR, txData);
 731              		.loc 1 527 0
 732 00a0 46F24E43 		movw	r3, #25678
 733 00a4 C4F20003 		movt	r3, 16384
 734 00a8 FA79     		ldrb	r2, [r7, #7]
 735 00aa 1A70     		strb	r2, [r3, #0]
 736 00ac 69E0     		b	.L21
 737              	.L20:
 528:.\Generated_Source\PSoC5/TFTSHIELD_1_SPIM_1.c ****         }
 529:.\Generated_Source\PSoC5/TFTSHIELD_1_SPIM_1.c ****         else
 530:.\Generated_Source\PSoC5/TFTSHIELD_1_SPIM_1.c ****         {
 531:.\Generated_Source\PSoC5/TFTSHIELD_1_SPIM_1.c ****             /* Add to the TX software buffer */
 532:.\Generated_Source\PSoC5/TFTSHIELD_1_SPIM_1.c ****             TFTSHIELD_1_SPIM_1_txBufferWrite++;
 738              		.loc 1 532 0
 739 00ae 40F20003 		movw	r3, #:lower16:TFTSHIELD_1_SPIM_1_txBufferWrite
 740 00b2 C0F20003 		movt	r3, #:upper16:TFTSHIELD_1_SPIM_1_txBufferWrite
 741 00b6 1B78     		ldrb	r3, [r3, #0]
 742 00b8 DBB2     		uxtb	r3, r3
 743 00ba 03F10103 		add	r3, r3, #1
 744 00be DAB2     		uxtb	r2, r3
 745 00c0 40F20003 		movw	r3, #:lower16:TFTSHIELD_1_SPIM_1_txBufferWrite
 746 00c4 C0F20003 		movt	r3, #:upper16:TFTSHIELD_1_SPIM_1_txBufferWrite
 747 00c8 1A70     		strb	r2, [r3, #0]
 533:.\Generated_Source\PSoC5/TFTSHIELD_1_SPIM_1.c ****             if(TFTSHIELD_1_SPIM_1_txBufferWrite >= TFTSHIELD_1_SPIM_1_TX_BUFFER_SIZE)
 748              		.loc 1 533 0
 749 00ca 40F20003 		movw	r3, #:lower16:TFTSHIELD_1_SPIM_1_txBufferWrite
 750 00ce C0F20003 		movt	r3, #:upper16:TFTSHIELD_1_SPIM_1_txBufferWrite
 751 00d2 1B78     		ldrb	r3, [r3, #0]
 752 00d4 DBB2     		uxtb	r3, r3
 753 00d6 072B     		cmp	r3, #7
 754 00d8 06D9     		bls	.L22
 534:.\Generated_Source\PSoC5/TFTSHIELD_1_SPIM_1.c ****             {
 535:.\Generated_Source\PSoC5/TFTSHIELD_1_SPIM_1.c ****                 TFTSHIELD_1_SPIM_1_txBufferWrite = 0u;
 755              		.loc 1 535 0
 756 00da 40F20003 		movw	r3, #:lower16:TFTSHIELD_1_SPIM_1_txBufferWrite
 757 00de C0F20003 		movt	r3, #:upper16:TFTSHIELD_1_SPIM_1_txBufferWrite
 758 00e2 4FF00002 		mov	r2, #0
 759 00e6 1A70     		strb	r2, [r3, #0]
 760              	.L22:
 536:.\Generated_Source\PSoC5/TFTSHIELD_1_SPIM_1.c ****             }
 537:.\Generated_Source\PSoC5/TFTSHIELD_1_SPIM_1.c **** 
 538:.\Generated_Source\PSoC5/TFTSHIELD_1_SPIM_1.c ****             if(TFTSHIELD_1_SPIM_1_txBufferWrite == TFTSHIELD_1_SPIM_1_txBufferRead)
 761              		.loc 1 538 0
 762 00e8 40F20003 		movw	r3, #:lower16:TFTSHIELD_1_SPIM_1_txBufferWrite
 763 00ec C0F20003 		movt	r3, #:upper16:TFTSHIELD_1_SPIM_1_txBufferWrite
 764 00f0 1B78     		ldrb	r3, [r3, #0]
 765 00f2 DAB2     		uxtb	r2, r3
 766 00f4 40F20003 		movw	r3, #:lower16:TFTSHIELD_1_SPIM_1_txBufferRead
 767 00f8 C0F20003 		movt	r3, #:upper16:TFTSHIELD_1_SPIM_1_txBufferRead
 768 00fc 1B78     		ldrb	r3, [r3, #0]
 769 00fe DBB2     		uxtb	r3, r3
 770 0100 9A42     		cmp	r2, r3
ARM GAS  C:\Users\barror2\AppData\Local\Temp\ccyzxiTb.s 			page 24


 771 0102 23D1     		bne	.L23
 539:.\Generated_Source\PSoC5/TFTSHIELD_1_SPIM_1.c ****             {
 540:.\Generated_Source\PSoC5/TFTSHIELD_1_SPIM_1.c ****                 TFTSHIELD_1_SPIM_1_txBufferRead++;
 772              		.loc 1 540 0
 773 0104 40F20003 		movw	r3, #:lower16:TFTSHIELD_1_SPIM_1_txBufferRead
 774 0108 C0F20003 		movt	r3, #:upper16:TFTSHIELD_1_SPIM_1_txBufferRead
 775 010c 1B78     		ldrb	r3, [r3, #0]
 776 010e DBB2     		uxtb	r3, r3
 777 0110 03F10103 		add	r3, r3, #1
 778 0114 DAB2     		uxtb	r2, r3
 779 0116 40F20003 		movw	r3, #:lower16:TFTSHIELD_1_SPIM_1_txBufferRead
 780 011a C0F20003 		movt	r3, #:upper16:TFTSHIELD_1_SPIM_1_txBufferRead
 781 011e 1A70     		strb	r2, [r3, #0]
 541:.\Generated_Source\PSoC5/TFTSHIELD_1_SPIM_1.c ****                 if(TFTSHIELD_1_SPIM_1_txBufferRead >= TFTSHIELD_1_SPIM_1_TX_BUFFER_SIZE)
 782              		.loc 1 541 0
 783 0120 40F20003 		movw	r3, #:lower16:TFTSHIELD_1_SPIM_1_txBufferRead
 784 0124 C0F20003 		movt	r3, #:upper16:TFTSHIELD_1_SPIM_1_txBufferRead
 785 0128 1B78     		ldrb	r3, [r3, #0]
 786 012a DBB2     		uxtb	r3, r3
 787 012c 072B     		cmp	r3, #7
 788 012e 06D9     		bls	.L24
 542:.\Generated_Source\PSoC5/TFTSHIELD_1_SPIM_1.c ****                 {
 543:.\Generated_Source\PSoC5/TFTSHIELD_1_SPIM_1.c ****                     TFTSHIELD_1_SPIM_1_txBufferRead = 0u;
 789              		.loc 1 543 0
 790 0130 40F20003 		movw	r3, #:lower16:TFTSHIELD_1_SPIM_1_txBufferRead
 791 0134 C0F20003 		movt	r3, #:upper16:TFTSHIELD_1_SPIM_1_txBufferRead
 792 0138 4FF00002 		mov	r2, #0
 793 013c 1A70     		strb	r2, [r3, #0]
 794              	.L24:
 544:.\Generated_Source\PSoC5/TFTSHIELD_1_SPIM_1.c ****                 }
 545:.\Generated_Source\PSoC5/TFTSHIELD_1_SPIM_1.c ****                 TFTSHIELD_1_SPIM_1_txBufferFull = 1u;
 795              		.loc 1 545 0
 796 013e 40F20003 		movw	r3, #:lower16:TFTSHIELD_1_SPIM_1_txBufferFull
 797 0142 C0F20003 		movt	r3, #:upper16:TFTSHIELD_1_SPIM_1_txBufferFull
 798 0146 4FF00102 		mov	r2, #1
 799 014a 1A70     		strb	r2, [r3, #0]
 800              	.L23:
 546:.\Generated_Source\PSoC5/TFTSHIELD_1_SPIM_1.c ****             }
 547:.\Generated_Source\PSoC5/TFTSHIELD_1_SPIM_1.c **** 
 548:.\Generated_Source\PSoC5/TFTSHIELD_1_SPIM_1.c ****             TFTSHIELD_1_SPIM_1_txBuffer[TFTSHIELD_1_SPIM_1_txBufferWrite] = txData;
 801              		.loc 1 548 0
 802 014c 40F20003 		movw	r3, #:lower16:TFTSHIELD_1_SPIM_1_txBufferWrite
 803 0150 C0F20003 		movt	r3, #:upper16:TFTSHIELD_1_SPIM_1_txBufferWrite
 804 0154 1B78     		ldrb	r3, [r3, #0]
 805 0156 DBB2     		uxtb	r3, r3
 806 0158 1A46     		mov	r2, r3
 807 015a 40F20003 		movw	r3, #:lower16:TFTSHIELD_1_SPIM_1_txBuffer
 808 015e C0F20003 		movt	r3, #:upper16:TFTSHIELD_1_SPIM_1_txBuffer
 809 0162 F979     		ldrb	r1, [r7, #7]
 810 0164 9954     		strb	r1, [r3, r2]
 549:.\Generated_Source\PSoC5/TFTSHIELD_1_SPIM_1.c **** 
 550:.\Generated_Source\PSoC5/TFTSHIELD_1_SPIM_1.c ****             TFTSHIELD_1_SPIM_1_TX_STATUS_MASK_REG |= TFTSHIELD_1_SPIM_1_STS_TX_FIFO_NOT_FULL;
 811              		.loc 1 550 0
 812 0166 46F28E43 		movw	r3, #25742
 813 016a C4F20003 		movt	r3, 16384
 814 016e 46F28E42 		movw	r2, #25742
 815 0172 C4F20002 		movt	r2, 16384
ARM GAS  C:\Users\barror2\AppData\Local\Temp\ccyzxiTb.s 			page 25


 816 0176 1278     		ldrb	r2, [r2, #0]
 817 0178 D2B2     		uxtb	r2, r2
 818 017a 42F00402 		orr	r2, r2, #4
 819 017e D2B2     		uxtb	r2, r2
 820 0180 1A70     		strb	r2, [r3, #0]
 821              	.L21:
 551:.\Generated_Source\PSoC5/TFTSHIELD_1_SPIM_1.c ****         }
 552:.\Generated_Source\PSoC5/TFTSHIELD_1_SPIM_1.c **** 
 553:.\Generated_Source\PSoC5/TFTSHIELD_1_SPIM_1.c ****         TFTSHIELD_1_SPIM_1_EnableTxInt();
 822              		.loc 1 553 0
 823 0182 FFF7FEFF 		bl	TFTSHIELD_1_SPIM_1_EnableTxInt
 554:.\Generated_Source\PSoC5/TFTSHIELD_1_SPIM_1.c **** 
 555:.\Generated_Source\PSoC5/TFTSHIELD_1_SPIM_1.c ****     #else
 556:.\Generated_Source\PSoC5/TFTSHIELD_1_SPIM_1.c **** 
 557:.\Generated_Source\PSoC5/TFTSHIELD_1_SPIM_1.c ****         while(0u == (TFTSHIELD_1_SPIM_1_TX_STATUS_REG & TFTSHIELD_1_SPIM_1_STS_TX_FIFO_NOT_FULL))
 558:.\Generated_Source\PSoC5/TFTSHIELD_1_SPIM_1.c ****         {
 559:.\Generated_Source\PSoC5/TFTSHIELD_1_SPIM_1.c ****             ; /* Wait for room in FIFO */
 560:.\Generated_Source\PSoC5/TFTSHIELD_1_SPIM_1.c ****         }
 561:.\Generated_Source\PSoC5/TFTSHIELD_1_SPIM_1.c **** 
 562:.\Generated_Source\PSoC5/TFTSHIELD_1_SPIM_1.c ****         /* Put byte in TX FIFO */
 563:.\Generated_Source\PSoC5/TFTSHIELD_1_SPIM_1.c ****         CY_SET_REG8(TFTSHIELD_1_SPIM_1_TXDATA_PTR, txData);
 564:.\Generated_Source\PSoC5/TFTSHIELD_1_SPIM_1.c **** 
 565:.\Generated_Source\PSoC5/TFTSHIELD_1_SPIM_1.c ****     #endif /* (TFTSHIELD_1_SPIM_1_TX_SOFTWARE_BUF_ENABLED) */
 566:.\Generated_Source\PSoC5/TFTSHIELD_1_SPIM_1.c **** }
 824              		.loc 1 566 0
 825 0186 07F11007 		add	r7, r7, #16
 826 018a BD46     		mov	sp, r7
 827 018c 80BD     		pop	{r7, pc}
 828              		.cfi_endproc
 829              	.LFE12:
 830              		.size	TFTSHIELD_1_SPIM_1_WriteTxData, .-TFTSHIELD_1_SPIM_1_WriteTxData
 831 018e 00BF     		.section	.text.TFTSHIELD_1_SPIM_1_ReadRxData,"ax",%progbits
 832              		.align	2
 833              		.global	TFTSHIELD_1_SPIM_1_ReadRxData
 834              		.thumb
 835              		.thumb_func
 836              		.type	TFTSHIELD_1_SPIM_1_ReadRxData, %function
 837              	TFTSHIELD_1_SPIM_1_ReadRxData:
 838              	.LFB13:
 567:.\Generated_Source\PSoC5/TFTSHIELD_1_SPIM_1.c **** 
 568:.\Generated_Source\PSoC5/TFTSHIELD_1_SPIM_1.c **** 
 569:.\Generated_Source\PSoC5/TFTSHIELD_1_SPIM_1.c **** /*******************************************************************************
 570:.\Generated_Source\PSoC5/TFTSHIELD_1_SPIM_1.c **** * Function Name: TFTSHIELD_1_SPIM_1_ReadRxData
 571:.\Generated_Source\PSoC5/TFTSHIELD_1_SPIM_1.c **** ********************************************************************************
 572:.\Generated_Source\PSoC5/TFTSHIELD_1_SPIM_1.c **** *
 573:.\Generated_Source\PSoC5/TFTSHIELD_1_SPIM_1.c **** * Summary:
 574:.\Generated_Source\PSoC5/TFTSHIELD_1_SPIM_1.c **** *  Read the next byte of data received across the SPI.
 575:.\Generated_Source\PSoC5/TFTSHIELD_1_SPIM_1.c **** *
 576:.\Generated_Source\PSoC5/TFTSHIELD_1_SPIM_1.c **** * Parameters:
 577:.\Generated_Source\PSoC5/TFTSHIELD_1_SPIM_1.c **** *  None.
 578:.\Generated_Source\PSoC5/TFTSHIELD_1_SPIM_1.c **** *
 579:.\Generated_Source\PSoC5/TFTSHIELD_1_SPIM_1.c **** * Return:
 580:.\Generated_Source\PSoC5/TFTSHIELD_1_SPIM_1.c **** *  The next byte of data read from the FIFO.
 581:.\Generated_Source\PSoC5/TFTSHIELD_1_SPIM_1.c **** *
 582:.\Generated_Source\PSoC5/TFTSHIELD_1_SPIM_1.c **** * Global variables:
 583:.\Generated_Source\PSoC5/TFTSHIELD_1_SPIM_1.c **** *  TFTSHIELD_1_SPIM_1_rxBufferWrite - used for the account of the bytes which
 584:.\Generated_Source\PSoC5/TFTSHIELD_1_SPIM_1.c **** *  have been written down in the RX software buffer.
ARM GAS  C:\Users\barror2\AppData\Local\Temp\ccyzxiTb.s 			page 26


 585:.\Generated_Source\PSoC5/TFTSHIELD_1_SPIM_1.c **** *  TFTSHIELD_1_SPIM_1_rxBufferRead - used for the account of the bytes which
 586:.\Generated_Source\PSoC5/TFTSHIELD_1_SPIM_1.c **** *  have been read from the RX software buffer, modified every function
 587:.\Generated_Source\PSoC5/TFTSHIELD_1_SPIM_1.c **** *  call if RX Software Buffer is used.
 588:.\Generated_Source\PSoC5/TFTSHIELD_1_SPIM_1.c **** *  TFTSHIELD_1_SPIM_1_rxBuffer[TFTSHIELD_1_SPIM_1_RX_BUFFER_SIZE] - used to store
 589:.\Generated_Source\PSoC5/TFTSHIELD_1_SPIM_1.c **** *  received data.
 590:.\Generated_Source\PSoC5/TFTSHIELD_1_SPIM_1.c **** *
 591:.\Generated_Source\PSoC5/TFTSHIELD_1_SPIM_1.c **** * Theory:
 592:.\Generated_Source\PSoC5/TFTSHIELD_1_SPIM_1.c **** *  Allows the user to read a byte of data received.
 593:.\Generated_Source\PSoC5/TFTSHIELD_1_SPIM_1.c **** *
 594:.\Generated_Source\PSoC5/TFTSHIELD_1_SPIM_1.c **** * Side Effects:
 595:.\Generated_Source\PSoC5/TFTSHIELD_1_SPIM_1.c **** *  Will return invalid data if the FIFO is empty. The user should Call
 596:.\Generated_Source\PSoC5/TFTSHIELD_1_SPIM_1.c **** *  GetRxBufferSize() and if it returns a non-zero value then it is safe to call
 597:.\Generated_Source\PSoC5/TFTSHIELD_1_SPIM_1.c **** *  ReadByte() function.
 598:.\Generated_Source\PSoC5/TFTSHIELD_1_SPIM_1.c **** *
 599:.\Generated_Source\PSoC5/TFTSHIELD_1_SPIM_1.c **** * Reentrant:
 600:.\Generated_Source\PSoC5/TFTSHIELD_1_SPIM_1.c **** *  No.
 601:.\Generated_Source\PSoC5/TFTSHIELD_1_SPIM_1.c **** *
 602:.\Generated_Source\PSoC5/TFTSHIELD_1_SPIM_1.c **** *******************************************************************************/
 603:.\Generated_Source\PSoC5/TFTSHIELD_1_SPIM_1.c **** uint8 TFTSHIELD_1_SPIM_1_ReadRxData(void) 
 604:.\Generated_Source\PSoC5/TFTSHIELD_1_SPIM_1.c **** {
 839              		.loc 1 604 0
 840              		.cfi_startproc
 841              		@ args = 0, pretend = 0, frame = 8
 842              		@ frame_needed = 1, uses_anonymous_args = 0
 843 0000 80B5     		push	{r7, lr}
 844              	.LCFI33:
 845              		.cfi_def_cfa_offset 8
 846              		.cfi_offset 7, -8
 847              		.cfi_offset 14, -4
 848 0002 82B0     		sub	sp, sp, #8
 849              	.LCFI34:
 850              		.cfi_def_cfa_offset 16
 851 0004 00AF     		add	r7, sp, #0
 852              	.LCFI35:
 853              		.cfi_def_cfa_register 7
 605:.\Generated_Source\PSoC5/TFTSHIELD_1_SPIM_1.c ****     uint8 rxData;
 606:.\Generated_Source\PSoC5/TFTSHIELD_1_SPIM_1.c **** 
 607:.\Generated_Source\PSoC5/TFTSHIELD_1_SPIM_1.c ****     #if(TFTSHIELD_1_SPIM_1_RX_SOFTWARE_BUF_ENABLED)
 608:.\Generated_Source\PSoC5/TFTSHIELD_1_SPIM_1.c **** 
 609:.\Generated_Source\PSoC5/TFTSHIELD_1_SPIM_1.c ****         /* Disable RX interrupt to protect global veriables */
 610:.\Generated_Source\PSoC5/TFTSHIELD_1_SPIM_1.c ****         TFTSHIELD_1_SPIM_1_DisableRxInt();
 854              		.loc 1 610 0
 855 0006 FFF7FEFF 		bl	TFTSHIELD_1_SPIM_1_DisableRxInt
 611:.\Generated_Source\PSoC5/TFTSHIELD_1_SPIM_1.c **** 
 612:.\Generated_Source\PSoC5/TFTSHIELD_1_SPIM_1.c ****         if(TFTSHIELD_1_SPIM_1_rxBufferRead != TFTSHIELD_1_SPIM_1_rxBufferWrite)
 856              		.loc 1 612 0
 857 000a 40F20003 		movw	r3, #:lower16:TFTSHIELD_1_SPIM_1_rxBufferRead
 858 000e C0F20003 		movt	r3, #:upper16:TFTSHIELD_1_SPIM_1_rxBufferRead
 859 0012 1B78     		ldrb	r3, [r3, #0]
 860 0014 DAB2     		uxtb	r2, r3
 861 0016 40F20003 		movw	r3, #:lower16:TFTSHIELD_1_SPIM_1_rxBufferWrite
 862 001a C0F20003 		movt	r3, #:upper16:TFTSHIELD_1_SPIM_1_rxBufferWrite
 863 001e 1B78     		ldrb	r3, [r3, #0]
 864 0020 DBB2     		uxtb	r3, r3
 865 0022 9A42     		cmp	r2, r3
 866 0024 2CD0     		beq	.L26
 613:.\Generated_Source\PSoC5/TFTSHIELD_1_SPIM_1.c ****         {
ARM GAS  C:\Users\barror2\AppData\Local\Temp\ccyzxiTb.s 			page 27


 614:.\Generated_Source\PSoC5/TFTSHIELD_1_SPIM_1.c ****             if(0u == TFTSHIELD_1_SPIM_1_rxBufferFull)
 867              		.loc 1 614 0
 868 0026 40F20003 		movw	r3, #:lower16:TFTSHIELD_1_SPIM_1_rxBufferFull
 869 002a C0F20003 		movt	r3, #:upper16:TFTSHIELD_1_SPIM_1_rxBufferFull
 870 002e 1B78     		ldrb	r3, [r3, #0]
 871 0030 DBB2     		uxtb	r3, r3
 872 0032 002B     		cmp	r3, #0
 873 0034 1DD1     		bne	.L27
 615:.\Generated_Source\PSoC5/TFTSHIELD_1_SPIM_1.c ****             {
 616:.\Generated_Source\PSoC5/TFTSHIELD_1_SPIM_1.c ****                 TFTSHIELD_1_SPIM_1_rxBufferRead++;
 874              		.loc 1 616 0
 875 0036 40F20003 		movw	r3, #:lower16:TFTSHIELD_1_SPIM_1_rxBufferRead
 876 003a C0F20003 		movt	r3, #:upper16:TFTSHIELD_1_SPIM_1_rxBufferRead
 877 003e 1B78     		ldrb	r3, [r3, #0]
 878 0040 DBB2     		uxtb	r3, r3
 879 0042 03F10103 		add	r3, r3, #1
 880 0046 DAB2     		uxtb	r2, r3
 881 0048 40F20003 		movw	r3, #:lower16:TFTSHIELD_1_SPIM_1_rxBufferRead
 882 004c C0F20003 		movt	r3, #:upper16:TFTSHIELD_1_SPIM_1_rxBufferRead
 883 0050 1A70     		strb	r2, [r3, #0]
 617:.\Generated_Source\PSoC5/TFTSHIELD_1_SPIM_1.c ****                 if(TFTSHIELD_1_SPIM_1_rxBufferRead >= TFTSHIELD_1_SPIM_1_RX_BUFFER_SIZE)
 884              		.loc 1 617 0
 885 0052 40F20003 		movw	r3, #:lower16:TFTSHIELD_1_SPIM_1_rxBufferRead
 886 0056 C0F20003 		movt	r3, #:upper16:TFTSHIELD_1_SPIM_1_rxBufferRead
 887 005a 1B78     		ldrb	r3, [r3, #0]
 888 005c DBB2     		uxtb	r3, r3
 889 005e 072B     		cmp	r3, #7
 890 0060 0ED9     		bls	.L26
 618:.\Generated_Source\PSoC5/TFTSHIELD_1_SPIM_1.c ****                 {
 619:.\Generated_Source\PSoC5/TFTSHIELD_1_SPIM_1.c ****                     TFTSHIELD_1_SPIM_1_rxBufferRead = 0u;
 891              		.loc 1 619 0
 892 0062 40F20003 		movw	r3, #:lower16:TFTSHIELD_1_SPIM_1_rxBufferRead
 893 0066 C0F20003 		movt	r3, #:upper16:TFTSHIELD_1_SPIM_1_rxBufferRead
 894 006a 4FF00002 		mov	r2, #0
 895 006e 1A70     		strb	r2, [r3, #0]
 896 0070 06E0     		b	.L26
 897              	.L27:
 620:.\Generated_Source\PSoC5/TFTSHIELD_1_SPIM_1.c ****                 }
 621:.\Generated_Source\PSoC5/TFTSHIELD_1_SPIM_1.c ****             }
 622:.\Generated_Source\PSoC5/TFTSHIELD_1_SPIM_1.c ****             else
 623:.\Generated_Source\PSoC5/TFTSHIELD_1_SPIM_1.c ****             {
 624:.\Generated_Source\PSoC5/TFTSHIELD_1_SPIM_1.c ****                 TFTSHIELD_1_SPIM_1_rxBufferFull = 0u;
 898              		.loc 1 624 0
 899 0072 40F20003 		movw	r3, #:lower16:TFTSHIELD_1_SPIM_1_rxBufferFull
 900 0076 C0F20003 		movt	r3, #:upper16:TFTSHIELD_1_SPIM_1_rxBufferFull
 901 007a 4FF00002 		mov	r2, #0
 902 007e 1A70     		strb	r2, [r3, #0]
 903              	.L26:
 625:.\Generated_Source\PSoC5/TFTSHIELD_1_SPIM_1.c ****             }
 626:.\Generated_Source\PSoC5/TFTSHIELD_1_SPIM_1.c ****         }
 627:.\Generated_Source\PSoC5/TFTSHIELD_1_SPIM_1.c **** 
 628:.\Generated_Source\PSoC5/TFTSHIELD_1_SPIM_1.c ****         rxData = TFTSHIELD_1_SPIM_1_rxBuffer[TFTSHIELD_1_SPIM_1_rxBufferRead];
 904              		.loc 1 628 0
 905 0080 40F20003 		movw	r3, #:lower16:TFTSHIELD_1_SPIM_1_rxBufferRead
 906 0084 C0F20003 		movt	r3, #:upper16:TFTSHIELD_1_SPIM_1_rxBufferRead
 907 0088 1B78     		ldrb	r3, [r3, #0]
 908 008a DBB2     		uxtb	r3, r3
ARM GAS  C:\Users\barror2\AppData\Local\Temp\ccyzxiTb.s 			page 28


 909 008c 1A46     		mov	r2, r3
 910 008e 40F20003 		movw	r3, #:lower16:TFTSHIELD_1_SPIM_1_rxBuffer
 911 0092 C0F20003 		movt	r3, #:upper16:TFTSHIELD_1_SPIM_1_rxBuffer
 912 0096 9B5C     		ldrb	r3, [r3, r2]
 913 0098 FB71     		strb	r3, [r7, #7]
 629:.\Generated_Source\PSoC5/TFTSHIELD_1_SPIM_1.c **** 
 630:.\Generated_Source\PSoC5/TFTSHIELD_1_SPIM_1.c ****         TFTSHIELD_1_SPIM_1_EnableRxInt();
 914              		.loc 1 630 0
 915 009a FFF7FEFF 		bl	TFTSHIELD_1_SPIM_1_EnableRxInt
 631:.\Generated_Source\PSoC5/TFTSHIELD_1_SPIM_1.c **** 
 632:.\Generated_Source\PSoC5/TFTSHIELD_1_SPIM_1.c ****     #else
 633:.\Generated_Source\PSoC5/TFTSHIELD_1_SPIM_1.c **** 
 634:.\Generated_Source\PSoC5/TFTSHIELD_1_SPIM_1.c ****         rxData = CY_GET_REG8(TFTSHIELD_1_SPIM_1_RXDATA_PTR);
 635:.\Generated_Source\PSoC5/TFTSHIELD_1_SPIM_1.c **** 
 636:.\Generated_Source\PSoC5/TFTSHIELD_1_SPIM_1.c ****     #endif /* (TFTSHIELD_1_SPIM_1_RX_SOFTWARE_BUF_ENABLED) */
 637:.\Generated_Source\PSoC5/TFTSHIELD_1_SPIM_1.c **** 
 638:.\Generated_Source\PSoC5/TFTSHIELD_1_SPIM_1.c ****     return(rxData);
 916              		.loc 1 638 0
 917 009e FB79     		ldrb	r3, [r7, #7]	@ zero_extendqisi2
 639:.\Generated_Source\PSoC5/TFTSHIELD_1_SPIM_1.c **** }
 918              		.loc 1 639 0
 919 00a0 1846     		mov	r0, r3
 920 00a2 07F10807 		add	r7, r7, #8
 921 00a6 BD46     		mov	sp, r7
 922 00a8 80BD     		pop	{r7, pc}
 923              		.cfi_endproc
 924              	.LFE13:
 925              		.size	TFTSHIELD_1_SPIM_1_ReadRxData, .-TFTSHIELD_1_SPIM_1_ReadRxData
 926 00aa 00BF     		.section	.text.TFTSHIELD_1_SPIM_1_GetRxBufferSize,"ax",%progbits
 927              		.align	2
 928              		.global	TFTSHIELD_1_SPIM_1_GetRxBufferSize
 929              		.thumb
 930              		.thumb_func
 931              		.type	TFTSHIELD_1_SPIM_1_GetRxBufferSize, %function
 932              	TFTSHIELD_1_SPIM_1_GetRxBufferSize:
 933              	.LFB14:
 640:.\Generated_Source\PSoC5/TFTSHIELD_1_SPIM_1.c **** 
 641:.\Generated_Source\PSoC5/TFTSHIELD_1_SPIM_1.c **** 
 642:.\Generated_Source\PSoC5/TFTSHIELD_1_SPIM_1.c **** /*******************************************************************************
 643:.\Generated_Source\PSoC5/TFTSHIELD_1_SPIM_1.c **** * Function Name: TFTSHIELD_1_SPIM_1_GetRxBufferSize
 644:.\Generated_Source\PSoC5/TFTSHIELD_1_SPIM_1.c **** ********************************************************************************
 645:.\Generated_Source\PSoC5/TFTSHIELD_1_SPIM_1.c **** *
 646:.\Generated_Source\PSoC5/TFTSHIELD_1_SPIM_1.c **** * Summary:
 647:.\Generated_Source\PSoC5/TFTSHIELD_1_SPIM_1.c **** *  Returns the number of bytes/words of data currently held in the RX buffer.
 648:.\Generated_Source\PSoC5/TFTSHIELD_1_SPIM_1.c **** *  If RX Software Buffer not used then function return 0 if FIFO empty or 1 if
 649:.\Generated_Source\PSoC5/TFTSHIELD_1_SPIM_1.c **** *  FIFO not empty. In another case function return size of RX Software Buffer.
 650:.\Generated_Source\PSoC5/TFTSHIELD_1_SPIM_1.c **** *
 651:.\Generated_Source\PSoC5/TFTSHIELD_1_SPIM_1.c **** * Parameters:
 652:.\Generated_Source\PSoC5/TFTSHIELD_1_SPIM_1.c **** *  None.
 653:.\Generated_Source\PSoC5/TFTSHIELD_1_SPIM_1.c **** *
 654:.\Generated_Source\PSoC5/TFTSHIELD_1_SPIM_1.c **** * Return:
 655:.\Generated_Source\PSoC5/TFTSHIELD_1_SPIM_1.c **** *  Integer count of the number of bytes/words in the RX buffer.
 656:.\Generated_Source\PSoC5/TFTSHIELD_1_SPIM_1.c **** *
 657:.\Generated_Source\PSoC5/TFTSHIELD_1_SPIM_1.c **** * Global variables:
 658:.\Generated_Source\PSoC5/TFTSHIELD_1_SPIM_1.c **** *  TFTSHIELD_1_SPIM_1_rxBufferWrite - used for the account of the bytes which
 659:.\Generated_Source\PSoC5/TFTSHIELD_1_SPIM_1.c **** *  have been written down in the RX software buffer.
 660:.\Generated_Source\PSoC5/TFTSHIELD_1_SPIM_1.c **** *  TFTSHIELD_1_SPIM_1_rxBufferRead - used for the account of the bytes which
ARM GAS  C:\Users\barror2\AppData\Local\Temp\ccyzxiTb.s 			page 29


 661:.\Generated_Source\PSoC5/TFTSHIELD_1_SPIM_1.c **** *  have been read from the RX software buffer.
 662:.\Generated_Source\PSoC5/TFTSHIELD_1_SPIM_1.c **** *
 663:.\Generated_Source\PSoC5/TFTSHIELD_1_SPIM_1.c **** * Side Effects:
 664:.\Generated_Source\PSoC5/TFTSHIELD_1_SPIM_1.c **** *  Clear status register of the component.
 665:.\Generated_Source\PSoC5/TFTSHIELD_1_SPIM_1.c **** *
 666:.\Generated_Source\PSoC5/TFTSHIELD_1_SPIM_1.c **** *******************************************************************************/
 667:.\Generated_Source\PSoC5/TFTSHIELD_1_SPIM_1.c **** uint8 TFTSHIELD_1_SPIM_1_GetRxBufferSize(void) 
 668:.\Generated_Source\PSoC5/TFTSHIELD_1_SPIM_1.c **** {
 934              		.loc 1 668 0
 935              		.cfi_startproc
 936              		@ args = 0, pretend = 0, frame = 8
 937              		@ frame_needed = 1, uses_anonymous_args = 0
 938 0000 80B5     		push	{r7, lr}
 939              	.LCFI36:
 940              		.cfi_def_cfa_offset 8
 941              		.cfi_offset 7, -8
 942              		.cfi_offset 14, -4
 943 0002 82B0     		sub	sp, sp, #8
 944              	.LCFI37:
 945              		.cfi_def_cfa_offset 16
 946 0004 00AF     		add	r7, sp, #0
 947              	.LCFI38:
 948              		.cfi_def_cfa_register 7
 669:.\Generated_Source\PSoC5/TFTSHIELD_1_SPIM_1.c ****     uint8 size;
 670:.\Generated_Source\PSoC5/TFTSHIELD_1_SPIM_1.c **** 
 671:.\Generated_Source\PSoC5/TFTSHIELD_1_SPIM_1.c ****     #if(TFTSHIELD_1_SPIM_1_RX_SOFTWARE_BUF_ENABLED)
 672:.\Generated_Source\PSoC5/TFTSHIELD_1_SPIM_1.c **** 
 673:.\Generated_Source\PSoC5/TFTSHIELD_1_SPIM_1.c ****         /* Disable RX interrupt to protect global veriables */
 674:.\Generated_Source\PSoC5/TFTSHIELD_1_SPIM_1.c ****         TFTSHIELD_1_SPIM_1_DisableRxInt();
 949              		.loc 1 674 0
 950 0006 FFF7FEFF 		bl	TFTSHIELD_1_SPIM_1_DisableRxInt
 675:.\Generated_Source\PSoC5/TFTSHIELD_1_SPIM_1.c **** 
 676:.\Generated_Source\PSoC5/TFTSHIELD_1_SPIM_1.c ****         if(TFTSHIELD_1_SPIM_1_rxBufferRead == TFTSHIELD_1_SPIM_1_rxBufferWrite)
 951              		.loc 1 676 0
 952 000a 40F20003 		movw	r3, #:lower16:TFTSHIELD_1_SPIM_1_rxBufferRead
 953 000e C0F20003 		movt	r3, #:upper16:TFTSHIELD_1_SPIM_1_rxBufferRead
 954 0012 1B78     		ldrb	r3, [r3, #0]
 955 0014 DAB2     		uxtb	r2, r3
 956 0016 40F20003 		movw	r3, #:lower16:TFTSHIELD_1_SPIM_1_rxBufferWrite
 957 001a C0F20003 		movt	r3, #:upper16:TFTSHIELD_1_SPIM_1_rxBufferWrite
 958 001e 1B78     		ldrb	r3, [r3, #0]
 959 0020 DBB2     		uxtb	r3, r3
 960 0022 9A42     		cmp	r2, r3
 961 0024 03D1     		bne	.L30
 677:.\Generated_Source\PSoC5/TFTSHIELD_1_SPIM_1.c ****         {
 678:.\Generated_Source\PSoC5/TFTSHIELD_1_SPIM_1.c ****             size = 0u;
 962              		.loc 1 678 0
 963 0026 4FF00003 		mov	r3, #0
 964 002a FB71     		strb	r3, [r7, #7]
 965 002c 2DE0     		b	.L31
 966              	.L30:
 679:.\Generated_Source\PSoC5/TFTSHIELD_1_SPIM_1.c ****         }
 680:.\Generated_Source\PSoC5/TFTSHIELD_1_SPIM_1.c ****         else if(TFTSHIELD_1_SPIM_1_rxBufferRead < TFTSHIELD_1_SPIM_1_rxBufferWrite)
 967              		.loc 1 680 0
 968 002e 40F20003 		movw	r3, #:lower16:TFTSHIELD_1_SPIM_1_rxBufferRead
 969 0032 C0F20003 		movt	r3, #:upper16:TFTSHIELD_1_SPIM_1_rxBufferRead
 970 0036 1B78     		ldrb	r3, [r3, #0]
ARM GAS  C:\Users\barror2\AppData\Local\Temp\ccyzxiTb.s 			page 30


 971 0038 DAB2     		uxtb	r2, r3
 972 003a 40F20003 		movw	r3, #:lower16:TFTSHIELD_1_SPIM_1_rxBufferWrite
 973 003e C0F20003 		movt	r3, #:upper16:TFTSHIELD_1_SPIM_1_rxBufferWrite
 974 0042 1B78     		ldrb	r3, [r3, #0]
 975 0044 DBB2     		uxtb	r3, r3
 976 0046 9A42     		cmp	r2, r3
 977 0048 0ED2     		bcs	.L32
 681:.\Generated_Source\PSoC5/TFTSHIELD_1_SPIM_1.c ****         {
 682:.\Generated_Source\PSoC5/TFTSHIELD_1_SPIM_1.c ****             size = (TFTSHIELD_1_SPIM_1_rxBufferWrite - TFTSHIELD_1_SPIM_1_rxBufferRead);
 978              		.loc 1 682 0
 979 004a 40F20003 		movw	r3, #:lower16:TFTSHIELD_1_SPIM_1_rxBufferWrite
 980 004e C0F20003 		movt	r3, #:upper16:TFTSHIELD_1_SPIM_1_rxBufferWrite
 981 0052 1B78     		ldrb	r3, [r3, #0]
 982 0054 DAB2     		uxtb	r2, r3
 983 0056 40F20003 		movw	r3, #:lower16:TFTSHIELD_1_SPIM_1_rxBufferRead
 984 005a C0F20003 		movt	r3, #:upper16:TFTSHIELD_1_SPIM_1_rxBufferRead
 985 005e 1B78     		ldrb	r3, [r3, #0]
 986 0060 DBB2     		uxtb	r3, r3
 987 0062 D31A     		subs	r3, r2, r3
 988 0064 FB71     		strb	r3, [r7, #7]
 989 0066 10E0     		b	.L31
 990              	.L32:
 683:.\Generated_Source\PSoC5/TFTSHIELD_1_SPIM_1.c ****         }
 684:.\Generated_Source\PSoC5/TFTSHIELD_1_SPIM_1.c ****         else
 685:.\Generated_Source\PSoC5/TFTSHIELD_1_SPIM_1.c ****         {
 686:.\Generated_Source\PSoC5/TFTSHIELD_1_SPIM_1.c ****             size = (TFTSHIELD_1_SPIM_1_RX_BUFFER_SIZE - TFTSHIELD_1_SPIM_1_rxBufferRead) + TFTSHIEL
 991              		.loc 1 686 0
 992 0068 40F20003 		movw	r3, #:lower16:TFTSHIELD_1_SPIM_1_rxBufferWrite
 993 006c C0F20003 		movt	r3, #:upper16:TFTSHIELD_1_SPIM_1_rxBufferWrite
 994 0070 1B78     		ldrb	r3, [r3, #0]
 995 0072 DAB2     		uxtb	r2, r3
 996 0074 40F20003 		movw	r3, #:lower16:TFTSHIELD_1_SPIM_1_rxBufferRead
 997 0078 C0F20003 		movt	r3, #:upper16:TFTSHIELD_1_SPIM_1_rxBufferRead
 998 007c 1B78     		ldrb	r3, [r3, #0]
 999 007e DBB2     		uxtb	r3, r3
 1000 0080 D31A     		subs	r3, r2, r3
 1001 0082 DBB2     		uxtb	r3, r3
 1002 0084 03F10803 		add	r3, r3, #8
 1003 0088 FB71     		strb	r3, [r7, #7]
 1004              	.L31:
 687:.\Generated_Source\PSoC5/TFTSHIELD_1_SPIM_1.c ****         }
 688:.\Generated_Source\PSoC5/TFTSHIELD_1_SPIM_1.c **** 
 689:.\Generated_Source\PSoC5/TFTSHIELD_1_SPIM_1.c ****         TFTSHIELD_1_SPIM_1_EnableRxInt();
 1005              		.loc 1 689 0
 1006 008a FFF7FEFF 		bl	TFTSHIELD_1_SPIM_1_EnableRxInt
 690:.\Generated_Source\PSoC5/TFTSHIELD_1_SPIM_1.c **** 
 691:.\Generated_Source\PSoC5/TFTSHIELD_1_SPIM_1.c ****     #else
 692:.\Generated_Source\PSoC5/TFTSHIELD_1_SPIM_1.c **** 
 693:.\Generated_Source\PSoC5/TFTSHIELD_1_SPIM_1.c ****         /* We can only know if there is data in the RX FIFO */
 694:.\Generated_Source\PSoC5/TFTSHIELD_1_SPIM_1.c ****         size = (0u != (TFTSHIELD_1_SPIM_1_RX_STATUS_REG & TFTSHIELD_1_SPIM_1_STS_RX_FIFO_NOT_EMPTY)
 695:.\Generated_Source\PSoC5/TFTSHIELD_1_SPIM_1.c **** 
 696:.\Generated_Source\PSoC5/TFTSHIELD_1_SPIM_1.c ****     #endif /* (TFTSHIELD_1_SPIM_1_TX_SOFTWARE_BUF_ENABLED) */
 697:.\Generated_Source\PSoC5/TFTSHIELD_1_SPIM_1.c **** 
 698:.\Generated_Source\PSoC5/TFTSHIELD_1_SPIM_1.c ****     return(size);
 1007              		.loc 1 698 0
 1008 008e FB79     		ldrb	r3, [r7, #7]	@ zero_extendqisi2
 699:.\Generated_Source\PSoC5/TFTSHIELD_1_SPIM_1.c **** }
ARM GAS  C:\Users\barror2\AppData\Local\Temp\ccyzxiTb.s 			page 31


 1009              		.loc 1 699 0
 1010 0090 1846     		mov	r0, r3
 1011 0092 07F10807 		add	r7, r7, #8
 1012 0096 BD46     		mov	sp, r7
 1013 0098 80BD     		pop	{r7, pc}
 1014              		.cfi_endproc
 1015              	.LFE14:
 1016              		.size	TFTSHIELD_1_SPIM_1_GetRxBufferSize, .-TFTSHIELD_1_SPIM_1_GetRxBufferSize
 1017 009a 00BF     		.section	.text.TFTSHIELD_1_SPIM_1_GetTxBufferSize,"ax",%progbits
 1018              		.align	2
 1019              		.global	TFTSHIELD_1_SPIM_1_GetTxBufferSize
 1020              		.thumb
 1021              		.thumb_func
 1022              		.type	TFTSHIELD_1_SPIM_1_GetTxBufferSize, %function
 1023              	TFTSHIELD_1_SPIM_1_GetTxBufferSize:
 1024              	.LFB15:
 700:.\Generated_Source\PSoC5/TFTSHIELD_1_SPIM_1.c **** 
 701:.\Generated_Source\PSoC5/TFTSHIELD_1_SPIM_1.c **** 
 702:.\Generated_Source\PSoC5/TFTSHIELD_1_SPIM_1.c **** /*******************************************************************************
 703:.\Generated_Source\PSoC5/TFTSHIELD_1_SPIM_1.c **** * Function Name: TFTSHIELD_1_SPIM_1_GetTxBufferSize
 704:.\Generated_Source\PSoC5/TFTSHIELD_1_SPIM_1.c **** ********************************************************************************
 705:.\Generated_Source\PSoC5/TFTSHIELD_1_SPIM_1.c **** *
 706:.\Generated_Source\PSoC5/TFTSHIELD_1_SPIM_1.c **** * Summary:
 707:.\Generated_Source\PSoC5/TFTSHIELD_1_SPIM_1.c **** *  Returns the number of bytes/words of data currently held in the TX buffer.
 708:.\Generated_Source\PSoC5/TFTSHIELD_1_SPIM_1.c **** *  If TX Software Buffer not used then function return 0 - if FIFO empty, 1 - if
 709:.\Generated_Source\PSoC5/TFTSHIELD_1_SPIM_1.c **** *  FIFO not full, 4 - if FIFO full. In another case function return size of TX
 710:.\Generated_Source\PSoC5/TFTSHIELD_1_SPIM_1.c **** *  Software Buffer.
 711:.\Generated_Source\PSoC5/TFTSHIELD_1_SPIM_1.c **** *
 712:.\Generated_Source\PSoC5/TFTSHIELD_1_SPIM_1.c **** * Parameters:
 713:.\Generated_Source\PSoC5/TFTSHIELD_1_SPIM_1.c **** *  None.
 714:.\Generated_Source\PSoC5/TFTSHIELD_1_SPIM_1.c **** *
 715:.\Generated_Source\PSoC5/TFTSHIELD_1_SPIM_1.c **** * Return:
 716:.\Generated_Source\PSoC5/TFTSHIELD_1_SPIM_1.c **** *  Integer count of the number of bytes/words in the TX buffer.
 717:.\Generated_Source\PSoC5/TFTSHIELD_1_SPIM_1.c **** *
 718:.\Generated_Source\PSoC5/TFTSHIELD_1_SPIM_1.c **** * Global variables:
 719:.\Generated_Source\PSoC5/TFTSHIELD_1_SPIM_1.c **** *  TFTSHIELD_1_SPIM_1_txBufferWrite - used for the account of the bytes which
 720:.\Generated_Source\PSoC5/TFTSHIELD_1_SPIM_1.c **** *  have been written down in the TX software buffer.
 721:.\Generated_Source\PSoC5/TFTSHIELD_1_SPIM_1.c **** *  TFTSHIELD_1_SPIM_1_txBufferRead - used for the account of the bytes which
 722:.\Generated_Source\PSoC5/TFTSHIELD_1_SPIM_1.c **** *  have been read from the TX software buffer.
 723:.\Generated_Source\PSoC5/TFTSHIELD_1_SPIM_1.c **** *
 724:.\Generated_Source\PSoC5/TFTSHIELD_1_SPIM_1.c **** * Side Effects:
 725:.\Generated_Source\PSoC5/TFTSHIELD_1_SPIM_1.c **** *  Clear status register of the component.
 726:.\Generated_Source\PSoC5/TFTSHIELD_1_SPIM_1.c **** *
 727:.\Generated_Source\PSoC5/TFTSHIELD_1_SPIM_1.c **** *******************************************************************************/
 728:.\Generated_Source\PSoC5/TFTSHIELD_1_SPIM_1.c **** uint8  TFTSHIELD_1_SPIM_1_GetTxBufferSize(void) 
 729:.\Generated_Source\PSoC5/TFTSHIELD_1_SPIM_1.c **** {
 1025              		.loc 1 729 0
 1026              		.cfi_startproc
 1027              		@ args = 0, pretend = 0, frame = 8
 1028              		@ frame_needed = 1, uses_anonymous_args = 0
 1029 0000 80B5     		push	{r7, lr}
 1030              	.LCFI39:
 1031              		.cfi_def_cfa_offset 8
 1032              		.cfi_offset 7, -8
 1033              		.cfi_offset 14, -4
 1034 0002 82B0     		sub	sp, sp, #8
 1035              	.LCFI40:
ARM GAS  C:\Users\barror2\AppData\Local\Temp\ccyzxiTb.s 			page 32


 1036              		.cfi_def_cfa_offset 16
 1037 0004 00AF     		add	r7, sp, #0
 1038              	.LCFI41:
 1039              		.cfi_def_cfa_register 7
 730:.\Generated_Source\PSoC5/TFTSHIELD_1_SPIM_1.c ****     uint8 size;
 731:.\Generated_Source\PSoC5/TFTSHIELD_1_SPIM_1.c **** 
 732:.\Generated_Source\PSoC5/TFTSHIELD_1_SPIM_1.c ****     #if(TFTSHIELD_1_SPIM_1_TX_SOFTWARE_BUF_ENABLED)
 733:.\Generated_Source\PSoC5/TFTSHIELD_1_SPIM_1.c ****         /* Disable TX interrupt to protect global veriables */
 734:.\Generated_Source\PSoC5/TFTSHIELD_1_SPIM_1.c ****         TFTSHIELD_1_SPIM_1_DisableTxInt();
 1040              		.loc 1 734 0
 1041 0006 FFF7FEFF 		bl	TFTSHIELD_1_SPIM_1_DisableTxInt
 735:.\Generated_Source\PSoC5/TFTSHIELD_1_SPIM_1.c **** 
 736:.\Generated_Source\PSoC5/TFTSHIELD_1_SPIM_1.c ****         if(TFTSHIELD_1_SPIM_1_txBufferRead == TFTSHIELD_1_SPIM_1_txBufferWrite)
 1042              		.loc 1 736 0
 1043 000a 40F20003 		movw	r3, #:lower16:TFTSHIELD_1_SPIM_1_txBufferRead
 1044 000e C0F20003 		movt	r3, #:upper16:TFTSHIELD_1_SPIM_1_txBufferRead
 1045 0012 1B78     		ldrb	r3, [r3, #0]
 1046 0014 DAB2     		uxtb	r2, r3
 1047 0016 40F20003 		movw	r3, #:lower16:TFTSHIELD_1_SPIM_1_txBufferWrite
 1048 001a C0F20003 		movt	r3, #:upper16:TFTSHIELD_1_SPIM_1_txBufferWrite
 1049 001e 1B78     		ldrb	r3, [r3, #0]
 1050 0020 DBB2     		uxtb	r3, r3
 1051 0022 9A42     		cmp	r2, r3
 1052 0024 03D1     		bne	.L35
 737:.\Generated_Source\PSoC5/TFTSHIELD_1_SPIM_1.c ****         {
 738:.\Generated_Source\PSoC5/TFTSHIELD_1_SPIM_1.c ****             size = 0u;
 1053              		.loc 1 738 0
 1054 0026 4FF00003 		mov	r3, #0
 1055 002a FB71     		strb	r3, [r7, #7]
 1056 002c 2DE0     		b	.L36
 1057              	.L35:
 739:.\Generated_Source\PSoC5/TFTSHIELD_1_SPIM_1.c ****         }
 740:.\Generated_Source\PSoC5/TFTSHIELD_1_SPIM_1.c ****         else if(TFTSHIELD_1_SPIM_1_txBufferRead < TFTSHIELD_1_SPIM_1_txBufferWrite)
 1058              		.loc 1 740 0
 1059 002e 40F20003 		movw	r3, #:lower16:TFTSHIELD_1_SPIM_1_txBufferRead
 1060 0032 C0F20003 		movt	r3, #:upper16:TFTSHIELD_1_SPIM_1_txBufferRead
 1061 0036 1B78     		ldrb	r3, [r3, #0]
 1062 0038 DAB2     		uxtb	r2, r3
 1063 003a 40F20003 		movw	r3, #:lower16:TFTSHIELD_1_SPIM_1_txBufferWrite
 1064 003e C0F20003 		movt	r3, #:upper16:TFTSHIELD_1_SPIM_1_txBufferWrite
 1065 0042 1B78     		ldrb	r3, [r3, #0]
 1066 0044 DBB2     		uxtb	r3, r3
 1067 0046 9A42     		cmp	r2, r3
 1068 0048 0ED2     		bcs	.L37
 741:.\Generated_Source\PSoC5/TFTSHIELD_1_SPIM_1.c ****         {
 742:.\Generated_Source\PSoC5/TFTSHIELD_1_SPIM_1.c ****             size = (TFTSHIELD_1_SPIM_1_txBufferWrite - TFTSHIELD_1_SPIM_1_txBufferRead);
 1069              		.loc 1 742 0
 1070 004a 40F20003 		movw	r3, #:lower16:TFTSHIELD_1_SPIM_1_txBufferWrite
 1071 004e C0F20003 		movt	r3, #:upper16:TFTSHIELD_1_SPIM_1_txBufferWrite
 1072 0052 1B78     		ldrb	r3, [r3, #0]
 1073 0054 DAB2     		uxtb	r2, r3
 1074 0056 40F20003 		movw	r3, #:lower16:TFTSHIELD_1_SPIM_1_txBufferRead
 1075 005a C0F20003 		movt	r3, #:upper16:TFTSHIELD_1_SPIM_1_txBufferRead
 1076 005e 1B78     		ldrb	r3, [r3, #0]
 1077 0060 DBB2     		uxtb	r3, r3
 1078 0062 D31A     		subs	r3, r2, r3
 1079 0064 FB71     		strb	r3, [r7, #7]
ARM GAS  C:\Users\barror2\AppData\Local\Temp\ccyzxiTb.s 			page 33


 1080 0066 10E0     		b	.L36
 1081              	.L37:
 743:.\Generated_Source\PSoC5/TFTSHIELD_1_SPIM_1.c ****         }
 744:.\Generated_Source\PSoC5/TFTSHIELD_1_SPIM_1.c ****         else
 745:.\Generated_Source\PSoC5/TFTSHIELD_1_SPIM_1.c ****         {
 746:.\Generated_Source\PSoC5/TFTSHIELD_1_SPIM_1.c ****             size = (TFTSHIELD_1_SPIM_1_TX_BUFFER_SIZE - TFTSHIELD_1_SPIM_1_txBufferRead) + TFTSHIEL
 1082              		.loc 1 746 0
 1083 0068 40F20003 		movw	r3, #:lower16:TFTSHIELD_1_SPIM_1_txBufferWrite
 1084 006c C0F20003 		movt	r3, #:upper16:TFTSHIELD_1_SPIM_1_txBufferWrite
 1085 0070 1B78     		ldrb	r3, [r3, #0]
 1086 0072 DAB2     		uxtb	r2, r3
 1087 0074 40F20003 		movw	r3, #:lower16:TFTSHIELD_1_SPIM_1_txBufferRead
 1088 0078 C0F20003 		movt	r3, #:upper16:TFTSHIELD_1_SPIM_1_txBufferRead
 1089 007c 1B78     		ldrb	r3, [r3, #0]
 1090 007e DBB2     		uxtb	r3, r3
 1091 0080 D31A     		subs	r3, r2, r3
 1092 0082 DBB2     		uxtb	r3, r3
 1093 0084 03F10803 		add	r3, r3, #8
 1094 0088 FB71     		strb	r3, [r7, #7]
 1095              	.L36:
 747:.\Generated_Source\PSoC5/TFTSHIELD_1_SPIM_1.c ****         }
 748:.\Generated_Source\PSoC5/TFTSHIELD_1_SPIM_1.c **** 
 749:.\Generated_Source\PSoC5/TFTSHIELD_1_SPIM_1.c ****         TFTSHIELD_1_SPIM_1_EnableTxInt();
 1096              		.loc 1 749 0
 1097 008a FFF7FEFF 		bl	TFTSHIELD_1_SPIM_1_EnableTxInt
 750:.\Generated_Source\PSoC5/TFTSHIELD_1_SPIM_1.c **** 
 751:.\Generated_Source\PSoC5/TFTSHIELD_1_SPIM_1.c ****     #else
 752:.\Generated_Source\PSoC5/TFTSHIELD_1_SPIM_1.c **** 
 753:.\Generated_Source\PSoC5/TFTSHIELD_1_SPIM_1.c ****         size = TFTSHIELD_1_SPIM_1_TX_STATUS_REG;
 754:.\Generated_Source\PSoC5/TFTSHIELD_1_SPIM_1.c **** 
 755:.\Generated_Source\PSoC5/TFTSHIELD_1_SPIM_1.c ****         if(0u != (size & TFTSHIELD_1_SPIM_1_STS_TX_FIFO_EMPTY))
 756:.\Generated_Source\PSoC5/TFTSHIELD_1_SPIM_1.c ****         {
 757:.\Generated_Source\PSoC5/TFTSHIELD_1_SPIM_1.c ****             size = 0u;
 758:.\Generated_Source\PSoC5/TFTSHIELD_1_SPIM_1.c ****         }
 759:.\Generated_Source\PSoC5/TFTSHIELD_1_SPIM_1.c ****         else if(0u != (size & TFTSHIELD_1_SPIM_1_STS_TX_FIFO_NOT_FULL))
 760:.\Generated_Source\PSoC5/TFTSHIELD_1_SPIM_1.c ****         {
 761:.\Generated_Source\PSoC5/TFTSHIELD_1_SPIM_1.c ****             size = 1u;
 762:.\Generated_Source\PSoC5/TFTSHIELD_1_SPIM_1.c ****         }
 763:.\Generated_Source\PSoC5/TFTSHIELD_1_SPIM_1.c ****         else
 764:.\Generated_Source\PSoC5/TFTSHIELD_1_SPIM_1.c ****         {
 765:.\Generated_Source\PSoC5/TFTSHIELD_1_SPIM_1.c ****             size = TFTSHIELD_1_SPIM_1_FIFO_SIZE;
 766:.\Generated_Source\PSoC5/TFTSHIELD_1_SPIM_1.c ****         }
 767:.\Generated_Source\PSoC5/TFTSHIELD_1_SPIM_1.c **** 
 768:.\Generated_Source\PSoC5/TFTSHIELD_1_SPIM_1.c ****     #endif /* (TFTSHIELD_1_SPIM_1_TX_SOFTWARE_BUF_ENABLED) */
 769:.\Generated_Source\PSoC5/TFTSHIELD_1_SPIM_1.c **** 
 770:.\Generated_Source\PSoC5/TFTSHIELD_1_SPIM_1.c ****     return(size);
 1098              		.loc 1 770 0
 1099 008e FB79     		ldrb	r3, [r7, #7]	@ zero_extendqisi2
 771:.\Generated_Source\PSoC5/TFTSHIELD_1_SPIM_1.c **** }
 1100              		.loc 1 771 0
 1101 0090 1846     		mov	r0, r3
 1102 0092 07F10807 		add	r7, r7, #8
 1103 0096 BD46     		mov	sp, r7
 1104 0098 80BD     		pop	{r7, pc}
 1105              		.cfi_endproc
 1106              	.LFE15:
 1107              		.size	TFTSHIELD_1_SPIM_1_GetTxBufferSize, .-TFTSHIELD_1_SPIM_1_GetTxBufferSize
ARM GAS  C:\Users\barror2\AppData\Local\Temp\ccyzxiTb.s 			page 34


 1108 009a 00BF     		.section	.text.TFTSHIELD_1_SPIM_1_ClearRxBuffer,"ax",%progbits
 1109              		.align	2
 1110              		.global	TFTSHIELD_1_SPIM_1_ClearRxBuffer
 1111              		.thumb
 1112              		.thumb_func
 1113              		.type	TFTSHIELD_1_SPIM_1_ClearRxBuffer, %function
 1114              	TFTSHIELD_1_SPIM_1_ClearRxBuffer:
 1115              	.LFB16:
 772:.\Generated_Source\PSoC5/TFTSHIELD_1_SPIM_1.c **** 
 773:.\Generated_Source\PSoC5/TFTSHIELD_1_SPIM_1.c **** 
 774:.\Generated_Source\PSoC5/TFTSHIELD_1_SPIM_1.c **** /*******************************************************************************
 775:.\Generated_Source\PSoC5/TFTSHIELD_1_SPIM_1.c **** * Function Name: TFTSHIELD_1_SPIM_1_ClearRxBuffer
 776:.\Generated_Source\PSoC5/TFTSHIELD_1_SPIM_1.c **** ********************************************************************************
 777:.\Generated_Source\PSoC5/TFTSHIELD_1_SPIM_1.c **** *
 778:.\Generated_Source\PSoC5/TFTSHIELD_1_SPIM_1.c **** * Summary:
 779:.\Generated_Source\PSoC5/TFTSHIELD_1_SPIM_1.c **** *  Clear the RX RAM buffer by setting the read and write pointers both to zero.
 780:.\Generated_Source\PSoC5/TFTSHIELD_1_SPIM_1.c **** *
 781:.\Generated_Source\PSoC5/TFTSHIELD_1_SPIM_1.c **** * Parameters:
 782:.\Generated_Source\PSoC5/TFTSHIELD_1_SPIM_1.c **** *  None.
 783:.\Generated_Source\PSoC5/TFTSHIELD_1_SPIM_1.c **** *
 784:.\Generated_Source\PSoC5/TFTSHIELD_1_SPIM_1.c **** * Return:
 785:.\Generated_Source\PSoC5/TFTSHIELD_1_SPIM_1.c **** *  None.
 786:.\Generated_Source\PSoC5/TFTSHIELD_1_SPIM_1.c **** *
 787:.\Generated_Source\PSoC5/TFTSHIELD_1_SPIM_1.c **** * Global variables:
 788:.\Generated_Source\PSoC5/TFTSHIELD_1_SPIM_1.c **** *  TFTSHIELD_1_SPIM_1_rxBufferWrite - used for the account of the bytes which
 789:.\Generated_Source\PSoC5/TFTSHIELD_1_SPIM_1.c **** *  have been written down in the RX software buffer, modified every function
 790:.\Generated_Source\PSoC5/TFTSHIELD_1_SPIM_1.c **** *  call - resets to zero.
 791:.\Generated_Source\PSoC5/TFTSHIELD_1_SPIM_1.c **** *  TFTSHIELD_1_SPIM_1_rxBufferRead - used for the account of the bytes which
 792:.\Generated_Source\PSoC5/TFTSHIELD_1_SPIM_1.c **** *  have been read from the RX software buffer, modified every function call -
 793:.\Generated_Source\PSoC5/TFTSHIELD_1_SPIM_1.c **** *  resets to zero.
 794:.\Generated_Source\PSoC5/TFTSHIELD_1_SPIM_1.c **** *
 795:.\Generated_Source\PSoC5/TFTSHIELD_1_SPIM_1.c **** * Theory:
 796:.\Generated_Source\PSoC5/TFTSHIELD_1_SPIM_1.c **** *  Setting the pointers to zero makes the system believe there is no data to
 797:.\Generated_Source\PSoC5/TFTSHIELD_1_SPIM_1.c **** *  read and writing will resume at address 0 overwriting any data that may have
 798:.\Generated_Source\PSoC5/TFTSHIELD_1_SPIM_1.c **** *  remained in the RAM.
 799:.\Generated_Source\PSoC5/TFTSHIELD_1_SPIM_1.c **** *
 800:.\Generated_Source\PSoC5/TFTSHIELD_1_SPIM_1.c **** * Side Effects:
 801:.\Generated_Source\PSoC5/TFTSHIELD_1_SPIM_1.c **** *  Any received data not read from the RAM buffer will be lost when overwritten.
 802:.\Generated_Source\PSoC5/TFTSHIELD_1_SPIM_1.c **** *
 803:.\Generated_Source\PSoC5/TFTSHIELD_1_SPIM_1.c **** * Reentrant:
 804:.\Generated_Source\PSoC5/TFTSHIELD_1_SPIM_1.c **** *  No.
 805:.\Generated_Source\PSoC5/TFTSHIELD_1_SPIM_1.c **** *
 806:.\Generated_Source\PSoC5/TFTSHIELD_1_SPIM_1.c **** *******************************************************************************/
 807:.\Generated_Source\PSoC5/TFTSHIELD_1_SPIM_1.c **** void TFTSHIELD_1_SPIM_1_ClearRxBuffer(void) 
 808:.\Generated_Source\PSoC5/TFTSHIELD_1_SPIM_1.c **** {
 1116              		.loc 1 808 0
 1117              		.cfi_startproc
 1118              		@ args = 0, pretend = 0, frame = 0
 1119              		@ frame_needed = 1, uses_anonymous_args = 0
 1120 0000 80B5     		push	{r7, lr}
 1121              	.LCFI42:
 1122              		.cfi_def_cfa_offset 8
 1123              		.cfi_offset 7, -8
 1124              		.cfi_offset 14, -4
 1125 0002 00AF     		add	r7, sp, #0
 1126              	.LCFI43:
 1127              		.cfi_def_cfa_register 7
ARM GAS  C:\Users\barror2\AppData\Local\Temp\ccyzxiTb.s 			page 35


 809:.\Generated_Source\PSoC5/TFTSHIELD_1_SPIM_1.c ****     /* Clear Hardware RX FIFO */
 810:.\Generated_Source\PSoC5/TFTSHIELD_1_SPIM_1.c ****     while(0u !=(TFTSHIELD_1_SPIM_1_RX_STATUS_REG & TFTSHIELD_1_SPIM_1_STS_RX_FIFO_NOT_EMPTY))
 1128              		.loc 1 810 0
 1129 0004 04E0     		b	.L40
 1130              	.L41:
 811:.\Generated_Source\PSoC5/TFTSHIELD_1_SPIM_1.c ****     {
 812:.\Generated_Source\PSoC5/TFTSHIELD_1_SPIM_1.c ****         (void) CY_GET_REG8(TFTSHIELD_1_SPIM_1_RXDATA_PTR);
 1131              		.loc 1 812 0
 1132 0006 46F25E43 		movw	r3, #25694
 1133 000a C4F20003 		movt	r3, 16384
 1134 000e 1B78     		ldrb	r3, [r3, #0]
 1135              	.L40:
 810:.\Generated_Source\PSoC5/TFTSHIELD_1_SPIM_1.c ****     while(0u !=(TFTSHIELD_1_SPIM_1_RX_STATUS_REG & TFTSHIELD_1_SPIM_1_STS_RX_FIFO_NOT_EMPTY))
 1136              		.loc 1 810 0 discriminator 1
 1137 0010 46F26C43 		movw	r3, #25708
 1138 0014 C4F20003 		movt	r3, 16384
 1139 0018 1B78     		ldrb	r3, [r3, #0]
 1140 001a DBB2     		uxtb	r3, r3
 1141 001c 03F02003 		and	r3, r3, #32
 1142 0020 002B     		cmp	r3, #0
 1143 0022 F0D1     		bne	.L41
 813:.\Generated_Source\PSoC5/TFTSHIELD_1_SPIM_1.c ****     }
 814:.\Generated_Source\PSoC5/TFTSHIELD_1_SPIM_1.c **** 
 815:.\Generated_Source\PSoC5/TFTSHIELD_1_SPIM_1.c ****     #if(TFTSHIELD_1_SPIM_1_RX_SOFTWARE_BUF_ENABLED)
 816:.\Generated_Source\PSoC5/TFTSHIELD_1_SPIM_1.c ****         /* Disable RX interrupt to protect global veriables */
 817:.\Generated_Source\PSoC5/TFTSHIELD_1_SPIM_1.c ****         TFTSHIELD_1_SPIM_1_DisableRxInt();
 1144              		.loc 1 817 0
 1145 0024 FFF7FEFF 		bl	TFTSHIELD_1_SPIM_1_DisableRxInt
 818:.\Generated_Source\PSoC5/TFTSHIELD_1_SPIM_1.c **** 
 819:.\Generated_Source\PSoC5/TFTSHIELD_1_SPIM_1.c ****         TFTSHIELD_1_SPIM_1_rxBufferFull  = 0u;
 1146              		.loc 1 819 0
 1147 0028 40F20003 		movw	r3, #:lower16:TFTSHIELD_1_SPIM_1_rxBufferFull
 1148 002c C0F20003 		movt	r3, #:upper16:TFTSHIELD_1_SPIM_1_rxBufferFull
 1149 0030 4FF00002 		mov	r2, #0
 1150 0034 1A70     		strb	r2, [r3, #0]
 820:.\Generated_Source\PSoC5/TFTSHIELD_1_SPIM_1.c ****         TFTSHIELD_1_SPIM_1_rxBufferRead  = 0u;
 1151              		.loc 1 820 0
 1152 0036 40F20003 		movw	r3, #:lower16:TFTSHIELD_1_SPIM_1_rxBufferRead
 1153 003a C0F20003 		movt	r3, #:upper16:TFTSHIELD_1_SPIM_1_rxBufferRead
 1154 003e 4FF00002 		mov	r2, #0
 1155 0042 1A70     		strb	r2, [r3, #0]
 821:.\Generated_Source\PSoC5/TFTSHIELD_1_SPIM_1.c ****         TFTSHIELD_1_SPIM_1_rxBufferWrite = 0u;
 1156              		.loc 1 821 0
 1157 0044 40F20003 		movw	r3, #:lower16:TFTSHIELD_1_SPIM_1_rxBufferWrite
 1158 0048 C0F20003 		movt	r3, #:upper16:TFTSHIELD_1_SPIM_1_rxBufferWrite
 1159 004c 4FF00002 		mov	r2, #0
 1160 0050 1A70     		strb	r2, [r3, #0]
 822:.\Generated_Source\PSoC5/TFTSHIELD_1_SPIM_1.c **** 
 823:.\Generated_Source\PSoC5/TFTSHIELD_1_SPIM_1.c ****         TFTSHIELD_1_SPIM_1_EnableRxInt();
 1161              		.loc 1 823 0
 1162 0052 FFF7FEFF 		bl	TFTSHIELD_1_SPIM_1_EnableRxInt
 824:.\Generated_Source\PSoC5/TFTSHIELD_1_SPIM_1.c ****     #endif /* (TFTSHIELD_1_SPIM_1_RX_SOFTWARE_BUF_ENABLED) */
 825:.\Generated_Source\PSoC5/TFTSHIELD_1_SPIM_1.c **** }
 1163              		.loc 1 825 0
 1164 0056 80BD     		pop	{r7, pc}
 1165              		.cfi_endproc
 1166              	.LFE16:
ARM GAS  C:\Users\barror2\AppData\Local\Temp\ccyzxiTb.s 			page 36


 1167              		.size	TFTSHIELD_1_SPIM_1_ClearRxBuffer, .-TFTSHIELD_1_SPIM_1_ClearRxBuffer
 1168              		.section	.text.TFTSHIELD_1_SPIM_1_ClearTxBuffer,"ax",%progbits
 1169              		.align	2
 1170              		.global	TFTSHIELD_1_SPIM_1_ClearTxBuffer
 1171              		.thumb
 1172              		.thumb_func
 1173              		.type	TFTSHIELD_1_SPIM_1_ClearTxBuffer, %function
 1174              	TFTSHIELD_1_SPIM_1_ClearTxBuffer:
 1175              	.LFB17:
 826:.\Generated_Source\PSoC5/TFTSHIELD_1_SPIM_1.c **** 
 827:.\Generated_Source\PSoC5/TFTSHIELD_1_SPIM_1.c **** 
 828:.\Generated_Source\PSoC5/TFTSHIELD_1_SPIM_1.c **** /*******************************************************************************
 829:.\Generated_Source\PSoC5/TFTSHIELD_1_SPIM_1.c **** * Function Name: TFTSHIELD_1_SPIM_1_ClearTxBuffer
 830:.\Generated_Source\PSoC5/TFTSHIELD_1_SPIM_1.c **** ********************************************************************************
 831:.\Generated_Source\PSoC5/TFTSHIELD_1_SPIM_1.c **** *
 832:.\Generated_Source\PSoC5/TFTSHIELD_1_SPIM_1.c **** * Summary:
 833:.\Generated_Source\PSoC5/TFTSHIELD_1_SPIM_1.c **** *  Clear the TX RAM buffer by setting the read and write pointers both to zero.
 834:.\Generated_Source\PSoC5/TFTSHIELD_1_SPIM_1.c **** *
 835:.\Generated_Source\PSoC5/TFTSHIELD_1_SPIM_1.c **** * Parameters:
 836:.\Generated_Source\PSoC5/TFTSHIELD_1_SPIM_1.c **** *  None.
 837:.\Generated_Source\PSoC5/TFTSHIELD_1_SPIM_1.c **** *
 838:.\Generated_Source\PSoC5/TFTSHIELD_1_SPIM_1.c **** * Return:
 839:.\Generated_Source\PSoC5/TFTSHIELD_1_SPIM_1.c **** *  None.
 840:.\Generated_Source\PSoC5/TFTSHIELD_1_SPIM_1.c **** *
 841:.\Generated_Source\PSoC5/TFTSHIELD_1_SPIM_1.c **** * Global variables:
 842:.\Generated_Source\PSoC5/TFTSHIELD_1_SPIM_1.c **** *  TFTSHIELD_1_SPIM_1_txBufferWrite - used for the account of the bytes which
 843:.\Generated_Source\PSoC5/TFTSHIELD_1_SPIM_1.c **** *  have been written down in the TX software buffer, modified every function
 844:.\Generated_Source\PSoC5/TFTSHIELD_1_SPIM_1.c **** *  call - resets to zero.
 845:.\Generated_Source\PSoC5/TFTSHIELD_1_SPIM_1.c **** *  TFTSHIELD_1_SPIM_1_txBufferRead - used for the account of the bytes which
 846:.\Generated_Source\PSoC5/TFTSHIELD_1_SPIM_1.c **** *  have been read from the TX software buffer, modified every function call -
 847:.\Generated_Source\PSoC5/TFTSHIELD_1_SPIM_1.c **** *  resets to zero.
 848:.\Generated_Source\PSoC5/TFTSHIELD_1_SPIM_1.c **** *
 849:.\Generated_Source\PSoC5/TFTSHIELD_1_SPIM_1.c **** * Theory:
 850:.\Generated_Source\PSoC5/TFTSHIELD_1_SPIM_1.c **** *  Setting the pointers to zero makes the system believe there is no data to
 851:.\Generated_Source\PSoC5/TFTSHIELD_1_SPIM_1.c **** *  read and writing will resume at address 0 overwriting any data that may have
 852:.\Generated_Source\PSoC5/TFTSHIELD_1_SPIM_1.c **** *  remained in the RAM.
 853:.\Generated_Source\PSoC5/TFTSHIELD_1_SPIM_1.c **** *
 854:.\Generated_Source\PSoC5/TFTSHIELD_1_SPIM_1.c **** * Side Effects:
 855:.\Generated_Source\PSoC5/TFTSHIELD_1_SPIM_1.c **** *  Any data not yet transmitted from the RAM buffer will be lost when
 856:.\Generated_Source\PSoC5/TFTSHIELD_1_SPIM_1.c **** *  overwritten.
 857:.\Generated_Source\PSoC5/TFTSHIELD_1_SPIM_1.c **** *
 858:.\Generated_Source\PSoC5/TFTSHIELD_1_SPIM_1.c **** * Reentrant:
 859:.\Generated_Source\PSoC5/TFTSHIELD_1_SPIM_1.c **** *  No.
 860:.\Generated_Source\PSoC5/TFTSHIELD_1_SPIM_1.c **** *
 861:.\Generated_Source\PSoC5/TFTSHIELD_1_SPIM_1.c **** *******************************************************************************/
 862:.\Generated_Source\PSoC5/TFTSHIELD_1_SPIM_1.c **** void TFTSHIELD_1_SPIM_1_ClearTxBuffer(void) 
 863:.\Generated_Source\PSoC5/TFTSHIELD_1_SPIM_1.c **** {
 1176              		.loc 1 863 0
 1177              		.cfi_startproc
 1178              		@ args = 0, pretend = 0, frame = 8
 1179              		@ frame_needed = 1, uses_anonymous_args = 0
 1180 0000 80B5     		push	{r7, lr}
 1181              	.LCFI44:
 1182              		.cfi_def_cfa_offset 8
 1183              		.cfi_offset 7, -8
 1184              		.cfi_offset 14, -4
 1185 0002 82B0     		sub	sp, sp, #8
ARM GAS  C:\Users\barror2\AppData\Local\Temp\ccyzxiTb.s 			page 37


 1186              	.LCFI45:
 1187              		.cfi_def_cfa_offset 16
 1188 0004 00AF     		add	r7, sp, #0
 1189              	.LCFI46:
 1190              		.cfi_def_cfa_register 7
 864:.\Generated_Source\PSoC5/TFTSHIELD_1_SPIM_1.c ****     uint8 enableInterrupts;
 865:.\Generated_Source\PSoC5/TFTSHIELD_1_SPIM_1.c **** 
 866:.\Generated_Source\PSoC5/TFTSHIELD_1_SPIM_1.c ****     enableInterrupts = CyEnterCriticalSection();
 1191              		.loc 1 866 0
 1192 0006 FFF7FEFF 		bl	CyEnterCriticalSection
 1193 000a 0346     		mov	r3, r0
 1194 000c FB71     		strb	r3, [r7, #7]
 867:.\Generated_Source\PSoC5/TFTSHIELD_1_SPIM_1.c ****     /* Clear TX FIFO */
 868:.\Generated_Source\PSoC5/TFTSHIELD_1_SPIM_1.c ****     TFTSHIELD_1_SPIM_1_AUX_CONTROL_DP0_REG |= ((uint8)  TFTSHIELD_1_SPIM_1_TX_FIFO_CLR);
 1195              		.loc 1 868 0
 1196 000e 46F29E43 		movw	r3, #25758
 1197 0012 C4F20003 		movt	r3, 16384
 1198 0016 46F29E42 		movw	r2, #25758
 1199 001a C4F20002 		movt	r2, 16384
 1200 001e 1278     		ldrb	r2, [r2, #0]
 1201 0020 D2B2     		uxtb	r2, r2
 1202 0022 42F00102 		orr	r2, r2, #1
 1203 0026 D2B2     		uxtb	r2, r2
 1204 0028 1A70     		strb	r2, [r3, #0]
 869:.\Generated_Source\PSoC5/TFTSHIELD_1_SPIM_1.c ****     TFTSHIELD_1_SPIM_1_AUX_CONTROL_DP0_REG &= ((uint8) ~TFTSHIELD_1_SPIM_1_TX_FIFO_CLR);
 1205              		.loc 1 869 0
 1206 002a 46F29E43 		movw	r3, #25758
 1207 002e C4F20003 		movt	r3, 16384
 1208 0032 46F29E42 		movw	r2, #25758
 1209 0036 C4F20002 		movt	r2, 16384
 1210 003a 1278     		ldrb	r2, [r2, #0]
 1211 003c D2B2     		uxtb	r2, r2
 1212 003e 22F00102 		bic	r2, r2, #1
 1213 0042 D2B2     		uxtb	r2, r2
 1214 0044 1A70     		strb	r2, [r3, #0]
 870:.\Generated_Source\PSoC5/TFTSHIELD_1_SPIM_1.c **** 
 871:.\Generated_Source\PSoC5/TFTSHIELD_1_SPIM_1.c ****     #if(TFTSHIELD_1_SPIM_1_USE_SECOND_DATAPATH)
 872:.\Generated_Source\PSoC5/TFTSHIELD_1_SPIM_1.c ****         /* Clear TX FIFO for 2nd Datapath */
 873:.\Generated_Source\PSoC5/TFTSHIELD_1_SPIM_1.c ****         TFTSHIELD_1_SPIM_1_AUX_CONTROL_DP1_REG |= ((uint8)  TFTSHIELD_1_SPIM_1_TX_FIFO_CLR);
 874:.\Generated_Source\PSoC5/TFTSHIELD_1_SPIM_1.c ****         TFTSHIELD_1_SPIM_1_AUX_CONTROL_DP1_REG &= ((uint8) ~TFTSHIELD_1_SPIM_1_TX_FIFO_CLR);
 875:.\Generated_Source\PSoC5/TFTSHIELD_1_SPIM_1.c ****     #endif /* (TFTSHIELD_1_SPIM_1_USE_SECOND_DATAPATH) */
 876:.\Generated_Source\PSoC5/TFTSHIELD_1_SPIM_1.c ****     CyExitCriticalSection(enableInterrupts);
 1215              		.loc 1 876 0
 1216 0046 FB79     		ldrb	r3, [r7, #7]	@ zero_extendqisi2
 1217 0048 1846     		mov	r0, r3
 1218 004a FFF7FEFF 		bl	CyExitCriticalSection
 877:.\Generated_Source\PSoC5/TFTSHIELD_1_SPIM_1.c **** 
 878:.\Generated_Source\PSoC5/TFTSHIELD_1_SPIM_1.c ****     #if(TFTSHIELD_1_SPIM_1_TX_SOFTWARE_BUF_ENABLED)
 879:.\Generated_Source\PSoC5/TFTSHIELD_1_SPIM_1.c ****         /* Disable TX interrupt to protect global veriables */
 880:.\Generated_Source\PSoC5/TFTSHIELD_1_SPIM_1.c ****         TFTSHIELD_1_SPIM_1_DisableTxInt();
 1219              		.loc 1 880 0
 1220 004e FFF7FEFF 		bl	TFTSHIELD_1_SPIM_1_DisableTxInt
 881:.\Generated_Source\PSoC5/TFTSHIELD_1_SPIM_1.c **** 
 882:.\Generated_Source\PSoC5/TFTSHIELD_1_SPIM_1.c ****         TFTSHIELD_1_SPIM_1_txBufferFull  = 0u;
 1221              		.loc 1 882 0
 1222 0052 40F20003 		movw	r3, #:lower16:TFTSHIELD_1_SPIM_1_txBufferFull
 1223 0056 C0F20003 		movt	r3, #:upper16:TFTSHIELD_1_SPIM_1_txBufferFull
ARM GAS  C:\Users\barror2\AppData\Local\Temp\ccyzxiTb.s 			page 38


 1224 005a 4FF00002 		mov	r2, #0
 1225 005e 1A70     		strb	r2, [r3, #0]
 883:.\Generated_Source\PSoC5/TFTSHIELD_1_SPIM_1.c ****         TFTSHIELD_1_SPIM_1_txBufferRead  = 0u;
 1226              		.loc 1 883 0
 1227 0060 40F20003 		movw	r3, #:lower16:TFTSHIELD_1_SPIM_1_txBufferRead
 1228 0064 C0F20003 		movt	r3, #:upper16:TFTSHIELD_1_SPIM_1_txBufferRead
 1229 0068 4FF00002 		mov	r2, #0
 1230 006c 1A70     		strb	r2, [r3, #0]
 884:.\Generated_Source\PSoC5/TFTSHIELD_1_SPIM_1.c ****         TFTSHIELD_1_SPIM_1_txBufferWrite = 0u;
 1231              		.loc 1 884 0
 1232 006e 40F20003 		movw	r3, #:lower16:TFTSHIELD_1_SPIM_1_txBufferWrite
 1233 0072 C0F20003 		movt	r3, #:upper16:TFTSHIELD_1_SPIM_1_txBufferWrite
 1234 0076 4FF00002 		mov	r2, #0
 1235 007a 1A70     		strb	r2, [r3, #0]
 885:.\Generated_Source\PSoC5/TFTSHIELD_1_SPIM_1.c **** 
 886:.\Generated_Source\PSoC5/TFTSHIELD_1_SPIM_1.c ****         /* Buffer is EMPTY: disable TX FIFO NOT FULL interrupt */
 887:.\Generated_Source\PSoC5/TFTSHIELD_1_SPIM_1.c ****         TFTSHIELD_1_SPIM_1_TX_STATUS_MASK_REG &= ((uint8) ~TFTSHIELD_1_SPIM_1_STS_TX_FIFO_NOT_FULL)
 1236              		.loc 1 887 0
 1237 007c 46F28E43 		movw	r3, #25742
 1238 0080 C4F20003 		movt	r3, 16384
 1239 0084 46F28E42 		movw	r2, #25742
 1240 0088 C4F20002 		movt	r2, 16384
 1241 008c 1278     		ldrb	r2, [r2, #0]
 1242 008e D2B2     		uxtb	r2, r2
 1243 0090 22F00402 		bic	r2, r2, #4
 1244 0094 D2B2     		uxtb	r2, r2
 1245 0096 1A70     		strb	r2, [r3, #0]
 888:.\Generated_Source\PSoC5/TFTSHIELD_1_SPIM_1.c **** 
 889:.\Generated_Source\PSoC5/TFTSHIELD_1_SPIM_1.c ****         TFTSHIELD_1_SPIM_1_EnableTxInt();
 1246              		.loc 1 889 0
 1247 0098 FFF7FEFF 		bl	TFTSHIELD_1_SPIM_1_EnableTxInt
 890:.\Generated_Source\PSoC5/TFTSHIELD_1_SPIM_1.c ****     #endif /* (TFTSHIELD_1_SPIM_1_TX_SOFTWARE_BUF_ENABLED) */
 891:.\Generated_Source\PSoC5/TFTSHIELD_1_SPIM_1.c **** }
 1248              		.loc 1 891 0
 1249 009c 07F10807 		add	r7, r7, #8
 1250 00a0 BD46     		mov	sp, r7
 1251 00a2 80BD     		pop	{r7, pc}
 1252              		.cfi_endproc
 1253              	.LFE17:
 1254              		.size	TFTSHIELD_1_SPIM_1_ClearTxBuffer, .-TFTSHIELD_1_SPIM_1_ClearTxBuffer
 1255              		.section	.text.TFTSHIELD_1_SPIM_1_PutArray,"ax",%progbits
 1256              		.align	2
 1257              		.global	TFTSHIELD_1_SPIM_1_PutArray
 1258              		.thumb
 1259              		.thumb_func
 1260              		.type	TFTSHIELD_1_SPIM_1_PutArray, %function
 1261              	TFTSHIELD_1_SPIM_1_PutArray:
 1262              	.LFB18:
 892:.\Generated_Source\PSoC5/TFTSHIELD_1_SPIM_1.c **** 
 893:.\Generated_Source\PSoC5/TFTSHIELD_1_SPIM_1.c **** 
 894:.\Generated_Source\PSoC5/TFTSHIELD_1_SPIM_1.c **** #if(0u != TFTSHIELD_1_SPIM_1_BIDIRECTIONAL_MODE)
 895:.\Generated_Source\PSoC5/TFTSHIELD_1_SPIM_1.c ****     /*******************************************************************************
 896:.\Generated_Source\PSoC5/TFTSHIELD_1_SPIM_1.c ****     * Function Name: TFTSHIELD_1_SPIM_1_TxEnable
 897:.\Generated_Source\PSoC5/TFTSHIELD_1_SPIM_1.c ****     ********************************************************************************
 898:.\Generated_Source\PSoC5/TFTSHIELD_1_SPIM_1.c ****     *
 899:.\Generated_Source\PSoC5/TFTSHIELD_1_SPIM_1.c ****     * Summary:
 900:.\Generated_Source\PSoC5/TFTSHIELD_1_SPIM_1.c ****     *  If the SPI master is configured to use a single bi-directional pin then this
ARM GAS  C:\Users\barror2\AppData\Local\Temp\ccyzxiTb.s 			page 39


 901:.\Generated_Source\PSoC5/TFTSHIELD_1_SPIM_1.c ****     *  will set the bi-directional pin to transmit.
 902:.\Generated_Source\PSoC5/TFTSHIELD_1_SPIM_1.c ****     *
 903:.\Generated_Source\PSoC5/TFTSHIELD_1_SPIM_1.c ****     * Parameters:
 904:.\Generated_Source\PSoC5/TFTSHIELD_1_SPIM_1.c ****     *  None.
 905:.\Generated_Source\PSoC5/TFTSHIELD_1_SPIM_1.c ****     *
 906:.\Generated_Source\PSoC5/TFTSHIELD_1_SPIM_1.c ****     * Return:
 907:.\Generated_Source\PSoC5/TFTSHIELD_1_SPIM_1.c ****     *  None.
 908:.\Generated_Source\PSoC5/TFTSHIELD_1_SPIM_1.c ****     *
 909:.\Generated_Source\PSoC5/TFTSHIELD_1_SPIM_1.c ****     *******************************************************************************/
 910:.\Generated_Source\PSoC5/TFTSHIELD_1_SPIM_1.c ****     void TFTSHIELD_1_SPIM_1_TxEnable(void) 
 911:.\Generated_Source\PSoC5/TFTSHIELD_1_SPIM_1.c ****     {
 912:.\Generated_Source\PSoC5/TFTSHIELD_1_SPIM_1.c ****         TFTSHIELD_1_SPIM_1_CONTROL_REG |= TFTSHIELD_1_SPIM_1_CTRL_TX_SIGNAL_EN;
 913:.\Generated_Source\PSoC5/TFTSHIELD_1_SPIM_1.c ****     }
 914:.\Generated_Source\PSoC5/TFTSHIELD_1_SPIM_1.c **** 
 915:.\Generated_Source\PSoC5/TFTSHIELD_1_SPIM_1.c **** 
 916:.\Generated_Source\PSoC5/TFTSHIELD_1_SPIM_1.c ****     /*******************************************************************************
 917:.\Generated_Source\PSoC5/TFTSHIELD_1_SPIM_1.c ****     * Function Name: TFTSHIELD_1_SPIM_1_TxDisable
 918:.\Generated_Source\PSoC5/TFTSHIELD_1_SPIM_1.c ****     ********************************************************************************
 919:.\Generated_Source\PSoC5/TFTSHIELD_1_SPIM_1.c ****     *
 920:.\Generated_Source\PSoC5/TFTSHIELD_1_SPIM_1.c ****     * Summary:
 921:.\Generated_Source\PSoC5/TFTSHIELD_1_SPIM_1.c ****     *  If the SPI master is configured to use a single bi-directional pin then this
 922:.\Generated_Source\PSoC5/TFTSHIELD_1_SPIM_1.c ****     *  will set the bi-directional pin to receive.
 923:.\Generated_Source\PSoC5/TFTSHIELD_1_SPIM_1.c ****     *
 924:.\Generated_Source\PSoC5/TFTSHIELD_1_SPIM_1.c ****     * Parameters:
 925:.\Generated_Source\PSoC5/TFTSHIELD_1_SPIM_1.c ****     *  None.
 926:.\Generated_Source\PSoC5/TFTSHIELD_1_SPIM_1.c ****     *
 927:.\Generated_Source\PSoC5/TFTSHIELD_1_SPIM_1.c ****     * Return:
 928:.\Generated_Source\PSoC5/TFTSHIELD_1_SPIM_1.c ****     *  None.
 929:.\Generated_Source\PSoC5/TFTSHIELD_1_SPIM_1.c ****     *
 930:.\Generated_Source\PSoC5/TFTSHIELD_1_SPIM_1.c ****     *******************************************************************************/
 931:.\Generated_Source\PSoC5/TFTSHIELD_1_SPIM_1.c ****     void TFTSHIELD_1_SPIM_1_TxDisable(void) 
 932:.\Generated_Source\PSoC5/TFTSHIELD_1_SPIM_1.c ****     {
 933:.\Generated_Source\PSoC5/TFTSHIELD_1_SPIM_1.c ****         TFTSHIELD_1_SPIM_1_CONTROL_REG &= ((uint8) ~TFTSHIELD_1_SPIM_1_CTRL_TX_SIGNAL_EN);
 934:.\Generated_Source\PSoC5/TFTSHIELD_1_SPIM_1.c ****     }
 935:.\Generated_Source\PSoC5/TFTSHIELD_1_SPIM_1.c **** 
 936:.\Generated_Source\PSoC5/TFTSHIELD_1_SPIM_1.c **** #endif /* (0u != TFTSHIELD_1_SPIM_1_BIDIRECTIONAL_MODE) */
 937:.\Generated_Source\PSoC5/TFTSHIELD_1_SPIM_1.c **** 
 938:.\Generated_Source\PSoC5/TFTSHIELD_1_SPIM_1.c **** 
 939:.\Generated_Source\PSoC5/TFTSHIELD_1_SPIM_1.c **** /*******************************************************************************
 940:.\Generated_Source\PSoC5/TFTSHIELD_1_SPIM_1.c **** * Function Name: TFTSHIELD_1_SPIM_1_PutArray
 941:.\Generated_Source\PSoC5/TFTSHIELD_1_SPIM_1.c **** ********************************************************************************
 942:.\Generated_Source\PSoC5/TFTSHIELD_1_SPIM_1.c **** *
 943:.\Generated_Source\PSoC5/TFTSHIELD_1_SPIM_1.c **** * Summary:
 944:.\Generated_Source\PSoC5/TFTSHIELD_1_SPIM_1.c **** *  Write available data from ROM/RAM to the TX buffer while space is available
 945:.\Generated_Source\PSoC5/TFTSHIELD_1_SPIM_1.c **** *  in the TX buffer. Keep trying until all data is passed to the TX buffer.
 946:.\Generated_Source\PSoC5/TFTSHIELD_1_SPIM_1.c **** *
 947:.\Generated_Source\PSoC5/TFTSHIELD_1_SPIM_1.c **** * Parameters:
 948:.\Generated_Source\PSoC5/TFTSHIELD_1_SPIM_1.c **** *  *buffer: Pointer to the location in RAM containing the data to send
 949:.\Generated_Source\PSoC5/TFTSHIELD_1_SPIM_1.c **** *  byteCount: The number of bytes to move to the transmit buffer.
 950:.\Generated_Source\PSoC5/TFTSHIELD_1_SPIM_1.c **** *
 951:.\Generated_Source\PSoC5/TFTSHIELD_1_SPIM_1.c **** * Return:
 952:.\Generated_Source\PSoC5/TFTSHIELD_1_SPIM_1.c **** *  None.
 953:.\Generated_Source\PSoC5/TFTSHIELD_1_SPIM_1.c **** *
 954:.\Generated_Source\PSoC5/TFTSHIELD_1_SPIM_1.c **** * Side Effects:
 955:.\Generated_Source\PSoC5/TFTSHIELD_1_SPIM_1.c **** *  Will stay in this routine until all data has been sent.  May get locked in
 956:.\Generated_Source\PSoC5/TFTSHIELD_1_SPIM_1.c **** *  this loop if data is not being initiated by the master if there is not
 957:.\Generated_Source\PSoC5/TFTSHIELD_1_SPIM_1.c **** *  enough room in the TX FIFO.
ARM GAS  C:\Users\barror2\AppData\Local\Temp\ccyzxiTb.s 			page 40


 958:.\Generated_Source\PSoC5/TFTSHIELD_1_SPIM_1.c **** *
 959:.\Generated_Source\PSoC5/TFTSHIELD_1_SPIM_1.c **** * Reentrant:
 960:.\Generated_Source\PSoC5/TFTSHIELD_1_SPIM_1.c **** *  No.
 961:.\Generated_Source\PSoC5/TFTSHIELD_1_SPIM_1.c **** *
 962:.\Generated_Source\PSoC5/TFTSHIELD_1_SPIM_1.c **** *******************************************************************************/
 963:.\Generated_Source\PSoC5/TFTSHIELD_1_SPIM_1.c **** void TFTSHIELD_1_SPIM_1_PutArray(const uint8 buffer[], uint8 byteCount)
 964:.\Generated_Source\PSoC5/TFTSHIELD_1_SPIM_1.c ****                                                                           
 965:.\Generated_Source\PSoC5/TFTSHIELD_1_SPIM_1.c **** {
 1263              		.loc 1 965 0
 1264              		.cfi_startproc
 1265              		@ args = 0, pretend = 0, frame = 16
 1266              		@ frame_needed = 1, uses_anonymous_args = 0
 1267 0000 80B5     		push	{r7, lr}
 1268              	.LCFI47:
 1269              		.cfi_def_cfa_offset 8
 1270              		.cfi_offset 7, -8
 1271              		.cfi_offset 14, -4
 1272 0002 84B0     		sub	sp, sp, #16
 1273              	.LCFI48:
 1274              		.cfi_def_cfa_offset 24
 1275 0004 00AF     		add	r7, sp, #0
 1276              	.LCFI49:
 1277              		.cfi_def_cfa_register 7
 1278 0006 7860     		str	r0, [r7, #4]
 1279 0008 0B46     		mov	r3, r1
 1280 000a FB70     		strb	r3, [r7, #3]
 966:.\Generated_Source\PSoC5/TFTSHIELD_1_SPIM_1.c ****     uint8 bufIndex;
 967:.\Generated_Source\PSoC5/TFTSHIELD_1_SPIM_1.c **** 
 968:.\Generated_Source\PSoC5/TFTSHIELD_1_SPIM_1.c ****     bufIndex = 0u;
 1281              		.loc 1 968 0
 1282 000c 4FF00003 		mov	r3, #0
 1283 0010 FB73     		strb	r3, [r7, #15]
 969:.\Generated_Source\PSoC5/TFTSHIELD_1_SPIM_1.c **** 
 970:.\Generated_Source\PSoC5/TFTSHIELD_1_SPIM_1.c ****     while(byteCount > 0u)
 1284              		.loc 1 970 0
 1285 0012 0EE0     		b	.L44
 1286              	.L45:
 971:.\Generated_Source\PSoC5/TFTSHIELD_1_SPIM_1.c ****     {
 972:.\Generated_Source\PSoC5/TFTSHIELD_1_SPIM_1.c ****         TFTSHIELD_1_SPIM_1_WriteTxData(buffer[bufIndex]);
 1287              		.loc 1 972 0
 1288 0014 FB7B     		ldrb	r3, [r7, #15]	@ zero_extendqisi2
 1289 0016 7A68     		ldr	r2, [r7, #4]
 1290 0018 D318     		adds	r3, r2, r3
 1291 001a 1B78     		ldrb	r3, [r3, #0]	@ zero_extendqisi2
 1292 001c 1846     		mov	r0, r3
 1293 001e FFF7FEFF 		bl	TFTSHIELD_1_SPIM_1_WriteTxData
 973:.\Generated_Source\PSoC5/TFTSHIELD_1_SPIM_1.c ****         bufIndex++;
 1294              		.loc 1 973 0
 1295 0022 FB7B     		ldrb	r3, [r7, #15]
 1296 0024 03F10103 		add	r3, r3, #1
 1297 0028 FB73     		strb	r3, [r7, #15]
 974:.\Generated_Source\PSoC5/TFTSHIELD_1_SPIM_1.c ****         byteCount--;
 1298              		.loc 1 974 0
 1299 002a FB78     		ldrb	r3, [r7, #3]
 1300 002c 03F1FF33 		add	r3, r3, #-1
 1301 0030 FB70     		strb	r3, [r7, #3]
 1302              	.L44:
ARM GAS  C:\Users\barror2\AppData\Local\Temp\ccyzxiTb.s 			page 41


 970:.\Generated_Source\PSoC5/TFTSHIELD_1_SPIM_1.c ****     while(byteCount > 0u)
 1303              		.loc 1 970 0 discriminator 1
 1304 0032 FB78     		ldrb	r3, [r7, #3]	@ zero_extendqisi2
 1305 0034 002B     		cmp	r3, #0
 1306 0036 EDD1     		bne	.L45
 975:.\Generated_Source\PSoC5/TFTSHIELD_1_SPIM_1.c ****     }
 976:.\Generated_Source\PSoC5/TFTSHIELD_1_SPIM_1.c **** }
 1307              		.loc 1 976 0
 1308 0038 07F11007 		add	r7, r7, #16
 1309 003c BD46     		mov	sp, r7
 1310 003e 80BD     		pop	{r7, pc}
 1311              		.cfi_endproc
 1312              	.LFE18:
 1313              		.size	TFTSHIELD_1_SPIM_1_PutArray, .-TFTSHIELD_1_SPIM_1_PutArray
 1314              		.section	.text.TFTSHIELD_1_SPIM_1_ClearFIFO,"ax",%progbits
 1315              		.align	2
 1316              		.global	TFTSHIELD_1_SPIM_1_ClearFIFO
 1317              		.thumb
 1318              		.thumb_func
 1319              		.type	TFTSHIELD_1_SPIM_1_ClearFIFO, %function
 1320              	TFTSHIELD_1_SPIM_1_ClearFIFO:
 1321              	.LFB19:
 977:.\Generated_Source\PSoC5/TFTSHIELD_1_SPIM_1.c **** 
 978:.\Generated_Source\PSoC5/TFTSHIELD_1_SPIM_1.c **** 
 979:.\Generated_Source\PSoC5/TFTSHIELD_1_SPIM_1.c **** /*******************************************************************************
 980:.\Generated_Source\PSoC5/TFTSHIELD_1_SPIM_1.c **** * Function Name: TFTSHIELD_1_SPIM_1_ClearFIFO
 981:.\Generated_Source\PSoC5/TFTSHIELD_1_SPIM_1.c **** ********************************************************************************
 982:.\Generated_Source\PSoC5/TFTSHIELD_1_SPIM_1.c **** *
 983:.\Generated_Source\PSoC5/TFTSHIELD_1_SPIM_1.c **** * Summary:
 984:.\Generated_Source\PSoC5/TFTSHIELD_1_SPIM_1.c **** *  Clear the RX and TX FIFO's of all data for a fresh start.
 985:.\Generated_Source\PSoC5/TFTSHIELD_1_SPIM_1.c **** *
 986:.\Generated_Source\PSoC5/TFTSHIELD_1_SPIM_1.c **** * Parameters:
 987:.\Generated_Source\PSoC5/TFTSHIELD_1_SPIM_1.c **** *  None.
 988:.\Generated_Source\PSoC5/TFTSHIELD_1_SPIM_1.c **** *
 989:.\Generated_Source\PSoC5/TFTSHIELD_1_SPIM_1.c **** * Return:
 990:.\Generated_Source\PSoC5/TFTSHIELD_1_SPIM_1.c **** *  None.
 991:.\Generated_Source\PSoC5/TFTSHIELD_1_SPIM_1.c **** *
 992:.\Generated_Source\PSoC5/TFTSHIELD_1_SPIM_1.c **** * Side Effects:
 993:.\Generated_Source\PSoC5/TFTSHIELD_1_SPIM_1.c **** *  Clear status register of the component.
 994:.\Generated_Source\PSoC5/TFTSHIELD_1_SPIM_1.c **** *
 995:.\Generated_Source\PSoC5/TFTSHIELD_1_SPIM_1.c **** *******************************************************************************/
 996:.\Generated_Source\PSoC5/TFTSHIELD_1_SPIM_1.c **** void TFTSHIELD_1_SPIM_1_ClearFIFO(void) 
 997:.\Generated_Source\PSoC5/TFTSHIELD_1_SPIM_1.c **** {
 1322              		.loc 1 997 0
 1323              		.cfi_startproc
 1324              		@ args = 0, pretend = 0, frame = 8
 1325              		@ frame_needed = 1, uses_anonymous_args = 0
 1326 0000 80B5     		push	{r7, lr}
 1327              	.LCFI50:
 1328              		.cfi_def_cfa_offset 8
 1329              		.cfi_offset 7, -8
 1330              		.cfi_offset 14, -4
 1331 0002 82B0     		sub	sp, sp, #8
 1332              	.LCFI51:
 1333              		.cfi_def_cfa_offset 16
 1334 0004 00AF     		add	r7, sp, #0
 1335              	.LCFI52:
ARM GAS  C:\Users\barror2\AppData\Local\Temp\ccyzxiTb.s 			page 42


 1336              		.cfi_def_cfa_register 7
 998:.\Generated_Source\PSoC5/TFTSHIELD_1_SPIM_1.c ****     uint8 enableInterrupts;
 999:.\Generated_Source\PSoC5/TFTSHIELD_1_SPIM_1.c **** 
1000:.\Generated_Source\PSoC5/TFTSHIELD_1_SPIM_1.c ****     /* Clear Hardware RX FIFO */
1001:.\Generated_Source\PSoC5/TFTSHIELD_1_SPIM_1.c ****     while(0u !=(TFTSHIELD_1_SPIM_1_RX_STATUS_REG & TFTSHIELD_1_SPIM_1_STS_RX_FIFO_NOT_EMPTY))
 1337              		.loc 1 1001 0
 1338 0006 04E0     		b	.L47
 1339              	.L48:
1002:.\Generated_Source\PSoC5/TFTSHIELD_1_SPIM_1.c ****     {
1003:.\Generated_Source\PSoC5/TFTSHIELD_1_SPIM_1.c ****         (void) CY_GET_REG8(TFTSHIELD_1_SPIM_1_RXDATA_PTR);
 1340              		.loc 1 1003 0
 1341 0008 46F25E43 		movw	r3, #25694
 1342 000c C4F20003 		movt	r3, 16384
 1343 0010 1B78     		ldrb	r3, [r3, #0]
 1344              	.L47:
1001:.\Generated_Source\PSoC5/TFTSHIELD_1_SPIM_1.c ****     while(0u !=(TFTSHIELD_1_SPIM_1_RX_STATUS_REG & TFTSHIELD_1_SPIM_1_STS_RX_FIFO_NOT_EMPTY))
 1345              		.loc 1 1001 0 discriminator 1
 1346 0012 46F26C43 		movw	r3, #25708
 1347 0016 C4F20003 		movt	r3, 16384
 1348 001a 1B78     		ldrb	r3, [r3, #0]
 1349 001c DBB2     		uxtb	r3, r3
 1350 001e 03F02003 		and	r3, r3, #32
 1351 0022 002B     		cmp	r3, #0
 1352 0024 F0D1     		bne	.L48
1004:.\Generated_Source\PSoC5/TFTSHIELD_1_SPIM_1.c ****     }
1005:.\Generated_Source\PSoC5/TFTSHIELD_1_SPIM_1.c **** 
1006:.\Generated_Source\PSoC5/TFTSHIELD_1_SPIM_1.c ****     enableInterrupts = CyEnterCriticalSection();
 1353              		.loc 1 1006 0
 1354 0026 FFF7FEFF 		bl	CyEnterCriticalSection
 1355 002a 0346     		mov	r3, r0
 1356 002c FB71     		strb	r3, [r7, #7]
1007:.\Generated_Source\PSoC5/TFTSHIELD_1_SPIM_1.c ****     /* Clear TX FIFO */
1008:.\Generated_Source\PSoC5/TFTSHIELD_1_SPIM_1.c ****     TFTSHIELD_1_SPIM_1_AUX_CONTROL_DP0_REG |= ((uint8)  TFTSHIELD_1_SPIM_1_TX_FIFO_CLR);
 1357              		.loc 1 1008 0
 1358 002e 46F29E43 		movw	r3, #25758
 1359 0032 C4F20003 		movt	r3, 16384
 1360 0036 46F29E42 		movw	r2, #25758
 1361 003a C4F20002 		movt	r2, 16384
 1362 003e 1278     		ldrb	r2, [r2, #0]
 1363 0040 D2B2     		uxtb	r2, r2
 1364 0042 42F00102 		orr	r2, r2, #1
 1365 0046 D2B2     		uxtb	r2, r2
 1366 0048 1A70     		strb	r2, [r3, #0]
1009:.\Generated_Source\PSoC5/TFTSHIELD_1_SPIM_1.c ****     TFTSHIELD_1_SPIM_1_AUX_CONTROL_DP0_REG &= ((uint8) ~TFTSHIELD_1_SPIM_1_TX_FIFO_CLR);
 1367              		.loc 1 1009 0
 1368 004a 46F29E43 		movw	r3, #25758
 1369 004e C4F20003 		movt	r3, 16384
 1370 0052 46F29E42 		movw	r2, #25758
 1371 0056 C4F20002 		movt	r2, 16384
 1372 005a 1278     		ldrb	r2, [r2, #0]
 1373 005c D2B2     		uxtb	r2, r2
 1374 005e 22F00102 		bic	r2, r2, #1
 1375 0062 D2B2     		uxtb	r2, r2
 1376 0064 1A70     		strb	r2, [r3, #0]
1010:.\Generated_Source\PSoC5/TFTSHIELD_1_SPIM_1.c **** 
1011:.\Generated_Source\PSoC5/TFTSHIELD_1_SPIM_1.c ****     #if(TFTSHIELD_1_SPIM_1_USE_SECOND_DATAPATH)
1012:.\Generated_Source\PSoC5/TFTSHIELD_1_SPIM_1.c ****         /* Clear TX FIFO for 2nd Datapath */
ARM GAS  C:\Users\barror2\AppData\Local\Temp\ccyzxiTb.s 			page 43


1013:.\Generated_Source\PSoC5/TFTSHIELD_1_SPIM_1.c ****         TFTSHIELD_1_SPIM_1_AUX_CONTROL_DP1_REG |= ((uint8)  TFTSHIELD_1_SPIM_1_TX_FIFO_CLR);
1014:.\Generated_Source\PSoC5/TFTSHIELD_1_SPIM_1.c ****         TFTSHIELD_1_SPIM_1_AUX_CONTROL_DP1_REG &= ((uint8) ~TFTSHIELD_1_SPIM_1_TX_FIFO_CLR);
1015:.\Generated_Source\PSoC5/TFTSHIELD_1_SPIM_1.c ****     #endif /* (TFTSHIELD_1_SPIM_1_USE_SECOND_DATAPATH) */
1016:.\Generated_Source\PSoC5/TFTSHIELD_1_SPIM_1.c ****     CyExitCriticalSection(enableInterrupts);
 1377              		.loc 1 1016 0
 1378 0066 FB79     		ldrb	r3, [r7, #7]	@ zero_extendqisi2
 1379 0068 1846     		mov	r0, r3
 1380 006a FFF7FEFF 		bl	CyExitCriticalSection
1017:.\Generated_Source\PSoC5/TFTSHIELD_1_SPIM_1.c **** }
 1381              		.loc 1 1017 0
 1382 006e 07F10807 		add	r7, r7, #8
 1383 0072 BD46     		mov	sp, r7
 1384 0074 80BD     		pop	{r7, pc}
 1385              		.cfi_endproc
 1386              	.LFE19:
 1387              		.size	TFTSHIELD_1_SPIM_1_ClearFIFO, .-TFTSHIELD_1_SPIM_1_ClearFIFO
 1388 0076 00BF     		.section	.text.TFTSHIELD_1_SPIM_1_EnableInt,"ax",%progbits
 1389              		.align	2
 1390              		.global	TFTSHIELD_1_SPIM_1_EnableInt
 1391              		.thumb
 1392              		.thumb_func
 1393              		.type	TFTSHIELD_1_SPIM_1_EnableInt, %function
 1394              	TFTSHIELD_1_SPIM_1_EnableInt:
 1395              	.LFB20:
1018:.\Generated_Source\PSoC5/TFTSHIELD_1_SPIM_1.c **** 
1019:.\Generated_Source\PSoC5/TFTSHIELD_1_SPIM_1.c **** 
1020:.\Generated_Source\PSoC5/TFTSHIELD_1_SPIM_1.c **** /* Following functions are for version Compatibility, they are obsolete.
1021:.\Generated_Source\PSoC5/TFTSHIELD_1_SPIM_1.c **** *  Please do not use it in new projects.
1022:.\Generated_Source\PSoC5/TFTSHIELD_1_SPIM_1.c **** */
1023:.\Generated_Source\PSoC5/TFTSHIELD_1_SPIM_1.c **** 
1024:.\Generated_Source\PSoC5/TFTSHIELD_1_SPIM_1.c **** 
1025:.\Generated_Source\PSoC5/TFTSHIELD_1_SPIM_1.c **** /*******************************************************************************
1026:.\Generated_Source\PSoC5/TFTSHIELD_1_SPIM_1.c **** * Function Name: TFTSHIELD_1_SPIM_1_EnableInt
1027:.\Generated_Source\PSoC5/TFTSHIELD_1_SPIM_1.c **** ********************************************************************************
1028:.\Generated_Source\PSoC5/TFTSHIELD_1_SPIM_1.c **** *
1029:.\Generated_Source\PSoC5/TFTSHIELD_1_SPIM_1.c **** * Summary:
1030:.\Generated_Source\PSoC5/TFTSHIELD_1_SPIM_1.c **** *  Enable internal interrupt generation.
1031:.\Generated_Source\PSoC5/TFTSHIELD_1_SPIM_1.c **** *
1032:.\Generated_Source\PSoC5/TFTSHIELD_1_SPIM_1.c **** * Parameters:
1033:.\Generated_Source\PSoC5/TFTSHIELD_1_SPIM_1.c **** *  None.
1034:.\Generated_Source\PSoC5/TFTSHIELD_1_SPIM_1.c **** *
1035:.\Generated_Source\PSoC5/TFTSHIELD_1_SPIM_1.c **** * Return:
1036:.\Generated_Source\PSoC5/TFTSHIELD_1_SPIM_1.c **** *  None.
1037:.\Generated_Source\PSoC5/TFTSHIELD_1_SPIM_1.c **** *
1038:.\Generated_Source\PSoC5/TFTSHIELD_1_SPIM_1.c **** * Theory:
1039:.\Generated_Source\PSoC5/TFTSHIELD_1_SPIM_1.c **** *  Enable the internal interrupt output -or- the interrupt component itself.
1040:.\Generated_Source\PSoC5/TFTSHIELD_1_SPIM_1.c **** *
1041:.\Generated_Source\PSoC5/TFTSHIELD_1_SPIM_1.c **** *******************************************************************************/
1042:.\Generated_Source\PSoC5/TFTSHIELD_1_SPIM_1.c **** void TFTSHIELD_1_SPIM_1_EnableInt(void) 
1043:.\Generated_Source\PSoC5/TFTSHIELD_1_SPIM_1.c **** {
 1396              		.loc 1 1043 0
 1397              		.cfi_startproc
 1398              		@ args = 0, pretend = 0, frame = 0
 1399              		@ frame_needed = 1, uses_anonymous_args = 0
 1400 0000 80B5     		push	{r7, lr}
 1401              	.LCFI53:
 1402              		.cfi_def_cfa_offset 8
ARM GAS  C:\Users\barror2\AppData\Local\Temp\ccyzxiTb.s 			page 44


 1403              		.cfi_offset 7, -8
 1404              		.cfi_offset 14, -4
 1405 0002 00AF     		add	r7, sp, #0
 1406              	.LCFI54:
 1407              		.cfi_def_cfa_register 7
1044:.\Generated_Source\PSoC5/TFTSHIELD_1_SPIM_1.c ****     TFTSHIELD_1_SPIM_1_EnableRxInt();
 1408              		.loc 1 1044 0
 1409 0004 FFF7FEFF 		bl	TFTSHIELD_1_SPIM_1_EnableRxInt
1045:.\Generated_Source\PSoC5/TFTSHIELD_1_SPIM_1.c ****     TFTSHIELD_1_SPIM_1_EnableTxInt();
 1410              		.loc 1 1045 0
 1411 0008 FFF7FEFF 		bl	TFTSHIELD_1_SPIM_1_EnableTxInt
1046:.\Generated_Source\PSoC5/TFTSHIELD_1_SPIM_1.c **** }
 1412              		.loc 1 1046 0
 1413 000c 80BD     		pop	{r7, pc}
 1414              		.cfi_endproc
 1415              	.LFE20:
 1416              		.size	TFTSHIELD_1_SPIM_1_EnableInt, .-TFTSHIELD_1_SPIM_1_EnableInt
 1417 000e 00BF     		.section	.text.TFTSHIELD_1_SPIM_1_DisableInt,"ax",%progbits
 1418              		.align	2
 1419              		.global	TFTSHIELD_1_SPIM_1_DisableInt
 1420              		.thumb
 1421              		.thumb_func
 1422              		.type	TFTSHIELD_1_SPIM_1_DisableInt, %function
 1423              	TFTSHIELD_1_SPIM_1_DisableInt:
 1424              	.LFB21:
1047:.\Generated_Source\PSoC5/TFTSHIELD_1_SPIM_1.c **** 
1048:.\Generated_Source\PSoC5/TFTSHIELD_1_SPIM_1.c **** 
1049:.\Generated_Source\PSoC5/TFTSHIELD_1_SPIM_1.c **** /*******************************************************************************
1050:.\Generated_Source\PSoC5/TFTSHIELD_1_SPIM_1.c **** * Function Name: TFTSHIELD_1_SPIM_1_DisableInt
1051:.\Generated_Source\PSoC5/TFTSHIELD_1_SPIM_1.c **** ********************************************************************************
1052:.\Generated_Source\PSoC5/TFTSHIELD_1_SPIM_1.c **** *
1053:.\Generated_Source\PSoC5/TFTSHIELD_1_SPIM_1.c **** * Summary:
1054:.\Generated_Source\PSoC5/TFTSHIELD_1_SPIM_1.c **** *  Disable internal interrupt generation.
1055:.\Generated_Source\PSoC5/TFTSHIELD_1_SPIM_1.c **** *
1056:.\Generated_Source\PSoC5/TFTSHIELD_1_SPIM_1.c **** * Parameters:
1057:.\Generated_Source\PSoC5/TFTSHIELD_1_SPIM_1.c **** *  None.
1058:.\Generated_Source\PSoC5/TFTSHIELD_1_SPIM_1.c **** *
1059:.\Generated_Source\PSoC5/TFTSHIELD_1_SPIM_1.c **** * Return:
1060:.\Generated_Source\PSoC5/TFTSHIELD_1_SPIM_1.c **** *  None.
1061:.\Generated_Source\PSoC5/TFTSHIELD_1_SPIM_1.c **** *
1062:.\Generated_Source\PSoC5/TFTSHIELD_1_SPIM_1.c **** * Theory:
1063:.\Generated_Source\PSoC5/TFTSHIELD_1_SPIM_1.c **** *  Disable the internal interrupt output -or- the interrupt component itself.
1064:.\Generated_Source\PSoC5/TFTSHIELD_1_SPIM_1.c **** *
1065:.\Generated_Source\PSoC5/TFTSHIELD_1_SPIM_1.c **** *******************************************************************************/
1066:.\Generated_Source\PSoC5/TFTSHIELD_1_SPIM_1.c **** void TFTSHIELD_1_SPIM_1_DisableInt(void) 
1067:.\Generated_Source\PSoC5/TFTSHIELD_1_SPIM_1.c **** {
 1425              		.loc 1 1067 0
 1426              		.cfi_startproc
 1427              		@ args = 0, pretend = 0, frame = 0
 1428              		@ frame_needed = 1, uses_anonymous_args = 0
 1429 0000 80B5     		push	{r7, lr}
 1430              	.LCFI55:
 1431              		.cfi_def_cfa_offset 8
 1432              		.cfi_offset 7, -8
 1433              		.cfi_offset 14, -4
 1434 0002 00AF     		add	r7, sp, #0
 1435              	.LCFI56:
ARM GAS  C:\Users\barror2\AppData\Local\Temp\ccyzxiTb.s 			page 45


 1436              		.cfi_def_cfa_register 7
1068:.\Generated_Source\PSoC5/TFTSHIELD_1_SPIM_1.c ****     TFTSHIELD_1_SPIM_1_DisableTxInt();
 1437              		.loc 1 1068 0
 1438 0004 FFF7FEFF 		bl	TFTSHIELD_1_SPIM_1_DisableTxInt
1069:.\Generated_Source\PSoC5/TFTSHIELD_1_SPIM_1.c ****     TFTSHIELD_1_SPIM_1_DisableRxInt();
 1439              		.loc 1 1069 0
 1440 0008 FFF7FEFF 		bl	TFTSHIELD_1_SPIM_1_DisableRxInt
1070:.\Generated_Source\PSoC5/TFTSHIELD_1_SPIM_1.c **** }
 1441              		.loc 1 1070 0
 1442 000c 80BD     		pop	{r7, pc}
 1443              		.cfi_endproc
 1444              	.LFE21:
 1445              		.size	TFTSHIELD_1_SPIM_1_DisableInt, .-TFTSHIELD_1_SPIM_1_DisableInt
 1446 000e 00BF     		.section	.text.TFTSHIELD_1_SPIM_1_SetInterruptMode,"ax",%progbits
 1447              		.align	2
 1448              		.global	TFTSHIELD_1_SPIM_1_SetInterruptMode
 1449              		.thumb
 1450              		.thumb_func
 1451              		.type	TFTSHIELD_1_SPIM_1_SetInterruptMode, %function
 1452              	TFTSHIELD_1_SPIM_1_SetInterruptMode:
 1453              	.LFB22:
1071:.\Generated_Source\PSoC5/TFTSHIELD_1_SPIM_1.c **** 
1072:.\Generated_Source\PSoC5/TFTSHIELD_1_SPIM_1.c **** 
1073:.\Generated_Source\PSoC5/TFTSHIELD_1_SPIM_1.c **** /*******************************************************************************
1074:.\Generated_Source\PSoC5/TFTSHIELD_1_SPIM_1.c **** * Function Name: TFTSHIELD_1_SPIM_1_SetInterruptMode
1075:.\Generated_Source\PSoC5/TFTSHIELD_1_SPIM_1.c **** ********************************************************************************
1076:.\Generated_Source\PSoC5/TFTSHIELD_1_SPIM_1.c **** *
1077:.\Generated_Source\PSoC5/TFTSHIELD_1_SPIM_1.c **** * Summary:
1078:.\Generated_Source\PSoC5/TFTSHIELD_1_SPIM_1.c **** *  Configure which status bits trigger an interrupt event.
1079:.\Generated_Source\PSoC5/TFTSHIELD_1_SPIM_1.c **** *
1080:.\Generated_Source\PSoC5/TFTSHIELD_1_SPIM_1.c **** * Parameters:
1081:.\Generated_Source\PSoC5/TFTSHIELD_1_SPIM_1.c **** *  intSrc: An or'd combination of the desired status bit masks (defined in the
1082:.\Generated_Source\PSoC5/TFTSHIELD_1_SPIM_1.c **** *  header file).
1083:.\Generated_Source\PSoC5/TFTSHIELD_1_SPIM_1.c **** *
1084:.\Generated_Source\PSoC5/TFTSHIELD_1_SPIM_1.c **** * Return:
1085:.\Generated_Source\PSoC5/TFTSHIELD_1_SPIM_1.c **** *  None.
1086:.\Generated_Source\PSoC5/TFTSHIELD_1_SPIM_1.c **** *
1087:.\Generated_Source\PSoC5/TFTSHIELD_1_SPIM_1.c **** * Theory:
1088:.\Generated_Source\PSoC5/TFTSHIELD_1_SPIM_1.c **** *  Enables the output of specific status bits to the interrupt controller.
1089:.\Generated_Source\PSoC5/TFTSHIELD_1_SPIM_1.c **** *
1090:.\Generated_Source\PSoC5/TFTSHIELD_1_SPIM_1.c **** *******************************************************************************/
1091:.\Generated_Source\PSoC5/TFTSHIELD_1_SPIM_1.c **** void TFTSHIELD_1_SPIM_1_SetInterruptMode(uint8 intSrc) 
1092:.\Generated_Source\PSoC5/TFTSHIELD_1_SPIM_1.c **** {
 1454              		.loc 1 1092 0
 1455              		.cfi_startproc
 1456              		@ args = 0, pretend = 0, frame = 8
 1457              		@ frame_needed = 1, uses_anonymous_args = 0
 1458              		@ link register save eliminated.
 1459 0000 80B4     		push	{r7}
 1460              	.LCFI57:
 1461              		.cfi_def_cfa_offset 4
 1462              		.cfi_offset 7, -4
 1463 0002 83B0     		sub	sp, sp, #12
 1464              	.LCFI58:
 1465              		.cfi_def_cfa_offset 16
 1466 0004 00AF     		add	r7, sp, #0
 1467              	.LCFI59:
ARM GAS  C:\Users\barror2\AppData\Local\Temp\ccyzxiTb.s 			page 46


 1468              		.cfi_def_cfa_register 7
 1469 0006 0346     		mov	r3, r0
 1470 0008 FB71     		strb	r3, [r7, #7]
1093:.\Generated_Source\PSoC5/TFTSHIELD_1_SPIM_1.c ****     TFTSHIELD_1_SPIM_1_TX_STATUS_MASK_REG  = (intSrc & ((uint8) ~TFTSHIELD_1_SPIM_1_STS_SPI_IDLE));
 1471              		.loc 1 1093 0
 1472 000a 46F28E43 		movw	r3, #25742
 1473 000e C4F20003 		movt	r3, 16384
 1474 0012 FA79     		ldrb	r2, [r7, #7]
 1475 0014 22F01002 		bic	r2, r2, #16
 1476 0018 D2B2     		uxtb	r2, r2
 1477 001a 1A70     		strb	r2, [r3, #0]
1094:.\Generated_Source\PSoC5/TFTSHIELD_1_SPIM_1.c ****     TFTSHIELD_1_SPIM_1_RX_STATUS_MASK_REG  =  intSrc;
 1478              		.loc 1 1094 0
 1479 001c 46F28C43 		movw	r3, #25740
 1480 0020 C4F20003 		movt	r3, 16384
 1481 0024 FA79     		ldrb	r2, [r7, #7]
 1482 0026 1A70     		strb	r2, [r3, #0]
1095:.\Generated_Source\PSoC5/TFTSHIELD_1_SPIM_1.c **** }
 1483              		.loc 1 1095 0
 1484 0028 07F10C07 		add	r7, r7, #12
 1485 002c BD46     		mov	sp, r7
 1486 002e 80BC     		pop	{r7}
 1487 0030 7047     		bx	lr
 1488              		.cfi_endproc
 1489              	.LFE22:
 1490              		.size	TFTSHIELD_1_SPIM_1_SetInterruptMode, .-TFTSHIELD_1_SPIM_1_SetInterruptMode
 1491 0032 00BF     		.section	.text.TFTSHIELD_1_SPIM_1_ReadStatus,"ax",%progbits
 1492              		.align	2
 1493              		.global	TFTSHIELD_1_SPIM_1_ReadStatus
 1494              		.thumb
 1495              		.thumb_func
 1496              		.type	TFTSHIELD_1_SPIM_1_ReadStatus, %function
 1497              	TFTSHIELD_1_SPIM_1_ReadStatus:
 1498              	.LFB23:
1096:.\Generated_Source\PSoC5/TFTSHIELD_1_SPIM_1.c **** 
1097:.\Generated_Source\PSoC5/TFTSHIELD_1_SPIM_1.c **** 
1098:.\Generated_Source\PSoC5/TFTSHIELD_1_SPIM_1.c **** /*******************************************************************************
1099:.\Generated_Source\PSoC5/TFTSHIELD_1_SPIM_1.c **** * Function Name: TFTSHIELD_1_SPIM_1_ReadStatus
1100:.\Generated_Source\PSoC5/TFTSHIELD_1_SPIM_1.c **** ********************************************************************************
1101:.\Generated_Source\PSoC5/TFTSHIELD_1_SPIM_1.c **** *
1102:.\Generated_Source\PSoC5/TFTSHIELD_1_SPIM_1.c **** * Summary:
1103:.\Generated_Source\PSoC5/TFTSHIELD_1_SPIM_1.c **** *  Read the status register for the component.
1104:.\Generated_Source\PSoC5/TFTSHIELD_1_SPIM_1.c **** *
1105:.\Generated_Source\PSoC5/TFTSHIELD_1_SPIM_1.c **** * Parameters:
1106:.\Generated_Source\PSoC5/TFTSHIELD_1_SPIM_1.c **** *  None.
1107:.\Generated_Source\PSoC5/TFTSHIELD_1_SPIM_1.c **** *
1108:.\Generated_Source\PSoC5/TFTSHIELD_1_SPIM_1.c **** * Return:
1109:.\Generated_Source\PSoC5/TFTSHIELD_1_SPIM_1.c **** *  Contents of the status register.
1110:.\Generated_Source\PSoC5/TFTSHIELD_1_SPIM_1.c **** *
1111:.\Generated_Source\PSoC5/TFTSHIELD_1_SPIM_1.c **** * Global variables:
1112:.\Generated_Source\PSoC5/TFTSHIELD_1_SPIM_1.c **** *  TFTSHIELD_1_SPIM_1_swStatus - used to store in software status register,
1113:.\Generated_Source\PSoC5/TFTSHIELD_1_SPIM_1.c **** *  modified every function call - resets to zero.
1114:.\Generated_Source\PSoC5/TFTSHIELD_1_SPIM_1.c **** *
1115:.\Generated_Source\PSoC5/TFTSHIELD_1_SPIM_1.c **** * Theory:
1116:.\Generated_Source\PSoC5/TFTSHIELD_1_SPIM_1.c **** *  Allows the user and the API to read the status register for error detection
1117:.\Generated_Source\PSoC5/TFTSHIELD_1_SPIM_1.c **** *  and flow control.
1118:.\Generated_Source\PSoC5/TFTSHIELD_1_SPIM_1.c **** *
ARM GAS  C:\Users\barror2\AppData\Local\Temp\ccyzxiTb.s 			page 47


1119:.\Generated_Source\PSoC5/TFTSHIELD_1_SPIM_1.c **** * Side Effects:
1120:.\Generated_Source\PSoC5/TFTSHIELD_1_SPIM_1.c **** *  Clear status register of the component.
1121:.\Generated_Source\PSoC5/TFTSHIELD_1_SPIM_1.c **** *
1122:.\Generated_Source\PSoC5/TFTSHIELD_1_SPIM_1.c **** * Reentrant:
1123:.\Generated_Source\PSoC5/TFTSHIELD_1_SPIM_1.c **** *  No.
1124:.\Generated_Source\PSoC5/TFTSHIELD_1_SPIM_1.c **** *
1125:.\Generated_Source\PSoC5/TFTSHIELD_1_SPIM_1.c **** *******************************************************************************/
1126:.\Generated_Source\PSoC5/TFTSHIELD_1_SPIM_1.c **** uint8 TFTSHIELD_1_SPIM_1_ReadStatus(void) 
1127:.\Generated_Source\PSoC5/TFTSHIELD_1_SPIM_1.c **** {
 1499              		.loc 1 1127 0
 1500              		.cfi_startproc
 1501              		@ args = 0, pretend = 0, frame = 8
 1502              		@ frame_needed = 1, uses_anonymous_args = 0
 1503 0000 80B5     		push	{r7, lr}
 1504              	.LCFI60:
 1505              		.cfi_def_cfa_offset 8
 1506              		.cfi_offset 7, -8
 1507              		.cfi_offset 14, -4
 1508 0002 82B0     		sub	sp, sp, #8
 1509              	.LCFI61:
 1510              		.cfi_def_cfa_offset 16
 1511 0004 00AF     		add	r7, sp, #0
 1512              	.LCFI62:
 1513              		.cfi_def_cfa_register 7
1128:.\Generated_Source\PSoC5/TFTSHIELD_1_SPIM_1.c ****     uint8 tmpStatus;
1129:.\Generated_Source\PSoC5/TFTSHIELD_1_SPIM_1.c **** 
1130:.\Generated_Source\PSoC5/TFTSHIELD_1_SPIM_1.c ****     #if(TFTSHIELD_1_SPIM_1_TX_SOFTWARE_BUF_ENABLED || TFTSHIELD_1_SPIM_1_RX_SOFTWARE_BUF_ENABLED)
1131:.\Generated_Source\PSoC5/TFTSHIELD_1_SPIM_1.c **** 
1132:.\Generated_Source\PSoC5/TFTSHIELD_1_SPIM_1.c ****         TFTSHIELD_1_SPIM_1_DisableInt();
 1514              		.loc 1 1132 0
 1515 0006 FFF7FEFF 		bl	TFTSHIELD_1_SPIM_1_DisableInt
1133:.\Generated_Source\PSoC5/TFTSHIELD_1_SPIM_1.c **** 
1134:.\Generated_Source\PSoC5/TFTSHIELD_1_SPIM_1.c ****         tmpStatus  = TFTSHIELD_1_SPIM_1_GET_STATUS_RX(TFTSHIELD_1_SPIM_1_swStatusRx);
 1516              		.loc 1 1134 0
 1517 000a 46F26C43 		movw	r3, #25708
 1518 000e C4F20003 		movt	r3, 16384
 1519 0012 1B78     		ldrb	r3, [r3, #0]
 1520 0014 DAB2     		uxtb	r2, r3
 1521 0016 40F20003 		movw	r3, #:lower16:TFTSHIELD_1_SPIM_1_swStatusRx
 1522 001a C0F20003 		movt	r3, #:upper16:TFTSHIELD_1_SPIM_1_swStatusRx
 1523 001e 1B78     		ldrb	r3, [r3, #0]
 1524 0020 DBB2     		uxtb	r3, r3
 1525 0022 03F04003 		and	r3, r3, #64
 1526 0026 DBB2     		uxtb	r3, r3
 1527 0028 1343     		orrs	r3, r3, r2
 1528 002a FB71     		strb	r3, [r7, #7]
1135:.\Generated_Source\PSoC5/TFTSHIELD_1_SPIM_1.c ****         tmpStatus |= TFTSHIELD_1_SPIM_1_GET_STATUS_TX(TFTSHIELD_1_SPIM_1_swStatusTx);
 1529              		.loc 1 1135 0
 1530 002c 46F26E43 		movw	r3, #25710
 1531 0030 C4F20003 		movt	r3, 16384
 1532 0034 1B78     		ldrb	r3, [r3, #0]
 1533 0036 DAB2     		uxtb	r2, r3
 1534 0038 40F20003 		movw	r3, #:lower16:TFTSHIELD_1_SPIM_1_swStatusTx
 1535 003c C0F20003 		movt	r3, #:upper16:TFTSHIELD_1_SPIM_1_swStatusTx
 1536 0040 1B78     		ldrb	r3, [r3, #0]
 1537 0042 DBB2     		uxtb	r3, r3
 1538 0044 03F00903 		and	r3, r3, #9
ARM GAS  C:\Users\barror2\AppData\Local\Temp\ccyzxiTb.s 			page 48


 1539 0048 DBB2     		uxtb	r3, r3
 1540 004a 1343     		orrs	r3, r3, r2
 1541 004c DAB2     		uxtb	r2, r3
 1542 004e FB79     		ldrb	r3, [r7, #7]
 1543 0050 1343     		orrs	r3, r3, r2
 1544 0052 FB71     		strb	r3, [r7, #7]
1136:.\Generated_Source\PSoC5/TFTSHIELD_1_SPIM_1.c ****         tmpStatus &= ((uint8) ~TFTSHIELD_1_SPIM_1_STS_SPI_IDLE);
 1545              		.loc 1 1136 0
 1546 0054 FB79     		ldrb	r3, [r7, #7]
 1547 0056 23F01003 		bic	r3, r3, #16
 1548 005a FB71     		strb	r3, [r7, #7]
1137:.\Generated_Source\PSoC5/TFTSHIELD_1_SPIM_1.c **** 
1138:.\Generated_Source\PSoC5/TFTSHIELD_1_SPIM_1.c ****         TFTSHIELD_1_SPIM_1_swStatusTx = 0u;
 1549              		.loc 1 1138 0
 1550 005c 40F20003 		movw	r3, #:lower16:TFTSHIELD_1_SPIM_1_swStatusTx
 1551 0060 C0F20003 		movt	r3, #:upper16:TFTSHIELD_1_SPIM_1_swStatusTx
 1552 0064 4FF00002 		mov	r2, #0
 1553 0068 1A70     		strb	r2, [r3, #0]
1139:.\Generated_Source\PSoC5/TFTSHIELD_1_SPIM_1.c ****         TFTSHIELD_1_SPIM_1_swStatusRx = 0u;
 1554              		.loc 1 1139 0
 1555 006a 40F20003 		movw	r3, #:lower16:TFTSHIELD_1_SPIM_1_swStatusRx
 1556 006e C0F20003 		movt	r3, #:upper16:TFTSHIELD_1_SPIM_1_swStatusRx
 1557 0072 4FF00002 		mov	r2, #0
 1558 0076 1A70     		strb	r2, [r3, #0]
1140:.\Generated_Source\PSoC5/TFTSHIELD_1_SPIM_1.c **** 
1141:.\Generated_Source\PSoC5/TFTSHIELD_1_SPIM_1.c ****         TFTSHIELD_1_SPIM_1_EnableInt();
 1559              		.loc 1 1141 0
 1560 0078 FFF7FEFF 		bl	TFTSHIELD_1_SPIM_1_EnableInt
1142:.\Generated_Source\PSoC5/TFTSHIELD_1_SPIM_1.c **** 
1143:.\Generated_Source\PSoC5/TFTSHIELD_1_SPIM_1.c ****     #else
1144:.\Generated_Source\PSoC5/TFTSHIELD_1_SPIM_1.c **** 
1145:.\Generated_Source\PSoC5/TFTSHIELD_1_SPIM_1.c ****         tmpStatus  = TFTSHIELD_1_SPIM_1_RX_STATUS_REG;
1146:.\Generated_Source\PSoC5/TFTSHIELD_1_SPIM_1.c ****         tmpStatus |= TFTSHIELD_1_SPIM_1_TX_STATUS_REG;
1147:.\Generated_Source\PSoC5/TFTSHIELD_1_SPIM_1.c ****         tmpStatus &= ((uint8) ~TFTSHIELD_1_SPIM_1_STS_SPI_IDLE);
1148:.\Generated_Source\PSoC5/TFTSHIELD_1_SPIM_1.c **** 
1149:.\Generated_Source\PSoC5/TFTSHIELD_1_SPIM_1.c ****     #endif /* (TFTSHIELD_1_SPIM_1_TX_SOFTWARE_BUF_ENABLED || TFTSHIELD_1_SPIM_1_RX_SOFTWARE_BUF_ENA
1150:.\Generated_Source\PSoC5/TFTSHIELD_1_SPIM_1.c **** 
1151:.\Generated_Source\PSoC5/TFTSHIELD_1_SPIM_1.c ****     return(tmpStatus);
 1561              		.loc 1 1151 0
 1562 007c FB79     		ldrb	r3, [r7, #7]	@ zero_extendqisi2
1152:.\Generated_Source\PSoC5/TFTSHIELD_1_SPIM_1.c **** }
 1563              		.loc 1 1152 0
 1564 007e 1846     		mov	r0, r3
 1565 0080 07F10807 		add	r7, r7, #8
 1566 0084 BD46     		mov	sp, r7
 1567 0086 80BD     		pop	{r7, pc}
 1568              		.cfi_endproc
 1569              	.LFE23:
 1570              		.size	TFTSHIELD_1_SPIM_1_ReadStatus, .-TFTSHIELD_1_SPIM_1_ReadStatus
 1571              		.text
 1572              	.Letext0:
 1573              		.file 2 ".\\Generated_Source\\PSoC5\\cytypes.h"