ARM GAS  C:\Users\barror2\AppData\Local\Temp\ccHtZiyB.s 			page 1


   1              		.syntax unified
   2              		.cpu cortex-m3
   3              		.fpu softvfp
   4              		.eabi_attribute 20, 1
   5              		.eabi_attribute 21, 1
   6              		.eabi_attribute 23, 3
   7              		.eabi_attribute 24, 1
   8              		.eabi_attribute 25, 1
   9              		.eabi_attribute 26, 1
  10              		.eabi_attribute 30, 6
  11              		.eabi_attribute 34, 1
  12              		.eabi_attribute 18, 4
  13              		.thumb
  14              		.file	"TFTSHIELD_1_SPIM_1_INT.c"
  15              		.text
  16              	.Ltext0:
  17              		.cfi_sections	.debug_frame
  18              		.section	.text.TFTSHIELD_1_SPIM_1_TX_ISR,"ax",%progbits
  19              		.align	2
  20              		.global	TFTSHIELD_1_SPIM_1_TX_ISR
  21              		.thumb
  22              		.thumb_func
  23              		.type	TFTSHIELD_1_SPIM_1_TX_ISR, %function
  24              	TFTSHIELD_1_SPIM_1_TX_ISR:
  25              	.LFB0:
  26              		.file 1 ".\\Generated_Source\\PSoC5\\TFTSHIELD_1_SPIM_1_INT.c"
   1:.\Generated_Source\PSoC5/TFTSHIELD_1_SPIM_1_INT.c **** /*******************************************************************************
   2:.\Generated_Source\PSoC5/TFTSHIELD_1_SPIM_1_INT.c **** * File Name: TFTSHIELD_1_SPIM_1_INT.c
   3:.\Generated_Source\PSoC5/TFTSHIELD_1_SPIM_1_INT.c **** * Version 2.40
   4:.\Generated_Source\PSoC5/TFTSHIELD_1_SPIM_1_INT.c **** *
   5:.\Generated_Source\PSoC5/TFTSHIELD_1_SPIM_1_INT.c **** * Description:
   6:.\Generated_Source\PSoC5/TFTSHIELD_1_SPIM_1_INT.c **** *  This file provides all Interrupt Service Routine (ISR) for the SPI Master
   7:.\Generated_Source\PSoC5/TFTSHIELD_1_SPIM_1_INT.c **** *  component.
   8:.\Generated_Source\PSoC5/TFTSHIELD_1_SPIM_1_INT.c **** *
   9:.\Generated_Source\PSoC5/TFTSHIELD_1_SPIM_1_INT.c **** * Note:
  10:.\Generated_Source\PSoC5/TFTSHIELD_1_SPIM_1_INT.c **** *  None.
  11:.\Generated_Source\PSoC5/TFTSHIELD_1_SPIM_1_INT.c **** *
  12:.\Generated_Source\PSoC5/TFTSHIELD_1_SPIM_1_INT.c **** ********************************************************************************
  13:.\Generated_Source\PSoC5/TFTSHIELD_1_SPIM_1_INT.c **** * Copyright 2008-2012, Cypress Semiconductor Corporation.  All rights reserved.
  14:.\Generated_Source\PSoC5/TFTSHIELD_1_SPIM_1_INT.c **** * You may use this file only in accordance with the license, terms, conditions,
  15:.\Generated_Source\PSoC5/TFTSHIELD_1_SPIM_1_INT.c **** * disclaimers, and limitations in the end user license agreement accompanying
  16:.\Generated_Source\PSoC5/TFTSHIELD_1_SPIM_1_INT.c **** * the software package with which this file was provided.
  17:.\Generated_Source\PSoC5/TFTSHIELD_1_SPIM_1_INT.c **** *******************************************************************************/
  18:.\Generated_Source\PSoC5/TFTSHIELD_1_SPIM_1_INT.c **** 
  19:.\Generated_Source\PSoC5/TFTSHIELD_1_SPIM_1_INT.c **** #include "TFTSHIELD_1_SPIM_1_PVT.h"
  20:.\Generated_Source\PSoC5/TFTSHIELD_1_SPIM_1_INT.c **** 
  21:.\Generated_Source\PSoC5/TFTSHIELD_1_SPIM_1_INT.c **** /* User code required at start of ISR */
  22:.\Generated_Source\PSoC5/TFTSHIELD_1_SPIM_1_INT.c **** /* `#START TFTSHIELD_1_SPIM_1_ISR_START_DEF` */
  23:.\Generated_Source\PSoC5/TFTSHIELD_1_SPIM_1_INT.c **** 
  24:.\Generated_Source\PSoC5/TFTSHIELD_1_SPIM_1_INT.c **** /* `#END` */
  25:.\Generated_Source\PSoC5/TFTSHIELD_1_SPIM_1_INT.c **** 
  26:.\Generated_Source\PSoC5/TFTSHIELD_1_SPIM_1_INT.c **** 
  27:.\Generated_Source\PSoC5/TFTSHIELD_1_SPIM_1_INT.c **** /*******************************************************************************
  28:.\Generated_Source\PSoC5/TFTSHIELD_1_SPIM_1_INT.c **** * Function Name: TFTSHIELD_1_SPIM_1_TX_ISR
  29:.\Generated_Source\PSoC5/TFTSHIELD_1_SPIM_1_INT.c **** ********************************************************************************
  30:.\Generated_Source\PSoC5/TFTSHIELD_1_SPIM_1_INT.c **** *
  31:.\Generated_Source\PSoC5/TFTSHIELD_1_SPIM_1_INT.c **** * Summary:
ARM GAS  C:\Users\barror2\AppData\Local\Temp\ccHtZiyB.s 			page 2


  32:.\Generated_Source\PSoC5/TFTSHIELD_1_SPIM_1_INT.c **** *  Interrupt Service Routine for TX portion of the SPI Master.
  33:.\Generated_Source\PSoC5/TFTSHIELD_1_SPIM_1_INT.c **** *
  34:.\Generated_Source\PSoC5/TFTSHIELD_1_SPIM_1_INT.c **** * Parameters:
  35:.\Generated_Source\PSoC5/TFTSHIELD_1_SPIM_1_INT.c **** *  None.
  36:.\Generated_Source\PSoC5/TFTSHIELD_1_SPIM_1_INT.c **** *
  37:.\Generated_Source\PSoC5/TFTSHIELD_1_SPIM_1_INT.c **** * Return:
  38:.\Generated_Source\PSoC5/TFTSHIELD_1_SPIM_1_INT.c **** *  None.
  39:.\Generated_Source\PSoC5/TFTSHIELD_1_SPIM_1_INT.c **** *
  40:.\Generated_Source\PSoC5/TFTSHIELD_1_SPIM_1_INT.c **** * Global variables:
  41:.\Generated_Source\PSoC5/TFTSHIELD_1_SPIM_1_INT.c **** *  TFTSHIELD_1_SPIM_1_txBufferWrite - used for the account of the bytes which
  42:.\Generated_Source\PSoC5/TFTSHIELD_1_SPIM_1_INT.c **** *  have been written down in the TX software buffer.
  43:.\Generated_Source\PSoC5/TFTSHIELD_1_SPIM_1_INT.c **** *  TFTSHIELD_1_SPIM_1_txBufferRead - used for the account of the bytes which
  44:.\Generated_Source\PSoC5/TFTSHIELD_1_SPIM_1_INT.c **** *  have been read from the TX software buffer, modified when exist data to
  45:.\Generated_Source\PSoC5/TFTSHIELD_1_SPIM_1_INT.c **** *  sending and FIFO Not Full.
  46:.\Generated_Source\PSoC5/TFTSHIELD_1_SPIM_1_INT.c **** *  TFTSHIELD_1_SPIM_1_txBuffer[TFTSHIELD_1_SPIM_1_TX_BUFFER_SIZE] - used to store
  47:.\Generated_Source\PSoC5/TFTSHIELD_1_SPIM_1_INT.c **** *  data to sending.
  48:.\Generated_Source\PSoC5/TFTSHIELD_1_SPIM_1_INT.c **** *  All described above Global variables are used when Software Buffer is used.
  49:.\Generated_Source\PSoC5/TFTSHIELD_1_SPIM_1_INT.c **** *
  50:.\Generated_Source\PSoC5/TFTSHIELD_1_SPIM_1_INT.c **** *******************************************************************************/
  51:.\Generated_Source\PSoC5/TFTSHIELD_1_SPIM_1_INT.c **** CY_ISR(TFTSHIELD_1_SPIM_1_TX_ISR)
  52:.\Generated_Source\PSoC5/TFTSHIELD_1_SPIM_1_INT.c **** {
  27              		.loc 1 52 0
  28              		.cfi_startproc
  29              		@ args = 0, pretend = 0, frame = 8
  30              		@ frame_needed = 1, uses_anonymous_args = 0
  31              		@ link register save eliminated.
  32 0000 80B4     		push	{r7}
  33              	.LCFI0:
  34              		.cfi_def_cfa_offset 4
  35              		.cfi_offset 7, -4
  36 0002 83B0     		sub	sp, sp, #12
  37              	.LCFI1:
  38              		.cfi_def_cfa_offset 16
  39 0004 00AF     		add	r7, sp, #0
  40              	.LCFI2:
  41              		.cfi_def_cfa_register 7
  53:.\Generated_Source\PSoC5/TFTSHIELD_1_SPIM_1_INT.c ****     #if(TFTSHIELD_1_SPIM_1_TX_SOFTWARE_BUF_ENABLED)
  54:.\Generated_Source\PSoC5/TFTSHIELD_1_SPIM_1_INT.c ****         uint8 tmpStatus;
  55:.\Generated_Source\PSoC5/TFTSHIELD_1_SPIM_1_INT.c ****     #endif /* (TFTSHIELD_1_SPIM_1_TX_SOFTWARE_BUF_ENABLED) */
  56:.\Generated_Source\PSoC5/TFTSHIELD_1_SPIM_1_INT.c **** 
  57:.\Generated_Source\PSoC5/TFTSHIELD_1_SPIM_1_INT.c ****     /* User code required at start of ISR */
  58:.\Generated_Source\PSoC5/TFTSHIELD_1_SPIM_1_INT.c ****     /* `#START TFTSHIELD_1_SPIM_1_TX_ISR_START` */
  59:.\Generated_Source\PSoC5/TFTSHIELD_1_SPIM_1_INT.c **** 
  60:.\Generated_Source\PSoC5/TFTSHIELD_1_SPIM_1_INT.c ****     /* `#END` */
  61:.\Generated_Source\PSoC5/TFTSHIELD_1_SPIM_1_INT.c **** 
  62:.\Generated_Source\PSoC5/TFTSHIELD_1_SPIM_1_INT.c ****     #if(TFTSHIELD_1_SPIM_1_TX_SOFTWARE_BUF_ENABLED)
  63:.\Generated_Source\PSoC5/TFTSHIELD_1_SPIM_1_INT.c ****         /* Check if TX data buffer is not empty and there is space in TX FIFO */
  64:.\Generated_Source\PSoC5/TFTSHIELD_1_SPIM_1_INT.c ****         while(TFTSHIELD_1_SPIM_1_txBufferRead != TFTSHIELD_1_SPIM_1_txBufferWrite)
  42              		.loc 1 64 0
  43 0006 5FE0     		b	.L2
  44              	.L7:
  65:.\Generated_Source\PSoC5/TFTSHIELD_1_SPIM_1_INT.c ****         {
  66:.\Generated_Source\PSoC5/TFTSHIELD_1_SPIM_1_INT.c ****             tmpStatus = TFTSHIELD_1_SPIM_1_GET_STATUS_TX(TFTSHIELD_1_SPIM_1_swStatusTx);
  45              		.loc 1 66 0
  46 0008 46F26E43 		movw	r3, #25710
  47 000c C4F20003 		movt	r3, 16384
  48 0010 1B78     		ldrb	r3, [r3, #0]
ARM GAS  C:\Users\barror2\AppData\Local\Temp\ccHtZiyB.s 			page 3


  49 0012 DAB2     		uxtb	r2, r3
  50 0014 40F20003 		movw	r3, #:lower16:TFTSHIELD_1_SPIM_1_swStatusTx
  51 0018 C0F20003 		movt	r3, #:upper16:TFTSHIELD_1_SPIM_1_swStatusTx
  52 001c 1B78     		ldrb	r3, [r3, #0]
  53 001e DBB2     		uxtb	r3, r3
  54 0020 03F00903 		and	r3, r3, #9
  55 0024 DBB2     		uxtb	r3, r3
  56 0026 1343     		orrs	r3, r3, r2
  57 0028 FB71     		strb	r3, [r7, #7]
  67:.\Generated_Source\PSoC5/TFTSHIELD_1_SPIM_1_INT.c ****             TFTSHIELD_1_SPIM_1_swStatusTx = tmpStatus;
  58              		.loc 1 67 0
  59 002a 40F20003 		movw	r3, #:lower16:TFTSHIELD_1_SPIM_1_swStatusTx
  60 002e C0F20003 		movt	r3, #:upper16:TFTSHIELD_1_SPIM_1_swStatusTx
  61 0032 FA79     		ldrb	r2, [r7, #7]
  62 0034 1A70     		strb	r2, [r3, #0]
  68:.\Generated_Source\PSoC5/TFTSHIELD_1_SPIM_1_INT.c **** 
  69:.\Generated_Source\PSoC5/TFTSHIELD_1_SPIM_1_INT.c ****             if(0u != (TFTSHIELD_1_SPIM_1_swStatusTx & TFTSHIELD_1_SPIM_1_STS_TX_FIFO_NOT_FULL))
  63              		.loc 1 69 0
  64 0036 40F20003 		movw	r3, #:lower16:TFTSHIELD_1_SPIM_1_swStatusTx
  65 003a C0F20003 		movt	r3, #:upper16:TFTSHIELD_1_SPIM_1_swStatusTx
  66 003e 1B78     		ldrb	r3, [r3, #0]
  67 0040 DBB2     		uxtb	r3, r3
  68 0042 03F00403 		and	r3, r3, #4
  69 0046 002B     		cmp	r3, #0
  70 0048 4DD0     		beq	.L9
  70:.\Generated_Source\PSoC5/TFTSHIELD_1_SPIM_1_INT.c ****             {
  71:.\Generated_Source\PSoC5/TFTSHIELD_1_SPIM_1_INT.c ****                 if(0u == TFTSHIELD_1_SPIM_1_txBufferFull)
  71              		.loc 1 71 0
  72 004a 40F20003 		movw	r3, #:lower16:TFTSHIELD_1_SPIM_1_txBufferFull
  73 004e C0F20003 		movt	r3, #:upper16:TFTSHIELD_1_SPIM_1_txBufferFull
  74 0052 1B78     		ldrb	r3, [r3, #0]
  75 0054 DBB2     		uxtb	r3, r3
  76 0056 002B     		cmp	r3, #0
  77 0058 1DD1     		bne	.L4
  72:.\Generated_Source\PSoC5/TFTSHIELD_1_SPIM_1_INT.c ****                 {
  73:.\Generated_Source\PSoC5/TFTSHIELD_1_SPIM_1_INT.c ****                    TFTSHIELD_1_SPIM_1_txBufferRead++;
  78              		.loc 1 73 0
  79 005a 40F20003 		movw	r3, #:lower16:TFTSHIELD_1_SPIM_1_txBufferRead
  80 005e C0F20003 		movt	r3, #:upper16:TFTSHIELD_1_SPIM_1_txBufferRead
  81 0062 1B78     		ldrb	r3, [r3, #0]
  82 0064 DBB2     		uxtb	r3, r3
  83 0066 03F10103 		add	r3, r3, #1
  84 006a DAB2     		uxtb	r2, r3
  85 006c 40F20003 		movw	r3, #:lower16:TFTSHIELD_1_SPIM_1_txBufferRead
  86 0070 C0F20003 		movt	r3, #:upper16:TFTSHIELD_1_SPIM_1_txBufferRead
  87 0074 1A70     		strb	r2, [r3, #0]
  74:.\Generated_Source\PSoC5/TFTSHIELD_1_SPIM_1_INT.c **** 
  75:.\Generated_Source\PSoC5/TFTSHIELD_1_SPIM_1_INT.c ****                     if(TFTSHIELD_1_SPIM_1_txBufferRead >= TFTSHIELD_1_SPIM_1_TX_BUFFER_SIZE)
  88              		.loc 1 75 0
  89 0076 40F20003 		movw	r3, #:lower16:TFTSHIELD_1_SPIM_1_txBufferRead
  90 007a C0F20003 		movt	r3, #:upper16:TFTSHIELD_1_SPIM_1_txBufferRead
  91 007e 1B78     		ldrb	r3, [r3, #0]
  92 0080 DBB2     		uxtb	r3, r3
  93 0082 072B     		cmp	r3, #7
  94 0084 0ED9     		bls	.L5
  76:.\Generated_Source\PSoC5/TFTSHIELD_1_SPIM_1_INT.c ****                     {
  77:.\Generated_Source\PSoC5/TFTSHIELD_1_SPIM_1_INT.c ****                         TFTSHIELD_1_SPIM_1_txBufferRead = 0u;
ARM GAS  C:\Users\barror2\AppData\Local\Temp\ccHtZiyB.s 			page 4


  95              		.loc 1 77 0
  96 0086 40F20003 		movw	r3, #:lower16:TFTSHIELD_1_SPIM_1_txBufferRead
  97 008a C0F20003 		movt	r3, #:upper16:TFTSHIELD_1_SPIM_1_txBufferRead
  98 008e 4FF00002 		mov	r2, #0
  99 0092 1A70     		strb	r2, [r3, #0]
 100 0094 06E0     		b	.L5
 101              	.L4:
  78:.\Generated_Source\PSoC5/TFTSHIELD_1_SPIM_1_INT.c ****                     }
  79:.\Generated_Source\PSoC5/TFTSHIELD_1_SPIM_1_INT.c ****                 }
  80:.\Generated_Source\PSoC5/TFTSHIELD_1_SPIM_1_INT.c ****                 else
  81:.\Generated_Source\PSoC5/TFTSHIELD_1_SPIM_1_INT.c ****                 {
  82:.\Generated_Source\PSoC5/TFTSHIELD_1_SPIM_1_INT.c ****                     TFTSHIELD_1_SPIM_1_txBufferFull = 0u;
 102              		.loc 1 82 0
 103 0096 40F20003 		movw	r3, #:lower16:TFTSHIELD_1_SPIM_1_txBufferFull
 104 009a C0F20003 		movt	r3, #:upper16:TFTSHIELD_1_SPIM_1_txBufferFull
 105 009e 4FF00002 		mov	r2, #0
 106 00a2 1A70     		strb	r2, [r3, #0]
 107              	.L5:
  83:.\Generated_Source\PSoC5/TFTSHIELD_1_SPIM_1_INT.c ****                 }
  84:.\Generated_Source\PSoC5/TFTSHIELD_1_SPIM_1_INT.c **** 
  85:.\Generated_Source\PSoC5/TFTSHIELD_1_SPIM_1_INT.c ****                 /* Move data from the Buffer to the FIFO */
  86:.\Generated_Source\PSoC5/TFTSHIELD_1_SPIM_1_INT.c ****                 CY_SET_REG8(TFTSHIELD_1_SPIM_1_TXDATA_PTR,
 108              		.loc 1 86 0
 109 00a4 46F24E43 		movw	r3, #25678
 110 00a8 C4F20003 		movt	r3, 16384
 111 00ac 40F20002 		movw	r2, #:lower16:TFTSHIELD_1_SPIM_1_txBufferRead
 112 00b0 C0F20002 		movt	r2, #:upper16:TFTSHIELD_1_SPIM_1_txBufferRead
 113 00b4 1278     		ldrb	r2, [r2, #0]
 114 00b6 D2B2     		uxtb	r2, r2
 115 00b8 1146     		mov	r1, r2
 116 00ba 40F20002 		movw	r2, #:lower16:TFTSHIELD_1_SPIM_1_txBuffer
 117 00be C0F20002 		movt	r2, #:upper16:TFTSHIELD_1_SPIM_1_txBuffer
 118 00c2 525C     		ldrb	r2, [r2, r1]
 119 00c4 D2B2     		uxtb	r2, r2
 120 00c6 1A70     		strb	r2, [r3, #0]
 121              	.L2:
  64:.\Generated_Source\PSoC5/TFTSHIELD_1_SPIM_1_INT.c ****         while(TFTSHIELD_1_SPIM_1_txBufferRead != TFTSHIELD_1_SPIM_1_txBufferWrite)
 122              		.loc 1 64 0 discriminator 1
 123 00c8 40F20003 		movw	r3, #:lower16:TFTSHIELD_1_SPIM_1_txBufferRead
 124 00cc C0F20003 		movt	r3, #:upper16:TFTSHIELD_1_SPIM_1_txBufferRead
 125 00d0 1B78     		ldrb	r3, [r3, #0]
 126 00d2 DAB2     		uxtb	r2, r3
 127 00d4 40F20003 		movw	r3, #:lower16:TFTSHIELD_1_SPIM_1_txBufferWrite
 128 00d8 C0F20003 		movt	r3, #:upper16:TFTSHIELD_1_SPIM_1_txBufferWrite
 129 00dc 1B78     		ldrb	r3, [r3, #0]
 130 00de DBB2     		uxtb	r3, r3
 131 00e0 9A42     		cmp	r2, r3
 132 00e2 91D1     		bne	.L7
 133 00e4 00E0     		b	.L6
 134              	.L9:
  87:.\Generated_Source\PSoC5/TFTSHIELD_1_SPIM_1_INT.c ****                     TFTSHIELD_1_SPIM_1_txBuffer[TFTSHIELD_1_SPIM_1_txBufferRead]);
  88:.\Generated_Source\PSoC5/TFTSHIELD_1_SPIM_1_INT.c ****             }
  89:.\Generated_Source\PSoC5/TFTSHIELD_1_SPIM_1_INT.c ****             else
  90:.\Generated_Source\PSoC5/TFTSHIELD_1_SPIM_1_INT.c ****             {
  91:.\Generated_Source\PSoC5/TFTSHIELD_1_SPIM_1_INT.c ****                 break;
 135              		.loc 1 91 0
 136 00e6 00BF     		nop
ARM GAS  C:\Users\barror2\AppData\Local\Temp\ccHtZiyB.s 			page 5


 137              	.L6:
  92:.\Generated_Source\PSoC5/TFTSHIELD_1_SPIM_1_INT.c ****             }
  93:.\Generated_Source\PSoC5/TFTSHIELD_1_SPIM_1_INT.c ****         }
  94:.\Generated_Source\PSoC5/TFTSHIELD_1_SPIM_1_INT.c **** 
  95:.\Generated_Source\PSoC5/TFTSHIELD_1_SPIM_1_INT.c ****         if(TFTSHIELD_1_SPIM_1_txBufferRead == TFTSHIELD_1_SPIM_1_txBufferWrite)
 138              		.loc 1 95 0
 139 00e8 40F20003 		movw	r3, #:lower16:TFTSHIELD_1_SPIM_1_txBufferRead
 140 00ec C0F20003 		movt	r3, #:upper16:TFTSHIELD_1_SPIM_1_txBufferRead
 141 00f0 1B78     		ldrb	r3, [r3, #0]
 142 00f2 DAB2     		uxtb	r2, r3
 143 00f4 40F20003 		movw	r3, #:lower16:TFTSHIELD_1_SPIM_1_txBufferWrite
 144 00f8 C0F20003 		movt	r3, #:upper16:TFTSHIELD_1_SPIM_1_txBufferWrite
 145 00fc 1B78     		ldrb	r3, [r3, #0]
 146 00fe DBB2     		uxtb	r3, r3
 147 0100 9A42     		cmp	r2, r3
 148 0102 0DD1     		bne	.L1
  96:.\Generated_Source\PSoC5/TFTSHIELD_1_SPIM_1_INT.c ****         {
  97:.\Generated_Source\PSoC5/TFTSHIELD_1_SPIM_1_INT.c ****             /* TX Buffer is EMPTY: disable interrupt on TX NOT FULL */
  98:.\Generated_Source\PSoC5/TFTSHIELD_1_SPIM_1_INT.c ****             TFTSHIELD_1_SPIM_1_TX_STATUS_MASK_REG &= ((uint8) ~TFTSHIELD_1_SPIM_1_STS_TX_FIFO_NOT_F
 149              		.loc 1 98 0
 150 0104 46F28E43 		movw	r3, #25742
 151 0108 C4F20003 		movt	r3, 16384
 152 010c 46F28E42 		movw	r2, #25742
 153 0110 C4F20002 		movt	r2, 16384
 154 0114 1278     		ldrb	r2, [r2, #0]
 155 0116 D2B2     		uxtb	r2, r2
 156 0118 22F00402 		bic	r2, r2, #4
 157 011c D2B2     		uxtb	r2, r2
 158 011e 1A70     		strb	r2, [r3, #0]
 159              	.L1:
  99:.\Generated_Source\PSoC5/TFTSHIELD_1_SPIM_1_INT.c ****         }
 100:.\Generated_Source\PSoC5/TFTSHIELD_1_SPIM_1_INT.c **** 
 101:.\Generated_Source\PSoC5/TFTSHIELD_1_SPIM_1_INT.c ****     #endif /* (TFTSHIELD_1_SPIM_1_TX_SOFTWARE_BUF_ENABLED) */
 102:.\Generated_Source\PSoC5/TFTSHIELD_1_SPIM_1_INT.c **** 
 103:.\Generated_Source\PSoC5/TFTSHIELD_1_SPIM_1_INT.c ****     /* User code required at end of ISR (Optional) */
 104:.\Generated_Source\PSoC5/TFTSHIELD_1_SPIM_1_INT.c ****     /* `#START TFTSHIELD_1_SPIM_1_TX_ISR_END` */
 105:.\Generated_Source\PSoC5/TFTSHIELD_1_SPIM_1_INT.c **** 
 106:.\Generated_Source\PSoC5/TFTSHIELD_1_SPIM_1_INT.c ****     /* `#END` */
 107:.\Generated_Source\PSoC5/TFTSHIELD_1_SPIM_1_INT.c **** }
 160              		.loc 1 107 0
 161 0120 07F10C07 		add	r7, r7, #12
 162 0124 BD46     		mov	sp, r7
 163 0126 80BC     		pop	{r7}
 164 0128 7047     		bx	lr
 165              		.cfi_endproc
 166              	.LFE0:
 167              		.size	TFTSHIELD_1_SPIM_1_TX_ISR, .-TFTSHIELD_1_SPIM_1_TX_ISR
 168 012a 00BF     		.section	.text.TFTSHIELD_1_SPIM_1_RX_ISR,"ax",%progbits
 169              		.align	2
 170              		.global	TFTSHIELD_1_SPIM_1_RX_ISR
 171              		.thumb
 172              		.thumb_func
 173              		.type	TFTSHIELD_1_SPIM_1_RX_ISR, %function
 174              	TFTSHIELD_1_SPIM_1_RX_ISR:
 175              	.LFB1:
 108:.\Generated_Source\PSoC5/TFTSHIELD_1_SPIM_1_INT.c **** 
 109:.\Generated_Source\PSoC5/TFTSHIELD_1_SPIM_1_INT.c **** 
ARM GAS  C:\Users\barror2\AppData\Local\Temp\ccHtZiyB.s 			page 6


 110:.\Generated_Source\PSoC5/TFTSHIELD_1_SPIM_1_INT.c **** /*******************************************************************************
 111:.\Generated_Source\PSoC5/TFTSHIELD_1_SPIM_1_INT.c **** * Function Name: TFTSHIELD_1_SPIM_1_RX_ISR
 112:.\Generated_Source\PSoC5/TFTSHIELD_1_SPIM_1_INT.c **** ********************************************************************************
 113:.\Generated_Source\PSoC5/TFTSHIELD_1_SPIM_1_INT.c **** *
 114:.\Generated_Source\PSoC5/TFTSHIELD_1_SPIM_1_INT.c **** * Summary:
 115:.\Generated_Source\PSoC5/TFTSHIELD_1_SPIM_1_INT.c **** *  Interrupt Service Routine for RX portion of the SPI Master.
 116:.\Generated_Source\PSoC5/TFTSHIELD_1_SPIM_1_INT.c **** *
 117:.\Generated_Source\PSoC5/TFTSHIELD_1_SPIM_1_INT.c **** * Parameters:
 118:.\Generated_Source\PSoC5/TFTSHIELD_1_SPIM_1_INT.c **** *  None.
 119:.\Generated_Source\PSoC5/TFTSHIELD_1_SPIM_1_INT.c **** *
 120:.\Generated_Source\PSoC5/TFTSHIELD_1_SPIM_1_INT.c **** * Return:
 121:.\Generated_Source\PSoC5/TFTSHIELD_1_SPIM_1_INT.c **** *  None.
 122:.\Generated_Source\PSoC5/TFTSHIELD_1_SPIM_1_INT.c **** *
 123:.\Generated_Source\PSoC5/TFTSHIELD_1_SPIM_1_INT.c **** * Global variables:
 124:.\Generated_Source\PSoC5/TFTSHIELD_1_SPIM_1_INT.c **** *  TFTSHIELD_1_SPIM_1_rxBufferWrite - used for the account of the bytes which
 125:.\Generated_Source\PSoC5/TFTSHIELD_1_SPIM_1_INT.c **** *  have been written down in the RX software buffer modified when FIFO contains
 126:.\Generated_Source\PSoC5/TFTSHIELD_1_SPIM_1_INT.c **** *  new data.
 127:.\Generated_Source\PSoC5/TFTSHIELD_1_SPIM_1_INT.c **** *  TFTSHIELD_1_SPIM_1_rxBufferRead - used for the account of the bytes which
 128:.\Generated_Source\PSoC5/TFTSHIELD_1_SPIM_1_INT.c **** *  have been read from the RX software buffer, modified when overflow occurred.
 129:.\Generated_Source\PSoC5/TFTSHIELD_1_SPIM_1_INT.c **** *  TFTSHIELD_1_SPIM_1_rxBuffer[TFTSHIELD_1_SPIM_1_RX_BUFFER_SIZE] - used to store
 130:.\Generated_Source\PSoC5/TFTSHIELD_1_SPIM_1_INT.c **** *  received data, modified when FIFO contains new data.
 131:.\Generated_Source\PSoC5/TFTSHIELD_1_SPIM_1_INT.c **** *  All described above Global variables are used when Software Buffer is used.
 132:.\Generated_Source\PSoC5/TFTSHIELD_1_SPIM_1_INT.c **** *
 133:.\Generated_Source\PSoC5/TFTSHIELD_1_SPIM_1_INT.c **** *******************************************************************************/
 134:.\Generated_Source\PSoC5/TFTSHIELD_1_SPIM_1_INT.c **** CY_ISR(TFTSHIELD_1_SPIM_1_RX_ISR)
 135:.\Generated_Source\PSoC5/TFTSHIELD_1_SPIM_1_INT.c **** {
 176              		.loc 1 135 0
 177              		.cfi_startproc
 178              		@ args = 0, pretend = 0, frame = 8
 179              		@ frame_needed = 1, uses_anonymous_args = 0
 180              		@ link register save eliminated.
 181 0000 80B4     		push	{r7}
 182              	.LCFI3:
 183              		.cfi_def_cfa_offset 4
 184              		.cfi_offset 7, -4
 185 0002 83B0     		sub	sp, sp, #12
 186              	.LCFI4:
 187              		.cfi_def_cfa_offset 16
 188 0004 00AF     		add	r7, sp, #0
 189              	.LCFI5:
 190              		.cfi_def_cfa_register 7
 136:.\Generated_Source\PSoC5/TFTSHIELD_1_SPIM_1_INT.c ****     #if(TFTSHIELD_1_SPIM_1_RX_SOFTWARE_BUF_ENABLED)
 137:.\Generated_Source\PSoC5/TFTSHIELD_1_SPIM_1_INT.c ****         uint8 tmpStatus;
 138:.\Generated_Source\PSoC5/TFTSHIELD_1_SPIM_1_INT.c ****         uint8 rxData;
 139:.\Generated_Source\PSoC5/TFTSHIELD_1_SPIM_1_INT.c ****     #endif /* (TFTSHIELD_1_SPIM_1_RX_SOFTWARE_BUF_ENABLED) */
 140:.\Generated_Source\PSoC5/TFTSHIELD_1_SPIM_1_INT.c **** 
 141:.\Generated_Source\PSoC5/TFTSHIELD_1_SPIM_1_INT.c ****     /* User code required at start of ISR */
 142:.\Generated_Source\PSoC5/TFTSHIELD_1_SPIM_1_INT.c ****     /* `#START TFTSHIELD_1_SPIM_1_RX_ISR_START` */
 143:.\Generated_Source\PSoC5/TFTSHIELD_1_SPIM_1_INT.c **** 
 144:.\Generated_Source\PSoC5/TFTSHIELD_1_SPIM_1_INT.c ****     /* `#END` */
 145:.\Generated_Source\PSoC5/TFTSHIELD_1_SPIM_1_INT.c **** 
 146:.\Generated_Source\PSoC5/TFTSHIELD_1_SPIM_1_INT.c ****     #if(TFTSHIELD_1_SPIM_1_RX_SOFTWARE_BUF_ENABLED)
 147:.\Generated_Source\PSoC5/TFTSHIELD_1_SPIM_1_INT.c **** 
 148:.\Generated_Source\PSoC5/TFTSHIELD_1_SPIM_1_INT.c ****         tmpStatus = TFTSHIELD_1_SPIM_1_GET_STATUS_RX(TFTSHIELD_1_SPIM_1_swStatusRx);
 191              		.loc 1 148 0
 192 0006 46F26C43 		movw	r3, #25708
 193 000a C4F20003 		movt	r3, 16384
ARM GAS  C:\Users\barror2\AppData\Local\Temp\ccHtZiyB.s 			page 7


 194 000e 1B78     		ldrb	r3, [r3, #0]
 195 0010 DAB2     		uxtb	r2, r3
 196 0012 40F20003 		movw	r3, #:lower16:TFTSHIELD_1_SPIM_1_swStatusRx
 197 0016 C0F20003 		movt	r3, #:upper16:TFTSHIELD_1_SPIM_1_swStatusRx
 198 001a 1B78     		ldrb	r3, [r3, #0]
 199 001c DBB2     		uxtb	r3, r3
 200 001e 03F04003 		and	r3, r3, #64
 201 0022 DBB2     		uxtb	r3, r3
 202 0024 1343     		orrs	r3, r3, r2
 203 0026 FB71     		strb	r3, [r7, #7]
 149:.\Generated_Source\PSoC5/TFTSHIELD_1_SPIM_1_INT.c ****         TFTSHIELD_1_SPIM_1_swStatusRx = tmpStatus;
 204              		.loc 1 149 0
 205 0028 40F20003 		movw	r3, #:lower16:TFTSHIELD_1_SPIM_1_swStatusRx
 206 002c C0F20003 		movt	r3, #:upper16:TFTSHIELD_1_SPIM_1_swStatusRx
 207 0030 FA79     		ldrb	r2, [r7, #7]
 208 0032 1A70     		strb	r2, [r3, #0]
 150:.\Generated_Source\PSoC5/TFTSHIELD_1_SPIM_1_INT.c **** 
 151:.\Generated_Source\PSoC5/TFTSHIELD_1_SPIM_1_INT.c ****         /* Check if RX data FIFO has some data to be moved into the RX Buffer */
 152:.\Generated_Source\PSoC5/TFTSHIELD_1_SPIM_1_INT.c ****         while(0u != (TFTSHIELD_1_SPIM_1_swStatusRx & TFTSHIELD_1_SPIM_1_STS_RX_FIFO_NOT_EMPTY))
 209              		.loc 1 152 0
 210 0034 78E0     		b	.L11
 211              	.L15:
 153:.\Generated_Source\PSoC5/TFTSHIELD_1_SPIM_1_INT.c ****         {
 154:.\Generated_Source\PSoC5/TFTSHIELD_1_SPIM_1_INT.c ****             rxData = CY_GET_REG8(TFTSHIELD_1_SPIM_1_RXDATA_PTR);
 212              		.loc 1 154 0
 213 0036 46F25E43 		movw	r3, #25694
 214 003a C4F20003 		movt	r3, 16384
 215 003e 1B78     		ldrb	r3, [r3, #0]
 216 0040 BB71     		strb	r3, [r7, #6]
 155:.\Generated_Source\PSoC5/TFTSHIELD_1_SPIM_1_INT.c **** 
 156:.\Generated_Source\PSoC5/TFTSHIELD_1_SPIM_1_INT.c ****             /* Set next pointer. */
 157:.\Generated_Source\PSoC5/TFTSHIELD_1_SPIM_1_INT.c ****             TFTSHIELD_1_SPIM_1_rxBufferWrite++;
 217              		.loc 1 157 0
 218 0042 40F20003 		movw	r3, #:lower16:TFTSHIELD_1_SPIM_1_rxBufferWrite
 219 0046 C0F20003 		movt	r3, #:upper16:TFTSHIELD_1_SPIM_1_rxBufferWrite
 220 004a 1B78     		ldrb	r3, [r3, #0]
 221 004c DBB2     		uxtb	r3, r3
 222 004e 03F10103 		add	r3, r3, #1
 223 0052 DAB2     		uxtb	r2, r3
 224 0054 40F20003 		movw	r3, #:lower16:TFTSHIELD_1_SPIM_1_rxBufferWrite
 225 0058 C0F20003 		movt	r3, #:upper16:TFTSHIELD_1_SPIM_1_rxBufferWrite
 226 005c 1A70     		strb	r2, [r3, #0]
 158:.\Generated_Source\PSoC5/TFTSHIELD_1_SPIM_1_INT.c ****             if(TFTSHIELD_1_SPIM_1_rxBufferWrite >= TFTSHIELD_1_SPIM_1_RX_BUFFER_SIZE)
 227              		.loc 1 158 0
 228 005e 40F20003 		movw	r3, #:lower16:TFTSHIELD_1_SPIM_1_rxBufferWrite
 229 0062 C0F20003 		movt	r3, #:upper16:TFTSHIELD_1_SPIM_1_rxBufferWrite
 230 0066 1B78     		ldrb	r3, [r3, #0]
 231 0068 DBB2     		uxtb	r3, r3
 232 006a 072B     		cmp	r3, #7
 233 006c 06D9     		bls	.L12
 159:.\Generated_Source\PSoC5/TFTSHIELD_1_SPIM_1_INT.c ****             {
 160:.\Generated_Source\PSoC5/TFTSHIELD_1_SPIM_1_INT.c ****                 TFTSHIELD_1_SPIM_1_rxBufferWrite = 0u;
 234              		.loc 1 160 0
 235 006e 40F20003 		movw	r3, #:lower16:TFTSHIELD_1_SPIM_1_rxBufferWrite
 236 0072 C0F20003 		movt	r3, #:upper16:TFTSHIELD_1_SPIM_1_rxBufferWrite
 237 0076 4FF00002 		mov	r2, #0
 238 007a 1A70     		strb	r2, [r3, #0]
ARM GAS  C:\Users\barror2\AppData\Local\Temp\ccHtZiyB.s 			page 8


 239              	.L12:
 161:.\Generated_Source\PSoC5/TFTSHIELD_1_SPIM_1_INT.c ****             }
 162:.\Generated_Source\PSoC5/TFTSHIELD_1_SPIM_1_INT.c **** 
 163:.\Generated_Source\PSoC5/TFTSHIELD_1_SPIM_1_INT.c ****             if(TFTSHIELD_1_SPIM_1_rxBufferWrite == TFTSHIELD_1_SPIM_1_rxBufferRead)
 240              		.loc 1 163 0
 241 007c 40F20003 		movw	r3, #:lower16:TFTSHIELD_1_SPIM_1_rxBufferWrite
 242 0080 C0F20003 		movt	r3, #:upper16:TFTSHIELD_1_SPIM_1_rxBufferWrite
 243 0084 1B78     		ldrb	r3, [r3, #0]
 244 0086 DAB2     		uxtb	r2, r3
 245 0088 40F20003 		movw	r3, #:lower16:TFTSHIELD_1_SPIM_1_rxBufferRead
 246 008c C0F20003 		movt	r3, #:upper16:TFTSHIELD_1_SPIM_1_rxBufferRead
 247 0090 1B78     		ldrb	r3, [r3, #0]
 248 0092 DBB2     		uxtb	r3, r3
 249 0094 9A42     		cmp	r2, r3
 250 0096 23D1     		bne	.L13
 164:.\Generated_Source\PSoC5/TFTSHIELD_1_SPIM_1_INT.c ****             {
 165:.\Generated_Source\PSoC5/TFTSHIELD_1_SPIM_1_INT.c ****                 TFTSHIELD_1_SPIM_1_rxBufferRead++;
 251              		.loc 1 165 0
 252 0098 40F20003 		movw	r3, #:lower16:TFTSHIELD_1_SPIM_1_rxBufferRead
 253 009c C0F20003 		movt	r3, #:upper16:TFTSHIELD_1_SPIM_1_rxBufferRead
 254 00a0 1B78     		ldrb	r3, [r3, #0]
 255 00a2 DBB2     		uxtb	r3, r3
 256 00a4 03F10103 		add	r3, r3, #1
 257 00a8 DAB2     		uxtb	r2, r3
 258 00aa 40F20003 		movw	r3, #:lower16:TFTSHIELD_1_SPIM_1_rxBufferRead
 259 00ae C0F20003 		movt	r3, #:upper16:TFTSHIELD_1_SPIM_1_rxBufferRead
 260 00b2 1A70     		strb	r2, [r3, #0]
 166:.\Generated_Source\PSoC5/TFTSHIELD_1_SPIM_1_INT.c ****                 if(TFTSHIELD_1_SPIM_1_rxBufferRead >= TFTSHIELD_1_SPIM_1_RX_BUFFER_SIZE)
 261              		.loc 1 166 0
 262 00b4 40F20003 		movw	r3, #:lower16:TFTSHIELD_1_SPIM_1_rxBufferRead
 263 00b8 C0F20003 		movt	r3, #:upper16:TFTSHIELD_1_SPIM_1_rxBufferRead
 264 00bc 1B78     		ldrb	r3, [r3, #0]
 265 00be DBB2     		uxtb	r3, r3
 266 00c0 072B     		cmp	r3, #7
 267 00c2 06D9     		bls	.L14
 167:.\Generated_Source\PSoC5/TFTSHIELD_1_SPIM_1_INT.c ****                 {
 168:.\Generated_Source\PSoC5/TFTSHIELD_1_SPIM_1_INT.c ****                     TFTSHIELD_1_SPIM_1_rxBufferRead = 0u;
 268              		.loc 1 168 0
 269 00c4 40F20003 		movw	r3, #:lower16:TFTSHIELD_1_SPIM_1_rxBufferRead
 270 00c8 C0F20003 		movt	r3, #:upper16:TFTSHIELD_1_SPIM_1_rxBufferRead
 271 00cc 4FF00002 		mov	r2, #0
 272 00d0 1A70     		strb	r2, [r3, #0]
 273              	.L14:
 169:.\Generated_Source\PSoC5/TFTSHIELD_1_SPIM_1_INT.c ****                 }
 170:.\Generated_Source\PSoC5/TFTSHIELD_1_SPIM_1_INT.c **** 
 171:.\Generated_Source\PSoC5/TFTSHIELD_1_SPIM_1_INT.c ****                 TFTSHIELD_1_SPIM_1_rxBufferFull = 1u;
 274              		.loc 1 171 0
 275 00d2 40F20003 		movw	r3, #:lower16:TFTSHIELD_1_SPIM_1_rxBufferFull
 276 00d6 C0F20003 		movt	r3, #:upper16:TFTSHIELD_1_SPIM_1_rxBufferFull
 277 00da 4FF00102 		mov	r2, #1
 278 00de 1A70     		strb	r2, [r3, #0]
 279              	.L13:
 172:.\Generated_Source\PSoC5/TFTSHIELD_1_SPIM_1_INT.c ****             }
 173:.\Generated_Source\PSoC5/TFTSHIELD_1_SPIM_1_INT.c **** 
 174:.\Generated_Source\PSoC5/TFTSHIELD_1_SPIM_1_INT.c ****             /* Move data from the FIFO to the Buffer */
 175:.\Generated_Source\PSoC5/TFTSHIELD_1_SPIM_1_INT.c ****             TFTSHIELD_1_SPIM_1_rxBuffer[TFTSHIELD_1_SPIM_1_rxBufferWrite] = rxData;
 280              		.loc 1 175 0
ARM GAS  C:\Users\barror2\AppData\Local\Temp\ccHtZiyB.s 			page 9


 281 00e0 40F20003 		movw	r3, #:lower16:TFTSHIELD_1_SPIM_1_rxBufferWrite
 282 00e4 C0F20003 		movt	r3, #:upper16:TFTSHIELD_1_SPIM_1_rxBufferWrite
 283 00e8 1B78     		ldrb	r3, [r3, #0]
 284 00ea DBB2     		uxtb	r3, r3
 285 00ec 1A46     		mov	r2, r3
 286 00ee 40F20003 		movw	r3, #:lower16:TFTSHIELD_1_SPIM_1_rxBuffer
 287 00f2 C0F20003 		movt	r3, #:upper16:TFTSHIELD_1_SPIM_1_rxBuffer
 288 00f6 B979     		ldrb	r1, [r7, #6]
 289 00f8 9954     		strb	r1, [r3, r2]
 176:.\Generated_Source\PSoC5/TFTSHIELD_1_SPIM_1_INT.c **** 
 177:.\Generated_Source\PSoC5/TFTSHIELD_1_SPIM_1_INT.c ****             tmpStatus = TFTSHIELD_1_SPIM_1_GET_STATUS_RX(TFTSHIELD_1_SPIM_1_swStatusRx);
 290              		.loc 1 177 0
 291 00fa 46F26C43 		movw	r3, #25708
 292 00fe C4F20003 		movt	r3, 16384
 293 0102 1B78     		ldrb	r3, [r3, #0]
 294 0104 DAB2     		uxtb	r2, r3
 295 0106 40F20003 		movw	r3, #:lower16:TFTSHIELD_1_SPIM_1_swStatusRx
 296 010a C0F20003 		movt	r3, #:upper16:TFTSHIELD_1_SPIM_1_swStatusRx
 297 010e 1B78     		ldrb	r3, [r3, #0]
 298 0110 DBB2     		uxtb	r3, r3
 299 0112 03F04003 		and	r3, r3, #64
 300 0116 DBB2     		uxtb	r3, r3
 301 0118 1343     		orrs	r3, r3, r2
 302 011a FB71     		strb	r3, [r7, #7]
 178:.\Generated_Source\PSoC5/TFTSHIELD_1_SPIM_1_INT.c ****             TFTSHIELD_1_SPIM_1_swStatusRx = tmpStatus;
 303              		.loc 1 178 0
 304 011c 40F20003 		movw	r3, #:lower16:TFTSHIELD_1_SPIM_1_swStatusRx
 305 0120 C0F20003 		movt	r3, #:upper16:TFTSHIELD_1_SPIM_1_swStatusRx
 306 0124 FA79     		ldrb	r2, [r7, #7]
 307 0126 1A70     		strb	r2, [r3, #0]
 308              	.L11:
 152:.\Generated_Source\PSoC5/TFTSHIELD_1_SPIM_1_INT.c ****         while(0u != (TFTSHIELD_1_SPIM_1_swStatusRx & TFTSHIELD_1_SPIM_1_STS_RX_FIFO_NOT_EMPTY))
 309              		.loc 1 152 0 discriminator 1
 310 0128 40F20003 		movw	r3, #:lower16:TFTSHIELD_1_SPIM_1_swStatusRx
 311 012c C0F20003 		movt	r3, #:upper16:TFTSHIELD_1_SPIM_1_swStatusRx
 312 0130 1B78     		ldrb	r3, [r3, #0]
 313 0132 DBB2     		uxtb	r3, r3
 314 0134 03F02003 		and	r3, r3, #32
 315 0138 002B     		cmp	r3, #0
 316 013a 7FF47CAF 		bne	.L15
 179:.\Generated_Source\PSoC5/TFTSHIELD_1_SPIM_1_INT.c ****         }
 180:.\Generated_Source\PSoC5/TFTSHIELD_1_SPIM_1_INT.c **** 
 181:.\Generated_Source\PSoC5/TFTSHIELD_1_SPIM_1_INT.c ****     #endif /* (TFTSHIELD_1_SPIM_1_RX_SOFTWARE_BUF_ENABLED) */
 182:.\Generated_Source\PSoC5/TFTSHIELD_1_SPIM_1_INT.c **** 
 183:.\Generated_Source\PSoC5/TFTSHIELD_1_SPIM_1_INT.c ****     /* User code required at end of ISR (Optional) */
 184:.\Generated_Source\PSoC5/TFTSHIELD_1_SPIM_1_INT.c ****     /* `#START TFTSHIELD_1_SPIM_1_RX_ISR_END` */
 185:.\Generated_Source\PSoC5/TFTSHIELD_1_SPIM_1_INT.c **** 
 186:.\Generated_Source\PSoC5/TFTSHIELD_1_SPIM_1_INT.c ****     /* `#END` */
 187:.\Generated_Source\PSoC5/TFTSHIELD_1_SPIM_1_INT.c **** }
 317              		.loc 1 187 0
 318 013e 07F10C07 		add	r7, r7, #12
 319 0142 BD46     		mov	sp, r7
 320 0144 80BC     		pop	{r7}
 321 0146 7047     		bx	lr
 322              		.cfi_endproc
 323              	.LFE1:
 324              		.size	TFTSHIELD_1_SPIM_1_RX_ISR, .-TFTSHIELD_1_SPIM_1_RX_ISR
ARM GAS  C:\Users\barror2\AppData\Local\Temp\ccHtZiyB.s 			page 10


 325              		.text
 326              	.Letext0:
 327              		.file 2 ".\\Generated_Source\\PSoC5\\cytypes.h"
 328              		.file 3 ".\\Generated_Source\\PSoC5\\TFTSHIELD_1_SPIM_1_PVT.h"