ARM GAS  C:\Users\barror2\AppData\Local\Temp\ccQzPEXq.s 			page 1


   1              		.syntax unified
   2              		.cpu cortex-m3
   3              		.fpu softvfp
   4              		.eabi_attribute 20, 1
   5              		.eabi_attribute 21, 1
   6              		.eabi_attribute 23, 3
   7              		.eabi_attribute 24, 1
   8              		.eabi_attribute 25, 1
   9              		.eabi_attribute 26, 1
  10              		.eabi_attribute 30, 6
  11              		.eabi_attribute 34, 1
  12              		.eabi_attribute 18, 4
  13              		.thumb
  14              		.file	"main.c"
  15              		.text
  16              	.Ltext0:
  17              		.cfi_sections	.debug_frame
  18              		.comm	cursor_x,2,2
  19              		.comm	cursor_y,2,2
  20              		.comm	textcolor,2,2
  21              		.comm	textbgcolor,2,2
  22              		.comm	textsize,1,1
  23              		.comm	rotation,1,1
  24              		.comm	wrap,1,1
  25              		.comm	_width,4,4
  26              		.comm	_height,4,4
  27              		.section	.rodata
  28              		.align	2
  29              	.LC0:
  30 0000 FFFFFFFF 		.word	-1
  31 0004 FFFFFFFF 		.word	-1
  32 0008 FFFFFFFF 		.word	-1
  33 000c FFFFFFFF 		.word	-1
  34 0010 FFFFFFFF 		.word	-1
  35 0014 FFFFFFFF 		.word	-1
  36 0018 FFFFFFFF 		.word	-1
  37 001c FFFFFFFF 		.word	-1
  38              		.section	.text.main,"ax",%progbits
  39              		.align	2
  40              		.global	main
  41              		.thumb
  42              		.thumb_func
  43              		.type	main, %function
  44              	main:
  45              	.LFB56:
  46              		.file 1 ".\\main.c"
   1:.\main.c      **** /*******************************************************************************
   2:.\main.c      **** * \file main.c
   3:.\main.c      **** * \brief This program generates functionality for TFT shield to be used as an input/output device f
   4:.\main.c      **** *
   5:.\main.c      **** * Version 1.0
   6:.\main.c      **** *
   7:.\main.c      **** * \author Brian Bradley
   8:.\main.c      **** *
   9:.\main.c      **** * \bug 
  10:.\main.c      **** *******************************************************************************/
  11:.\main.c      **** #include <project.h>
ARM GAS  C:\Users\barror2\AppData\Local\Temp\ccQzPEXq.s 			page 2


  12:.\main.c      **** #include "stdio.h"
  13:.\main.c      **** 
  14:.\main.c      **** // This is calibration data for the raw touch data to the screen coordinates
  15:.\main.c      **** #define TS_MINX 150
  16:.\main.c      **** #define TS_MINY 130
  17:.\main.c      **** #define TS_MAXX 3800
  18:.\main.c      **** #define TS_MAXY 4000
  19:.\main.c      **** 
  20:.\main.c      **** #define x_max 240
  21:.\main.c      **** #define y_max 320 //screen resolution
  22:.\main.c      **** #define top_space 25
  23:.\main.c      **** #define push_buttons 4
  24:.\main.c      **** #define LEDs 4
  25:.\main.c      **** #define switches 4
  26:.\main.c      **** #define HEX 1
  27:.\main.c      **** 
  28:.\main.c      **** long mapCoor(long x, long in_min, long in_max, long out_min, long out_max);
  29:.\main.c      **** void DrawPushbutton(int i);
  30:.\main.c      **** void DrawLED(int i, int state);
  31:.\main.c      **** int InputTouched(); // -1 if PB not touched 0 for first PB
  32:.\main.c      **** void TFT_INIT();
  33:.\main.c      **** void DrawSlideSwitch(int i, int state);
  34:.\main.c      **** void DrawHex(int i, uint8 stat);
  35:.\main.c      **** void DrawHEX_a(int i, uint8 state);
  36:.\main.c      **** void DrawHEX_b(int i, uint8 state);
  37:.\main.c      **** void DrawHEX_c(int i, uint8 state);
  38:.\main.c      **** void DrawHEX_d(int i, uint8 state);
  39:.\main.c      **** void DrawHEX_e(int i, uint8 state);
  40:.\main.c      **** void DrawHEX_f(int i, uint8 state);
  41:.\main.c      **** void DrawHEX_g(int i, uint8 state);
  42:.\main.c      **** void DrawInputs();
  43:.\main.c      **** void DrawOutputs();
  44:.\main.c      **** //int EditLayout();
  45:.\main.c      **** void waiting();
  46:.\main.c      **** 
  47:.\main.c      **** int main()
  48:.\main.c      **** {   
  47              		.loc 1 48 0
  48              		.cfi_startproc
  49              		@ args = 0, pretend = 0, frame = 120
  50              		@ frame_needed = 1, uses_anonymous_args = 0
  51 0000 B0B5     		push	{r4, r5, r7, lr}
  52              	.LCFI0:
  53              		.cfi_def_cfa_offset 16
  54              		.cfi_offset 4, -16
  55              		.cfi_offset 5, -12
  56              		.cfi_offset 7, -8
  57              		.cfi_offset 14, -4
  58 0002 A0B0     		sub	sp, sp, #128
  59              	.LCFI1:
  60              		.cfi_def_cfa_offset 144
  61 0004 02AF     		add	r7, sp, #8
  62              	.LCFI2:
  63              		.cfi_def_cfa 7, 136
  49:.\main.c      ****     TFT_INIT();
  64              		.loc 1 49 0
  65 0006 FFF7FEFF 		bl	TFT_INIT
ARM GAS  C:\Users\barror2\AppData\Local\Temp\ccQzPEXq.s 			page 3


  50:.\main.c      ****     int SW_state[] = {-1,-1,-1,-1,-1,-1,-1,-1};//init data vessel for Switch states
  66              		.loc 1 50 0
  67 000a 40F20003 		movw	r3, #:lower16:.LC0
  68 000e C0F20003 		movt	r3, #:upper16:.LC0
  69 0012 07F13804 		add	r4, r7, #56
  70 0016 1D46     		mov	r5, r3
  71 0018 0FCD     		ldmia	r5!, {r0, r1, r2, r3}
  72 001a 0FC4     		stmia	r4!, {r0, r1, r2, r3}
  73 001c 95E80F00 		ldmia	r5, {r0, r1, r2, r3}
  74 0020 84E80F00 		stmia	r4, {r0, r1, r2, r3}
  51:.\main.c      ****     TFTSHIELD_1_FillRoundRect(0, 0, 25, 320, 5, RED);//Filling the top for menu access
  75              		.loc 1 51 0
  76 0024 4FF00503 		mov	r3, #5
  77 0028 0093     		str	r3, [sp, #0]
  78 002a 4FF47843 		mov	r3, #63488
  79 002e 0193     		str	r3, [sp, #4]
  80 0030 4FF00000 		mov	r0, #0
  81 0034 4FF00001 		mov	r1, #0
  82 0038 4FF01902 		mov	r2, #25
  83 003c 4FF4A073 		mov	r3, #320
  84 0040 FFF7FEFF 		bl	TFTSHIELD_1_FillRoundRect
  52:.\main.c      ****     
  53:.\main.c      ****    // int Data=EditLayout();
  54:.\main.c      ****     DrawInputs();
  85              		.loc 1 54 0
  86 0044 FFF7FEFF 		bl	DrawInputs
  55:.\main.c      ****     DrawOutputs();
  87              		.loc 1 55 0
  88 0048 FFF7FEFF 		bl	DrawOutputs
  89              	.L20:
  90              	.LBB2:
  56:.\main.c      ****    
  57:.\main.c      ****     for(;;) //program loop
  58:.\main.c      ****     {  int i =0;
  91              		.loc 1 58 0
  92 004c 4FF00003 		mov	r3, #0
  93 0050 7B67     		str	r3, [r7, #116]
  59:.\main.c      ****        int SW_state_prev[8];
  60:.\main.c      ****        for (i = 0 ; i<8 ; i++){SW_state_prev[i]=SW_state[i];}
  94              		.loc 1 60 0
  95 0052 4FF00003 		mov	r3, #0
  96 0056 7B67     		str	r3, [r7, #116]
  97 0058 13E0     		b	.L2
  98              	.L3:
  99              		.loc 1 60 0 is_stmt 0 discriminator 2
 100 005a 7B6F     		ldr	r3, [r7, #116]
 101 005c 4FEA8303 		lsl	r3, r3, #2
 102 0060 07F17801 		add	r1, r7, #120
 103 0064 CB18     		adds	r3, r1, r3
 104 0066 53F8402C 		ldr	r2, [r3, #-64]
 105 006a 7B6F     		ldr	r3, [r7, #116]
 106 006c 4FEA8303 		lsl	r3, r3, #2
 107 0070 07F17801 		add	r1, r7, #120
 108 0074 CB18     		adds	r3, r1, r3
 109 0076 43F8742C 		str	r2, [r3, #-116]
 110 007a 7B6F     		ldr	r3, [r7, #116]
 111 007c 03F10103 		add	r3, r3, #1
ARM GAS  C:\Users\barror2\AppData\Local\Temp\ccQzPEXq.s 			page 4


 112 0080 7B67     		str	r3, [r7, #116]
 113              	.L2:
 114              		.loc 1 60 0 discriminator 1
 115 0082 7B6F     		ldr	r3, [r7, #116]
 116 0084 072B     		cmp	r3, #7
 117 0086 E8DD     		ble	.L3
  61:.\main.c      ****        //for (i = switches; i < switches + push_buttons; i++){DrawLED(i,0);} 
  62:.\main.c      ****        PushButton_Register_Write(0x00);//clear PB states
 118              		.loc 1 62 0 is_stmt 1
 119 0088 4FF00000 		mov	r0, #0
 120 008c FFF7FEFF 		bl	PushButton_Register_Write
  63:.\main.c      **** 
  64:.\main.c      ****        int touched = InputTouched(); //returns which input was touched, -1 for none, 0 for first in
 121              		.loc 1 64 0
 122 0090 FFF7FEFF 		bl	InputTouched
 123 0094 7866     		str	r0, [r7, #100]
  65:.\main.c      ****        if (touched>=0 && touched<switches){SW_state[touched]*=-1;}//switch hit
 124              		.loc 1 65 0
 125 0096 7B6E     		ldr	r3, [r7, #100]
 126 0098 002B     		cmp	r3, #0
 127 009a 15DB     		blt	.L4
 128              		.loc 1 65 0 is_stmt 0 discriminator 1
 129 009c 7B6E     		ldr	r3, [r7, #100]
 130 009e 032B     		cmp	r3, #3
 131 00a0 12DC     		bgt	.L4
 132 00a2 7B6E     		ldr	r3, [r7, #100]
 133 00a4 4FEA8303 		lsl	r3, r3, #2
 134 00a8 07F17802 		add	r2, r7, #120
 135 00ac D318     		adds	r3, r2, r3
 136 00ae 53F8403C 		ldr	r3, [r3, #-64]
 137 00b2 C3F10002 		rsb	r2, r3, #0
 138 00b6 7B6E     		ldr	r3, [r7, #100]
 139 00b8 4FEA8303 		lsl	r3, r3, #2
 140 00bc 07F17801 		add	r1, r7, #120
 141 00c0 CB18     		adds	r3, r1, r3
 142 00c2 43F8402C 		str	r2, [r3, #-64]
 143 00c6 0DE0     		b	.L5
 144              	.L4:
  66:.\main.c      ****        else if (touched>=switches){PushButton_Register_Write(0x01<<(touched - switches));}//PB hit
 145              		.loc 1 66 0 is_stmt 1
 146 00c8 7B6E     		ldr	r3, [r7, #100]
 147 00ca 032B     		cmp	r3, #3
 148 00cc 0ADD     		ble	.L5
 149              		.loc 1 66 0 is_stmt 0 discriminator 1
 150 00ce 7B6E     		ldr	r3, [r7, #100]
 151 00d0 A3F10403 		sub	r3, r3, #4
 152 00d4 4FF00102 		mov	r2, #1
 153 00d8 02FA03F3 		lsl	r3, r2, r3
 154 00dc DBB2     		uxtb	r3, r3
 155 00de 1846     		mov	r0, r3
 156 00e0 FFF7FEFF 		bl	PushButton_Register_Write
 157              	.L5:
  67:.\main.c      ****       
  68:.\main.c      ****        for (i=0 ; i<switches ; i++) //writing to switches
 158              		.loc 1 68 0 is_stmt 1
 159 00e4 4FF00003 		mov	r3, #0
 160 00e8 7B67     		str	r3, [r7, #116]
ARM GAS  C:\Users\barror2\AppData\Local\Temp\ccQzPEXq.s 			page 5


 161 00ea 8CE0     		b	.L6
 162              	.L14:
  69:.\main.c      ****         {
  70:.\main.c      ****         if (SW_state[i]!=SW_state_prev[i])
 163              		.loc 1 70 0
 164 00ec 7B6F     		ldr	r3, [r7, #116]
 165 00ee 4FEA8303 		lsl	r3, r3, #2
 166 00f2 07F17802 		add	r2, r7, #120
 167 00f6 D318     		adds	r3, r2, r3
 168 00f8 53F8402C 		ldr	r2, [r3, #-64]
 169 00fc 7B6F     		ldr	r3, [r7, #116]
 170 00fe 4FEA8303 		lsl	r3, r3, #2
 171 0102 07F17801 		add	r1, r7, #120
 172 0106 CB18     		adds	r3, r1, r3
 173 0108 53F8743C 		ldr	r3, [r3, #-116]
 174 010c 9A42     		cmp	r2, r3
 175 010e 76D0     		beq	.L7
 176              	.LBB3:
  71:.\main.c      ****             {   
  72:.\main.c      ****                 uint16 sw_stat;
  73:.\main.c      ****                 uint16 new_sw_stat;
  74:.\main.c      ****                 uint16 mask_h;
  75:.\main.c      ****                 uint16 mask_l = 0x01;
 177              		.loc 1 75 0
 178 0110 4FF00103 		mov	r3, #1
 179 0114 A7F87030 		strh	r3, [r7, #112]	@ movhi
  76:.\main.c      ****                 
  77:.\main.c      ****                 sw_stat = Switch_Register_Read();
 180              		.loc 1 77 0
 181 0118 FFF7FEFF 		bl	Switch_Register_Read
 182 011c 0346     		mov	r3, r0
 183 011e A7F86230 		strh	r3, [r7, #98]	@ movhi
  78:.\main.c      ****                 char buffer[50];
  79:.\main.c      ****               
  80:.\main.c      ****             
  81:.\main.c      ****                 if (SW_state[i] == -1)
 184              		.loc 1 81 0
 185 0122 7B6F     		ldr	r3, [r7, #116]
 186 0124 4FEA8303 		lsl	r3, r3, #2
 187 0128 07F17802 		add	r2, r7, #120
 188 012c D318     		adds	r3, r2, r3
 189 012e 53F8403C 		ldr	r3, [r3, #-64]
 190 0132 B3F1FF3F 		cmp	r3, #-1
 191 0136 3FD1     		bne	.L8
 192              	.LBB4:
  82:.\main.c      ****                 {   DrawSlideSwitch(i, -1);
 193              		.loc 1 82 0
 194 0138 786F     		ldr	r0, [r7, #116]
 195 013a 4FF0FF31 		mov	r1, #-1
 196 013e FFF7FEFF 		bl	DrawSlideSwitch
  83:.\main.c      ****                     mask_h=0xFF<<(i+1);
 197              		.loc 1 83 0
 198 0142 7B6F     		ldr	r3, [r7, #116]
 199 0144 03F10103 		add	r3, r3, #1
 200 0148 4FF0FF02 		mov	r2, #255
 201 014c 02FA03F3 		lsl	r3, r2, r3
 202 0150 A7F86030 		strh	r3, [r7, #96]	@ movhi
ARM GAS  C:\Users\barror2\AppData\Local\Temp\ccQzPEXq.s 			page 6


  84:.\main.c      ****                     int k =0;
 203              		.loc 1 84 0
 204 0154 4FF00003 		mov	r3, #0
 205 0158 FB66     		str	r3, [r7, #108]
  85:.\main.c      ****                     if (i!=0){for(k = 1 ; k<i ; k++){mask_l|=(0x01<<k);}}
 206              		.loc 1 85 0
 207 015a 7B6F     		ldr	r3, [r7, #116]
 208 015c 002B     		cmp	r3, #0
 209 015e 18D0     		beq	.L9
 210              		.loc 1 85 0 is_stmt 0 discriminator 1
 211 0160 4FF00103 		mov	r3, #1
 212 0164 FB66     		str	r3, [r7, #108]
 213 0166 0FE0     		b	.L10
 214              	.L11:
 215              		.loc 1 85 0 discriminator 2
 216 0168 4FF00102 		mov	r2, #1
 217 016c FB6E     		ldr	r3, [r7, #108]
 218 016e 02FA03F3 		lsl	r3, r2, r3
 219 0172 9AB2     		uxth	r2, r3
 220 0174 B7F87030 		ldrh	r3, [r7, #112]
 221 0178 1343     		orrs	r3, r3, r2
 222 017a 9BB2     		uxth	r3, r3
 223 017c A7F87030 		strh	r3, [r7, #112]	@ movhi
 224 0180 FB6E     		ldr	r3, [r7, #108]
 225 0182 03F10103 		add	r3, r3, #1
 226 0186 FB66     		str	r3, [r7, #108]
 227              	.L10:
 228              		.loc 1 85 0 discriminator 1
 229 0188 FA6E     		ldr	r2, [r7, #108]
 230 018a 7B6F     		ldr	r3, [r7, #116]
 231 018c 9A42     		cmp	r2, r3
 232 018e EBDB     		blt	.L11
 233              		.loc 1 85 0
 234 0190 03E0     		b	.L12
 235              	.L9:
  86:.\main.c      ****                     else {mask_l = 0x00;}
 236              		.loc 1 86 0 is_stmt 1
 237 0192 4FF00003 		mov	r3, #0
 238 0196 A7F87030 		strh	r3, [r7, #112]	@ movhi
 239              	.L12:
  87:.\main.c      ****                     uint16 mask = mask_h | mask_l;
 240              		.loc 1 87 0
 241 019a B7F86020 		ldrh	r2, [r7, #96]	@ movhi
 242 019e B7F87030 		ldrh	r3, [r7, #112]	@ movhi
 243 01a2 1343     		orrs	r3, r3, r2
 244 01a4 A7F85E30 		strh	r3, [r7, #94]	@ movhi
  88:.\main.c      ****                     new_sw_stat = sw_stat&mask;
 245              		.loc 1 88 0
 246 01a8 B7F86220 		ldrh	r2, [r7, #98]	@ movhi
 247 01ac B7F85E30 		ldrh	r3, [r7, #94]	@ movhi
 248 01b0 1340     		ands	r3, r3, r2
 249 01b2 A7F87230 		strh	r3, [r7, #114]	@ movhi
 250 01b6 1AE0     		b	.L13
 251              	.L8:
 252              	.LBE4:
  89:.\main.c      ****                 }
  90:.\main.c      ****                 
ARM GAS  C:\Users\barror2\AppData\Local\Temp\ccQzPEXq.s 			page 7


  91:.\main.c      ****                 else if (SW_state[i] == 1)
 253              		.loc 1 91 0
 254 01b8 7B6F     		ldr	r3, [r7, #116]
 255 01ba 4FEA8303 		lsl	r3, r3, #2
 256 01be 07F17801 		add	r1, r7, #120
 257 01c2 CB18     		adds	r3, r1, r3
 258 01c4 53F8403C 		ldr	r3, [r3, #-64]
 259 01c8 012B     		cmp	r3, #1
 260 01ca 10D1     		bne	.L13
  92:.\main.c      ****                 {
  93:.\main.c      ****                     DrawSlideSwitch(i, 1);
 261              		.loc 1 93 0
 262 01cc 786F     		ldr	r0, [r7, #116]
 263 01ce 4FF00101 		mov	r1, #1
 264 01d2 FFF7FEFF 		bl	DrawSlideSwitch
  94:.\main.c      ****                     new_sw_stat = (sw_stat) | (0x01 << i);
 265              		.loc 1 94 0
 266 01d6 4FF00102 		mov	r2, #1
 267 01da 7B6F     		ldr	r3, [r7, #116]
 268 01dc 02FA03F3 		lsl	r3, r2, r3
 269 01e0 9AB2     		uxth	r2, r3
 270 01e2 B7F86230 		ldrh	r3, [r7, #98]
 271 01e6 1343     		orrs	r3, r3, r2
 272 01e8 9BB2     		uxth	r3, r3
 273 01ea A7F87230 		strh	r3, [r7, #114]	@ movhi
 274              	.L13:
  95:.\main.c      ****                 }
  96:.\main.c      ****                 
  97:.\main.c      ****                 Switch_Register_Write(new_sw_stat);
 275              		.loc 1 97 0
 276 01ee B7F87230 		ldrh	r3, [r7, #114]	@ movhi
 277 01f2 DBB2     		uxtb	r3, r3
 278 01f4 1846     		mov	r0, r3
 279 01f6 FFF7FEFF 		bl	Switch_Register_Write
  98:.\main.c      ****                 waiting();
 280              		.loc 1 98 0
 281 01fa FFF7FEFF 		bl	waiting
 282              	.L7:
 283              	.LBE3:
  68:.\main.c      ****        for (i=0 ; i<switches ; i++) //writing to switches
 284              		.loc 1 68 0
 285 01fe 7B6F     		ldr	r3, [r7, #116]
 286 0200 03F10103 		add	r3, r3, #1
 287 0204 7B67     		str	r3, [r7, #116]
 288              	.L6:
  68:.\main.c      ****        for (i=0 ; i<switches ; i++) //writing to switches
 289              		.loc 1 68 0 is_stmt 0 discriminator 1
 290 0206 7B6F     		ldr	r3, [r7, #116]
 291 0208 032B     		cmp	r3, #3
 292 020a 7FF76FAF 		ble	.L14
  99:.\main.c      ****                 
 100:.\main.c      ****             }
 101:.\main.c      ****             
 102:.\main.c      ****              
 103:.\main.c      ****         }
 104:.\main.c      ****         
 105:.\main.c      ****         uint16 LED_stat = LED_Register_Read();
ARM GAS  C:\Users\barror2\AppData\Local\Temp\ccQzPEXq.s 			page 8


 293              		.loc 1 105 0 is_stmt 1
 294 020e FFF7FEFF 		bl	LED_Register_Read
 295 0212 0346     		mov	r3, r0
 296 0214 A7F85C30 		strh	r3, [r7, #92]	@ movhi
 106:.\main.c      ****         uint16 prev_LED_stat;   
 107:.\main.c      ****         
 108:.\main.c      ****         
 109:.\main.c      ****         for (i = 0 ; i< LEDs ; i++)
 297              		.loc 1 109 0
 298 0218 4FF00003 		mov	r3, #0
 299 021c 7B67     		str	r3, [r7, #116]
 300 021e 3EE0     		b	.L15
 301              	.L18:
 302              	.LBB5:
 110:.\main.c      ****             {
 111:.\main.c      ****               uint8 LED_i_state = LED_stat&(0x01<<i);
 303              		.loc 1 111 0
 304 0220 B7F85C30 		ldrh	r3, [r7, #92]	@ movhi
 305 0224 DAB2     		uxtb	r2, r3
 306 0226 4FF00101 		mov	r1, #1
 307 022a 7B6F     		ldr	r3, [r7, #116]
 308 022c 01FA03F3 		lsl	r3, r1, r3
 309 0230 DBB2     		uxtb	r3, r3
 310 0232 1340     		ands	r3, r3, r2
 311 0234 DBB2     		uxtb	r3, r3
 312 0236 87F85B30 		strb	r3, [r7, #91]
 112:.\main.c      ****               uint8 prev_LED_i_stat = prev_LED_stat&(0x01<<i);
 313              		.loc 1 112 0
 314 023a B7F86A30 		ldrh	r3, [r7, #106]	@ movhi
 315 023e DAB2     		uxtb	r2, r3
 316 0240 4FF00101 		mov	r1, #1
 317 0244 7B6F     		ldr	r3, [r7, #116]
 318 0246 01FA03F3 		lsl	r3, r1, r3
 319 024a DBB2     		uxtb	r3, r3
 320 024c 1340     		ands	r3, r3, r2
 321 024e DBB2     		uxtb	r3, r3
 322 0250 87F85A30 		strb	r3, [r7, #90]
 113:.\main.c      ****               if (LED_i_state!=0 && prev_LED_i_stat == 0){DrawLED(i+HEX, 1);}
 323              		.loc 1 113 0
 324 0254 97F85B30 		ldrb	r3, [r7, #91]	@ zero_extendqisi2
 325 0258 002B     		cmp	r3, #0
 326 025a 0CD0     		beq	.L16
 327              		.loc 1 113 0 is_stmt 0 discriminator 1
 328 025c 97F85A30 		ldrb	r3, [r7, #90]	@ zero_extendqisi2
 329 0260 002B     		cmp	r3, #0
 330 0262 08D1     		bne	.L16
 331 0264 7B6F     		ldr	r3, [r7, #116]
 332 0266 03F10103 		add	r3, r3, #1
 333 026a 1846     		mov	r0, r3
 334 026c 4FF00101 		mov	r1, #1
 335 0270 FFF7FEFF 		bl	DrawLED
 336 0274 0FE0     		b	.L17
 337              	.L16:
 114:.\main.c      ****               else if (LED_i_state == 0 && prev_LED_i_stat !=0){DrawLED(i+HEX, 0);}
 338              		.loc 1 114 0 is_stmt 1
 339 0276 97F85B30 		ldrb	r3, [r7, #91]	@ zero_extendqisi2
 340 027a 002B     		cmp	r3, #0
ARM GAS  C:\Users\barror2\AppData\Local\Temp\ccQzPEXq.s 			page 9


 341 027c 0BD1     		bne	.L17
 342              		.loc 1 114 0 is_stmt 0 discriminator 1
 343 027e 97F85A30 		ldrb	r3, [r7, #90]	@ zero_extendqisi2
 344 0282 002B     		cmp	r3, #0
 345 0284 07D0     		beq	.L17
 346 0286 7B6F     		ldr	r3, [r7, #116]
 347 0288 03F10103 		add	r3, r3, #1
 348 028c 1846     		mov	r0, r3
 349 028e 4FF00001 		mov	r1, #0
 350 0292 FFF7FEFF 		bl	DrawLED
 351              	.L17:
 352              	.LBE5:
 109:.\main.c      ****         for (i = 0 ; i< LEDs ; i++)
 353              		.loc 1 109 0 is_stmt 1
 354 0296 7B6F     		ldr	r3, [r7, #116]
 355 0298 03F10103 		add	r3, r3, #1
 356 029c 7B67     		str	r3, [r7, #116]
 357              	.L15:
 109:.\main.c      ****         for (i = 0 ; i< LEDs ; i++)
 358              		.loc 1 109 0 is_stmt 0 discriminator 1
 359 029e 7B6F     		ldr	r3, [r7, #116]
 360 02a0 032B     		cmp	r3, #3
 361 02a2 BDDD     		ble	.L18
 115:.\main.c      ****             }
 116:.\main.c      ****          prev_LED_stat = LED_stat;   
 362              		.loc 1 116 0 is_stmt 1
 363 02a4 B7F85C30 		ldrh	r3, [r7, #92]	@ movhi
 364 02a8 A7F86A30 		strh	r3, [r7, #106]	@ movhi
 117:.\main.c      ****          
 118:.\main.c      ****         uint16 prev_hex_stat;
 119:.\main.c      ****         uint16 hex_stat = Seven_Segment_Register_Read();
 365              		.loc 1 119 0
 366 02ac FFF7FEFF 		bl	Seven_Segment_Register_Read
 367 02b0 0346     		mov	r3, r0
 368 02b2 A7F85830 		strh	r3, [r7, #88]	@ movhi
 120:.\main.c      ****         if (hex_stat!=prev_hex_stat){DrawHex(0, hex_stat);}
 369              		.loc 1 120 0
 370 02b6 B7F85820 		ldrh	r2, [r7, #88]
 371 02ba B7F86830 		ldrh	r3, [r7, #104]
 372 02be 9A42     		cmp	r2, r3
 373 02c0 07D0     		beq	.L19
 374              		.loc 1 120 0 is_stmt 0 discriminator 1
 375 02c2 B7F85830 		ldrh	r3, [r7, #88]	@ movhi
 376 02c6 DBB2     		uxtb	r3, r3
 377 02c8 4FF00000 		mov	r0, #0
 378 02cc 1946     		mov	r1, r3
 379 02ce FFF7FEFF 		bl	DrawHex
 380              	.L19:
 121:.\main.c      ****         prev_hex_stat = hex_stat;
 381              		.loc 1 121 0 is_stmt 1
 382 02d2 B7F85830 		ldrh	r3, [r7, #88]	@ movhi
 383 02d6 A7F86830 		strh	r3, [r7, #104]	@ movhi
 384              	.LBE2:
 122:.\main.c      ****         
 123:.\main.c      ****        
 124:.\main.c      ****     } 
 385              		.loc 1 124 0
ARM GAS  C:\Users\barror2\AppData\Local\Temp\ccQzPEXq.s 			page 10


 386 02da B7E6     		b	.L20
 387              		.cfi_endproc
 388              	.LFE56:
 389              		.size	main, .-main
 390              		.global	__aeabi_i2d
 391              		.global	__aeabi_dcmpgt
 392              		.global	__aeabi_dmul
 393              		.global	__aeabi_dsub
 394              		.global	__aeabi_d2iz
 395              		.global	__aeabi_ddiv
 396              		.section	.text.DrawPushbutton,"ax",%progbits
 397              		.align	2
 398              		.global	DrawPushbutton
 399              		.thumb
 400              		.thumb_func
 401              		.type	DrawPushbutton, %function
 402              	DrawPushbutton:
 403              	.LFB57:
 125:.\main.c      ****  }
 126:.\main.c      ****  
 127:.\main.c      **** 
 128:.\main.c      **** void DrawPushbutton(int i)
 129:.\main.c      **** {
 404              		.loc 1 129 0
 405              		.cfi_startproc
 406              		@ args = 0, pretend = 0, frame = 48
 407              		@ frame_needed = 1, uses_anonymous_args = 0
 408 0000 90B5     		push	{r4, r7, lr}
 409              	.LCFI3:
 410              		.cfi_def_cfa_offset 12
 411              		.cfi_offset 4, -12
 412              		.cfi_offset 7, -8
 413              		.cfi_offset 14, -4
 414 0002 8FB0     		sub	sp, sp, #60
 415              	.LCFI4:
 416              		.cfi_def_cfa_offset 72
 417 0004 02AF     		add	r7, sp, #8
 418              	.LCFI5:
 419              		.cfi_def_cfa 7, 64
 420 0006 7860     		str	r0, [r7, #4]
 130:.\main.c      ****     int separation_PB;
 131:.\main.c      ****     int inputs = switches + push_buttons;
 421              		.loc 1 131 0
 422 0008 4FF00803 		mov	r3, #8
 423 000c 3B62     		str	r3, [r7, #32]
 132:.\main.c      ****     
 133:.\main.c      ****     if (inputs>0){separation_PB = y_max/inputs;}//check for div by zero 
 424              		.loc 1 133 0
 425 000e 3B6A     		ldr	r3, [r7, #32]
 426 0010 002B     		cmp	r3, #0
 427 0012 06DD     		ble	.L22
 428              		.loc 1 133 0 is_stmt 0 discriminator 1
 429 0014 4FF4A072 		mov	r2, #320
 430 0018 3B6A     		ldr	r3, [r7, #32]
 431 001a 92FBF3F3 		sdiv	r3, r2, r3
 432 001e FB62     		str	r3, [r7, #44]
 433 0020 02E0     		b	.L23
ARM GAS  C:\Users\barror2\AppData\Local\Temp\ccQzPEXq.s 			page 11


 434              	.L22:
 134:.\main.c      ****     else{separation_PB = y_max + 1;}
 435              		.loc 1 134 0 is_stmt 1
 436 0022 40F24113 		movw	r3, #321
 437 0026 FB62     		str	r3, [r7, #44]
 438              	.L23:
 135:.\main.c      ****     
 136:.\main.c      ****     int width_PB = separation_PB/2; //forcing width to be the same as width of the switches.
 439              		.loc 1 136 0
 440 0028 FB6A     		ldr	r3, [r7, #44]
 441 002a 4FEAD372 		lsr	r2, r3, #31
 442 002e D318     		adds	r3, r2, r3
 443 0030 4FEA6303 		asr	r3, r3, #1
 444 0034 BB62     		str	r3, [r7, #40]
 137:.\main.c      ****     int length_PB = width_PB;
 445              		.loc 1 137 0
 446 0036 BB6A     		ldr	r3, [r7, #40]
 447 0038 7B62     		str	r3, [r7, #36]
 138:.\main.c      ****     
 139:.\main.c      ****     if (length_PB>x_max/2.5 - top_space )
 448              		.loc 1 139 0
 449 003a 786A     		ldr	r0, [r7, #36]
 450 003c FFF7FEFF 		bl	__aeabi_i2d
 451 0040 0246     		mov	r2, r0
 452 0042 0B46     		mov	r3, r1
 453 0044 1046     		mov	r0, r2
 454 0046 1946     		mov	r1, r3
 455 0048 5BA3     		adr	r3, .L27
 456 004a D3E90023 		ldrd	r2, [r3]
 457 004e FFF7FEFF 		bl	__aeabi_dcmpgt
 458 0052 0346     		mov	r3, r0
 459 0054 002B     		cmp	r3, #0
 460 0056 08D0     		beq	.L24
 461              	.L26:
 140:.\main.c      ****     {   
 141:.\main.c      ****         length_PB = x_max/2.5 - top_space;
 462              		.loc 1 141 0
 463 0058 4FF04703 		mov	r3, #71
 464 005c 7B62     		str	r3, [r7, #36]
 142:.\main.c      ****         width_PB = length_PB;
 465              		.loc 1 142 0
 466 005e 7B6A     		ldr	r3, [r7, #36]
 467 0060 BB62     		str	r3, [r7, #40]
 143:.\main.c      ****         separation_PB = 2*width_PB;
 468              		.loc 1 143 0
 469 0062 BB6A     		ldr	r3, [r7, #40]
 470 0064 4FEA4303 		lsl	r3, r3, #1
 471 0068 FB62     		str	r3, [r7, #44]
 472              	.L24:
 144:.\main.c      ****     }
 145:.\main.c      ****     
 146:.\main.c      ****     int empty_PB =y_max/(inputs+1) - width_PB/2;
 473              		.loc 1 146 0
 474 006a 3B6A     		ldr	r3, [r7, #32]
 475 006c 03F10103 		add	r3, r3, #1
 476 0070 4FF4A072 		mov	r2, #320
 477 0074 92FBF3F2 		sdiv	r2, r2, r3
ARM GAS  C:\Users\barror2\AppData\Local\Temp\ccQzPEXq.s 			page 12


 478 0078 BB6A     		ldr	r3, [r7, #40]
 479 007a 4FEAD371 		lsr	r1, r3, #31
 480 007e CB18     		adds	r3, r1, r3
 481 0080 4FEA6303 		asr	r3, r3, #1
 482 0084 D31A     		subs	r3, r2, r3
 483 0086 FB61     		str	r3, [r7, #28]
 147:.\main.c      ****     //needs to start drawing so it is centered with switches, length of switch is twice length of P
 148:.\main.c      ****     int x_PB = x_max - 2.5*length_PB;
 484              		.loc 1 148 0
 485 0088 786A     		ldr	r0, [r7, #36]
 486 008a FFF7FEFF 		bl	__aeabi_i2d
 487 008e 0246     		mov	r2, r0
 488 0090 0B46     		mov	r3, r1
 489 0092 1046     		mov	r0, r2
 490 0094 1946     		mov	r1, r3
 491 0096 4FF00002 		mov	r2, #0
 492 009a 4FF00003 		mov	r3, #0
 493 009e C4F20403 		movt	r3, 16388
 494 00a2 FFF7FEFF 		bl	__aeabi_dmul
 495 00a6 0246     		mov	r2, r0
 496 00a8 0B46     		mov	r3, r1
 497 00aa 4FF00000 		mov	r0, #0
 498 00ae 4FF00001 		mov	r1, #0
 499 00b2 C4F26E01 		movt	r1, 16494
 500 00b6 FFF7FEFF 		bl	__aeabi_dsub
 501 00ba 0246     		mov	r2, r0
 502 00bc 0B46     		mov	r3, r1
 503 00be 1046     		mov	r0, r2
 504 00c0 1946     		mov	r1, r3
 505 00c2 FFF7FEFF 		bl	__aeabi_d2iz
 506 00c6 0346     		mov	r3, r0
 507 00c8 BB61     		str	r3, [r7, #24]
 149:.\main.c      ****  
 150:.\main.c      ****     TFTSHIELD_1_FillRect(x_PB, (i+1)*empty_PB + i*width_PB/2, length_PB, width_PB, GRAY);
 508              		.loc 1 150 0
 509 00ca BB69     		ldr	r3, [r7, #24]
 510 00cc 98B2     		uxth	r0, r3
 511 00ce 7B68     		ldr	r3, [r7, #4]
 512 00d0 03F10103 		add	r3, r3, #1
 513 00d4 9BB2     		uxth	r3, r3
 514 00d6 FA69     		ldr	r2, [r7, #28]
 515 00d8 92B2     		uxth	r2, r2
 516 00da 02FB03F3 		mul	r3, r2, r3
 517 00de 9AB2     		uxth	r2, r3
 518 00e0 7B68     		ldr	r3, [r7, #4]
 519 00e2 B96A     		ldr	r1, [r7, #40]
 520 00e4 01FB03F3 		mul	r3, r1, r3
 521 00e8 4FEAD371 		lsr	r1, r3, #31
 522 00ec CB18     		adds	r3, r1, r3
 523 00ee 4FEA6303 		asr	r3, r3, #1
 524 00f2 9BB2     		uxth	r3, r3
 525 00f4 D318     		adds	r3, r2, r3
 526 00f6 9BB2     		uxth	r3, r3
 527 00f8 99B2     		uxth	r1, r3
 528 00fa 7B6A     		ldr	r3, [r7, #36]
 529 00fc 9AB2     		uxth	r2, r3
 530 00fe BB6A     		ldr	r3, [r7, #40]
ARM GAS  C:\Users\barror2\AppData\Local\Temp\ccQzPEXq.s 			page 13


 531 0100 9BB2     		uxth	r3, r3
 532 0102 00B2     		sxth	r0, r0
 533 0104 09B2     		sxth	r1, r1
 534 0106 12B2     		sxth	r2, r2
 535 0108 1BB2     		sxth	r3, r3
 536 010a 47F6EF34 		movw	r4, #31727
 537 010e 0094     		str	r4, [sp, #0]
 538 0110 FFF7FEFF 		bl	TFTSHIELD_1_FillRect
 151:.\main.c      ****     
 152:.\main.c      ****     int center_PB_x = x_PB + length_PB/2;
 539              		.loc 1 152 0
 540 0114 7B6A     		ldr	r3, [r7, #36]
 541 0116 4FEAD372 		lsr	r2, r3, #31
 542 011a D318     		adds	r3, r2, r3
 543 011c 4FEA6303 		asr	r3, r3, #1
 544 0120 1A46     		mov	r2, r3
 545 0122 BB69     		ldr	r3, [r7, #24]
 546 0124 D318     		adds	r3, r2, r3
 547 0126 7B61     		str	r3, [r7, #20]
 153:.\main.c      ****     int radius_PB = (width_PB*0.75)/2;
 548              		.loc 1 153 0
 549 0128 B86A     		ldr	r0, [r7, #40]
 550 012a FFF7FEFF 		bl	__aeabi_i2d
 551 012e 0246     		mov	r2, r0
 552 0130 0B46     		mov	r3, r1
 553 0132 1046     		mov	r0, r2
 554 0134 1946     		mov	r1, r3
 555 0136 4FF00002 		mov	r2, #0
 556 013a 4FF00003 		mov	r3, #0
 557 013e C3F6E873 		movt	r3, 16360
 558 0142 FFF7FEFF 		bl	__aeabi_dmul
 559 0146 0246     		mov	r2, r0
 560 0148 0B46     		mov	r3, r1
 561 014a 1046     		mov	r0, r2
 562 014c 1946     		mov	r1, r3
 563 014e 4FF00002 		mov	r2, #0
 564 0152 4FF08043 		mov	r3, #1073741824
 565 0156 FFF7FEFF 		bl	__aeabi_ddiv
 566 015a 0246     		mov	r2, r0
 567 015c 0B46     		mov	r3, r1
 568 015e 1046     		mov	r0, r2
 569 0160 1946     		mov	r1, r3
 570 0162 FFF7FEFF 		bl	__aeabi_d2iz
 571 0166 0346     		mov	r3, r0
 572 0168 3B61     		str	r3, [r7, #16]
 154:.\main.c      ****     int center_PB_y = (i+1)*empty_PB + (i+1)*width_PB/2;
 573              		.loc 1 154 0
 574 016a 7B68     		ldr	r3, [r7, #4]
 575 016c 03F10103 		add	r3, r3, #1
 576 0170 FA69     		ldr	r2, [r7, #28]
 577 0172 02FB03F2 		mul	r2, r2, r3
 578 0176 7B68     		ldr	r3, [r7, #4]
 579 0178 03F10103 		add	r3, r3, #1
 580 017c B96A     		ldr	r1, [r7, #40]
 581 017e 01FB03F3 		mul	r3, r1, r3
 582 0182 4FEAD371 		lsr	r1, r3, #31
 583 0186 CB18     		adds	r3, r1, r3
ARM GAS  C:\Users\barror2\AppData\Local\Temp\ccQzPEXq.s 			page 14


 584 0188 4FEA6303 		asr	r3, r3, #1
 585 018c D318     		adds	r3, r2, r3
 586 018e FB60     		str	r3, [r7, #12]
 155:.\main.c      ****     TFTSHIELD_1_FillCircle(center_PB_x, center_PB_y, radius_PB, BLACK);
 587              		.loc 1 155 0
 588 0190 7B69     		ldr	r3, [r7, #20]
 589 0192 99B2     		uxth	r1, r3
 590 0194 FB68     		ldr	r3, [r7, #12]
 591 0196 9AB2     		uxth	r2, r3
 592 0198 3B69     		ldr	r3, [r7, #16]
 593 019a 9BB2     		uxth	r3, r3
 594 019c 09B2     		sxth	r1, r1
 595 019e 12B2     		sxth	r2, r2
 596 01a0 1BB2     		sxth	r3, r3
 597 01a2 0846     		mov	r0, r1
 598 01a4 1146     		mov	r1, r2
 599 01a6 1A46     		mov	r2, r3
 600 01a8 4FF00003 		mov	r3, #0
 601 01ac FFF7FEFF 		bl	TFTSHIELD_1_FillCircle
 156:.\main.c      **** }
 602              		.loc 1 156 0
 603 01b0 07F13407 		add	r7, r7, #52
 604 01b4 BD46     		mov	sp, r7
 605 01b6 90BD     		pop	{r4, r7, pc}
 606              	.L28:
 607              		.align	3
 608              	.L27:
 609 01b8 00000000 		.word	0
 610 01bc 00C05140 		.word	1079099392
 611              		.cfi_endproc
 612              	.LFE57:
 613              		.size	DrawPushbutton, .-DrawPushbutton
 614              		.section	.text.waiting,"ax",%progbits
 615              		.align	2
 616              		.global	waiting
 617              		.thumb
 618              		.thumb_func
 619              		.type	waiting, %function
 620              	waiting:
 621              	.LFB58:
 157:.\main.c      **** void waiting()//if the TFT is touched, wait until it is released.
 158:.\main.c      **** {
 622              		.loc 1 158 0
 623              		.cfi_startproc
 624              		@ args = 0, pretend = 0, frame = 0
 625              		@ frame_needed = 1, uses_anonymous_args = 0
 626 0000 80B5     		push	{r7, lr}
 627              	.LCFI6:
 628              		.cfi_def_cfa_offset 8
 629              		.cfi_offset 7, -8
 630              		.cfi_offset 14, -4
 631 0002 00AF     		add	r7, sp, #0
 632              	.LCFI7:
 633              		.cfi_def_cfa_register 7
 159:.\main.c      ****     Clock_1_SetDividerValue(24);//Clock division needed for touch
 634              		.loc 1 159 0
 635 0004 4FF01700 		mov	r0, #23
ARM GAS  C:\Users\barror2\AppData\Local\Temp\ccQzPEXq.s 			page 15


 636 0008 4FF00101 		mov	r1, #1
 637 000c FFF7FEFF 		bl	Clock_1_SetDividerRegister
 160:.\main.c      ****     if (TFTSHIELD_1_Touched()){while (TFTSHIELD_1_Touched()){}} //waiting until PB is released
 638              		.loc 1 160 0
 639 0010 FFF7FEFF 		bl	TFTSHIELD_1_Touched
 640 0014 0346     		mov	r3, r0
 641 0016 002B     		cmp	r3, #0
 642 0018 05D0     		beq	.L30
 643 001a 00BF     		nop
 644              	.L31:
 645              		.loc 1 160 0 is_stmt 0 discriminator 1
 646 001c FFF7FEFF 		bl	TFTSHIELD_1_Touched
 647 0020 0346     		mov	r3, r0
 648 0022 002B     		cmp	r3, #0
 649 0024 FAD1     		bne	.L31
 650              	.L30:
 161:.\main.c      ****     Clock_1_SetDividerValue(1);//reset clock divider
 651              		.loc 1 161 0 is_stmt 1
 652 0026 4FF00000 		mov	r0, #0
 653 002a 4FF00101 		mov	r1, #1
 654 002e FFF7FEFF 		bl	Clock_1_SetDividerRegister
 162:.\main.c      **** }
 655              		.loc 1 162 0
 656 0032 80BD     		pop	{r7, pc}
 657              		.cfi_endproc
 658              	.LFE58:
 659              		.size	waiting, .-waiting
 660              		.global	__aeabi_dadd
 661              		.global	__aeabi_dcmplt
 662              		.section	.text.DrawSlideSwitch,"ax",%progbits
 663              		.align	2
 664              		.global	DrawSlideSwitch
 665              		.thumb
 666              		.thumb_func
 667              		.type	DrawSlideSwitch, %function
 668              	DrawSlideSwitch:
 669              	.LFB59:
 163:.\main.c      **** void DrawSlideSwitch(int i, int state)
 164:.\main.c      **** {
 670              		.loc 1 164 0
 671              		.cfi_startproc
 672              		@ args = 0, pretend = 0, frame = 40
 673              		@ frame_needed = 1, uses_anonymous_args = 0
 674 0000 2DE9F043 		push	{r4, r5, r6, r7, r8, r9, lr}
 675              	.LCFI8:
 676              		.cfi_def_cfa_offset 28
 677              		.cfi_offset 4, -28
 678              		.cfi_offset 5, -24
 679              		.cfi_offset 6, -20
 680              		.cfi_offset 7, -16
 681              		.cfi_offset 8, -12
 682              		.cfi_offset 9, -8
 683              		.cfi_offset 14, -4
 684 0004 8DB0     		sub	sp, sp, #52
 685              	.LCFI9:
 686              		.cfi_def_cfa_offset 80
 687 0006 02AF     		add	r7, sp, #8
ARM GAS  C:\Users\barror2\AppData\Local\Temp\ccQzPEXq.s 			page 16


 688              	.LCFI10:
 689              		.cfi_def_cfa 7, 72
 690 0008 7860     		str	r0, [r7, #4]
 691 000a 3960     		str	r1, [r7, #0]
 165:.\main.c      ****     // slideswitches
 166:.\main.c      ****     int separation_SW;
 167:.\main.c      ****     int inputs = switches + push_buttons;
 692              		.loc 1 167 0
 693 000c 4FF00803 		mov	r3, #8
 694 0010 3B61     		str	r3, [r7, #16]
 168:.\main.c      ****     
 169:.\main.c      ****     if (inputs > 0){ separation_SW = y_max/inputs;} // check for division by zero
 695              		.loc 1 169 0
 696 0012 3B69     		ldr	r3, [r7, #16]
 697 0014 002B     		cmp	r3, #0
 698 0016 06DD     		ble	.L33
 699              		.loc 1 169 0 is_stmt 0 discriminator 1
 700 0018 4FF4A072 		mov	r2, #320
 701 001c 3B69     		ldr	r3, [r7, #16]
 702 001e 92FBF3F3 		sdiv	r3, r2, r3
 703 0022 7B62     		str	r3, [r7, #36]
 704 0024 02E0     		b	.L34
 705              	.L33:
 170:.\main.c      ****     else {separation_SW = y_max + 1;}
 706              		.loc 1 170 0 is_stmt 1
 707 0026 40F24113 		movw	r3, #321
 708 002a 7B62     		str	r3, [r7, #36]
 709              	.L34:
 171:.\main.c      ****     
 172:.\main.c      ****     int width_SW = separation_SW/2;
 710              		.loc 1 172 0
 711 002c 7B6A     		ldr	r3, [r7, #36]
 712 002e 4FEAD372 		lsr	r2, r3, #31
 713 0032 D318     		adds	r3, r2, r3
 714 0034 4FEA6303 		asr	r3, r3, #1
 715 0038 3B62     		str	r3, [r7, #32]
 173:.\main.c      ****     int length_SW = width_SW*2;
 716              		.loc 1 173 0
 717 003a 3B6A     		ldr	r3, [r7, #32]
 718 003c 4FEA4303 		lsl	r3, r3, #1
 719 0040 FB61     		str	r3, [r7, #28]
 174:.\main.c      ****     if (length_SW>x_max/2.5 - top_space )
 720              		.loc 1 174 0
 721 0042 F869     		ldr	r0, [r7, #28]
 722 0044 FFF7FEFF 		bl	__aeabi_i2d
 723 0048 0246     		mov	r2, r0
 724 004a 0B46     		mov	r3, r1
 725 004c 1046     		mov	r0, r2
 726 004e 1946     		mov	r1, r3
 727 0050 3FA3     		adr	r3, .L45
 728 0052 D3E90023 		ldrd	r2, [r3]
 729 0056 FFF7FEFF 		bl	__aeabi_dcmpgt
 730 005a 0346     		mov	r3, r0
 731 005c 002B     		cmp	r3, #0
 732 005e 0DD0     		beq	.L35
 733              	.L44:
 175:.\main.c      ****     {   
ARM GAS  C:\Users\barror2\AppData\Local\Temp\ccQzPEXq.s 			page 17


 176:.\main.c      ****         length_SW = x_max/2.5 - top_space;
 734              		.loc 1 176 0
 735 0060 4FF04703 		mov	r3, #71
 736 0064 FB61     		str	r3, [r7, #28]
 177:.\main.c      ****         width_SW = length_SW/2;
 737              		.loc 1 177 0
 738 0066 FB69     		ldr	r3, [r7, #28]
 739 0068 4FEAD372 		lsr	r2, r3, #31
 740 006c D318     		adds	r3, r2, r3
 741 006e 4FEA6303 		asr	r3, r3, #1
 742 0072 3B62     		str	r3, [r7, #32]
 178:.\main.c      ****         separation_SW = 2*width_SW;
 743              		.loc 1 178 0
 744 0074 3B6A     		ldr	r3, [r7, #32]
 745 0076 4FEA4303 		lsl	r3, r3, #1
 746 007a 7B62     		str	r3, [r7, #36]
 747              	.L35:
 179:.\main.c      ****     }
 180:.\main.c      ****     
 181:.\main.c      ****     int empty_SW =y_max/(inputs+1) - width_SW/2;
 748              		.loc 1 181 0
 749 007c 3B69     		ldr	r3, [r7, #16]
 750 007e 03F10103 		add	r3, r3, #1
 751 0082 4FF4A072 		mov	r2, #320
 752 0086 92FBF3F2 		sdiv	r2, r2, r3
 753 008a 3B6A     		ldr	r3, [r7, #32]
 754 008c 4FEAD371 		lsr	r1, r3, #31
 755 0090 CB18     		adds	r3, r1, r3
 756 0092 4FEA6303 		asr	r3, r3, #1
 757 0096 D31A     		subs	r3, r2, r3
 758 0098 FB60     		str	r3, [r7, #12]
 182:.\main.c      ****     int x_SW = x_max - 1.5*length_SW;
 759              		.loc 1 182 0
 760 009a F869     		ldr	r0, [r7, #28]
 761 009c FFF7FEFF 		bl	__aeabi_i2d
 762 00a0 0246     		mov	r2, r0
 763 00a2 0B46     		mov	r3, r1
 764 00a4 1046     		mov	r0, r2
 765 00a6 1946     		mov	r1, r3
 766 00a8 4FF00002 		mov	r2, #0
 767 00ac 4FF00003 		mov	r3, #0
 768 00b0 C3F6F873 		movt	r3, 16376
 769 00b4 FFF7FEFF 		bl	__aeabi_dmul
 770 00b8 0246     		mov	r2, r0
 771 00ba 0B46     		mov	r3, r1
 772 00bc 4FF00000 		mov	r0, #0
 773 00c0 4FF00001 		mov	r1, #0
 774 00c4 C4F26E01 		movt	r1, 16494
 775 00c8 FFF7FEFF 		bl	__aeabi_dsub
 776 00cc 0246     		mov	r2, r0
 777 00ce 0B46     		mov	r3, r1
 778 00d0 1046     		mov	r0, r2
 779 00d2 1946     		mov	r1, r3
 780 00d4 FFF7FEFF 		bl	__aeabi_d2iz
 781 00d8 0346     		mov	r3, r0
 782 00da BB60     		str	r3, [r7, #8]
 183:.\main.c      ****  
ARM GAS  C:\Users\barror2\AppData\Local\Temp\ccQzPEXq.s 			page 18


 184:.\main.c      ****     TFTSHIELD_1_FillRoundRect(x_SW, (i+1)*empty_SW + i*width_SW/2, length_SW, width_SW, width_SW/4,
 783              		.loc 1 184 0
 784 00dc BB68     		ldr	r3, [r7, #8]
 785 00de 98B2     		uxth	r0, r3
 786 00e0 7B68     		ldr	r3, [r7, #4]
 787 00e2 03F10103 		add	r3, r3, #1
 788 00e6 9BB2     		uxth	r3, r3
 789 00e8 FA68     		ldr	r2, [r7, #12]
 790 00ea 92B2     		uxth	r2, r2
 791 00ec 02FB03F3 		mul	r3, r2, r3
 792 00f0 9AB2     		uxth	r2, r3
 793 00f2 7B68     		ldr	r3, [r7, #4]
 794 00f4 396A     		ldr	r1, [r7, #32]
 795 00f6 01FB03F3 		mul	r3, r1, r3
 796 00fa 4FEAD371 		lsr	r1, r3, #31
 797 00fe CB18     		adds	r3, r1, r3
 798 0100 4FEA6303 		asr	r3, r3, #1
 799 0104 9BB2     		uxth	r3, r3
 800 0106 D318     		adds	r3, r2, r3
 801 0108 9BB2     		uxth	r3, r3
 802 010a 99B2     		uxth	r1, r3
 803 010c FB69     		ldr	r3, [r7, #28]
 804 010e 9AB2     		uxth	r2, r3
 805 0110 3B6A     		ldr	r3, [r7, #32]
 806 0112 9DB2     		uxth	r5, r3
 807 0114 3B6A     		ldr	r3, [r7, #32]
 808 0116 002B     		cmp	r3, #0
 809 0118 01DA     		bge	.L37
 810 011a 03F10303 		add	r3, r3, #3
 811              	.L37:
 812 011e 4FEAA303 		asr	r3, r3, #2
 813 0122 9CB2     		uxth	r4, r3
 814 0124 00B2     		sxth	r0, r0
 815 0126 09B2     		sxth	r1, r1
 816 0128 12B2     		sxth	r2, r2
 817 012a 2BB2     		sxth	r3, r5
 818 012c 24B2     		sxth	r4, r4
 819 012e 0094     		str	r4, [sp, #0]
 820 0130 47F6EF34 		movw	r4, #31727
 821 0134 0194     		str	r4, [sp, #4]
 822 0136 FFF7FEFF 		bl	TFTSHIELD_1_FillRoundRect
 185:.\main.c      ****     
 186:.\main.c      ****     if (state == 1) //turning on animation
 823              		.loc 1 186 0
 824 013a 3B68     		ldr	r3, [r7, #0]
 825 013c 012B     		cmp	r3, #1
 826 013e 40F05D85 		bne	.L38
 827              	.LBB6:
 187:.\main.c      ****     {
 188:.\main.c      ****     int k = 0;
 828              		.loc 1 188 0
 829 0142 4FF00003 		mov	r3, #0
 830 0146 BB61     		str	r3, [r7, #24]
 189:.\main.c      ****     while (k < .85*length_SW/2 )
 831              		.loc 1 189 0
 832 0148 E7E2     		b	.L39
 833              	.L46:
ARM GAS  C:\Users\barror2\AppData\Local\Temp\ccQzPEXq.s 			page 19


 834 014a 00BFAFF3 		.align	3
 834      0080
 835              	.L45:
 836 0150 00000000 		.word	0
 837 0154 00C05140 		.word	1079099392
 838              	.L40:
 190:.\main.c      ****     {
 191:.\main.c      ****     TFTSHIELD_1_FillRoundRect(x_SW + ((.15*length_SW)/2), (i+1)*empty_SW + i*width_SW/2 + (.15*widt
 839              		.loc 1 191 0
 840 0158 B868     		ldr	r0, [r7, #8]
 841 015a FFF7FEFF 		bl	__aeabi_i2d
 842 015e 0446     		mov	r4, r0
 843 0160 0D46     		mov	r5, r1
 844 0162 F869     		ldr	r0, [r7, #28]
 845 0164 FFF7FEFF 		bl	__aeabi_i2d
 846 0168 0246     		mov	r2, r0
 847 016a 0B46     		mov	r3, r1
 848 016c 1046     		mov	r0, r2
 849 016e 1946     		mov	r1, r3
 850 0170 A9A3     		adr	r3, .L47
 851 0172 D3E90023 		ldrd	r2, [r3]
 852 0176 FFF7FEFF 		bl	__aeabi_dmul
 853 017a 0246     		mov	r2, r0
 854 017c 0B46     		mov	r3, r1
 855 017e 1046     		mov	r0, r2
 856 0180 1946     		mov	r1, r3
 857 0182 4FF00002 		mov	r2, #0
 858 0186 4FF08043 		mov	r3, #1073741824
 859 018a FFF7FEFF 		bl	__aeabi_ddiv
 860 018e 0246     		mov	r2, r0
 861 0190 0B46     		mov	r3, r1
 862 0192 2046     		mov	r0, r4
 863 0194 2946     		mov	r1, r5
 864 0196 FFF7FEFF 		bl	__aeabi_dadd
 865 019a 0246     		mov	r2, r0
 866 019c 0B46     		mov	r3, r1
 867 019e 1046     		mov	r0, r2
 868 01a0 1946     		mov	r1, r3
 869 01a2 FFF7FEFF 		bl	__aeabi_d2iz
 870 01a6 0346     		mov	r3, r0
 871 01a8 1FFA83F9 		uxth	r9, r3
 872 01ac 7B68     		ldr	r3, [r7, #4]
 873 01ae 03F10103 		add	r3, r3, #1
 874 01b2 FA68     		ldr	r2, [r7, #12]
 875 01b4 02FB03F2 		mul	r2, r2, r3
 876 01b8 7B68     		ldr	r3, [r7, #4]
 877 01ba 396A     		ldr	r1, [r7, #32]
 878 01bc 01FB03F3 		mul	r3, r1, r3
 879 01c0 4FEAD371 		lsr	r1, r3, #31
 880 01c4 CB18     		adds	r3, r1, r3
 881 01c6 4FEA6303 		asr	r3, r3, #1
 882 01ca D318     		adds	r3, r2, r3
 883 01cc 1846     		mov	r0, r3
 884 01ce FFF7FEFF 		bl	__aeabi_i2d
 885 01d2 0446     		mov	r4, r0
 886 01d4 0D46     		mov	r5, r1
 887 01d6 386A     		ldr	r0, [r7, #32]
ARM GAS  C:\Users\barror2\AppData\Local\Temp\ccQzPEXq.s 			page 20


 888 01d8 FFF7FEFF 		bl	__aeabi_i2d
 889 01dc 0246     		mov	r2, r0
 890 01de 0B46     		mov	r3, r1
 891 01e0 1046     		mov	r0, r2
 892 01e2 1946     		mov	r1, r3
 893 01e4 8CA3     		adr	r3, .L47
 894 01e6 D3E90023 		ldrd	r2, [r3]
 895 01ea FFF7FEFF 		bl	__aeabi_dmul
 896 01ee 0246     		mov	r2, r0
 897 01f0 0B46     		mov	r3, r1
 898 01f2 1046     		mov	r0, r2
 899 01f4 1946     		mov	r1, r3
 900 01f6 4FF00002 		mov	r2, #0
 901 01fa 4FF08043 		mov	r3, #1073741824
 902 01fe FFF7FEFF 		bl	__aeabi_ddiv
 903 0202 0246     		mov	r2, r0
 904 0204 0B46     		mov	r3, r1
 905 0206 2046     		mov	r0, r4
 906 0208 2946     		mov	r1, r5
 907 020a FFF7FEFF 		bl	__aeabi_dadd
 908 020e 0246     		mov	r2, r0
 909 0210 0B46     		mov	r3, r1
 910 0212 1046     		mov	r0, r2
 911 0214 1946     		mov	r1, r3
 912 0216 FFF7FEFF 		bl	__aeabi_d2iz
 913 021a 0346     		mov	r3, r0
 914 021c 1FFA83F8 		uxth	r8, r3
 915 0220 F869     		ldr	r0, [r7, #28]
 916 0222 FFF7FEFF 		bl	__aeabi_i2d
 917 0226 0246     		mov	r2, r0
 918 0228 0B46     		mov	r3, r1
 919 022a 1046     		mov	r0, r2
 920 022c 1946     		mov	r1, r3
 921 022e 7CA3     		adr	r3, .L47+8
 922 0230 D3E90023 		ldrd	r2, [r3]
 923 0234 FFF7FEFF 		bl	__aeabi_dmul
 924 0238 0246     		mov	r2, r0
 925 023a 0B46     		mov	r3, r1
 926 023c 1046     		mov	r0, r2
 927 023e 1946     		mov	r1, r3
 928 0240 FFF7FEFF 		bl	__aeabi_d2iz
 929 0244 0346     		mov	r3, r0
 930 0246 9EB2     		uxth	r6, r3
 931 0248 386A     		ldr	r0, [r7, #32]
 932 024a FFF7FEFF 		bl	__aeabi_i2d
 933 024e 0246     		mov	r2, r0
 934 0250 0B46     		mov	r3, r1
 935 0252 1046     		mov	r0, r2
 936 0254 1946     		mov	r1, r3
 937 0256 72A3     		adr	r3, .L47+8
 938 0258 D3E90023 		ldrd	r2, [r3]
 939 025c FFF7FEFF 		bl	__aeabi_dmul
 940 0260 0246     		mov	r2, r0
 941 0262 0B46     		mov	r3, r1
 942 0264 1046     		mov	r0, r2
 943 0266 1946     		mov	r1, r3
 944 0268 FFF7FEFF 		bl	__aeabi_d2iz
ARM GAS  C:\Users\barror2\AppData\Local\Temp\ccQzPEXq.s 			page 21


 945 026c 0346     		mov	r3, r0
 946 026e 9DB2     		uxth	r5, r3
 947 0270 386A     		ldr	r0, [r7, #32]
 948 0272 FFF7FEFF 		bl	__aeabi_i2d
 949 0276 0246     		mov	r2, r0
 950 0278 0B46     		mov	r3, r1
 951 027a 1046     		mov	r0, r2
 952 027c 1946     		mov	r1, r3
 953 027e 68A3     		adr	r3, .L47+8
 954 0280 D3E90023 		ldrd	r2, [r3]
 955 0284 FFF7FEFF 		bl	__aeabi_dmul
 956 0288 0246     		mov	r2, r0
 957 028a 0B46     		mov	r3, r1
 958 028c 1046     		mov	r0, r2
 959 028e 1946     		mov	r1, r3
 960 0290 4FF00002 		mov	r2, #0
 961 0294 4FF00003 		mov	r3, #0
 962 0298 C4F21003 		movt	r3, 16400
 963 029c FFF7FEFF 		bl	__aeabi_ddiv
 964 02a0 0246     		mov	r2, r0
 965 02a2 0B46     		mov	r3, r1
 966 02a4 1046     		mov	r0, r2
 967 02a6 1946     		mov	r1, r3
 968 02a8 FFF7FEFF 		bl	__aeabi_d2iz
 969 02ac 0346     		mov	r3, r0
 970 02ae 9CB2     		uxth	r4, r3
 971 02b0 0FFA89F0 		sxth	r0, r9
 972 02b4 0FFA88F1 		sxth	r1, r8
 973 02b8 32B2     		sxth	r2, r6
 974 02ba 2BB2     		sxth	r3, r5
 975 02bc 24B2     		sxth	r4, r4
 976 02be 0094     		str	r4, [sp, #0]
 977 02c0 4FF00004 		mov	r4, #0
 978 02c4 0194     		str	r4, [sp, #4]
 979 02c6 FFF7FEFF 		bl	TFTSHIELD_1_FillRoundRect
 192:.\main.c      ****     TFTSHIELD_1_FillRoundRect(x_SW + ((.15*length_SW)/2) + (.85*length_SW/2) - k,  (i+1)*empty_SW +
 980              		.loc 1 192 0
 981 02ca B868     		ldr	r0, [r7, #8]
 982 02cc FFF7FEFF 		bl	__aeabi_i2d
 983 02d0 0446     		mov	r4, r0
 984 02d2 0D46     		mov	r5, r1
 985 02d4 F869     		ldr	r0, [r7, #28]
 986 02d6 FFF7FEFF 		bl	__aeabi_i2d
 987 02da 0246     		mov	r2, r0
 988 02dc 0B46     		mov	r3, r1
 989 02de 1046     		mov	r0, r2
 990 02e0 1946     		mov	r1, r3
 991 02e2 4DA3     		adr	r3, .L47
 992 02e4 D3E90023 		ldrd	r2, [r3]
 993 02e8 FFF7FEFF 		bl	__aeabi_dmul
 994 02ec 0246     		mov	r2, r0
 995 02ee 0B46     		mov	r3, r1
 996 02f0 1046     		mov	r0, r2
 997 02f2 1946     		mov	r1, r3
 998 02f4 4FF00002 		mov	r2, #0
 999 02f8 4FF08043 		mov	r3, #1073741824
 1000 02fc FFF7FEFF 		bl	__aeabi_ddiv
ARM GAS  C:\Users\barror2\AppData\Local\Temp\ccQzPEXq.s 			page 22


 1001 0300 0246     		mov	r2, r0
 1002 0302 0B46     		mov	r3, r1
 1003 0304 2046     		mov	r0, r4
 1004 0306 2946     		mov	r1, r5
 1005 0308 FFF7FEFF 		bl	__aeabi_dadd
 1006 030c 0246     		mov	r2, r0
 1007 030e 0B46     		mov	r3, r1
 1008 0310 1446     		mov	r4, r2
 1009 0312 1D46     		mov	r5, r3
 1010 0314 F869     		ldr	r0, [r7, #28]
 1011 0316 FFF7FEFF 		bl	__aeabi_i2d
 1012 031a 0246     		mov	r2, r0
 1013 031c 0B46     		mov	r3, r1
 1014 031e 1046     		mov	r0, r2
 1015 0320 1946     		mov	r1, r3
 1016 0322 3FA3     		adr	r3, .L47+8
 1017 0324 D3E90023 		ldrd	r2, [r3]
 1018 0328 FFF7FEFF 		bl	__aeabi_dmul
 1019 032c 0246     		mov	r2, r0
 1020 032e 0B46     		mov	r3, r1
 1021 0330 1046     		mov	r0, r2
 1022 0332 1946     		mov	r1, r3
 1023 0334 4FF00002 		mov	r2, #0
 1024 0338 4FF08043 		mov	r3, #1073741824
 1025 033c FFF7FEFF 		bl	__aeabi_ddiv
 1026 0340 0246     		mov	r2, r0
 1027 0342 0B46     		mov	r3, r1
 1028 0344 2046     		mov	r0, r4
 1029 0346 2946     		mov	r1, r5
 1030 0348 FFF7FEFF 		bl	__aeabi_dadd
 1031 034c 0246     		mov	r2, r0
 1032 034e 0B46     		mov	r3, r1
 1033 0350 1446     		mov	r4, r2
 1034 0352 1D46     		mov	r5, r3
 1035 0354 B869     		ldr	r0, [r7, #24]
 1036 0356 FFF7FEFF 		bl	__aeabi_i2d
 1037 035a 0246     		mov	r2, r0
 1038 035c 0B46     		mov	r3, r1
 1039 035e 2046     		mov	r0, r4
 1040 0360 2946     		mov	r1, r5
 1041 0362 FFF7FEFF 		bl	__aeabi_dsub
 1042 0366 0246     		mov	r2, r0
 1043 0368 0B46     		mov	r3, r1
 1044 036a 1046     		mov	r0, r2
 1045 036c 1946     		mov	r1, r3
 1046 036e FFF7FEFF 		bl	__aeabi_d2iz
 1047 0372 0346     		mov	r3, r0
 1048 0374 1FFA83F9 		uxth	r9, r3
 1049 0378 7B68     		ldr	r3, [r7, #4]
 1050 037a 03F10103 		add	r3, r3, #1
 1051 037e FA68     		ldr	r2, [r7, #12]
 1052 0380 02FB03F2 		mul	r2, r2, r3
 1053 0384 7B68     		ldr	r3, [r7, #4]
 1054 0386 396A     		ldr	r1, [r7, #32]
 1055 0388 01FB03F3 		mul	r3, r1, r3
 1056 038c 4FEAD371 		lsr	r1, r3, #31
 1057 0390 CB18     		adds	r3, r1, r3
ARM GAS  C:\Users\barror2\AppData\Local\Temp\ccQzPEXq.s 			page 23


 1058 0392 4FEA6303 		asr	r3, r3, #1
 1059 0396 D318     		adds	r3, r2, r3
 1060 0398 1846     		mov	r0, r3
 1061 039a FFF7FEFF 		bl	__aeabi_i2d
 1062 039e 0446     		mov	r4, r0
 1063 03a0 0D46     		mov	r5, r1
 1064 03a2 386A     		ldr	r0, [r7, #32]
 1065 03a4 FFF7FEFF 		bl	__aeabi_i2d
 1066 03a8 0246     		mov	r2, r0
 1067 03aa 0B46     		mov	r3, r1
 1068 03ac 1046     		mov	r0, r2
 1069 03ae 1946     		mov	r1, r3
 1070 03b0 19A3     		adr	r3, .L47
 1071 03b2 D3E90023 		ldrd	r2, [r3]
 1072 03b6 FFF7FEFF 		bl	__aeabi_dmul
 1073 03ba 0246     		mov	r2, r0
 1074 03bc 0B46     		mov	r3, r1
 1075 03be 1046     		mov	r0, r2
 1076 03c0 1946     		mov	r1, r3
 1077 03c2 4FF00002 		mov	r2, #0
 1078 03c6 4FF08043 		mov	r3, #1073741824
 1079 03ca FFF7FEFF 		bl	__aeabi_ddiv
 1080 03ce 0246     		mov	r2, r0
 1081 03d0 0B46     		mov	r3, r1
 1082 03d2 2046     		mov	r0, r4
 1083 03d4 2946     		mov	r1, r5
 1084 03d6 FFF7FEFF 		bl	__aeabi_dadd
 1085 03da 0246     		mov	r2, r0
 1086 03dc 0B46     		mov	r3, r1
 1087 03de 1046     		mov	r0, r2
 1088 03e0 1946     		mov	r1, r3
 1089 03e2 FFF7FEFF 		bl	__aeabi_d2iz
 1090 03e6 0346     		mov	r3, r0
 1091 03e8 1FFA83F8 		uxth	r8, r3
 1092 03ec F869     		ldr	r0, [r7, #28]
 1093 03ee FFF7FEFF 		bl	__aeabi_i2d
 1094 03f2 0246     		mov	r2, r0
 1095 03f4 0B46     		mov	r3, r1
 1096 03f6 1046     		mov	r0, r2
 1097 03f8 1946     		mov	r1, r3
 1098 03fa 09A3     		adr	r3, .L47+8
 1099 03fc D3E90023 		ldrd	r2, [r3]
 1100 0400 FFF7FEFF 		bl	__aeabi_dmul
 1101 0404 0246     		mov	r2, r0
 1102 0406 0B46     		mov	r3, r1
 1103 0408 1046     		mov	r0, r2
 1104 040a 1946     		mov	r1, r3
 1105 040c 4FF00002 		mov	r2, #0
 1106 0410 0AE0     		b	.L48
 1107              	.L49:
 1108 0412 00BFAFF3 		.align	3
 1108      0080
 1109              	.L47:
 1110 0418 33333333 		.word	858993459
 1111 041c 3333C33F 		.word	1069757235
 1112 0420 33333333 		.word	858993459
 1113 0424 3333EB3F 		.word	1072378675
ARM GAS  C:\Users\barror2\AppData\Local\Temp\ccQzPEXq.s 			page 24


 1114              	.L48:
 1115 0428 4FF08043 		mov	r3, #1073741824
 1116 042c FFF7FEFF 		bl	__aeabi_ddiv
 1117 0430 0246     		mov	r2, r0
 1118 0432 0B46     		mov	r3, r1
 1119 0434 1046     		mov	r0, r2
 1120 0436 1946     		mov	r1, r3
 1121 0438 FFF7FEFF 		bl	__aeabi_d2iz
 1122 043c 0346     		mov	r3, r0
 1123 043e 9EB2     		uxth	r6, r3
 1124 0440 386A     		ldr	r0, [r7, #32]
 1125 0442 FFF7FEFF 		bl	__aeabi_i2d
 1126 0446 0246     		mov	r2, r0
 1127 0448 0B46     		mov	r3, r1
 1128 044a 1046     		mov	r0, r2
 1129 044c 1946     		mov	r1, r3
 1130 044e A8A3     		adr	r3, .L50
 1131 0450 D3E90023 		ldrd	r2, [r3]
 1132 0454 FFF7FEFF 		bl	__aeabi_dmul
 1133 0458 0246     		mov	r2, r0
 1134 045a 0B46     		mov	r3, r1
 1135 045c 1046     		mov	r0, r2
 1136 045e 1946     		mov	r1, r3
 1137 0460 FFF7FEFF 		bl	__aeabi_d2iz
 1138 0464 0346     		mov	r3, r0
 1139 0466 9DB2     		uxth	r5, r3
 1140 0468 386A     		ldr	r0, [r7, #32]
 1141 046a FFF7FEFF 		bl	__aeabi_i2d
 1142 046e 0246     		mov	r2, r0
 1143 0470 0B46     		mov	r3, r1
 1144 0472 1046     		mov	r0, r2
 1145 0474 1946     		mov	r1, r3
 1146 0476 9EA3     		adr	r3, .L50
 1147 0478 D3E90023 		ldrd	r2, [r3]
 1148 047c FFF7FEFF 		bl	__aeabi_dmul
 1149 0480 0246     		mov	r2, r0
 1150 0482 0B46     		mov	r3, r1
 1151 0484 1046     		mov	r0, r2
 1152 0486 1946     		mov	r1, r3
 1153 0488 4FF00002 		mov	r2, #0
 1154 048c 4FF00003 		mov	r3, #0
 1155 0490 C4F21003 		movt	r3, 16400
 1156 0494 FFF7FEFF 		bl	__aeabi_ddiv
 1157 0498 0246     		mov	r2, r0
 1158 049a 0B46     		mov	r3, r1
 1159 049c 1046     		mov	r0, r2
 1160 049e 1946     		mov	r1, r3
 1161 04a0 FFF7FEFF 		bl	__aeabi_d2iz
 1162 04a4 0346     		mov	r3, r0
 1163 04a6 9CB2     		uxth	r4, r3
 1164 04a8 0FFA89F0 		sxth	r0, r9
 1165 04ac 0FFA88F1 		sxth	r1, r8
 1166 04b0 32B2     		sxth	r2, r6
 1167 04b2 2BB2     		sxth	r3, r5
 1168 04b4 24B2     		sxth	r4, r4
 1169 04b6 0094     		str	r4, [sp, #0]
 1170 04b8 4FF6FF74 		movw	r4, #65535
ARM GAS  C:\Users\barror2\AppData\Local\Temp\ccQzPEXq.s 			page 25


 1171 04bc 0194     		str	r4, [sp, #4]
 1172 04be FFF7FEFF 		bl	TFTSHIELD_1_FillRoundRect
 193:.\main.c      ****     TFTSHIELD_1_DrawRoundRect(x_SW + ((.15*length_SW)/2) + (.85*length_SW/2) - k, (i+1)*empty_SW + 
 1173              		.loc 1 193 0
 1174 04c2 B868     		ldr	r0, [r7, #8]
 1175 04c4 FFF7FEFF 		bl	__aeabi_i2d
 1176 04c8 0446     		mov	r4, r0
 1177 04ca 0D46     		mov	r5, r1
 1178 04cc F869     		ldr	r0, [r7, #28]
 1179 04ce FFF7FEFF 		bl	__aeabi_i2d
 1180 04d2 0246     		mov	r2, r0
 1181 04d4 0B46     		mov	r3, r1
 1182 04d6 1046     		mov	r0, r2
 1183 04d8 1946     		mov	r1, r3
 1184 04da 87A3     		adr	r3, .L50+8
 1185 04dc D3E90023 		ldrd	r2, [r3]
 1186 04e0 FFF7FEFF 		bl	__aeabi_dmul
 1187 04e4 0246     		mov	r2, r0
 1188 04e6 0B46     		mov	r3, r1
 1189 04e8 1046     		mov	r0, r2
 1190 04ea 1946     		mov	r1, r3
 1191 04ec 4FF00002 		mov	r2, #0
 1192 04f0 4FF08043 		mov	r3, #1073741824
 1193 04f4 FFF7FEFF 		bl	__aeabi_ddiv
 1194 04f8 0246     		mov	r2, r0
 1195 04fa 0B46     		mov	r3, r1
 1196 04fc 2046     		mov	r0, r4
 1197 04fe 2946     		mov	r1, r5
 1198 0500 FFF7FEFF 		bl	__aeabi_dadd
 1199 0504 0246     		mov	r2, r0
 1200 0506 0B46     		mov	r3, r1
 1201 0508 1446     		mov	r4, r2
 1202 050a 1D46     		mov	r5, r3
 1203 050c F869     		ldr	r0, [r7, #28]
 1204 050e FFF7FEFF 		bl	__aeabi_i2d
 1205 0512 0246     		mov	r2, r0
 1206 0514 0B46     		mov	r3, r1
 1207 0516 1046     		mov	r0, r2
 1208 0518 1946     		mov	r1, r3
 1209 051a 75A3     		adr	r3, .L50
 1210 051c D3E90023 		ldrd	r2, [r3]
 1211 0520 FFF7FEFF 		bl	__aeabi_dmul
 1212 0524 0246     		mov	r2, r0
 1213 0526 0B46     		mov	r3, r1
 1214 0528 1046     		mov	r0, r2
 1215 052a 1946     		mov	r1, r3
 1216 052c 4FF00002 		mov	r2, #0
 1217 0530 4FF08043 		mov	r3, #1073741824
 1218 0534 FFF7FEFF 		bl	__aeabi_ddiv
 1219 0538 0246     		mov	r2, r0
 1220 053a 0B46     		mov	r3, r1
 1221 053c 2046     		mov	r0, r4
 1222 053e 2946     		mov	r1, r5
 1223 0540 FFF7FEFF 		bl	__aeabi_dadd
 1224 0544 0246     		mov	r2, r0
 1225 0546 0B46     		mov	r3, r1
 1226 0548 1446     		mov	r4, r2
ARM GAS  C:\Users\barror2\AppData\Local\Temp\ccQzPEXq.s 			page 26


 1227 054a 1D46     		mov	r5, r3
 1228 054c B869     		ldr	r0, [r7, #24]
 1229 054e FFF7FEFF 		bl	__aeabi_i2d
 1230 0552 0246     		mov	r2, r0
 1231 0554 0B46     		mov	r3, r1
 1232 0556 2046     		mov	r0, r4
 1233 0558 2946     		mov	r1, r5
 1234 055a FFF7FEFF 		bl	__aeabi_dsub
 1235 055e 0246     		mov	r2, r0
 1236 0560 0B46     		mov	r3, r1
 1237 0562 1046     		mov	r0, r2
 1238 0564 1946     		mov	r1, r3
 1239 0566 FFF7FEFF 		bl	__aeabi_d2iz
 1240 056a 0346     		mov	r3, r0
 1241 056c 1FFA83F9 		uxth	r9, r3
 1242 0570 7B68     		ldr	r3, [r7, #4]
 1243 0572 03F10103 		add	r3, r3, #1
 1244 0576 FA68     		ldr	r2, [r7, #12]
 1245 0578 02FB03F2 		mul	r2, r2, r3
 1246 057c 7B68     		ldr	r3, [r7, #4]
 1247 057e 396A     		ldr	r1, [r7, #32]
 1248 0580 01FB03F3 		mul	r3, r1, r3
 1249 0584 4FEAD371 		lsr	r1, r3, #31
 1250 0588 CB18     		adds	r3, r1, r3
 1251 058a 4FEA6303 		asr	r3, r3, #1
 1252 058e D318     		adds	r3, r2, r3
 1253 0590 1846     		mov	r0, r3
 1254 0592 FFF7FEFF 		bl	__aeabi_i2d
 1255 0596 0446     		mov	r4, r0
 1256 0598 0D46     		mov	r5, r1
 1257 059a 386A     		ldr	r0, [r7, #32]
 1258 059c FFF7FEFF 		bl	__aeabi_i2d
 1259 05a0 0246     		mov	r2, r0
 1260 05a2 0B46     		mov	r3, r1
 1261 05a4 1046     		mov	r0, r2
 1262 05a6 1946     		mov	r1, r3
 1263 05a8 53A3     		adr	r3, .L50+8
 1264 05aa D3E90023 		ldrd	r2, [r3]
 1265 05ae FFF7FEFF 		bl	__aeabi_dmul
 1266 05b2 0246     		mov	r2, r0
 1267 05b4 0B46     		mov	r3, r1
 1268 05b6 1046     		mov	r0, r2
 1269 05b8 1946     		mov	r1, r3
 1270 05ba 4FF00002 		mov	r2, #0
 1271 05be 4FF08043 		mov	r3, #1073741824
 1272 05c2 FFF7FEFF 		bl	__aeabi_ddiv
 1273 05c6 0246     		mov	r2, r0
 1274 05c8 0B46     		mov	r3, r1
 1275 05ca 2046     		mov	r0, r4
 1276 05cc 2946     		mov	r1, r5
 1277 05ce FFF7FEFF 		bl	__aeabi_dadd
 1278 05d2 0246     		mov	r2, r0
 1279 05d4 0B46     		mov	r3, r1
 1280 05d6 1046     		mov	r0, r2
 1281 05d8 1946     		mov	r1, r3
 1282 05da FFF7FEFF 		bl	__aeabi_d2iz
 1283 05de 0346     		mov	r3, r0
ARM GAS  C:\Users\barror2\AppData\Local\Temp\ccQzPEXq.s 			page 27


 1284 05e0 1FFA83F8 		uxth	r8, r3
 1285 05e4 F869     		ldr	r0, [r7, #28]
 1286 05e6 FFF7FEFF 		bl	__aeabi_i2d
 1287 05ea 0246     		mov	r2, r0
 1288 05ec 0B46     		mov	r3, r1
 1289 05ee 1046     		mov	r0, r2
 1290 05f0 1946     		mov	r1, r3
 1291 05f2 3FA3     		adr	r3, .L50
 1292 05f4 D3E90023 		ldrd	r2, [r3]
 1293 05f8 FFF7FEFF 		bl	__aeabi_dmul
 1294 05fc 0246     		mov	r2, r0
 1295 05fe 0B46     		mov	r3, r1
 1296 0600 1046     		mov	r0, r2
 1297 0602 1946     		mov	r1, r3
 1298 0604 4FF00002 		mov	r2, #0
 1299 0608 4FF08043 		mov	r3, #1073741824
 1300 060c FFF7FEFF 		bl	__aeabi_ddiv
 1301 0610 0246     		mov	r2, r0
 1302 0612 0B46     		mov	r3, r1
 1303 0614 1046     		mov	r0, r2
 1304 0616 1946     		mov	r1, r3
 1305 0618 FFF7FEFF 		bl	__aeabi_d2iz
 1306 061c 0346     		mov	r3, r0
 1307 061e 9EB2     		uxth	r6, r3
 1308 0620 386A     		ldr	r0, [r7, #32]
 1309 0622 FFF7FEFF 		bl	__aeabi_i2d
 1310 0626 0246     		mov	r2, r0
 1311 0628 0B46     		mov	r3, r1
 1312 062a 1046     		mov	r0, r2
 1313 062c 1946     		mov	r1, r3
 1314 062e 30A3     		adr	r3, .L50
 1315 0630 D3E90023 		ldrd	r2, [r3]
 1316 0634 FFF7FEFF 		bl	__aeabi_dmul
 1317 0638 0246     		mov	r2, r0
 1318 063a 0B46     		mov	r3, r1
 1319 063c 1046     		mov	r0, r2
 1320 063e 1946     		mov	r1, r3
 1321 0640 FFF7FEFF 		bl	__aeabi_d2iz
 1322 0644 0346     		mov	r3, r0
 1323 0646 9DB2     		uxth	r5, r3
 1324 0648 386A     		ldr	r0, [r7, #32]
 1325 064a FFF7FEFF 		bl	__aeabi_i2d
 1326 064e 0246     		mov	r2, r0
 1327 0650 0B46     		mov	r3, r1
 1328 0652 1046     		mov	r0, r2
 1329 0654 1946     		mov	r1, r3
 1330 0656 26A3     		adr	r3, .L50
 1331 0658 D3E90023 		ldrd	r2, [r3]
 1332 065c FFF7FEFF 		bl	__aeabi_dmul
 1333 0660 0246     		mov	r2, r0
 1334 0662 0B46     		mov	r3, r1
 1335 0664 1046     		mov	r0, r2
 1336 0666 1946     		mov	r1, r3
 1337 0668 4FF00002 		mov	r2, #0
 1338 066c 4FF00003 		mov	r3, #0
 1339 0670 C4F21003 		movt	r3, 16400
 1340 0674 FFF7FEFF 		bl	__aeabi_ddiv
ARM GAS  C:\Users\barror2\AppData\Local\Temp\ccQzPEXq.s 			page 28


 1341 0678 0246     		mov	r2, r0
 1342 067a 0B46     		mov	r3, r1
 1343 067c 1046     		mov	r0, r2
 1344 067e 1946     		mov	r1, r3
 1345 0680 FFF7FEFF 		bl	__aeabi_d2iz
 1346 0684 0346     		mov	r3, r0
 1347 0686 9CB2     		uxth	r4, r3
 1348 0688 0FFA89F0 		sxth	r0, r9
 1349 068c 0FFA88F1 		sxth	r1, r8
 1350 0690 32B2     		sxth	r2, r6
 1351 0692 2BB2     		sxth	r3, r5
 1352 0694 24B2     		sxth	r4, r4
 1353 0696 0094     		str	r4, [sp, #0]
 1354 0698 4FF00004 		mov	r4, #0
 1355 069c 0194     		str	r4, [sp, #4]
 1356 069e FFF7FEFF 		bl	TFTSHIELD_1_DrawRoundRect
 194:.\main.c      ****     k = k + (.85*length_SW/2)/2;
 1357              		.loc 1 194 0
 1358 06a2 B869     		ldr	r0, [r7, #24]
 1359 06a4 FFF7FEFF 		bl	__aeabi_i2d
 1360 06a8 0446     		mov	r4, r0
 1361 06aa 0D46     		mov	r5, r1
 1362 06ac F869     		ldr	r0, [r7, #28]
 1363 06ae FFF7FEFF 		bl	__aeabi_i2d
 1364 06b2 0246     		mov	r2, r0
 1365 06b4 0B46     		mov	r3, r1
 1366 06b6 1046     		mov	r0, r2
 1367 06b8 1946     		mov	r1, r3
 1368 06ba 0DA3     		adr	r3, .L50
 1369 06bc D3E90023 		ldrd	r2, [r3]
 1370 06c0 FFF7FEFF 		bl	__aeabi_dmul
 1371 06c4 0246     		mov	r2, r0
 1372 06c6 0B46     		mov	r3, r1
 1373 06c8 1046     		mov	r0, r2
 1374 06ca 1946     		mov	r1, r3
 1375 06cc 4FF00002 		mov	r2, #0
 1376 06d0 4FF08043 		mov	r3, #1073741824
 1377 06d4 FFF7FEFF 		bl	__aeabi_ddiv
 1378 06d8 0246     		mov	r2, r0
 1379 06da 0B46     		mov	r3, r1
 1380 06dc 1046     		mov	r0, r2
 1381 06de 1946     		mov	r1, r3
 1382 06e0 4FF00002 		mov	r2, #0
 1383 06e4 4FF08043 		mov	r3, #1073741824
 1384 06e8 FFF7FEFF 		bl	__aeabi_ddiv
 1385 06ec 0246     		mov	r2, r0
 1386 06ee 07E0     		b	.L51
 1387              	.L52:
 1388              		.align	3
 1389              	.L50:
 1390 06f0 33333333 		.word	858993459
 1391 06f4 3333EB3F 		.word	1072378675
 1392 06f8 33333333 		.word	858993459
 1393 06fc 3333C33F 		.word	1069757235
 1394              	.L51:
 1395 0700 0B46     		mov	r3, r1
 1396 0702 2046     		mov	r0, r4
ARM GAS  C:\Users\barror2\AppData\Local\Temp\ccQzPEXq.s 			page 29


 1397 0704 2946     		mov	r1, r5
 1398 0706 FFF7FEFF 		bl	__aeabi_dadd
 1399 070a 0246     		mov	r2, r0
 1400 070c 0B46     		mov	r3, r1
 1401 070e 1046     		mov	r0, r2
 1402 0710 1946     		mov	r1, r3
 1403 0712 FFF7FEFF 		bl	__aeabi_d2iz
 1404 0716 0346     		mov	r3, r0
 1405 0718 BB61     		str	r3, [r7, #24]
 1406              	.L39:
 189:.\main.c      ****     while (k < .85*length_SW/2 )
 1407              		.loc 1 189 0 discriminator 1
 1408 071a B869     		ldr	r0, [r7, #24]
 1409 071c FFF7FEFF 		bl	__aeabi_i2d
 1410 0720 0446     		mov	r4, r0
 1411 0722 0D46     		mov	r5, r1
 1412 0724 F869     		ldr	r0, [r7, #28]
 1413 0726 FFF7FEFF 		bl	__aeabi_i2d
 1414 072a 0246     		mov	r2, r0
 1415 072c 0B46     		mov	r3, r1
 1416 072e 1046     		mov	r0, r2
 1417 0730 1946     		mov	r1, r3
 1418 0732 ABA3     		adr	r3, .L53
 1419 0734 D3E90023 		ldrd	r2, [r3]
 1420 0738 FFF7FEFF 		bl	__aeabi_dmul
 1421 073c 0246     		mov	r2, r0
 1422 073e 0B46     		mov	r3, r1
 1423 0740 1046     		mov	r0, r2
 1424 0742 1946     		mov	r1, r3
 1425 0744 4FF00002 		mov	r2, #0
 1426 0748 4FF08043 		mov	r3, #1073741824
 1427 074c FFF7FEFF 		bl	__aeabi_ddiv
 1428 0750 0246     		mov	r2, r0
 1429 0752 0B46     		mov	r3, r1
 1430 0754 2046     		mov	r0, r4
 1431 0756 2946     		mov	r1, r5
 1432 0758 FFF7FEFF 		bl	__aeabi_dcmplt
 1433 075c 0346     		mov	r3, r0
 1434 075e 002B     		cmp	r3, #0
 1435 0760 7FF4FAAC 		bne	.L40
 195:.\main.c      ****     }
 196:.\main.c      ****   
 197:.\main.c      ****     TFTSHIELD_1_FillRoundRect(x_SW + ((.15*length_SW)/2), (i+1)*empty_SW + i*width_SW/2 + (.15*widt
 1436              		.loc 1 197 0
 1437 0764 B868     		ldr	r0, [r7, #8]
 1438 0766 FFF7FEFF 		bl	__aeabi_i2d
 1439 076a 0446     		mov	r4, r0
 1440 076c 0D46     		mov	r5, r1
 1441 076e F869     		ldr	r0, [r7, #28]
 1442 0770 FFF7FEFF 		bl	__aeabi_i2d
 1443 0774 0246     		mov	r2, r0
 1444 0776 0B46     		mov	r3, r1
 1445 0778 1046     		mov	r0, r2
 1446 077a 1946     		mov	r1, r3
 1447 077c 9AA3     		adr	r3, .L53+8
 1448 077e D3E90023 		ldrd	r2, [r3]
 1449 0782 FFF7FEFF 		bl	__aeabi_dmul
ARM GAS  C:\Users\barror2\AppData\Local\Temp\ccQzPEXq.s 			page 30


 1450 0786 0246     		mov	r2, r0
 1451 0788 0B46     		mov	r3, r1
 1452 078a 1046     		mov	r0, r2
 1453 078c 1946     		mov	r1, r3
 1454 078e 4FF00002 		mov	r2, #0
 1455 0792 4FF08043 		mov	r3, #1073741824
 1456 0796 FFF7FEFF 		bl	__aeabi_ddiv
 1457 079a 0246     		mov	r2, r0
 1458 079c 0B46     		mov	r3, r1
 1459 079e 2046     		mov	r0, r4
 1460 07a0 2946     		mov	r1, r5
 1461 07a2 FFF7FEFF 		bl	__aeabi_dadd
 1462 07a6 0246     		mov	r2, r0
 1463 07a8 0B46     		mov	r3, r1
 1464 07aa 1046     		mov	r0, r2
 1465 07ac 1946     		mov	r1, r3
 1466 07ae FFF7FEFF 		bl	__aeabi_d2iz
 1467 07b2 0346     		mov	r3, r0
 1468 07b4 1FFA83F9 		uxth	r9, r3
 1469 07b8 7B68     		ldr	r3, [r7, #4]
 1470 07ba 03F10103 		add	r3, r3, #1
 1471 07be FA68     		ldr	r2, [r7, #12]
 1472 07c0 02FB03F2 		mul	r2, r2, r3
 1473 07c4 7B68     		ldr	r3, [r7, #4]
 1474 07c6 396A     		ldr	r1, [r7, #32]
 1475 07c8 01FB03F3 		mul	r3, r1, r3
 1476 07cc 4FEAD371 		lsr	r1, r3, #31
 1477 07d0 CB18     		adds	r3, r1, r3
 1478 07d2 4FEA6303 		asr	r3, r3, #1
 1479 07d6 D318     		adds	r3, r2, r3
 1480 07d8 1846     		mov	r0, r3
 1481 07da FFF7FEFF 		bl	__aeabi_i2d
 1482 07de 0446     		mov	r4, r0
 1483 07e0 0D46     		mov	r5, r1
 1484 07e2 386A     		ldr	r0, [r7, #32]
 1485 07e4 FFF7FEFF 		bl	__aeabi_i2d
 1486 07e8 0246     		mov	r2, r0
 1487 07ea 0B46     		mov	r3, r1
 1488 07ec 1046     		mov	r0, r2
 1489 07ee 1946     		mov	r1, r3
 1490 07f0 7DA3     		adr	r3, .L53+8
 1491 07f2 D3E90023 		ldrd	r2, [r3]
 1492 07f6 FFF7FEFF 		bl	__aeabi_dmul
 1493 07fa 0246     		mov	r2, r0
 1494 07fc 0B46     		mov	r3, r1
 1495 07fe 1046     		mov	r0, r2
 1496 0800 1946     		mov	r1, r3
 1497 0802 4FF00002 		mov	r2, #0
 1498 0806 4FF08043 		mov	r3, #1073741824
 1499 080a FFF7FEFF 		bl	__aeabi_ddiv
 1500 080e 0246     		mov	r2, r0
 1501 0810 0B46     		mov	r3, r1
 1502 0812 2046     		mov	r0, r4
 1503 0814 2946     		mov	r1, r5
 1504 0816 FFF7FEFF 		bl	__aeabi_dadd
 1505 081a 0246     		mov	r2, r0
 1506 081c 0B46     		mov	r3, r1
ARM GAS  C:\Users\barror2\AppData\Local\Temp\ccQzPEXq.s 			page 31


 1507 081e 1046     		mov	r0, r2
 1508 0820 1946     		mov	r1, r3
 1509 0822 FFF7FEFF 		bl	__aeabi_d2iz
 1510 0826 0346     		mov	r3, r0
 1511 0828 1FFA83F8 		uxth	r8, r3
 1512 082c F869     		ldr	r0, [r7, #28]
 1513 082e FFF7FEFF 		bl	__aeabi_i2d
 1514 0832 0246     		mov	r2, r0
 1515 0834 0B46     		mov	r3, r1
 1516 0836 1046     		mov	r0, r2
 1517 0838 1946     		mov	r1, r3
 1518 083a 69A3     		adr	r3, .L53
 1519 083c D3E90023 		ldrd	r2, [r3]
 1520 0840 FFF7FEFF 		bl	__aeabi_dmul
 1521 0844 0246     		mov	r2, r0
 1522 0846 0B46     		mov	r3, r1
 1523 0848 1046     		mov	r0, r2
 1524 084a 1946     		mov	r1, r3
 1525 084c FFF7FEFF 		bl	__aeabi_d2iz
 1526 0850 0346     		mov	r3, r0
 1527 0852 9EB2     		uxth	r6, r3
 1528 0854 386A     		ldr	r0, [r7, #32]
 1529 0856 FFF7FEFF 		bl	__aeabi_i2d
 1530 085a 0246     		mov	r2, r0
 1531 085c 0B46     		mov	r3, r1
 1532 085e 1046     		mov	r0, r2
 1533 0860 1946     		mov	r1, r3
 1534 0862 5FA3     		adr	r3, .L53
 1535 0864 D3E90023 		ldrd	r2, [r3]
 1536 0868 FFF7FEFF 		bl	__aeabi_dmul
 1537 086c 0246     		mov	r2, r0
 1538 086e 0B46     		mov	r3, r1
 1539 0870 1046     		mov	r0, r2
 1540 0872 1946     		mov	r1, r3
 1541 0874 FFF7FEFF 		bl	__aeabi_d2iz
 1542 0878 0346     		mov	r3, r0
 1543 087a 9DB2     		uxth	r5, r3
 1544 087c 386A     		ldr	r0, [r7, #32]
 1545 087e FFF7FEFF 		bl	__aeabi_i2d
 1546 0882 0246     		mov	r2, r0
 1547 0884 0B46     		mov	r3, r1
 1548 0886 1046     		mov	r0, r2
 1549 0888 1946     		mov	r1, r3
 1550 088a 55A3     		adr	r3, .L53
 1551 088c D3E90023 		ldrd	r2, [r3]
 1552 0890 FFF7FEFF 		bl	__aeabi_dmul
 1553 0894 0246     		mov	r2, r0
 1554 0896 0B46     		mov	r3, r1
 1555 0898 1046     		mov	r0, r2
 1556 089a 1946     		mov	r1, r3
 1557 089c 4FF00002 		mov	r2, #0
 1558 08a0 4FF00003 		mov	r3, #0
 1559 08a4 C4F21003 		movt	r3, 16400
 1560 08a8 FFF7FEFF 		bl	__aeabi_ddiv
 1561 08ac 0246     		mov	r2, r0
 1562 08ae 0B46     		mov	r3, r1
 1563 08b0 1046     		mov	r0, r2
ARM GAS  C:\Users\barror2\AppData\Local\Temp\ccQzPEXq.s 			page 32


 1564 08b2 1946     		mov	r1, r3
 1565 08b4 FFF7FEFF 		bl	__aeabi_d2iz
 1566 08b8 0346     		mov	r3, r0
 1567 08ba 9CB2     		uxth	r4, r3
 1568 08bc 0FFA89F0 		sxth	r0, r9
 1569 08c0 0FFA88F1 		sxth	r1, r8
 1570 08c4 32B2     		sxth	r2, r6
 1571 08c6 2BB2     		sxth	r3, r5
 1572 08c8 24B2     		sxth	r4, r4
 1573 08ca 0094     		str	r4, [sp, #0]
 1574 08cc 4FF4FC64 		mov	r4, #2016
 1575 08d0 0194     		str	r4, [sp, #4]
 1576 08d2 FFF7FEFF 		bl	TFTSHIELD_1_FillRoundRect
 198:.\main.c      ****     TFTSHIELD_1_FillRoundRect(x_SW + ((.15*length_SW)/2), (i+1)*empty_SW + i*width_SW/2 + (.15*widt
 1577              		.loc 1 198 0
 1578 08d6 B868     		ldr	r0, [r7, #8]
 1579 08d8 FFF7FEFF 		bl	__aeabi_i2d
 1580 08dc 0446     		mov	r4, r0
 1581 08de 0D46     		mov	r5, r1
 1582 08e0 F869     		ldr	r0, [r7, #28]
 1583 08e2 FFF7FEFF 		bl	__aeabi_i2d
 1584 08e6 0246     		mov	r2, r0
 1585 08e8 0B46     		mov	r3, r1
 1586 08ea 1046     		mov	r0, r2
 1587 08ec 1946     		mov	r1, r3
 1588 08ee 3EA3     		adr	r3, .L53+8
 1589 08f0 D3E90023 		ldrd	r2, [r3]
 1590 08f4 FFF7FEFF 		bl	__aeabi_dmul
 1591 08f8 0246     		mov	r2, r0
 1592 08fa 0B46     		mov	r3, r1
 1593 08fc 1046     		mov	r0, r2
 1594 08fe 1946     		mov	r1, r3
 1595 0900 4FF00002 		mov	r2, #0
 1596 0904 4FF08043 		mov	r3, #1073741824
 1597 0908 FFF7FEFF 		bl	__aeabi_ddiv
 1598 090c 0246     		mov	r2, r0
 1599 090e 0B46     		mov	r3, r1
 1600 0910 2046     		mov	r0, r4
 1601 0912 2946     		mov	r1, r5
 1602 0914 FFF7FEFF 		bl	__aeabi_dadd
 1603 0918 0246     		mov	r2, r0
 1604 091a 0B46     		mov	r3, r1
 1605 091c 1046     		mov	r0, r2
 1606 091e 1946     		mov	r1, r3
 1607 0920 FFF7FEFF 		bl	__aeabi_d2iz
 1608 0924 0346     		mov	r3, r0
 1609 0926 1FFA83F9 		uxth	r9, r3
 1610 092a 7B68     		ldr	r3, [r7, #4]
 1611 092c 03F10103 		add	r3, r3, #1
 1612 0930 FA68     		ldr	r2, [r7, #12]
 1613 0932 02FB03F2 		mul	r2, r2, r3
 1614 0936 7B68     		ldr	r3, [r7, #4]
 1615 0938 396A     		ldr	r1, [r7, #32]
 1616 093a 01FB03F3 		mul	r3, r1, r3
 1617 093e 4FEAD371 		lsr	r1, r3, #31
 1618 0942 CB18     		adds	r3, r1, r3
 1619 0944 4FEA6303 		asr	r3, r3, #1
ARM GAS  C:\Users\barror2\AppData\Local\Temp\ccQzPEXq.s 			page 33


 1620 0948 D318     		adds	r3, r2, r3
 1621 094a 1846     		mov	r0, r3
 1622 094c FFF7FEFF 		bl	__aeabi_i2d
 1623 0950 0446     		mov	r4, r0
 1624 0952 0D46     		mov	r5, r1
 1625 0954 386A     		ldr	r0, [r7, #32]
 1626 0956 FFF7FEFF 		bl	__aeabi_i2d
 1627 095a 0246     		mov	r2, r0
 1628 095c 0B46     		mov	r3, r1
 1629 095e 1046     		mov	r0, r2
 1630 0960 1946     		mov	r1, r3
 1631 0962 21A3     		adr	r3, .L53+8
 1632 0964 D3E90023 		ldrd	r2, [r3]
 1633 0968 FFF7FEFF 		bl	__aeabi_dmul
 1634 096c 0246     		mov	r2, r0
 1635 096e 0B46     		mov	r3, r1
 1636 0970 1046     		mov	r0, r2
 1637 0972 1946     		mov	r1, r3
 1638 0974 4FF00002 		mov	r2, #0
 1639 0978 4FF08043 		mov	r3, #1073741824
 1640 097c FFF7FEFF 		bl	__aeabi_ddiv
 1641 0980 0246     		mov	r2, r0
 1642 0982 0B46     		mov	r3, r1
 1643 0984 2046     		mov	r0, r4
 1644 0986 2946     		mov	r1, r5
 1645 0988 FFF7FEFF 		bl	__aeabi_dadd
 1646 098c 0246     		mov	r2, r0
 1647 098e 0B46     		mov	r3, r1
 1648 0990 1046     		mov	r0, r2
 1649 0992 1946     		mov	r1, r3
 1650 0994 FFF7FEFF 		bl	__aeabi_d2iz
 1651 0998 0346     		mov	r3, r0
 1652 099a 1FFA83F8 		uxth	r8, r3
 1653 099e F869     		ldr	r0, [r7, #28]
 1654 09a0 FFF7FEFF 		bl	__aeabi_i2d
 1655 09a4 0246     		mov	r2, r0
 1656 09a6 0B46     		mov	r3, r1
 1657 09a8 1046     		mov	r0, r2
 1658 09aa 1946     		mov	r1, r3
 1659 09ac 0CA3     		adr	r3, .L53
 1660 09ae D3E90023 		ldrd	r2, [r3]
 1661 09b2 FFF7FEFF 		bl	__aeabi_dmul
 1662 09b6 0246     		mov	r2, r0
 1663 09b8 0B46     		mov	r3, r1
 1664 09ba 1046     		mov	r0, r2
 1665 09bc 1946     		mov	r1, r3
 1666 09be 4FF00002 		mov	r2, #0
 1667 09c2 4FF08043 		mov	r3, #1073741824
 1668 09c6 FFF7FEFF 		bl	__aeabi_ddiv
 1669 09ca 0246     		mov	r2, r0
 1670 09cc 0B46     		mov	r3, r1
 1671 09ce 1046     		mov	r0, r2
 1672 09d0 1946     		mov	r1, r3
 1673 09d2 FFF7FEFF 		bl	__aeabi_d2iz
 1674 09d6 0346     		mov	r3, r0
 1675 09d8 9EB2     		uxth	r6, r3
 1676 09da 09E0     		b	.L54
ARM GAS  C:\Users\barror2\AppData\Local\Temp\ccQzPEXq.s 			page 34


 1677              	.L55:
 1678 09dc AFF30080 		.align	3
 1679              	.L53:
 1680 09e0 33333333 		.word	858993459
 1681 09e4 3333EB3F 		.word	1072378675
 1682 09e8 33333333 		.word	858993459
 1683 09ec 3333C33F 		.word	1069757235
 1684              	.L54:
 1685 09f0 386A     		ldr	r0, [r7, #32]
 1686 09f2 FFF7FEFF 		bl	__aeabi_i2d
 1687 09f6 0246     		mov	r2, r0
 1688 09f8 0B46     		mov	r3, r1
 1689 09fa 1046     		mov	r0, r2
 1690 09fc 1946     		mov	r1, r3
 1691 09fe 84A3     		adr	r3, .L56
 1692 0a00 D3E90023 		ldrd	r2, [r3]
 1693 0a04 FFF7FEFF 		bl	__aeabi_dmul
 1694 0a08 0246     		mov	r2, r0
 1695 0a0a 0B46     		mov	r3, r1
 1696 0a0c 1046     		mov	r0, r2
 1697 0a0e 1946     		mov	r1, r3
 1698 0a10 FFF7FEFF 		bl	__aeabi_d2iz
 1699 0a14 0346     		mov	r3, r0
 1700 0a16 9DB2     		uxth	r5, r3
 1701 0a18 386A     		ldr	r0, [r7, #32]
 1702 0a1a FFF7FEFF 		bl	__aeabi_i2d
 1703 0a1e 0246     		mov	r2, r0
 1704 0a20 0B46     		mov	r3, r1
 1705 0a22 1046     		mov	r0, r2
 1706 0a24 1946     		mov	r1, r3
 1707 0a26 7AA3     		adr	r3, .L56
 1708 0a28 D3E90023 		ldrd	r2, [r3]
 1709 0a2c FFF7FEFF 		bl	__aeabi_dmul
 1710 0a30 0246     		mov	r2, r0
 1711 0a32 0B46     		mov	r3, r1
 1712 0a34 1046     		mov	r0, r2
 1713 0a36 1946     		mov	r1, r3
 1714 0a38 4FF00002 		mov	r2, #0
 1715 0a3c 4FF00003 		mov	r3, #0
 1716 0a40 C4F21003 		movt	r3, 16400
 1717 0a44 FFF7FEFF 		bl	__aeabi_ddiv
 1718 0a48 0246     		mov	r2, r0
 1719 0a4a 0B46     		mov	r3, r1
 1720 0a4c 1046     		mov	r0, r2
 1721 0a4e 1946     		mov	r1, r3
 1722 0a50 FFF7FEFF 		bl	__aeabi_d2iz
 1723 0a54 0346     		mov	r3, r0
 1724 0a56 9CB2     		uxth	r4, r3
 1725 0a58 0FFA89F0 		sxth	r0, r9
 1726 0a5c 0FFA88F1 		sxth	r1, r8
 1727 0a60 32B2     		sxth	r2, r6
 1728 0a62 2BB2     		sxth	r3, r5
 1729 0a64 24B2     		sxth	r4, r4
 1730 0a66 0094     		str	r4, [sp, #0]
 1731 0a68 4FF6FF74 		movw	r4, #65535
 1732 0a6c 0194     		str	r4, [sp, #4]
 1733 0a6e FFF7FEFF 		bl	TFTSHIELD_1_FillRoundRect
ARM GAS  C:\Users\barror2\AppData\Local\Temp\ccQzPEXq.s 			page 35


 199:.\main.c      ****     TFTSHIELD_1_DrawRoundRect(x_SW + ((.15*length_SW)/2), (i+1)*empty_SW + i*width_SW/2 + (.15*widt
 1734              		.loc 1 199 0
 1735 0a72 B868     		ldr	r0, [r7, #8]
 1736 0a74 FFF7FEFF 		bl	__aeabi_i2d
 1737 0a78 0446     		mov	r4, r0
 1738 0a7a 0D46     		mov	r5, r1
 1739 0a7c F869     		ldr	r0, [r7, #28]
 1740 0a7e FFF7FEFF 		bl	__aeabi_i2d
 1741 0a82 0246     		mov	r2, r0
 1742 0a84 0B46     		mov	r3, r1
 1743 0a86 1046     		mov	r0, r2
 1744 0a88 1946     		mov	r1, r3
 1745 0a8a 63A3     		adr	r3, .L56+8
 1746 0a8c D3E90023 		ldrd	r2, [r3]
 1747 0a90 FFF7FEFF 		bl	__aeabi_dmul
 1748 0a94 0246     		mov	r2, r0
 1749 0a96 0B46     		mov	r3, r1
 1750 0a98 1046     		mov	r0, r2
 1751 0a9a 1946     		mov	r1, r3
 1752 0a9c 4FF00002 		mov	r2, #0
 1753 0aa0 4FF08043 		mov	r3, #1073741824
 1754 0aa4 FFF7FEFF 		bl	__aeabi_ddiv
 1755 0aa8 0246     		mov	r2, r0
 1756 0aaa 0B46     		mov	r3, r1
 1757 0aac 2046     		mov	r0, r4
 1758 0aae 2946     		mov	r1, r5
 1759 0ab0 FFF7FEFF 		bl	__aeabi_dadd
 1760 0ab4 0246     		mov	r2, r0
 1761 0ab6 0B46     		mov	r3, r1
 1762 0ab8 1046     		mov	r0, r2
 1763 0aba 1946     		mov	r1, r3
 1764 0abc FFF7FEFF 		bl	__aeabi_d2iz
 1765 0ac0 0346     		mov	r3, r0
 1766 0ac2 1FFA83F9 		uxth	r9, r3
 1767 0ac6 7B68     		ldr	r3, [r7, #4]
 1768 0ac8 03F10103 		add	r3, r3, #1
 1769 0acc FA68     		ldr	r2, [r7, #12]
 1770 0ace 02FB03F2 		mul	r2, r2, r3
 1771 0ad2 7B68     		ldr	r3, [r7, #4]
 1772 0ad4 396A     		ldr	r1, [r7, #32]
 1773 0ad6 01FB03F3 		mul	r3, r1, r3
 1774 0ada 4FEAD371 		lsr	r1, r3, #31
 1775 0ade CB18     		adds	r3, r1, r3
 1776 0ae0 4FEA6303 		asr	r3, r3, #1
 1777 0ae4 D318     		adds	r3, r2, r3
 1778 0ae6 1846     		mov	r0, r3
 1779 0ae8 FFF7FEFF 		bl	__aeabi_i2d
 1780 0aec 0446     		mov	r4, r0
 1781 0aee 0D46     		mov	r5, r1
 1782 0af0 386A     		ldr	r0, [r7, #32]
 1783 0af2 FFF7FEFF 		bl	__aeabi_i2d
 1784 0af6 0246     		mov	r2, r0
 1785 0af8 0B46     		mov	r3, r1
 1786 0afa 1046     		mov	r0, r2
 1787 0afc 1946     		mov	r1, r3
 1788 0afe 46A3     		adr	r3, .L56+8
 1789 0b00 D3E90023 		ldrd	r2, [r3]
ARM GAS  C:\Users\barror2\AppData\Local\Temp\ccQzPEXq.s 			page 36


 1790 0b04 FFF7FEFF 		bl	__aeabi_dmul
 1791 0b08 0246     		mov	r2, r0
 1792 0b0a 0B46     		mov	r3, r1
 1793 0b0c 1046     		mov	r0, r2
 1794 0b0e 1946     		mov	r1, r3
 1795 0b10 4FF00002 		mov	r2, #0
 1796 0b14 4FF08043 		mov	r3, #1073741824
 1797 0b18 FFF7FEFF 		bl	__aeabi_ddiv
 1798 0b1c 0246     		mov	r2, r0
 1799 0b1e 0B46     		mov	r3, r1
 1800 0b20 2046     		mov	r0, r4
 1801 0b22 2946     		mov	r1, r5
 1802 0b24 FFF7FEFF 		bl	__aeabi_dadd
 1803 0b28 0246     		mov	r2, r0
 1804 0b2a 0B46     		mov	r3, r1
 1805 0b2c 1046     		mov	r0, r2
 1806 0b2e 1946     		mov	r1, r3
 1807 0b30 FFF7FEFF 		bl	__aeabi_d2iz
 1808 0b34 0346     		mov	r3, r0
 1809 0b36 1FFA83F8 		uxth	r8, r3
 1810 0b3a F869     		ldr	r0, [r7, #28]
 1811 0b3c FFF7FEFF 		bl	__aeabi_i2d
 1812 0b40 0246     		mov	r2, r0
 1813 0b42 0B46     		mov	r3, r1
 1814 0b44 1046     		mov	r0, r2
 1815 0b46 1946     		mov	r1, r3
 1816 0b48 31A3     		adr	r3, .L56
 1817 0b4a D3E90023 		ldrd	r2, [r3]
 1818 0b4e FFF7FEFF 		bl	__aeabi_dmul
 1819 0b52 0246     		mov	r2, r0
 1820 0b54 0B46     		mov	r3, r1
 1821 0b56 1046     		mov	r0, r2
 1822 0b58 1946     		mov	r1, r3
 1823 0b5a 4FF00002 		mov	r2, #0
 1824 0b5e 4FF08043 		mov	r3, #1073741824
 1825 0b62 FFF7FEFF 		bl	__aeabi_ddiv
 1826 0b66 0246     		mov	r2, r0
 1827 0b68 0B46     		mov	r3, r1
 1828 0b6a 1046     		mov	r0, r2
 1829 0b6c 1946     		mov	r1, r3
 1830 0b6e FFF7FEFF 		bl	__aeabi_d2iz
 1831 0b72 0346     		mov	r3, r0
 1832 0b74 9EB2     		uxth	r6, r3
 1833 0b76 386A     		ldr	r0, [r7, #32]
 1834 0b78 FFF7FEFF 		bl	__aeabi_i2d
 1835 0b7c 0246     		mov	r2, r0
 1836 0b7e 0B46     		mov	r3, r1
 1837 0b80 1046     		mov	r0, r2
 1838 0b82 1946     		mov	r1, r3
 1839 0b84 22A3     		adr	r3, .L56
 1840 0b86 D3E90023 		ldrd	r2, [r3]
 1841 0b8a FFF7FEFF 		bl	__aeabi_dmul
 1842 0b8e 0246     		mov	r2, r0
 1843 0b90 0B46     		mov	r3, r1
 1844 0b92 1046     		mov	r0, r2
 1845 0b94 1946     		mov	r1, r3
 1846 0b96 FFF7FEFF 		bl	__aeabi_d2iz
ARM GAS  C:\Users\barror2\AppData\Local\Temp\ccQzPEXq.s 			page 37


 1847 0b9a 0346     		mov	r3, r0
 1848 0b9c 9DB2     		uxth	r5, r3
 1849 0b9e 386A     		ldr	r0, [r7, #32]
 1850 0ba0 FFF7FEFF 		bl	__aeabi_i2d
 1851 0ba4 0246     		mov	r2, r0
 1852 0ba6 0B46     		mov	r3, r1
 1853 0ba8 1046     		mov	r0, r2
 1854 0baa 1946     		mov	r1, r3
 1855 0bac 18A3     		adr	r3, .L56
 1856 0bae D3E90023 		ldrd	r2, [r3]
 1857 0bb2 FFF7FEFF 		bl	__aeabi_dmul
 1858 0bb6 0246     		mov	r2, r0
 1859 0bb8 0B46     		mov	r3, r1
 1860 0bba 1046     		mov	r0, r2
 1861 0bbc 1946     		mov	r1, r3
 1862 0bbe 4FF00002 		mov	r2, #0
 1863 0bc2 4FF00003 		mov	r3, #0
 1864 0bc6 C4F21003 		movt	r3, 16400
 1865 0bca FFF7FEFF 		bl	__aeabi_ddiv
 1866 0bce 0246     		mov	r2, r0
 1867 0bd0 0B46     		mov	r3, r1
 1868 0bd2 1046     		mov	r0, r2
 1869 0bd4 1946     		mov	r1, r3
 1870 0bd6 FFF7FEFF 		bl	__aeabi_d2iz
 1871 0bda 0346     		mov	r3, r0
 1872 0bdc 9CB2     		uxth	r4, r3
 1873 0bde 0FFA89F0 		sxth	r0, r9
 1874 0be2 0FFA88F1 		sxth	r1, r8
 1875 0be6 32B2     		sxth	r2, r6
 1876 0be8 2BB2     		sxth	r3, r5
 1877 0bea 24B2     		sxth	r4, r4
 1878 0bec 0094     		str	r4, [sp, #0]
 1879 0bee 4FF00004 		mov	r4, #0
 1880 0bf2 0194     		str	r4, [sp, #4]
 1881 0bf4 FFF7FEFF 		bl	TFTSHIELD_1_DrawRoundRect
 1882 0bf8 00F0A2BD 		b	.L32
 1883              	.L38:
 1884              	.LBE6:
 200:.\main.c      ****     }
 201:.\main.c      ****     
 202:.\main.c      ****     
 203:.\main.c      ****     else if (state == -1)//turning off animation
 1885              		.loc 1 203 0
 1886 0bfc 3B68     		ldr	r3, [r7, #0]
 1887 0bfe B3F1FF3F 		cmp	r3, #-1
 1888 0c02 40F09D85 		bne	.L32
 1889              	.LBB7:
 204:.\main.c      ****     {
 205:.\main.c      ****         int k = 0;
 1890              		.loc 1 205 0
 1891 0c06 4FF00003 		mov	r3, #0
 1892 0c0a 7B61     		str	r3, [r7, #20]
 206:.\main.c      ****         while (k<(.85*length_SW/2))
 1893              		.loc 1 206 0
 1894 0c0c A0E2     		b	.L42
 1895              	.L57:
 1896 0c0e 00BF     		.align	3
ARM GAS  C:\Users\barror2\AppData\Local\Temp\ccQzPEXq.s 			page 38


 1897              	.L56:
 1898 0c10 33333333 		.word	858993459
 1899 0c14 3333EB3F 		.word	1072378675
 1900 0c18 33333333 		.word	858993459
 1901 0c1c 3333C33F 		.word	1069757235
 1902              	.L43:
 207:.\main.c      ****     {
 208:.\main.c      ****     TFTSHIELD_1_FillRoundRect(x_SW + ((.15*length_SW)/2), (i+1)*empty_SW + i*width_SW/2 + (.15*widt
 1903              		.loc 1 208 0
 1904 0c20 B868     		ldr	r0, [r7, #8]
 1905 0c22 FFF7FEFF 		bl	__aeabi_i2d
 1906 0c26 0446     		mov	r4, r0
 1907 0c28 0D46     		mov	r5, r1
 1908 0c2a F869     		ldr	r0, [r7, #28]
 1909 0c2c FFF7FEFF 		bl	__aeabi_i2d
 1910 0c30 0246     		mov	r2, r0
 1911 0c32 0B46     		mov	r3, r1
 1912 0c34 1046     		mov	r0, r2
 1913 0c36 1946     		mov	r1, r3
 1914 0c38 A9A3     		adr	r3, .L58
 1915 0c3a D3E90023 		ldrd	r2, [r3]
 1916 0c3e FFF7FEFF 		bl	__aeabi_dmul
 1917 0c42 0246     		mov	r2, r0
 1918 0c44 0B46     		mov	r3, r1
 1919 0c46 1046     		mov	r0, r2
 1920 0c48 1946     		mov	r1, r3
 1921 0c4a 4FF00002 		mov	r2, #0
 1922 0c4e 4FF08043 		mov	r3, #1073741824
 1923 0c52 FFF7FEFF 		bl	__aeabi_ddiv
 1924 0c56 0246     		mov	r2, r0
 1925 0c58 0B46     		mov	r3, r1
 1926 0c5a 2046     		mov	r0, r4
 1927 0c5c 2946     		mov	r1, r5
 1928 0c5e FFF7FEFF 		bl	__aeabi_dadd
 1929 0c62 0246     		mov	r2, r0
 1930 0c64 0B46     		mov	r3, r1
 1931 0c66 1046     		mov	r0, r2
 1932 0c68 1946     		mov	r1, r3
 1933 0c6a FFF7FEFF 		bl	__aeabi_d2iz
 1934 0c6e 0346     		mov	r3, r0
 1935 0c70 1FFA83F9 		uxth	r9, r3
 1936 0c74 7B68     		ldr	r3, [r7, #4]
 1937 0c76 03F10103 		add	r3, r3, #1
 1938 0c7a FA68     		ldr	r2, [r7, #12]
 1939 0c7c 02FB03F2 		mul	r2, r2, r3
 1940 0c80 7B68     		ldr	r3, [r7, #4]
 1941 0c82 396A     		ldr	r1, [r7, #32]
 1942 0c84 01FB03F3 		mul	r3, r1, r3
 1943 0c88 4FEAD371 		lsr	r1, r3, #31
 1944 0c8c CB18     		adds	r3, r1, r3
 1945 0c8e 4FEA6303 		asr	r3, r3, #1
 1946 0c92 D318     		adds	r3, r2, r3
 1947 0c94 1846     		mov	r0, r3
 1948 0c96 FFF7FEFF 		bl	__aeabi_i2d
 1949 0c9a 0446     		mov	r4, r0
 1950 0c9c 0D46     		mov	r5, r1
 1951 0c9e 386A     		ldr	r0, [r7, #32]
ARM GAS  C:\Users\barror2\AppData\Local\Temp\ccQzPEXq.s 			page 39


 1952 0ca0 FFF7FEFF 		bl	__aeabi_i2d
 1953 0ca4 0246     		mov	r2, r0
 1954 0ca6 0B46     		mov	r3, r1
 1955 0ca8 1046     		mov	r0, r2
 1956 0caa 1946     		mov	r1, r3
 1957 0cac 8CA3     		adr	r3, .L58
 1958 0cae D3E90023 		ldrd	r2, [r3]
 1959 0cb2 FFF7FEFF 		bl	__aeabi_dmul
 1960 0cb6 0246     		mov	r2, r0
 1961 0cb8 0B46     		mov	r3, r1
 1962 0cba 1046     		mov	r0, r2
 1963 0cbc 1946     		mov	r1, r3
 1964 0cbe 4FF00002 		mov	r2, #0
 1965 0cc2 4FF08043 		mov	r3, #1073741824
 1966 0cc6 FFF7FEFF 		bl	__aeabi_ddiv
 1967 0cca 0246     		mov	r2, r0
 1968 0ccc 0B46     		mov	r3, r1
 1969 0cce 2046     		mov	r0, r4
 1970 0cd0 2946     		mov	r1, r5
 1971 0cd2 FFF7FEFF 		bl	__aeabi_dadd
 1972 0cd6 0246     		mov	r2, r0
 1973 0cd8 0B46     		mov	r3, r1
 1974 0cda 1046     		mov	r0, r2
 1975 0cdc 1946     		mov	r1, r3
 1976 0cde FFF7FEFF 		bl	__aeabi_d2iz
 1977 0ce2 0346     		mov	r3, r0
 1978 0ce4 1FFA83F8 		uxth	r8, r3
 1979 0ce8 F869     		ldr	r0, [r7, #28]
 1980 0cea FFF7FEFF 		bl	__aeabi_i2d
 1981 0cee 0246     		mov	r2, r0
 1982 0cf0 0B46     		mov	r3, r1
 1983 0cf2 1046     		mov	r0, r2
 1984 0cf4 1946     		mov	r1, r3
 1985 0cf6 7CA3     		adr	r3, .L58+8
 1986 0cf8 D3E90023 		ldrd	r2, [r3]
 1987 0cfc FFF7FEFF 		bl	__aeabi_dmul
 1988 0d00 0246     		mov	r2, r0
 1989 0d02 0B46     		mov	r3, r1
 1990 0d04 1046     		mov	r0, r2
 1991 0d06 1946     		mov	r1, r3
 1992 0d08 FFF7FEFF 		bl	__aeabi_d2iz
 1993 0d0c 0346     		mov	r3, r0
 1994 0d0e 9EB2     		uxth	r6, r3
 1995 0d10 386A     		ldr	r0, [r7, #32]
 1996 0d12 FFF7FEFF 		bl	__aeabi_i2d
 1997 0d16 0246     		mov	r2, r0
 1998 0d18 0B46     		mov	r3, r1
 1999 0d1a 1046     		mov	r0, r2
 2000 0d1c 1946     		mov	r1, r3
 2001 0d1e 72A3     		adr	r3, .L58+8
 2002 0d20 D3E90023 		ldrd	r2, [r3]
 2003 0d24 FFF7FEFF 		bl	__aeabi_dmul
 2004 0d28 0246     		mov	r2, r0
 2005 0d2a 0B46     		mov	r3, r1
 2006 0d2c 1046     		mov	r0, r2
 2007 0d2e 1946     		mov	r1, r3
 2008 0d30 FFF7FEFF 		bl	__aeabi_d2iz
ARM GAS  C:\Users\barror2\AppData\Local\Temp\ccQzPEXq.s 			page 40


 2009 0d34 0346     		mov	r3, r0
 2010 0d36 9DB2     		uxth	r5, r3
 2011 0d38 386A     		ldr	r0, [r7, #32]
 2012 0d3a FFF7FEFF 		bl	__aeabi_i2d
 2013 0d3e 0246     		mov	r2, r0
 2014 0d40 0B46     		mov	r3, r1
 2015 0d42 1046     		mov	r0, r2
 2016 0d44 1946     		mov	r1, r3
 2017 0d46 68A3     		adr	r3, .L58+8
 2018 0d48 D3E90023 		ldrd	r2, [r3]
 2019 0d4c FFF7FEFF 		bl	__aeabi_dmul
 2020 0d50 0246     		mov	r2, r0
 2021 0d52 0B46     		mov	r3, r1
 2022 0d54 1046     		mov	r0, r2
 2023 0d56 1946     		mov	r1, r3
 2024 0d58 4FF00002 		mov	r2, #0
 2025 0d5c 4FF00003 		mov	r3, #0
 2026 0d60 C4F21003 		movt	r3, 16400
 2027 0d64 FFF7FEFF 		bl	__aeabi_ddiv
 2028 0d68 0246     		mov	r2, r0
 2029 0d6a 0B46     		mov	r3, r1
 2030 0d6c 1046     		mov	r0, r2
 2031 0d6e 1946     		mov	r1, r3
 2032 0d70 FFF7FEFF 		bl	__aeabi_d2iz
 2033 0d74 0346     		mov	r3, r0
 2034 0d76 9CB2     		uxth	r4, r3
 2035 0d78 0FFA89F0 		sxth	r0, r9
 2036 0d7c 0FFA88F1 		sxth	r1, r8
 2037 0d80 32B2     		sxth	r2, r6
 2038 0d82 2BB2     		sxth	r3, r5
 2039 0d84 24B2     		sxth	r4, r4
 2040 0d86 0094     		str	r4, [sp, #0]
 2041 0d88 4FF4FC64 		mov	r4, #2016
 2042 0d8c 0194     		str	r4, [sp, #4]
 2043 0d8e FFF7FEFF 		bl	TFTSHIELD_1_FillRoundRect
 209:.\main.c      ****     TFTSHIELD_1_FillRoundRect(x_SW + ((.15*length_SW)/2) + k, (i+1)*empty_SW + i*width_SW/2 + (.15*
 2044              		.loc 1 209 0
 2045 0d92 B868     		ldr	r0, [r7, #8]
 2046 0d94 FFF7FEFF 		bl	__aeabi_i2d
 2047 0d98 0446     		mov	r4, r0
 2048 0d9a 0D46     		mov	r5, r1
 2049 0d9c F869     		ldr	r0, [r7, #28]
 2050 0d9e FFF7FEFF 		bl	__aeabi_i2d
 2051 0da2 0246     		mov	r2, r0
 2052 0da4 0B46     		mov	r3, r1
 2053 0da6 1046     		mov	r0, r2
 2054 0da8 1946     		mov	r1, r3
 2055 0daa 4DA3     		adr	r3, .L58
 2056 0dac D3E90023 		ldrd	r2, [r3]
 2057 0db0 FFF7FEFF 		bl	__aeabi_dmul
 2058 0db4 0246     		mov	r2, r0
 2059 0db6 0B46     		mov	r3, r1
 2060 0db8 1046     		mov	r0, r2
 2061 0dba 1946     		mov	r1, r3
 2062 0dbc 4FF00002 		mov	r2, #0
 2063 0dc0 4FF08043 		mov	r3, #1073741824
 2064 0dc4 FFF7FEFF 		bl	__aeabi_ddiv
ARM GAS  C:\Users\barror2\AppData\Local\Temp\ccQzPEXq.s 			page 41


 2065 0dc8 0246     		mov	r2, r0
 2066 0dca 0B46     		mov	r3, r1
 2067 0dcc 2046     		mov	r0, r4
 2068 0dce 2946     		mov	r1, r5
 2069 0dd0 FFF7FEFF 		bl	__aeabi_dadd
 2070 0dd4 0246     		mov	r2, r0
 2071 0dd6 0B46     		mov	r3, r1
 2072 0dd8 1446     		mov	r4, r2
 2073 0dda 1D46     		mov	r5, r3
 2074 0ddc 7869     		ldr	r0, [r7, #20]
 2075 0dde FFF7FEFF 		bl	__aeabi_i2d
 2076 0de2 0246     		mov	r2, r0
 2077 0de4 0B46     		mov	r3, r1
 2078 0de6 2046     		mov	r0, r4
 2079 0de8 2946     		mov	r1, r5
 2080 0dea FFF7FEFF 		bl	__aeabi_dadd
 2081 0dee 0246     		mov	r2, r0
 2082 0df0 0B46     		mov	r3, r1
 2083 0df2 1046     		mov	r0, r2
 2084 0df4 1946     		mov	r1, r3
 2085 0df6 FFF7FEFF 		bl	__aeabi_d2iz
 2086 0dfa 0346     		mov	r3, r0
 2087 0dfc 1FFA83F9 		uxth	r9, r3
 2088 0e00 7B68     		ldr	r3, [r7, #4]
 2089 0e02 03F10103 		add	r3, r3, #1
 2090 0e06 FA68     		ldr	r2, [r7, #12]
 2091 0e08 02FB03F2 		mul	r2, r2, r3
 2092 0e0c 7B68     		ldr	r3, [r7, #4]
 2093 0e0e 396A     		ldr	r1, [r7, #32]
 2094 0e10 01FB03F3 		mul	r3, r1, r3
 2095 0e14 4FEAD371 		lsr	r1, r3, #31
 2096 0e18 CB18     		adds	r3, r1, r3
 2097 0e1a 4FEA6303 		asr	r3, r3, #1
 2098 0e1e D318     		adds	r3, r2, r3
 2099 0e20 1846     		mov	r0, r3
 2100 0e22 FFF7FEFF 		bl	__aeabi_i2d
 2101 0e26 0446     		mov	r4, r0
 2102 0e28 0D46     		mov	r5, r1
 2103 0e2a 386A     		ldr	r0, [r7, #32]
 2104 0e2c FFF7FEFF 		bl	__aeabi_i2d
 2105 0e30 0246     		mov	r2, r0
 2106 0e32 0B46     		mov	r3, r1
 2107 0e34 1046     		mov	r0, r2
 2108 0e36 1946     		mov	r1, r3
 2109 0e38 29A3     		adr	r3, .L58
 2110 0e3a D3E90023 		ldrd	r2, [r3]
 2111 0e3e FFF7FEFF 		bl	__aeabi_dmul
 2112 0e42 0246     		mov	r2, r0
 2113 0e44 0B46     		mov	r3, r1
 2114 0e46 1046     		mov	r0, r2
 2115 0e48 1946     		mov	r1, r3
 2116 0e4a 4FF00002 		mov	r2, #0
 2117 0e4e 4FF08043 		mov	r3, #1073741824
 2118 0e52 FFF7FEFF 		bl	__aeabi_ddiv
 2119 0e56 0246     		mov	r2, r0
 2120 0e58 0B46     		mov	r3, r1
 2121 0e5a 2046     		mov	r0, r4
ARM GAS  C:\Users\barror2\AppData\Local\Temp\ccQzPEXq.s 			page 42


 2122 0e5c 2946     		mov	r1, r5
 2123 0e5e FFF7FEFF 		bl	__aeabi_dadd
 2124 0e62 0246     		mov	r2, r0
 2125 0e64 0B46     		mov	r3, r1
 2126 0e66 1046     		mov	r0, r2
 2127 0e68 1946     		mov	r1, r3
 2128 0e6a FFF7FEFF 		bl	__aeabi_d2iz
 2129 0e6e 0346     		mov	r3, r0
 2130 0e70 1FFA83F8 		uxth	r8, r3
 2131 0e74 F869     		ldr	r0, [r7, #28]
 2132 0e76 FFF7FEFF 		bl	__aeabi_i2d
 2133 0e7a 0246     		mov	r2, r0
 2134 0e7c 0B46     		mov	r3, r1
 2135 0e7e 1046     		mov	r0, r2
 2136 0e80 1946     		mov	r1, r3
 2137 0e82 19A3     		adr	r3, .L58+8
 2138 0e84 D3E90023 		ldrd	r2, [r3]
 2139 0e88 FFF7FEFF 		bl	__aeabi_dmul
 2140 0e8c 0246     		mov	r2, r0
 2141 0e8e 0B46     		mov	r3, r1
 2142 0e90 1046     		mov	r0, r2
 2143 0e92 1946     		mov	r1, r3
 2144 0e94 4FF00002 		mov	r2, #0
 2145 0e98 4FF08043 		mov	r3, #1073741824
 2146 0e9c FFF7FEFF 		bl	__aeabi_ddiv
 2147 0ea0 0246     		mov	r2, r0
 2148 0ea2 0B46     		mov	r3, r1
 2149 0ea4 1046     		mov	r0, r2
 2150 0ea6 1946     		mov	r1, r3
 2151 0ea8 FFF7FEFF 		bl	__aeabi_d2iz
 2152 0eac 0346     		mov	r3, r0
 2153 0eae 9EB2     		uxth	r6, r3
 2154 0eb0 386A     		ldr	r0, [r7, #32]
 2155 0eb2 FFF7FEFF 		bl	__aeabi_i2d
 2156 0eb6 0246     		mov	r2, r0
 2157 0eb8 0B46     		mov	r3, r1
 2158 0eba 1046     		mov	r0, r2
 2159 0ebc 1946     		mov	r1, r3
 2160 0ebe 0AA3     		adr	r3, .L58+8
 2161 0ec0 D3E90023 		ldrd	r2, [r3]
 2162 0ec4 FFF7FEFF 		bl	__aeabi_dmul
 2163 0ec8 0246     		mov	r2, r0
 2164 0eca 0B46     		mov	r3, r1
 2165 0ecc 1046     		mov	r0, r2
 2166 0ece 1946     		mov	r1, r3
 2167 0ed0 FFF7FEFF 		bl	__aeabi_d2iz
 2168 0ed4 0346     		mov	r3, r0
 2169 0ed6 9DB2     		uxth	r5, r3
 2170 0ed8 0AE0     		b	.L59
 2171              	.L60:
 2172 0eda 00BFAFF3 		.align	3
 2172      0080
 2173              	.L58:
 2174 0ee0 33333333 		.word	858993459
 2175 0ee4 3333C33F 		.word	1069757235
 2176 0ee8 33333333 		.word	858993459
 2177 0eec 3333EB3F 		.word	1072378675
ARM GAS  C:\Users\barror2\AppData\Local\Temp\ccQzPEXq.s 			page 43


 2178              	.L59:
 2179 0ef0 386A     		ldr	r0, [r7, #32]
 2180 0ef2 FFF7FEFF 		bl	__aeabi_i2d
 2181 0ef6 0246     		mov	r2, r0
 2182 0ef8 0B46     		mov	r3, r1
 2183 0efa 1046     		mov	r0, r2
 2184 0efc 1946     		mov	r1, r3
 2185 0efe A8A3     		adr	r3, .L61
 2186 0f00 D3E90023 		ldrd	r2, [r3]
 2187 0f04 FFF7FEFF 		bl	__aeabi_dmul
 2188 0f08 0246     		mov	r2, r0
 2189 0f0a 0B46     		mov	r3, r1
 2190 0f0c 1046     		mov	r0, r2
 2191 0f0e 1946     		mov	r1, r3
 2192 0f10 4FF00002 		mov	r2, #0
 2193 0f14 4FF00003 		mov	r3, #0
 2194 0f18 C4F21003 		movt	r3, 16400
 2195 0f1c FFF7FEFF 		bl	__aeabi_ddiv
 2196 0f20 0246     		mov	r2, r0
 2197 0f22 0B46     		mov	r3, r1
 2198 0f24 1046     		mov	r0, r2
 2199 0f26 1946     		mov	r1, r3
 2200 0f28 FFF7FEFF 		bl	__aeabi_d2iz
 2201 0f2c 0346     		mov	r3, r0
 2202 0f2e 9CB2     		uxth	r4, r3
 2203 0f30 0FFA89F0 		sxth	r0, r9
 2204 0f34 0FFA88F1 		sxth	r1, r8
 2205 0f38 32B2     		sxth	r2, r6
 2206 0f3a 2BB2     		sxth	r3, r5
 2207 0f3c 24B2     		sxth	r4, r4
 2208 0f3e 0094     		str	r4, [sp, #0]
 2209 0f40 4FF6FF74 		movw	r4, #65535
 2210 0f44 0194     		str	r4, [sp, #4]
 2211 0f46 FFF7FEFF 		bl	TFTSHIELD_1_FillRoundRect
 210:.\main.c      ****     TFTSHIELD_1_DrawRoundRect(x_SW + ((.15*length_SW)/2) + k, (i+1)*empty_SW + i*width_SW/2 + (.15*
 2212              		.loc 1 210 0
 2213 0f4a B868     		ldr	r0, [r7, #8]
 2214 0f4c FFF7FEFF 		bl	__aeabi_i2d
 2215 0f50 0446     		mov	r4, r0
 2216 0f52 0D46     		mov	r5, r1
 2217 0f54 F869     		ldr	r0, [r7, #28]
 2218 0f56 FFF7FEFF 		bl	__aeabi_i2d
 2219 0f5a 0246     		mov	r2, r0
 2220 0f5c 0B46     		mov	r3, r1
 2221 0f5e 1046     		mov	r0, r2
 2222 0f60 1946     		mov	r1, r3
 2223 0f62 91A3     		adr	r3, .L61+8
 2224 0f64 D3E90023 		ldrd	r2, [r3]
 2225 0f68 FFF7FEFF 		bl	__aeabi_dmul
 2226 0f6c 0246     		mov	r2, r0
 2227 0f6e 0B46     		mov	r3, r1
 2228 0f70 1046     		mov	r0, r2
 2229 0f72 1946     		mov	r1, r3
 2230 0f74 4FF00002 		mov	r2, #0
 2231 0f78 4FF08043 		mov	r3, #1073741824
 2232 0f7c FFF7FEFF 		bl	__aeabi_ddiv
 2233 0f80 0246     		mov	r2, r0
ARM GAS  C:\Users\barror2\AppData\Local\Temp\ccQzPEXq.s 			page 44


 2234 0f82 0B46     		mov	r3, r1
 2235 0f84 2046     		mov	r0, r4
 2236 0f86 2946     		mov	r1, r5
 2237 0f88 FFF7FEFF 		bl	__aeabi_dadd
 2238 0f8c 0246     		mov	r2, r0
 2239 0f8e 0B46     		mov	r3, r1
 2240 0f90 1446     		mov	r4, r2
 2241 0f92 1D46     		mov	r5, r3
 2242 0f94 7869     		ldr	r0, [r7, #20]
 2243 0f96 FFF7FEFF 		bl	__aeabi_i2d
 2244 0f9a 0246     		mov	r2, r0
 2245 0f9c 0B46     		mov	r3, r1
 2246 0f9e 2046     		mov	r0, r4
 2247 0fa0 2946     		mov	r1, r5
 2248 0fa2 FFF7FEFF 		bl	__aeabi_dadd
 2249 0fa6 0246     		mov	r2, r0
 2250 0fa8 0B46     		mov	r3, r1
 2251 0faa 1046     		mov	r0, r2
 2252 0fac 1946     		mov	r1, r3
 2253 0fae FFF7FEFF 		bl	__aeabi_d2iz
 2254 0fb2 0346     		mov	r3, r0
 2255 0fb4 1FFA83F9 		uxth	r9, r3
 2256 0fb8 7B68     		ldr	r3, [r7, #4]
 2257 0fba 03F10103 		add	r3, r3, #1
 2258 0fbe FA68     		ldr	r2, [r7, #12]
 2259 0fc0 02FB03F2 		mul	r2, r2, r3
 2260 0fc4 7B68     		ldr	r3, [r7, #4]
 2261 0fc6 396A     		ldr	r1, [r7, #32]
 2262 0fc8 01FB03F3 		mul	r3, r1, r3
 2263 0fcc 4FEAD371 		lsr	r1, r3, #31
 2264 0fd0 CB18     		adds	r3, r1, r3
 2265 0fd2 4FEA6303 		asr	r3, r3, #1
 2266 0fd6 D318     		adds	r3, r2, r3
 2267 0fd8 1846     		mov	r0, r3
 2268 0fda FFF7FEFF 		bl	__aeabi_i2d
 2269 0fde 0446     		mov	r4, r0
 2270 0fe0 0D46     		mov	r5, r1
 2271 0fe2 386A     		ldr	r0, [r7, #32]
 2272 0fe4 FFF7FEFF 		bl	__aeabi_i2d
 2273 0fe8 0246     		mov	r2, r0
 2274 0fea 0B46     		mov	r3, r1
 2275 0fec 1046     		mov	r0, r2
 2276 0fee 1946     		mov	r1, r3
 2277 0ff0 6DA3     		adr	r3, .L61+8
 2278 0ff2 D3E90023 		ldrd	r2, [r3]
 2279 0ff6 FFF7FEFF 		bl	__aeabi_dmul
 2280 0ffa 0246     		mov	r2, r0
 2281 0ffc 0B46     		mov	r3, r1
 2282 0ffe 1046     		mov	r0, r2
 2283 1000 1946     		mov	r1, r3
 2284 1002 4FF00002 		mov	r2, #0
 2285 1006 4FF08043 		mov	r3, #1073741824
 2286 100a FFF7FEFF 		bl	__aeabi_ddiv
 2287 100e 0246     		mov	r2, r0
 2288 1010 0B46     		mov	r3, r1
 2289 1012 2046     		mov	r0, r4
 2290 1014 2946     		mov	r1, r5
ARM GAS  C:\Users\barror2\AppData\Local\Temp\ccQzPEXq.s 			page 45


 2291 1016 FFF7FEFF 		bl	__aeabi_dadd
 2292 101a 0246     		mov	r2, r0
 2293 101c 0B46     		mov	r3, r1
 2294 101e 1046     		mov	r0, r2
 2295 1020 1946     		mov	r1, r3
 2296 1022 FFF7FEFF 		bl	__aeabi_d2iz
 2297 1026 0346     		mov	r3, r0
 2298 1028 1FFA83F8 		uxth	r8, r3
 2299 102c F869     		ldr	r0, [r7, #28]
 2300 102e FFF7FEFF 		bl	__aeabi_i2d
 2301 1032 0246     		mov	r2, r0
 2302 1034 0B46     		mov	r3, r1
 2303 1036 1046     		mov	r0, r2
 2304 1038 1946     		mov	r1, r3
 2305 103a 59A3     		adr	r3, .L61
 2306 103c D3E90023 		ldrd	r2, [r3]
 2307 1040 FFF7FEFF 		bl	__aeabi_dmul
 2308 1044 0246     		mov	r2, r0
 2309 1046 0B46     		mov	r3, r1
 2310 1048 1046     		mov	r0, r2
 2311 104a 1946     		mov	r1, r3
 2312 104c 4FF00002 		mov	r2, #0
 2313 1050 4FF08043 		mov	r3, #1073741824
 2314 1054 FFF7FEFF 		bl	__aeabi_ddiv
 2315 1058 0246     		mov	r2, r0
 2316 105a 0B46     		mov	r3, r1
 2317 105c 1046     		mov	r0, r2
 2318 105e 1946     		mov	r1, r3
 2319 1060 FFF7FEFF 		bl	__aeabi_d2iz
 2320 1064 0346     		mov	r3, r0
 2321 1066 9EB2     		uxth	r6, r3
 2322 1068 386A     		ldr	r0, [r7, #32]
 2323 106a FFF7FEFF 		bl	__aeabi_i2d
 2324 106e 0246     		mov	r2, r0
 2325 1070 0B46     		mov	r3, r1
 2326 1072 1046     		mov	r0, r2
 2327 1074 1946     		mov	r1, r3
 2328 1076 4AA3     		adr	r3, .L61
 2329 1078 D3E90023 		ldrd	r2, [r3]
 2330 107c FFF7FEFF 		bl	__aeabi_dmul
 2331 1080 0246     		mov	r2, r0
 2332 1082 0B46     		mov	r3, r1
 2333 1084 1046     		mov	r0, r2
 2334 1086 1946     		mov	r1, r3
 2335 1088 FFF7FEFF 		bl	__aeabi_d2iz
 2336 108c 0346     		mov	r3, r0
 2337 108e 9DB2     		uxth	r5, r3
 2338 1090 386A     		ldr	r0, [r7, #32]
 2339 1092 FFF7FEFF 		bl	__aeabi_i2d
 2340 1096 0246     		mov	r2, r0
 2341 1098 0B46     		mov	r3, r1
 2342 109a 1046     		mov	r0, r2
 2343 109c 1946     		mov	r1, r3
 2344 109e 40A3     		adr	r3, .L61
 2345 10a0 D3E90023 		ldrd	r2, [r3]
 2346 10a4 FFF7FEFF 		bl	__aeabi_dmul
 2347 10a8 0246     		mov	r2, r0
ARM GAS  C:\Users\barror2\AppData\Local\Temp\ccQzPEXq.s 			page 46


 2348 10aa 0B46     		mov	r3, r1
 2349 10ac 1046     		mov	r0, r2
 2350 10ae 1946     		mov	r1, r3
 2351 10b0 4FF00002 		mov	r2, #0
 2352 10b4 4FF00003 		mov	r3, #0
 2353 10b8 C4F21003 		movt	r3, 16400
 2354 10bc FFF7FEFF 		bl	__aeabi_ddiv
 2355 10c0 0246     		mov	r2, r0
 2356 10c2 0B46     		mov	r3, r1
 2357 10c4 1046     		mov	r0, r2
 2358 10c6 1946     		mov	r1, r3
 2359 10c8 FFF7FEFF 		bl	__aeabi_d2iz
 2360 10cc 0346     		mov	r3, r0
 2361 10ce 9CB2     		uxth	r4, r3
 2362 10d0 0FFA89F0 		sxth	r0, r9
 2363 10d4 0FFA88F1 		sxth	r1, r8
 2364 10d8 32B2     		sxth	r2, r6
 2365 10da 2BB2     		sxth	r3, r5
 2366 10dc 24B2     		sxth	r4, r4
 2367 10de 0094     		str	r4, [sp, #0]
 2368 10e0 4FF00004 		mov	r4, #0
 2369 10e4 0194     		str	r4, [sp, #4]
 2370 10e6 FFF7FEFF 		bl	TFTSHIELD_1_DrawRoundRect
 211:.\main.c      ****     k = k+ (.85*length_SW/2)/2;
 2371              		.loc 1 211 0
 2372 10ea 7869     		ldr	r0, [r7, #20]
 2373 10ec FFF7FEFF 		bl	__aeabi_i2d
 2374 10f0 0446     		mov	r4, r0
 2375 10f2 0D46     		mov	r5, r1
 2376 10f4 F869     		ldr	r0, [r7, #28]
 2377 10f6 FFF7FEFF 		bl	__aeabi_i2d
 2378 10fa 0246     		mov	r2, r0
 2379 10fc 0B46     		mov	r3, r1
 2380 10fe 1046     		mov	r0, r2
 2381 1100 1946     		mov	r1, r3
 2382 1102 27A3     		adr	r3, .L61
 2383 1104 D3E90023 		ldrd	r2, [r3]
 2384 1108 FFF7FEFF 		bl	__aeabi_dmul
 2385 110c 0246     		mov	r2, r0
 2386 110e 0B46     		mov	r3, r1
 2387 1110 1046     		mov	r0, r2
 2388 1112 1946     		mov	r1, r3
 2389 1114 4FF00002 		mov	r2, #0
 2390 1118 4FF08043 		mov	r3, #1073741824
 2391 111c FFF7FEFF 		bl	__aeabi_ddiv
 2392 1120 0246     		mov	r2, r0
 2393 1122 0B46     		mov	r3, r1
 2394 1124 1046     		mov	r0, r2
 2395 1126 1946     		mov	r1, r3
 2396 1128 4FF00002 		mov	r2, #0
 2397 112c 4FF08043 		mov	r3, #1073741824
 2398 1130 FFF7FEFF 		bl	__aeabi_ddiv
 2399 1134 0246     		mov	r2, r0
 2400 1136 0B46     		mov	r3, r1
 2401 1138 2046     		mov	r0, r4
 2402 113a 2946     		mov	r1, r5
 2403 113c FFF7FEFF 		bl	__aeabi_dadd
ARM GAS  C:\Users\barror2\AppData\Local\Temp\ccQzPEXq.s 			page 47


 2404 1140 0246     		mov	r2, r0
 2405 1142 0B46     		mov	r3, r1
 2406 1144 1046     		mov	r0, r2
 2407 1146 1946     		mov	r1, r3
 2408 1148 FFF7FEFF 		bl	__aeabi_d2iz
 2409 114c 0346     		mov	r3, r0
 2410 114e 7B61     		str	r3, [r7, #20]
 2411              	.L42:
 206:.\main.c      ****         while (k<(.85*length_SW/2))
 2412              		.loc 1 206 0 discriminator 1
 2413 1150 7869     		ldr	r0, [r7, #20]
 2414 1152 FFF7FEFF 		bl	__aeabi_i2d
 2415 1156 0446     		mov	r4, r0
 2416 1158 0D46     		mov	r5, r1
 2417 115a F869     		ldr	r0, [r7, #28]
 2418 115c FFF7FEFF 		bl	__aeabi_i2d
 2419 1160 0246     		mov	r2, r0
 2420 1162 0B46     		mov	r3, r1
 2421 1164 1046     		mov	r0, r2
 2422 1166 1946     		mov	r1, r3
 2423 1168 0DA3     		adr	r3, .L61
 2424 116a D3E90023 		ldrd	r2, [r3]
 2425 116e FFF7FEFF 		bl	__aeabi_dmul
 2426 1172 0246     		mov	r2, r0
 2427 1174 0B46     		mov	r3, r1
 2428 1176 1046     		mov	r0, r2
 2429 1178 1946     		mov	r1, r3
 2430 117a 4FF00002 		mov	r2, #0
 2431 117e 4FF08043 		mov	r3, #1073741824
 2432 1182 FFF7FEFF 		bl	__aeabi_ddiv
 2433 1186 0246     		mov	r2, r0
 2434 1188 0B46     		mov	r3, r1
 2435 118a 2046     		mov	r0, r4
 2436 118c 2946     		mov	r1, r5
 2437 118e FFF7FEFF 		bl	__aeabi_dcmplt
 2438 1192 0346     		mov	r3, r0
 2439 1194 002B     		cmp	r3, #0
 2440 1196 7FF443AD 		bne	.L43
 2441 119a 09E0     		b	.L62
 2442              	.L63:
 2443 119c AFF30080 		.align	3
 2444              	.L61:
 2445 11a0 33333333 		.word	858993459
 2446 11a4 3333EB3F 		.word	1072378675
 2447 11a8 33333333 		.word	858993459
 2448 11ac 3333C33F 		.word	1069757235
 2449              	.L62:
 212:.\main.c      ****     
 213:.\main.c      ****     }
 214:.\main.c      ****     
 215:.\main.c      ****      
 216:.\main.c      ****     TFTSHIELD_1_FillRoundRect(x_SW + ((.15*length_SW)/2), (i+1)*empty_SW + i*width_SW/2 + (.15*widt
 2450              		.loc 1 216 0
 2451 11b0 B868     		ldr	r0, [r7, #8]
 2452 11b2 FFF7FEFF 		bl	__aeabi_i2d
 2453 11b6 0446     		mov	r4, r0
 2454 11b8 0D46     		mov	r5, r1
ARM GAS  C:\Users\barror2\AppData\Local\Temp\ccQzPEXq.s 			page 48


 2455 11ba F869     		ldr	r0, [r7, #28]
 2456 11bc FFF7FEFF 		bl	__aeabi_i2d
 2457 11c0 0246     		mov	r2, r0
 2458 11c2 0B46     		mov	r3, r1
 2459 11c4 1046     		mov	r0, r2
 2460 11c6 1946     		mov	r1, r3
 2461 11c8 A9A3     		adr	r3, .L64
 2462 11ca D3E90023 		ldrd	r2, [r3]
 2463 11ce FFF7FEFF 		bl	__aeabi_dmul
 2464 11d2 0246     		mov	r2, r0
 2465 11d4 0B46     		mov	r3, r1
 2466 11d6 1046     		mov	r0, r2
 2467 11d8 1946     		mov	r1, r3
 2468 11da 4FF00002 		mov	r2, #0
 2469 11de 4FF08043 		mov	r3, #1073741824
 2470 11e2 FFF7FEFF 		bl	__aeabi_ddiv
 2471 11e6 0246     		mov	r2, r0
 2472 11e8 0B46     		mov	r3, r1
 2473 11ea 2046     		mov	r0, r4
 2474 11ec 2946     		mov	r1, r5
 2475 11ee FFF7FEFF 		bl	__aeabi_dadd
 2476 11f2 0246     		mov	r2, r0
 2477 11f4 0B46     		mov	r3, r1
 2478 11f6 1046     		mov	r0, r2
 2479 11f8 1946     		mov	r1, r3
 2480 11fa FFF7FEFF 		bl	__aeabi_d2iz
 2481 11fe 0346     		mov	r3, r0
 2482 1200 1FFA83F9 		uxth	r9, r3
 2483 1204 7B68     		ldr	r3, [r7, #4]
 2484 1206 03F10103 		add	r3, r3, #1
 2485 120a FA68     		ldr	r2, [r7, #12]
 2486 120c 02FB03F2 		mul	r2, r2, r3
 2487 1210 7B68     		ldr	r3, [r7, #4]
 2488 1212 396A     		ldr	r1, [r7, #32]
 2489 1214 01FB03F3 		mul	r3, r1, r3
 2490 1218 4FEAD371 		lsr	r1, r3, #31
 2491 121c CB18     		adds	r3, r1, r3
 2492 121e 4FEA6303 		asr	r3, r3, #1
 2493 1222 D318     		adds	r3, r2, r3
 2494 1224 1846     		mov	r0, r3
 2495 1226 FFF7FEFF 		bl	__aeabi_i2d
 2496 122a 0446     		mov	r4, r0
 2497 122c 0D46     		mov	r5, r1
 2498 122e 386A     		ldr	r0, [r7, #32]
 2499 1230 FFF7FEFF 		bl	__aeabi_i2d
 2500 1234 0246     		mov	r2, r0
 2501 1236 0B46     		mov	r3, r1
 2502 1238 1046     		mov	r0, r2
 2503 123a 1946     		mov	r1, r3
 2504 123c 8CA3     		adr	r3, .L64
 2505 123e D3E90023 		ldrd	r2, [r3]
 2506 1242 FFF7FEFF 		bl	__aeabi_dmul
 2507 1246 0246     		mov	r2, r0
 2508 1248 0B46     		mov	r3, r1
 2509 124a 1046     		mov	r0, r2
 2510 124c 1946     		mov	r1, r3
 2511 124e 4FF00002 		mov	r2, #0
ARM GAS  C:\Users\barror2\AppData\Local\Temp\ccQzPEXq.s 			page 49


 2512 1252 4FF08043 		mov	r3, #1073741824
 2513 1256 FFF7FEFF 		bl	__aeabi_ddiv
 2514 125a 0246     		mov	r2, r0
 2515 125c 0B46     		mov	r3, r1
 2516 125e 2046     		mov	r0, r4
 2517 1260 2946     		mov	r1, r5
 2518 1262 FFF7FEFF 		bl	__aeabi_dadd
 2519 1266 0246     		mov	r2, r0
 2520 1268 0B46     		mov	r3, r1
 2521 126a 1046     		mov	r0, r2
 2522 126c 1946     		mov	r1, r3
 2523 126e FFF7FEFF 		bl	__aeabi_d2iz
 2524 1272 0346     		mov	r3, r0
 2525 1274 1FFA83F8 		uxth	r8, r3
 2526 1278 F869     		ldr	r0, [r7, #28]
 2527 127a FFF7FEFF 		bl	__aeabi_i2d
 2528 127e 0246     		mov	r2, r0
 2529 1280 0B46     		mov	r3, r1
 2530 1282 1046     		mov	r0, r2
 2531 1284 1946     		mov	r1, r3
 2532 1286 7CA3     		adr	r3, .L64+8
 2533 1288 D3E90023 		ldrd	r2, [r3]
 2534 128c FFF7FEFF 		bl	__aeabi_dmul
 2535 1290 0246     		mov	r2, r0
 2536 1292 0B46     		mov	r3, r1
 2537 1294 1046     		mov	r0, r2
 2538 1296 1946     		mov	r1, r3
 2539 1298 FFF7FEFF 		bl	__aeabi_d2iz
 2540 129c 0346     		mov	r3, r0
 2541 129e 9EB2     		uxth	r6, r3
 2542 12a0 386A     		ldr	r0, [r7, #32]
 2543 12a2 FFF7FEFF 		bl	__aeabi_i2d
 2544 12a6 0246     		mov	r2, r0
 2545 12a8 0B46     		mov	r3, r1
 2546 12aa 1046     		mov	r0, r2
 2547 12ac 1946     		mov	r1, r3
 2548 12ae 72A3     		adr	r3, .L64+8
 2549 12b0 D3E90023 		ldrd	r2, [r3]
 2550 12b4 FFF7FEFF 		bl	__aeabi_dmul
 2551 12b8 0246     		mov	r2, r0
 2552 12ba 0B46     		mov	r3, r1
 2553 12bc 1046     		mov	r0, r2
 2554 12be 1946     		mov	r1, r3
 2555 12c0 FFF7FEFF 		bl	__aeabi_d2iz
 2556 12c4 0346     		mov	r3, r0
 2557 12c6 9DB2     		uxth	r5, r3
 2558 12c8 386A     		ldr	r0, [r7, #32]
 2559 12ca FFF7FEFF 		bl	__aeabi_i2d
 2560 12ce 0246     		mov	r2, r0
 2561 12d0 0B46     		mov	r3, r1
 2562 12d2 1046     		mov	r0, r2
 2563 12d4 1946     		mov	r1, r3
 2564 12d6 68A3     		adr	r3, .L64+8
 2565 12d8 D3E90023 		ldrd	r2, [r3]
 2566 12dc FFF7FEFF 		bl	__aeabi_dmul
 2567 12e0 0246     		mov	r2, r0
 2568 12e2 0B46     		mov	r3, r1
ARM GAS  C:\Users\barror2\AppData\Local\Temp\ccQzPEXq.s 			page 50


 2569 12e4 1046     		mov	r0, r2
 2570 12e6 1946     		mov	r1, r3
 2571 12e8 4FF00002 		mov	r2, #0
 2572 12ec 4FF00003 		mov	r3, #0
 2573 12f0 C4F21003 		movt	r3, 16400
 2574 12f4 FFF7FEFF 		bl	__aeabi_ddiv
 2575 12f8 0246     		mov	r2, r0
 2576 12fa 0B46     		mov	r3, r1
 2577 12fc 1046     		mov	r0, r2
 2578 12fe 1946     		mov	r1, r3
 2579 1300 FFF7FEFF 		bl	__aeabi_d2iz
 2580 1304 0346     		mov	r3, r0
 2581 1306 9CB2     		uxth	r4, r3
 2582 1308 0FFA89F0 		sxth	r0, r9
 2583 130c 0FFA88F1 		sxth	r1, r8
 2584 1310 32B2     		sxth	r2, r6
 2585 1312 2BB2     		sxth	r3, r5
 2586 1314 24B2     		sxth	r4, r4
 2587 1316 0094     		str	r4, [sp, #0]
 2588 1318 4FF00004 		mov	r4, #0
 2589 131c 0194     		str	r4, [sp, #4]
 2590 131e FFF7FEFF 		bl	TFTSHIELD_1_FillRoundRect
 217:.\main.c      ****     TFTSHIELD_1_FillRoundRect(x_SW + ((.15*length_SW)/2) + (.85*length_SW/2), (i+1)*empty_SW + i*wi
 2591              		.loc 1 217 0
 2592 1322 B868     		ldr	r0, [r7, #8]
 2593 1324 FFF7FEFF 		bl	__aeabi_i2d
 2594 1328 0446     		mov	r4, r0
 2595 132a 0D46     		mov	r5, r1
 2596 132c F869     		ldr	r0, [r7, #28]
 2597 132e FFF7FEFF 		bl	__aeabi_i2d
 2598 1332 0246     		mov	r2, r0
 2599 1334 0B46     		mov	r3, r1
 2600 1336 1046     		mov	r0, r2
 2601 1338 1946     		mov	r1, r3
 2602 133a 4DA3     		adr	r3, .L64
 2603 133c D3E90023 		ldrd	r2, [r3]
 2604 1340 FFF7FEFF 		bl	__aeabi_dmul
 2605 1344 0246     		mov	r2, r0
 2606 1346 0B46     		mov	r3, r1
 2607 1348 1046     		mov	r0, r2
 2608 134a 1946     		mov	r1, r3
 2609 134c 4FF00002 		mov	r2, #0
 2610 1350 4FF08043 		mov	r3, #1073741824
 2611 1354 FFF7FEFF 		bl	__aeabi_ddiv
 2612 1358 0246     		mov	r2, r0
 2613 135a 0B46     		mov	r3, r1
 2614 135c 2046     		mov	r0, r4
 2615 135e 2946     		mov	r1, r5
 2616 1360 FFF7FEFF 		bl	__aeabi_dadd
 2617 1364 0246     		mov	r2, r0
 2618 1366 0B46     		mov	r3, r1
 2619 1368 1446     		mov	r4, r2
 2620 136a 1D46     		mov	r5, r3
 2621 136c F869     		ldr	r0, [r7, #28]
 2622 136e FFF7FEFF 		bl	__aeabi_i2d
 2623 1372 0246     		mov	r2, r0
 2624 1374 0B46     		mov	r3, r1
ARM GAS  C:\Users\barror2\AppData\Local\Temp\ccQzPEXq.s 			page 51


 2625 1376 1046     		mov	r0, r2
 2626 1378 1946     		mov	r1, r3
 2627 137a 3FA3     		adr	r3, .L64+8
 2628 137c D3E90023 		ldrd	r2, [r3]
 2629 1380 FFF7FEFF 		bl	__aeabi_dmul
 2630 1384 0246     		mov	r2, r0
 2631 1386 0B46     		mov	r3, r1
 2632 1388 1046     		mov	r0, r2
 2633 138a 1946     		mov	r1, r3
 2634 138c 4FF00002 		mov	r2, #0
 2635 1390 4FF08043 		mov	r3, #1073741824
 2636 1394 FFF7FEFF 		bl	__aeabi_ddiv
 2637 1398 0246     		mov	r2, r0
 2638 139a 0B46     		mov	r3, r1
 2639 139c 2046     		mov	r0, r4
 2640 139e 2946     		mov	r1, r5
 2641 13a0 FFF7FEFF 		bl	__aeabi_dadd
 2642 13a4 0246     		mov	r2, r0
 2643 13a6 0B46     		mov	r3, r1
 2644 13a8 1046     		mov	r0, r2
 2645 13aa 1946     		mov	r1, r3
 2646 13ac FFF7FEFF 		bl	__aeabi_d2iz
 2647 13b0 0346     		mov	r3, r0
 2648 13b2 1FFA83F9 		uxth	r9, r3
 2649 13b6 7B68     		ldr	r3, [r7, #4]
 2650 13b8 03F10103 		add	r3, r3, #1
 2651 13bc FA68     		ldr	r2, [r7, #12]
 2652 13be 02FB03F2 		mul	r2, r2, r3
 2653 13c2 7B68     		ldr	r3, [r7, #4]
 2654 13c4 396A     		ldr	r1, [r7, #32]
 2655 13c6 01FB03F3 		mul	r3, r1, r3
 2656 13ca 4FEAD371 		lsr	r1, r3, #31
 2657 13ce CB18     		adds	r3, r1, r3
 2658 13d0 4FEA6303 		asr	r3, r3, #1
 2659 13d4 D318     		adds	r3, r2, r3
 2660 13d6 1846     		mov	r0, r3
 2661 13d8 FFF7FEFF 		bl	__aeabi_i2d
 2662 13dc 0446     		mov	r4, r0
 2663 13de 0D46     		mov	r5, r1
 2664 13e0 386A     		ldr	r0, [r7, #32]
 2665 13e2 FFF7FEFF 		bl	__aeabi_i2d
 2666 13e6 0246     		mov	r2, r0
 2667 13e8 0B46     		mov	r3, r1
 2668 13ea 1046     		mov	r0, r2
 2669 13ec 1946     		mov	r1, r3
 2670 13ee 20A3     		adr	r3, .L64
 2671 13f0 D3E90023 		ldrd	r2, [r3]
 2672 13f4 FFF7FEFF 		bl	__aeabi_dmul
 2673 13f8 0246     		mov	r2, r0
 2674 13fa 0B46     		mov	r3, r1
 2675 13fc 1046     		mov	r0, r2
 2676 13fe 1946     		mov	r1, r3
 2677 1400 4FF00002 		mov	r2, #0
 2678 1404 4FF08043 		mov	r3, #1073741824
 2679 1408 FFF7FEFF 		bl	__aeabi_ddiv
 2680 140c 0246     		mov	r2, r0
 2681 140e 0B46     		mov	r3, r1
ARM GAS  C:\Users\barror2\AppData\Local\Temp\ccQzPEXq.s 			page 52


 2682 1410 2046     		mov	r0, r4
 2683 1412 2946     		mov	r1, r5
 2684 1414 FFF7FEFF 		bl	__aeabi_dadd
 2685 1418 0246     		mov	r2, r0
 2686 141a 0B46     		mov	r3, r1
 2687 141c 1046     		mov	r0, r2
 2688 141e 1946     		mov	r1, r3
 2689 1420 FFF7FEFF 		bl	__aeabi_d2iz
 2690 1424 0346     		mov	r3, r0
 2691 1426 1FFA83F8 		uxth	r8, r3
 2692 142a F869     		ldr	r0, [r7, #28]
 2693 142c FFF7FEFF 		bl	__aeabi_i2d
 2694 1430 0246     		mov	r2, r0
 2695 1432 0B46     		mov	r3, r1
 2696 1434 1046     		mov	r0, r2
 2697 1436 1946     		mov	r1, r3
 2698 1438 0FA3     		adr	r3, .L64+8
 2699 143a D3E90023 		ldrd	r2, [r3]
 2700 143e FFF7FEFF 		bl	__aeabi_dmul
 2701 1442 0246     		mov	r2, r0
 2702 1444 0B46     		mov	r3, r1
 2703 1446 1046     		mov	r0, r2
 2704 1448 1946     		mov	r1, r3
 2705 144a 4FF00002 		mov	r2, #0
 2706 144e 4FF08043 		mov	r3, #1073741824
 2707 1452 FFF7FEFF 		bl	__aeabi_ddiv
 2708 1456 0246     		mov	r2, r0
 2709 1458 0B46     		mov	r3, r1
 2710 145a 1046     		mov	r0, r2
 2711 145c 1946     		mov	r1, r3
 2712 145e FFF7FEFF 		bl	__aeabi_d2iz
 2713 1462 0346     		mov	r3, r0
 2714 1464 9EB2     		uxth	r6, r3
 2715 1466 386A     		ldr	r0, [r7, #32]
 2716 1468 FFF7FEFF 		bl	__aeabi_i2d
 2717 146c 08E0     		b	.L65
 2718              	.L66:
 2719 146e 00BF     		.align	3
 2720              	.L64:
 2721 1470 33333333 		.word	858993459
 2722 1474 3333C33F 		.word	1069757235
 2723 1478 33333333 		.word	858993459
 2724 147c 3333EB3F 		.word	1072378675
 2725              	.L65:
 2726 1480 0246     		mov	r2, r0
 2727 1482 0B46     		mov	r3, r1
 2728 1484 1046     		mov	r0, r2
 2729 1486 1946     		mov	r1, r3
 2730 1488 A9A3     		adr	r3, .L67
 2731 148a D3E90023 		ldrd	r2, [r3]
 2732 148e FFF7FEFF 		bl	__aeabi_dmul
 2733 1492 0246     		mov	r2, r0
 2734 1494 0B46     		mov	r3, r1
 2735 1496 1046     		mov	r0, r2
 2736 1498 1946     		mov	r1, r3
 2737 149a FFF7FEFF 		bl	__aeabi_d2iz
 2738 149e 0346     		mov	r3, r0
ARM GAS  C:\Users\barror2\AppData\Local\Temp\ccQzPEXq.s 			page 53


 2739 14a0 9DB2     		uxth	r5, r3
 2740 14a2 386A     		ldr	r0, [r7, #32]
 2741 14a4 FFF7FEFF 		bl	__aeabi_i2d
 2742 14a8 0246     		mov	r2, r0
 2743 14aa 0B46     		mov	r3, r1
 2744 14ac 1046     		mov	r0, r2
 2745 14ae 1946     		mov	r1, r3
 2746 14b0 9FA3     		adr	r3, .L67
 2747 14b2 D3E90023 		ldrd	r2, [r3]
 2748 14b6 FFF7FEFF 		bl	__aeabi_dmul
 2749 14ba 0246     		mov	r2, r0
 2750 14bc 0B46     		mov	r3, r1
 2751 14be 1046     		mov	r0, r2
 2752 14c0 1946     		mov	r1, r3
 2753 14c2 4FF00002 		mov	r2, #0
 2754 14c6 4FF00003 		mov	r3, #0
 2755 14ca C4F21003 		movt	r3, 16400
 2756 14ce FFF7FEFF 		bl	__aeabi_ddiv
 2757 14d2 0246     		mov	r2, r0
 2758 14d4 0B46     		mov	r3, r1
 2759 14d6 1046     		mov	r0, r2
 2760 14d8 1946     		mov	r1, r3
 2761 14da FFF7FEFF 		bl	__aeabi_d2iz
 2762 14de 0346     		mov	r3, r0
 2763 14e0 9CB2     		uxth	r4, r3
 2764 14e2 0FFA89F0 		sxth	r0, r9
 2765 14e6 0FFA88F1 		sxth	r1, r8
 2766 14ea 32B2     		sxth	r2, r6
 2767 14ec 2BB2     		sxth	r3, r5
 2768 14ee 24B2     		sxth	r4, r4
 2769 14f0 0094     		str	r4, [sp, #0]
 2770 14f2 4FF6FF74 		movw	r4, #65535
 2771 14f6 0194     		str	r4, [sp, #4]
 2772 14f8 FFF7FEFF 		bl	TFTSHIELD_1_FillRoundRect
 218:.\main.c      ****     TFTSHIELD_1_DrawRoundRect(x_SW + ((.15*length_SW)/2) + (.85*length_SW/2), (i+1)*empty_SW + i*wi
 2773              		.loc 1 218 0
 2774 14fc B868     		ldr	r0, [r7, #8]
 2775 14fe FFF7FEFF 		bl	__aeabi_i2d
 2776 1502 0446     		mov	r4, r0
 2777 1504 0D46     		mov	r5, r1
 2778 1506 F869     		ldr	r0, [r7, #28]
 2779 1508 FFF7FEFF 		bl	__aeabi_i2d
 2780 150c 0246     		mov	r2, r0
 2781 150e 0B46     		mov	r3, r1
 2782 1510 1046     		mov	r0, r2
 2783 1512 1946     		mov	r1, r3
 2784 1514 88A3     		adr	r3, .L67+8
 2785 1516 D3E90023 		ldrd	r2, [r3]
 2786 151a FFF7FEFF 		bl	__aeabi_dmul
 2787 151e 0246     		mov	r2, r0
 2788 1520 0B46     		mov	r3, r1
 2789 1522 1046     		mov	r0, r2
 2790 1524 1946     		mov	r1, r3
 2791 1526 4FF00002 		mov	r2, #0
 2792 152a 4FF08043 		mov	r3, #1073741824
 2793 152e FFF7FEFF 		bl	__aeabi_ddiv
 2794 1532 0246     		mov	r2, r0
ARM GAS  C:\Users\barror2\AppData\Local\Temp\ccQzPEXq.s 			page 54


 2795 1534 0B46     		mov	r3, r1
 2796 1536 2046     		mov	r0, r4
 2797 1538 2946     		mov	r1, r5
 2798 153a FFF7FEFF 		bl	__aeabi_dadd
 2799 153e 0246     		mov	r2, r0
 2800 1540 0B46     		mov	r3, r1
 2801 1542 1446     		mov	r4, r2
 2802 1544 1D46     		mov	r5, r3
 2803 1546 F869     		ldr	r0, [r7, #28]
 2804 1548 FFF7FEFF 		bl	__aeabi_i2d
 2805 154c 0246     		mov	r2, r0
 2806 154e 0B46     		mov	r3, r1
 2807 1550 1046     		mov	r0, r2
 2808 1552 1946     		mov	r1, r3
 2809 1554 76A3     		adr	r3, .L67
 2810 1556 D3E90023 		ldrd	r2, [r3]
 2811 155a FFF7FEFF 		bl	__aeabi_dmul
 2812 155e 0246     		mov	r2, r0
 2813 1560 0B46     		mov	r3, r1
 2814 1562 1046     		mov	r0, r2
 2815 1564 1946     		mov	r1, r3
 2816 1566 4FF00002 		mov	r2, #0
 2817 156a 4FF08043 		mov	r3, #1073741824
 2818 156e FFF7FEFF 		bl	__aeabi_ddiv
 2819 1572 0246     		mov	r2, r0
 2820 1574 0B46     		mov	r3, r1
 2821 1576 2046     		mov	r0, r4
 2822 1578 2946     		mov	r1, r5
 2823 157a FFF7FEFF 		bl	__aeabi_dadd
 2824 157e 0246     		mov	r2, r0
 2825 1580 0B46     		mov	r3, r1
 2826 1582 1046     		mov	r0, r2
 2827 1584 1946     		mov	r1, r3
 2828 1586 FFF7FEFF 		bl	__aeabi_d2iz
 2829 158a 0346     		mov	r3, r0
 2830 158c 1FFA83F9 		uxth	r9, r3
 2831 1590 7B68     		ldr	r3, [r7, #4]
 2832 1592 03F10103 		add	r3, r3, #1
 2833 1596 FA68     		ldr	r2, [r7, #12]
 2834 1598 02FB03F2 		mul	r2, r2, r3
 2835 159c 7B68     		ldr	r3, [r7, #4]
 2836 159e 396A     		ldr	r1, [r7, #32]
 2837 15a0 01FB03F3 		mul	r3, r1, r3
 2838 15a4 4FEAD371 		lsr	r1, r3, #31
 2839 15a8 CB18     		adds	r3, r1, r3
 2840 15aa 4FEA6303 		asr	r3, r3, #1
 2841 15ae D318     		adds	r3, r2, r3
 2842 15b0 1846     		mov	r0, r3
 2843 15b2 FFF7FEFF 		bl	__aeabi_i2d
 2844 15b6 0446     		mov	r4, r0
 2845 15b8 0D46     		mov	r5, r1
 2846 15ba 386A     		ldr	r0, [r7, #32]
 2847 15bc FFF7FEFF 		bl	__aeabi_i2d
 2848 15c0 0246     		mov	r2, r0
 2849 15c2 0B46     		mov	r3, r1
 2850 15c4 1046     		mov	r0, r2
 2851 15c6 1946     		mov	r1, r3
ARM GAS  C:\Users\barror2\AppData\Local\Temp\ccQzPEXq.s 			page 55


 2852 15c8 5BA3     		adr	r3, .L67+8
 2853 15ca D3E90023 		ldrd	r2, [r3]
 2854 15ce FFF7FEFF 		bl	__aeabi_dmul
 2855 15d2 0246     		mov	r2, r0
 2856 15d4 0B46     		mov	r3, r1
 2857 15d6 1046     		mov	r0, r2
 2858 15d8 1946     		mov	r1, r3
 2859 15da 4FF00002 		mov	r2, #0
 2860 15de 4FF08043 		mov	r3, #1073741824
 2861 15e2 FFF7FEFF 		bl	__aeabi_ddiv
 2862 15e6 0246     		mov	r2, r0
 2863 15e8 0B46     		mov	r3, r1
 2864 15ea 2046     		mov	r0, r4
 2865 15ec 2946     		mov	r1, r5
 2866 15ee FFF7FEFF 		bl	__aeabi_dadd
 2867 15f2 0246     		mov	r2, r0
 2868 15f4 0B46     		mov	r3, r1
 2869 15f6 1046     		mov	r0, r2
 2870 15f8 1946     		mov	r1, r3
 2871 15fa FFF7FEFF 		bl	__aeabi_d2iz
 2872 15fe 0346     		mov	r3, r0
 2873 1600 1FFA83F8 		uxth	r8, r3
 2874 1604 F869     		ldr	r0, [r7, #28]
 2875 1606 FFF7FEFF 		bl	__aeabi_i2d
 2876 160a 0246     		mov	r2, r0
 2877 160c 0B46     		mov	r3, r1
 2878 160e 1046     		mov	r0, r2
 2879 1610 1946     		mov	r1, r3
 2880 1612 47A3     		adr	r3, .L67
 2881 1614 D3E90023 		ldrd	r2, [r3]
 2882 1618 FFF7FEFF 		bl	__aeabi_dmul
 2883 161c 0246     		mov	r2, r0
 2884 161e 0B46     		mov	r3, r1
 2885 1620 1046     		mov	r0, r2
 2886 1622 1946     		mov	r1, r3
 2887 1624 4FF00002 		mov	r2, #0
 2888 1628 4FF08043 		mov	r3, #1073741824
 2889 162c FFF7FEFF 		bl	__aeabi_ddiv
 2890 1630 0246     		mov	r2, r0
 2891 1632 0B46     		mov	r3, r1
 2892 1634 1046     		mov	r0, r2
 2893 1636 1946     		mov	r1, r3
 2894 1638 FFF7FEFF 		bl	__aeabi_d2iz
 2895 163c 0346     		mov	r3, r0
 2896 163e 9EB2     		uxth	r6, r3
 2897 1640 386A     		ldr	r0, [r7, #32]
 2898 1642 FFF7FEFF 		bl	__aeabi_i2d
 2899 1646 0246     		mov	r2, r0
 2900 1648 0B46     		mov	r3, r1
 2901 164a 1046     		mov	r0, r2
 2902 164c 1946     		mov	r1, r3
 2903 164e 38A3     		adr	r3, .L67
 2904 1650 D3E90023 		ldrd	r2, [r3]
 2905 1654 FFF7FEFF 		bl	__aeabi_dmul
 2906 1658 0246     		mov	r2, r0
 2907 165a 0B46     		mov	r3, r1
 2908 165c 1046     		mov	r0, r2
ARM GAS  C:\Users\barror2\AppData\Local\Temp\ccQzPEXq.s 			page 56


 2909 165e 1946     		mov	r1, r3
 2910 1660 FFF7FEFF 		bl	__aeabi_d2iz
 2911 1664 0346     		mov	r3, r0
 2912 1666 9DB2     		uxth	r5, r3
 2913 1668 386A     		ldr	r0, [r7, #32]
 2914 166a FFF7FEFF 		bl	__aeabi_i2d
 2915 166e 0246     		mov	r2, r0
 2916 1670 0B46     		mov	r3, r1
 2917 1672 1046     		mov	r0, r2
 2918 1674 1946     		mov	r1, r3
 2919 1676 2EA3     		adr	r3, .L67
 2920 1678 D3E90023 		ldrd	r2, [r3]
 2921 167c FFF7FEFF 		bl	__aeabi_dmul
 2922 1680 0246     		mov	r2, r0
 2923 1682 0B46     		mov	r3, r1
 2924 1684 1046     		mov	r0, r2
 2925 1686 1946     		mov	r1, r3
 2926 1688 4FF00002 		mov	r2, #0
 2927 168c 4FF00003 		mov	r3, #0
 2928 1690 C4F21003 		movt	r3, 16400
 2929 1694 FFF7FEFF 		bl	__aeabi_ddiv
 2930 1698 0246     		mov	r2, r0
 2931 169a 0B46     		mov	r3, r1
 2932 169c 1046     		mov	r0, r2
 2933 169e 1946     		mov	r1, r3
 2934 16a0 FFF7FEFF 		bl	__aeabi_d2iz
 2935 16a4 0346     		mov	r3, r0
 2936 16a6 9CB2     		uxth	r4, r3
 2937 16a8 0FFA89F0 		sxth	r0, r9
 2938 16ac 0FFA88F1 		sxth	r1, r8
 2939 16b0 32B2     		sxth	r2, r6
 2940 16b2 2BB2     		sxth	r3, r5
 2941 16b4 24B2     		sxth	r4, r4
 2942 16b6 0094     		str	r4, [sp, #0]
 2943 16b8 4FF00004 		mov	r4, #0
 2944 16bc 0194     		str	r4, [sp, #4]
 2945 16be FFF7FEFF 		bl	TFTSHIELD_1_DrawRoundRect
 219:.\main.c      ****     k = k+ (.85*length_SW/2)/2;
 2946              		.loc 1 219 0
 2947 16c2 7869     		ldr	r0, [r7, #20]
 2948 16c4 FFF7FEFF 		bl	__aeabi_i2d
 2949 16c8 0446     		mov	r4, r0
 2950 16ca 0D46     		mov	r5, r1
 2951 16cc F869     		ldr	r0, [r7, #28]
 2952 16ce FFF7FEFF 		bl	__aeabi_i2d
 2953 16d2 0246     		mov	r2, r0
 2954 16d4 0B46     		mov	r3, r1
 2955 16d6 1046     		mov	r0, r2
 2956 16d8 1946     		mov	r1, r3
 2957 16da 15A3     		adr	r3, .L67
 2958 16dc D3E90023 		ldrd	r2, [r3]
 2959 16e0 FFF7FEFF 		bl	__aeabi_dmul
 2960 16e4 0246     		mov	r2, r0
 2961 16e6 0B46     		mov	r3, r1
 2962 16e8 1046     		mov	r0, r2
 2963 16ea 1946     		mov	r1, r3
 2964 16ec 4FF00002 		mov	r2, #0
ARM GAS  C:\Users\barror2\AppData\Local\Temp\ccQzPEXq.s 			page 57


 2965 16f0 4FF08043 		mov	r3, #1073741824
 2966 16f4 FFF7FEFF 		bl	__aeabi_ddiv
 2967 16f8 0246     		mov	r2, r0
 2968 16fa 0B46     		mov	r3, r1
 2969 16fc 1046     		mov	r0, r2
 2970 16fe 1946     		mov	r1, r3
 2971 1700 4FF00002 		mov	r2, #0
 2972 1704 4FF08043 		mov	r3, #1073741824
 2973 1708 FFF7FEFF 		bl	__aeabi_ddiv
 2974 170c 0246     		mov	r2, r0
 2975 170e 0B46     		mov	r3, r1
 2976 1710 2046     		mov	r0, r4
 2977 1712 2946     		mov	r1, r5
 2978 1714 FFF7FEFF 		bl	__aeabi_dadd
 2979 1718 0246     		mov	r2, r0
 2980 171a 0B46     		mov	r3, r1
 2981 171c 1046     		mov	r0, r2
 2982 171e 1946     		mov	r1, r3
 2983 1720 FFF7FEFF 		bl	__aeabi_d2iz
 2984 1724 0346     		mov	r3, r0
 2985 1726 7B61     		str	r3, [r7, #20]
 2986 1728 0AE0     		b	.L68
 2987              	.L69:
 2988 172a 00BFAFF3 		.align	3
 2988      0080
 2989              	.L67:
 2990 1730 33333333 		.word	858993459
 2991 1734 3333EB3F 		.word	1072378675
 2992 1738 33333333 		.word	858993459
 2993 173c 3333C33F 		.word	1069757235
 2994              	.L68:
 2995              	.L32:
 2996              	.LBE7:
 220:.\main.c      ****     }
 221:.\main.c      ****     
 222:.\main.c      **** }
 2997              		.loc 1 222 0
 2998 1740 07F12C07 		add	r7, r7, #44
 2999 1744 BD46     		mov	sp, r7
 3000 1746 BDE8F083 		pop	{r4, r5, r6, r7, r8, r9, pc}
 3001              		.cfi_endproc
 3002              	.LFE59:
 3003              		.size	DrawSlideSwitch, .-DrawSlideSwitch
 3004 174a 00BFAFF3 		.section	.text.DrawLED,"ax",%progbits
 3004      0080
 3005              		.align	2
 3006              		.global	DrawLED
 3007              		.thumb
 3008              		.thumb_func
 3009              		.type	DrawLED, %function
 3010              	DrawLED:
 3011              	.LFB60:
 223:.\main.c      **** 
 224:.\main.c      **** void DrawLED(int i, int state)
 225:.\main.c      **** {
 3012              		.loc 1 225 0
 3013              		.cfi_startproc
ARM GAS  C:\Users\barror2\AppData\Local\Temp\ccQzPEXq.s 			page 58


 3014              		@ args = 0, pretend = 0, frame = 48
 3015              		@ frame_needed = 1, uses_anonymous_args = 0
 3016 0000 80B5     		push	{r7, lr}
 3017              	.LCFI11:
 3018              		.cfi_def_cfa_offset 8
 3019              		.cfi_offset 7, -8
 3020              		.cfi_offset 14, -4
 3021 0002 8CB0     		sub	sp, sp, #48
 3022              	.LCFI12:
 3023              		.cfi_def_cfa_offset 56
 3024 0004 00AF     		add	r7, sp, #0
 3025              	.LCFI13:
 3026              		.cfi_def_cfa_register 7
 3027 0006 7860     		str	r0, [r7, #4]
 3028 0008 3960     		str	r1, [r7, #0]
 226:.\main.c      ****     uint16 color ;
 227:.\main.c      ****     
 228:.\main.c      ****     if (state == 0){color = GRAY;}
 3029              		.loc 1 228 0
 3030 000a 3B68     		ldr	r3, [r7, #0]
 3031 000c 002B     		cmp	r3, #0
 3032 000e 03D1     		bne	.L71
 3033              		.loc 1 228 0 is_stmt 0 discriminator 1
 3034 0010 47F6EF33 		movw	r3, #31727
 3035 0014 FB85     		strh	r3, [r7, #46]	@ movhi
 3036 0016 05E0     		b	.L72
 3037              	.L71:
 229:.\main.c      ****     else if (state == 1){color = RED;}
 3038              		.loc 1 229 0 is_stmt 1
 3039 0018 3B68     		ldr	r3, [r7, #0]
 3040 001a 012B     		cmp	r3, #1
 3041 001c 02D1     		bne	.L72
 3042              		.loc 1 229 0 is_stmt 0 discriminator 1
 3043 001e 4FF47843 		mov	r3, #63488
 3044 0022 FB85     		strh	r3, [r7, #46]	@ movhi
 3045              	.L72:
 230:.\main.c      ****     
 231:.\main.c      ****     int outputs = LEDs + HEX;
 3046              		.loc 1 231 0 is_stmt 1
 3047 0024 4FF00503 		mov	r3, #5
 3048 0028 3B62     		str	r3, [r7, #32]
 232:.\main.c      ****     int separation_LED;
 233:.\main.c      ****     
 234:.\main.c      ****     if (outputs>0){separation_LED = y_max/outputs;}
 3049              		.loc 1 234 0
 3050 002a 3B6A     		ldr	r3, [r7, #32]
 3051 002c 002B     		cmp	r3, #0
 3052 002e 06DD     		ble	.L73
 3053              		.loc 1 234 0 is_stmt 0 discriminator 1
 3054 0030 4FF4A072 		mov	r2, #320
 3055 0034 3B6A     		ldr	r3, [r7, #32]
 3056 0036 92FBF3F3 		sdiv	r3, r2, r3
 3057 003a BB62     		str	r3, [r7, #40]
 3058 003c 02E0     		b	.L74
 3059              	.L73:
 235:.\main.c      ****     else          {separation_LED = y_max + 1;}
 3060              		.loc 1 235 0 is_stmt 1
ARM GAS  C:\Users\barror2\AppData\Local\Temp\ccQzPEXq.s 			page 59


 3061 003e 40F24113 		movw	r3, #321
 3062 0042 BB62     		str	r3, [r7, #40]
 3063              	.L74:
 236:.\main.c      ****    
 237:.\main.c      ****     int size_LED = separation_LED/2;
 3064              		.loc 1 237 0
 3065 0044 BB6A     		ldr	r3, [r7, #40]
 3066 0046 4FEAD372 		lsr	r2, r3, #31
 3067 004a D318     		adds	r3, r2, r3
 3068 004c 4FEA6303 		asr	r3, r3, #1
 3069 0050 7B62     		str	r3, [r7, #36]
 238:.\main.c      ****     
 239:.\main.c      ****     if (size_LED > x_max/2.5 - top_space){size_LED = x_max/2.5 - top_space;}
 3070              		.loc 1 239 0
 3071 0052 786A     		ldr	r0, [r7, #36]
 3072 0054 FFF7FEFF 		bl	__aeabi_i2d
 3073 0058 0246     		mov	r2, r0
 3074 005a 0B46     		mov	r3, r1
 3075 005c 1046     		mov	r0, r2
 3076 005e 1946     		mov	r1, r3
 3077 0060 3FA3     		adr	r3, .L78
 3078 0062 D3E90023 		ldrd	r2, [r3]
 3079 0066 FFF7FEFF 		bl	__aeabi_dcmpgt
 3080 006a 0346     		mov	r3, r0
 3081 006c 002B     		cmp	r3, #0
 3082 006e 02D0     		beq	.L75
 3083              	.L77:
 3084              		.loc 1 239 0 is_stmt 0 discriminator 1
 3085 0070 4FF04703 		mov	r3, #71
 3086 0074 7B62     		str	r3, [r7, #36]
 3087              	.L75:
 240:.\main.c      ****     
 241:.\main.c      ****     int empty_LED = (separation_LED - size_LED)/2;
 3088              		.loc 1 241 0 is_stmt 1
 3089 0076 BA6A     		ldr	r2, [r7, #40]
 3090 0078 7B6A     		ldr	r3, [r7, #36]
 3091 007a D31A     		subs	r3, r2, r3
 3092 007c 4FEAD372 		lsr	r2, r3, #31
 3093 0080 D318     		adds	r3, r2, r3
 3094 0082 4FEA6303 		asr	r3, r3, #1
 3095 0086 FB61     		str	r3, [r7, #28]
 242:.\main.c      ****     int x_LED = top_space + .75*separation_LED;
 3096              		.loc 1 242 0
 3097 0088 B86A     		ldr	r0, [r7, #40]
 3098 008a FFF7FEFF 		bl	__aeabi_i2d
 3099 008e 0246     		mov	r2, r0
 3100 0090 0B46     		mov	r3, r1
 3101 0092 1046     		mov	r0, r2
 3102 0094 1946     		mov	r1, r3
 3103 0096 4FF00002 		mov	r2, #0
 3104 009a 4FF00003 		mov	r3, #0
 3105 009e C3F6E873 		movt	r3, 16360
 3106 00a2 FFF7FEFF 		bl	__aeabi_dmul
 3107 00a6 0246     		mov	r2, r0
 3108 00a8 0B46     		mov	r3, r1
 3109 00aa 1046     		mov	r0, r2
 3110 00ac 1946     		mov	r1, r3
ARM GAS  C:\Users\barror2\AppData\Local\Temp\ccQzPEXq.s 			page 60


 3111 00ae 4FF00002 		mov	r2, #0
 3112 00b2 4FF00003 		mov	r3, #0
 3113 00b6 C4F23903 		movt	r3, 16441
 3114 00ba FFF7FEFF 		bl	__aeabi_dadd
 3115 00be 0246     		mov	r2, r0
 3116 00c0 0B46     		mov	r3, r1
 3117 00c2 1046     		mov	r0, r2
 3118 00c4 1946     		mov	r1, r3
 3119 00c6 FFF7FEFF 		bl	__aeabi_d2iz
 3120 00ca 0346     		mov	r3, r0
 3121 00cc BB61     		str	r3, [r7, #24]
 243:.\main.c      ****     int center_LED_x = x_LED + size_LED/2;
 3122              		.loc 1 243 0
 3123 00ce 7B6A     		ldr	r3, [r7, #36]
 3124 00d0 4FEAD372 		lsr	r2, r3, #31
 3125 00d4 D318     		adds	r3, r2, r3
 3126 00d6 4FEA6303 		asr	r3, r3, #1
 3127 00da 1A46     		mov	r2, r3
 3128 00dc BB69     		ldr	r3, [r7, #24]
 3129 00de D318     		adds	r3, r2, r3
 3130 00e0 7B61     		str	r3, [r7, #20]
 244:.\main.c      ****     int radius_LED = (size_LED*0.75)/2;
 3131              		.loc 1 244 0
 3132 00e2 786A     		ldr	r0, [r7, #36]
 3133 00e4 FFF7FEFF 		bl	__aeabi_i2d
 3134 00e8 0246     		mov	r2, r0
 3135 00ea 0B46     		mov	r3, r1
 3136 00ec 1046     		mov	r0, r2
 3137 00ee 1946     		mov	r1, r3
 3138 00f0 4FF00002 		mov	r2, #0
 3139 00f4 4FF00003 		mov	r3, #0
 3140 00f8 C3F6E873 		movt	r3, 16360
 3141 00fc FFF7FEFF 		bl	__aeabi_dmul
 3142 0100 0246     		mov	r2, r0
 3143 0102 0B46     		mov	r3, r1
 3144 0104 1046     		mov	r0, r2
 3145 0106 1946     		mov	r1, r3
 3146 0108 4FF00002 		mov	r2, #0
 3147 010c 4FF08043 		mov	r3, #1073741824
 3148 0110 FFF7FEFF 		bl	__aeabi_ddiv
 3149 0114 0246     		mov	r2, r0
 3150 0116 0B46     		mov	r3, r1
 3151 0118 1046     		mov	r0, r2
 3152 011a 1946     		mov	r1, r3
 3153 011c FFF7FEFF 		bl	__aeabi_d2iz
 3154 0120 0346     		mov	r3, r0
 3155 0122 3B61     		str	r3, [r7, #16]
 245:.\main.c      ****     int center_LED_y = empty_LED + i*separation_LED + size_LED/2;
 3156              		.loc 1 245 0
 3157 0124 7B68     		ldr	r3, [r7, #4]
 3158 0126 BA6A     		ldr	r2, [r7, #40]
 3159 0128 02FB03F2 		mul	r2, r2, r3
 3160 012c FB69     		ldr	r3, [r7, #28]
 3161 012e D218     		adds	r2, r2, r3
 3162 0130 7B6A     		ldr	r3, [r7, #36]
 3163 0132 4FEAD371 		lsr	r1, r3, #31
 3164 0136 CB18     		adds	r3, r1, r3
ARM GAS  C:\Users\barror2\AppData\Local\Temp\ccQzPEXq.s 			page 61


 3165 0138 4FEA6303 		asr	r3, r3, #1
 3166 013c D318     		adds	r3, r2, r3
 3167 013e FB60     		str	r3, [r7, #12]
 246:.\main.c      ****     
 247:.\main.c      ****     TFTSHIELD_1_FillCircle(center_LED_x, center_LED_y, radius_LED, color);
 3168              		.loc 1 247 0
 3169 0140 7B69     		ldr	r3, [r7, #20]
 3170 0142 99B2     		uxth	r1, r3
 3171 0144 FB68     		ldr	r3, [r7, #12]
 3172 0146 9AB2     		uxth	r2, r3
 3173 0148 3B69     		ldr	r3, [r7, #16]
 3174 014a 9BB2     		uxth	r3, r3
 3175 014c 08B2     		sxth	r0, r1
 3176 014e 11B2     		sxth	r1, r2
 3177 0150 1AB2     		sxth	r2, r3
 3178 0152 FB8D     		ldrh	r3, [r7, #46]
 3179 0154 FFF7FEFF 		bl	TFTSHIELD_1_FillCircle
 248:.\main.c      **** }
 3180              		.loc 1 248 0
 3181 0158 07F13007 		add	r7, r7, #48
 3182 015c BD46     		mov	sp, r7
 3183 015e 80BD     		pop	{r7, pc}
 3184              	.L79:
 3185              		.align	3
 3186              	.L78:
 3187 0160 00000000 		.word	0
 3188 0164 00C05140 		.word	1079099392
 3189              		.cfi_endproc
 3190              	.LFE60:
 3191              		.size	DrawLED, .-DrawLED
 3192              		.section	.text.DrawHEX_a,"ax",%progbits
 3193              		.align	2
 3194              		.global	DrawHEX_a
 3195              		.thumb
 3196              		.thumb_func
 3197              		.type	DrawHEX_a, %function
 3198              	DrawHEX_a:
 3199              	.LFB61:
 249:.\main.c      **** void DrawHEX_a(int i, uint8 state)
 250:.\main.c      **** {
 3200              		.loc 1 250 0
 3201              		.cfi_startproc
 3202              		@ args = 0, pretend = 0, frame = 40
 3203              		@ frame_needed = 1, uses_anonymous_args = 0
 3204 0000 2DE9F043 		push	{r4, r5, r6, r7, r8, r9, lr}
 3205              	.LCFI14:
 3206              		.cfi_def_cfa_offset 28
 3207              		.cfi_offset 4, -28
 3208              		.cfi_offset 5, -24
 3209              		.cfi_offset 6, -20
 3210              		.cfi_offset 7, -16
 3211              		.cfi_offset 8, -12
 3212              		.cfi_offset 9, -8
 3213              		.cfi_offset 14, -4
 3214 0004 8DB0     		sub	sp, sp, #52
 3215              	.LCFI15:
 3216              		.cfi_def_cfa_offset 80
ARM GAS  C:\Users\barror2\AppData\Local\Temp\ccQzPEXq.s 			page 62


 3217 0006 02AF     		add	r7, sp, #8
 3218              	.LCFI16:
 3219              		.cfi_def_cfa 7, 72
 3220 0008 7860     		str	r0, [r7, #4]
 3221 000a 0B46     		mov	r3, r1
 3222 000c FB70     		strb	r3, [r7, #3]
 251:.\main.c      ****     uint16 color ;
 252:.\main.c      ****     int separation_HEX;
 253:.\main.c      ****     int outputs = HEX + LEDs;
 3223              		.loc 1 253 0
 3224 000e 4FF00503 		mov	r3, #5
 3225 0012 7B61     		str	r3, [r7, #20]
 254:.\main.c      ****     
 255:.\main.c      ****     if (outputs>0){separation_HEX = y_max/outputs;}//check for div by zero
 3226              		.loc 1 255 0
 3227 0014 7B69     		ldr	r3, [r7, #20]
 3228 0016 002B     		cmp	r3, #0
 3229 0018 06DD     		ble	.L81
 3230              		.loc 1 255 0 is_stmt 0 discriminator 1
 3231 001a 4FF4A072 		mov	r2, #320
 3232 001e 7B69     		ldr	r3, [r7, #20]
 3233 0020 92FBF3F3 		sdiv	r3, r2, r3
 3234 0024 3B62     		str	r3, [r7, #32]
 3235 0026 02E0     		b	.L82
 3236              	.L81:
 256:.\main.c      ****     else      {separation_HEX = y_max + 1;}
 3237              		.loc 1 256 0 is_stmt 1
 3238 0028 40F24113 		movw	r3, #321
 3239 002c 3B62     		str	r3, [r7, #32]
 3240              	.L82:
 257:.\main.c      ****     
 258:.\main.c      ****     int width_HEX = separation_HEX/2;
 3241              		.loc 1 258 0
 3242 002e 3B6A     		ldr	r3, [r7, #32]
 3243 0030 4FEAD372 		lsr	r2, r3, #31
 3244 0034 D318     		adds	r3, r2, r3
 3245 0036 4FEA6303 		asr	r3, r3, #1
 3246 003a FB61     		str	r3, [r7, #28]
 259:.\main.c      ****     int length_HEX = width_HEX*2;
 3247              		.loc 1 259 0
 3248 003c FB69     		ldr	r3, [r7, #28]
 3249 003e 4FEA4303 		lsl	r3, r3, #1
 3250 0042 BB61     		str	r3, [r7, #24]
 260:.\main.c      ****     if (length_HEX + top_space >x_max/2.5)
 3251              		.loc 1 260 0
 3252 0044 BB69     		ldr	r3, [r7, #24]
 3253 0046 03F11903 		add	r3, r3, #25
 3254 004a 1846     		mov	r0, r3
 3255 004c FFF7FEFF 		bl	__aeabi_i2d
 3256 0050 0246     		mov	r2, r0
 3257 0052 0B46     		mov	r3, r1
 3258 0054 1046     		mov	r0, r2
 3259 0056 1946     		mov	r1, r3
 3260 0058 4FF00002 		mov	r2, #0
 3261 005c 4FF00003 		mov	r3, #0
 3262 0060 C4F25803 		movt	r3, 16472
 3263 0064 FFF7FEFF 		bl	__aeabi_dcmpgt
ARM GAS  C:\Users\barror2\AppData\Local\Temp\ccQzPEXq.s 			page 63


 3264 0068 0346     		mov	r3, r0
 3265 006a 002B     		cmp	r3, #0
 3266 006c 0DD0     		beq	.L83
 3267              	.L87:
 261:.\main.c      ****     {   
 262:.\main.c      ****         length_HEX = x_max/2.5 - top_space;
 3268              		.loc 1 262 0
 3269 006e 4FF04703 		mov	r3, #71
 3270 0072 BB61     		str	r3, [r7, #24]
 263:.\main.c      ****         width_HEX = length_HEX/2;
 3271              		.loc 1 263 0
 3272 0074 BB69     		ldr	r3, [r7, #24]
 3273 0076 4FEAD372 		lsr	r2, r3, #31
 3274 007a D318     		adds	r3, r2, r3
 3275 007c 4FEA6303 		asr	r3, r3, #1
 3276 0080 FB61     		str	r3, [r7, #28]
 264:.\main.c      ****         separation_HEX = 2*width_HEX;
 3277              		.loc 1 264 0
 3278 0082 FB69     		ldr	r3, [r7, #28]
 3279 0084 4FEA4303 		lsl	r3, r3, #1
 3280 0088 3B62     		str	r3, [r7, #32]
 3281              	.L83:
 265:.\main.c      ****     }
 266:.\main.c      ****     
 267:.\main.c      ****     int empty_HEX =y_max /(outputs+1) - width_HEX/2;
 3282              		.loc 1 267 0
 3283 008a 7B69     		ldr	r3, [r7, #20]
 3284 008c 03F10103 		add	r3, r3, #1
 3285 0090 4FF4A072 		mov	r2, #320
 3286 0094 92FBF3F2 		sdiv	r2, r2, r3
 3287 0098 FB69     		ldr	r3, [r7, #28]
 3288 009a 4FEAD371 		lsr	r1, r3, #31
 3289 009e CB18     		adds	r3, r1, r3
 3290 00a0 4FEA6303 		asr	r3, r3, #1
 3291 00a4 D31A     		subs	r3, r2, r3
 3292 00a6 3B61     		str	r3, [r7, #16]
 268:.\main.c      ****     int x_HEX = top_space + length_HEX/2;
 3293              		.loc 1 268 0
 3294 00a8 BB69     		ldr	r3, [r7, #24]
 3295 00aa 4FEAD372 		lsr	r2, r3, #31
 3296 00ae D318     		adds	r3, r2, r3
 3297 00b0 4FEA6303 		asr	r3, r3, #1
 3298 00b4 03F11903 		add	r3, r3, #25
 3299 00b8 FB60     		str	r3, [r7, #12]
 269:.\main.c      ****     
 270:.\main.c      ****     if (state != 0){color = RED;}
 3300              		.loc 1 270 0
 3301 00ba FB78     		ldrb	r3, [r7, #3]	@ zero_extendqisi2
 3302 00bc 002B     		cmp	r3, #0
 3303 00be 03D0     		beq	.L85
 3304              		.loc 1 270 0 is_stmt 0 discriminator 1
 3305 00c0 4FF47843 		mov	r3, #63488
 3306 00c4 FB84     		strh	r3, [r7, #38]	@ movhi
 3307 00c6 02E0     		b	.L86
 3308              	.L85:
 271:.\main.c      ****     else {color = 0x0102;}
 3309              		.loc 1 271 0 is_stmt 1
ARM GAS  C:\Users\barror2\AppData\Local\Temp\ccQzPEXq.s 			page 64


 3310 00c8 4FF48173 		mov	r3, #258
 3311 00cc FB84     		strh	r3, [r7, #38]	@ movhi
 3312              	.L86:
 272:.\main.c      ****     
 273:.\main.c      ****     TFTSHIELD_1_FillRoundRect(x_HEX + ((.20*length_HEX)/2), (i+1)*empty_HEX + i*width_HEX/2 + .45*w
 3313              		.loc 1 273 0
 3314 00ce F868     		ldr	r0, [r7, #12]
 3315 00d0 FFF7FEFF 		bl	__aeabi_i2d
 3316 00d4 0446     		mov	r4, r0
 3317 00d6 0D46     		mov	r5, r1
 3318 00d8 B869     		ldr	r0, [r7, #24]
 3319 00da FFF7FEFF 		bl	__aeabi_i2d
 3320 00de 0246     		mov	r2, r0
 3321 00e0 0B46     		mov	r3, r1
 3322 00e2 1046     		mov	r0, r2
 3323 00e4 1946     		mov	r1, r3
 3324 00e6 5EA3     		adr	r3, .L88
 3325 00e8 D3E90023 		ldrd	r2, [r3]
 3326 00ec FFF7FEFF 		bl	__aeabi_dmul
 3327 00f0 0246     		mov	r2, r0
 3328 00f2 0B46     		mov	r3, r1
 3329 00f4 1046     		mov	r0, r2
 3330 00f6 1946     		mov	r1, r3
 3331 00f8 4FF00002 		mov	r2, #0
 3332 00fc 4FF08043 		mov	r3, #1073741824
 3333 0100 FFF7FEFF 		bl	__aeabi_ddiv
 3334 0104 0246     		mov	r2, r0
 3335 0106 0B46     		mov	r3, r1
 3336 0108 2046     		mov	r0, r4
 3337 010a 2946     		mov	r1, r5
 3338 010c FFF7FEFF 		bl	__aeabi_dadd
 3339 0110 0246     		mov	r2, r0
 3340 0112 0B46     		mov	r3, r1
 3341 0114 1046     		mov	r0, r2
 3342 0116 1946     		mov	r1, r3
 3343 0118 FFF7FEFF 		bl	__aeabi_d2iz
 3344 011c 0346     		mov	r3, r0
 3345 011e 1FFA83F9 		uxth	r9, r3
 3346 0122 7B68     		ldr	r3, [r7, #4]
 3347 0124 03F10103 		add	r3, r3, #1
 3348 0128 3A69     		ldr	r2, [r7, #16]
 3349 012a 02FB03F2 		mul	r2, r2, r3
 3350 012e 7B68     		ldr	r3, [r7, #4]
 3351 0130 F969     		ldr	r1, [r7, #28]
 3352 0132 01FB03F3 		mul	r3, r1, r3
 3353 0136 4FEAD371 		lsr	r1, r3, #31
 3354 013a CB18     		adds	r3, r1, r3
 3355 013c 4FEA6303 		asr	r3, r3, #1
 3356 0140 D318     		adds	r3, r2, r3
 3357 0142 1846     		mov	r0, r3
 3358 0144 FFF7FEFF 		bl	__aeabi_i2d
 3359 0148 0446     		mov	r4, r0
 3360 014a 0D46     		mov	r5, r1
 3361 014c F869     		ldr	r0, [r7, #28]
 3362 014e FFF7FEFF 		bl	__aeabi_i2d
 3363 0152 0246     		mov	r2, r0
 3364 0154 0B46     		mov	r3, r1
ARM GAS  C:\Users\barror2\AppData\Local\Temp\ccQzPEXq.s 			page 65


 3365 0156 1046     		mov	r0, r2
 3366 0158 1946     		mov	r1, r3
 3367 015a 43A3     		adr	r3, .L88+8
 3368 015c D3E90023 		ldrd	r2, [r3]
 3369 0160 FFF7FEFF 		bl	__aeabi_dmul
 3370 0164 0246     		mov	r2, r0
 3371 0166 0B46     		mov	r3, r1
 3372 0168 1046     		mov	r0, r2
 3373 016a 1946     		mov	r1, r3
 3374 016c 4FF00002 		mov	r2, #0
 3375 0170 4FF08043 		mov	r3, #1073741824
 3376 0174 FFF7FEFF 		bl	__aeabi_ddiv
 3377 0178 0246     		mov	r2, r0
 3378 017a 0B46     		mov	r3, r1
 3379 017c 2046     		mov	r0, r4
 3380 017e 2946     		mov	r1, r5
 3381 0180 FFF7FEFF 		bl	__aeabi_dadd
 3382 0184 0246     		mov	r2, r0
 3383 0186 0B46     		mov	r3, r1
 3384 0188 1046     		mov	r0, r2
 3385 018a 1946     		mov	r1, r3
 3386 018c FFF7FEFF 		bl	__aeabi_d2iz
 3387 0190 0346     		mov	r3, r0
 3388 0192 1FFA83F8 		uxth	r8, r3
 3389 0196 B869     		ldr	r0, [r7, #24]
 3390 0198 FFF7FEFF 		bl	__aeabi_i2d
 3391 019c 0246     		mov	r2, r0
 3392 019e 0B46     		mov	r3, r1
 3393 01a0 1046     		mov	r0, r2
 3394 01a2 1946     		mov	r1, r3
 3395 01a4 32A3     		adr	r3, .L88+16
 3396 01a6 D3E90023 		ldrd	r2, [r3]
 3397 01aa FFF7FEFF 		bl	__aeabi_dmul
 3398 01ae 0246     		mov	r2, r0
 3399 01b0 0B46     		mov	r3, r1
 3400 01b2 1046     		mov	r0, r2
 3401 01b4 1946     		mov	r1, r3
 3402 01b6 4FF00002 		mov	r2, #0
 3403 01ba 4FF00003 		mov	r3, #0
 3404 01be C4F22403 		movt	r3, 16420
 3405 01c2 FFF7FEFF 		bl	__aeabi_ddiv
 3406 01c6 0246     		mov	r2, r0
 3407 01c8 0B46     		mov	r3, r1
 3408 01ca 1046     		mov	r0, r2
 3409 01cc 1946     		mov	r1, r3
 3410 01ce FFF7FEFF 		bl	__aeabi_d2iz
 3411 01d2 0346     		mov	r3, r0
 3412 01d4 9EB2     		uxth	r6, r3
 3413 01d6 F869     		ldr	r0, [r7, #28]
 3414 01d8 FFF7FEFF 		bl	__aeabi_i2d
 3415 01dc 0246     		mov	r2, r0
 3416 01de 0B46     		mov	r3, r1
 3417 01e0 1046     		mov	r0, r2
 3418 01e2 1946     		mov	r1, r3
 3419 01e4 24A3     		adr	r3, .L88+24
 3420 01e6 D3E90023 		ldrd	r2, [r3]
 3421 01ea FFF7FEFF 		bl	__aeabi_dmul
ARM GAS  C:\Users\barror2\AppData\Local\Temp\ccQzPEXq.s 			page 66


 3422 01ee 0246     		mov	r2, r0
 3423 01f0 0B46     		mov	r3, r1
 3424 01f2 1046     		mov	r0, r2
 3425 01f4 1946     		mov	r1, r3
 3426 01f6 FFF7FEFF 		bl	__aeabi_d2iz
 3427 01fa 0346     		mov	r3, r0
 3428 01fc 9DB2     		uxth	r5, r3
 3429 01fe B869     		ldr	r0, [r7, #24]
 3430 0200 FFF7FEFF 		bl	__aeabi_i2d
 3431 0204 0246     		mov	r2, r0
 3432 0206 0B46     		mov	r3, r1
 3433 0208 1046     		mov	r0, r2
 3434 020a 1946     		mov	r1, r3
 3435 020c 18A3     		adr	r3, .L88+16
 3436 020e D3E90023 		ldrd	r2, [r3]
 3437 0212 FFF7FEFF 		bl	__aeabi_dmul
 3438 0216 0246     		mov	r2, r0
 3439 0218 0B46     		mov	r3, r1
 3440 021a 1046     		mov	r0, r2
 3441 021c 1946     		mov	r1, r3
 3442 021e 4FF00002 		mov	r2, #0
 3443 0222 4FF00003 		mov	r3, #0
 3444 0226 C4F24403 		movt	r3, 16452
 3445 022a FFF7FEFF 		bl	__aeabi_ddiv
 3446 022e 0246     		mov	r2, r0
 3447 0230 0B46     		mov	r3, r1
 3448 0232 1046     		mov	r0, r2
 3449 0234 1946     		mov	r1, r3
 3450 0236 FFF7FEFF 		bl	__aeabi_d2iz
 3451 023a 0346     		mov	r3, r0
 3452 023c 9CB2     		uxth	r4, r3
 3453 023e 0FFA89F0 		sxth	r0, r9
 3454 0242 0FFA88F1 		sxth	r1, r8
 3455 0246 32B2     		sxth	r2, r6
 3456 0248 2BB2     		sxth	r3, r5
 3457 024a 24B2     		sxth	r4, r4
 3458 024c 0094     		str	r4, [sp, #0]
 3459 024e FC8C     		ldrh	r4, [r7, #38]
 3460 0250 0194     		str	r4, [sp, #4]
 3461 0252 FFF7FEFF 		bl	TFTSHIELD_1_FillRoundRect
 274:.\main.c      **** }
 3462              		.loc 1 274 0
 3463 0256 07F12C07 		add	r7, r7, #44
 3464 025a BD46     		mov	sp, r7
 3465 025c BDE8F083 		pop	{r4, r5, r6, r7, r8, r9, pc}
 3466              	.L89:
 3467              		.align	3
 3468              	.L88:
 3469 0260 9A999999 		.word	-1717986918
 3470 0264 9999C93F 		.word	1070176665
 3471 0268 CDCCCCCC 		.word	-858993459
 3472 026c CCCCDC3F 		.word	1071434956
 3473 0270 9A999999 		.word	-1717986918
 3474 0274 9999E93F 		.word	1072273817
 3475 0278 9A999999 		.word	-1717986918
 3476 027c 9999E13F 		.word	1071749529
 3477              		.cfi_endproc
ARM GAS  C:\Users\barror2\AppData\Local\Temp\ccQzPEXq.s 			page 67


 3478              	.LFE61:
 3479              		.size	DrawHEX_a, .-DrawHEX_a
 3480              		.section	.text.DrawHEX_b,"ax",%progbits
 3481              		.align	2
 3482              		.global	DrawHEX_b
 3483              		.thumb
 3484              		.thumb_func
 3485              		.type	DrawHEX_b, %function
 3486              	DrawHEX_b:
 3487              	.LFB62:
 275:.\main.c      **** void DrawHEX_b(int i, uint8 state)
 276:.\main.c      **** {
 3488              		.loc 1 276 0
 3489              		.cfi_startproc
 3490              		@ args = 0, pretend = 0, frame = 40
 3491              		@ frame_needed = 1, uses_anonymous_args = 0
 3492 0000 2DE9F043 		push	{r4, r5, r6, r7, r8, r9, lr}
 3493              	.LCFI17:
 3494              		.cfi_def_cfa_offset 28
 3495              		.cfi_offset 4, -28
 3496              		.cfi_offset 5, -24
 3497              		.cfi_offset 6, -20
 3498              		.cfi_offset 7, -16
 3499              		.cfi_offset 8, -12
 3500              		.cfi_offset 9, -8
 3501              		.cfi_offset 14, -4
 3502 0004 8DB0     		sub	sp, sp, #52
 3503              	.LCFI18:
 3504              		.cfi_def_cfa_offset 80
 3505 0006 02AF     		add	r7, sp, #8
 3506              	.LCFI19:
 3507              		.cfi_def_cfa 7, 72
 3508 0008 7860     		str	r0, [r7, #4]
 3509 000a 0B46     		mov	r3, r1
 3510 000c FB70     		strb	r3, [r7, #3]
 277:.\main.c      ****     uint16 color ;
 278:.\main.c      ****     int separation_HEX;
 279:.\main.c      ****     int outputs = HEX + LEDs;
 3511              		.loc 1 279 0
 3512 000e 4FF00503 		mov	r3, #5
 3513 0012 7B61     		str	r3, [r7, #20]
 280:.\main.c      ****     
 281:.\main.c      ****     if (outputs>0){separation_HEX = y_max/outputs;}//check for div by zero
 3514              		.loc 1 281 0
 3515 0014 7B69     		ldr	r3, [r7, #20]
 3516 0016 002B     		cmp	r3, #0
 3517 0018 06DD     		ble	.L91
 3518              		.loc 1 281 0 is_stmt 0 discriminator 1
 3519 001a 4FF4A072 		mov	r2, #320
 3520 001e 7B69     		ldr	r3, [r7, #20]
 3521 0020 92FBF3F3 		sdiv	r3, r2, r3
 3522 0024 3B62     		str	r3, [r7, #32]
 3523 0026 02E0     		b	.L92
 3524              	.L91:
 282:.\main.c      ****     else      {separation_HEX = y_max + 1;}
 3525              		.loc 1 282 0 is_stmt 1
 3526 0028 40F24113 		movw	r3, #321
ARM GAS  C:\Users\barror2\AppData\Local\Temp\ccQzPEXq.s 			page 68


 3527 002c 3B62     		str	r3, [r7, #32]
 3528              	.L92:
 283:.\main.c      ****     
 284:.\main.c      ****     int width_HEX = separation_HEX/2;
 3529              		.loc 1 284 0
 3530 002e 3B6A     		ldr	r3, [r7, #32]
 3531 0030 4FEAD372 		lsr	r2, r3, #31
 3532 0034 D318     		adds	r3, r2, r3
 3533 0036 4FEA6303 		asr	r3, r3, #1
 3534 003a FB61     		str	r3, [r7, #28]
 285:.\main.c      ****     int length_HEX = width_HEX*2;
 3535              		.loc 1 285 0
 3536 003c FB69     		ldr	r3, [r7, #28]
 3537 003e 4FEA4303 		lsl	r3, r3, #1
 3538 0042 BB61     		str	r3, [r7, #24]
 286:.\main.c      ****     if (length_HEX + top_space >x_max/2.5)
 3539              		.loc 1 286 0
 3540 0044 BB69     		ldr	r3, [r7, #24]
 3541 0046 03F11903 		add	r3, r3, #25
 3542 004a 1846     		mov	r0, r3
 3543 004c FFF7FEFF 		bl	__aeabi_i2d
 3544 0050 0246     		mov	r2, r0
 3545 0052 0B46     		mov	r3, r1
 3546 0054 1046     		mov	r0, r2
 3547 0056 1946     		mov	r1, r3
 3548 0058 4FF00002 		mov	r2, #0
 3549 005c 4FF00003 		mov	r3, #0
 3550 0060 C4F25803 		movt	r3, 16472
 3551 0064 FFF7FEFF 		bl	__aeabi_dcmpgt
 3552 0068 0346     		mov	r3, r0
 3553 006a 002B     		cmp	r3, #0
 3554 006c 0DD0     		beq	.L93
 3555              	.L97:
 287:.\main.c      ****     {   
 288:.\main.c      ****         length_HEX = x_max/2.5 - top_space;
 3556              		.loc 1 288 0
 3557 006e 4FF04703 		mov	r3, #71
 3558 0072 BB61     		str	r3, [r7, #24]
 289:.\main.c      ****         width_HEX = length_HEX/2;
 3559              		.loc 1 289 0
 3560 0074 BB69     		ldr	r3, [r7, #24]
 3561 0076 4FEAD372 		lsr	r2, r3, #31
 3562 007a D318     		adds	r3, r2, r3
 3563 007c 4FEA6303 		asr	r3, r3, #1
 3564 0080 FB61     		str	r3, [r7, #28]
 290:.\main.c      ****         separation_HEX = 2*width_HEX;
 3565              		.loc 1 290 0
 3566 0082 FB69     		ldr	r3, [r7, #28]
 3567 0084 4FEA4303 		lsl	r3, r3, #1
 3568 0088 3B62     		str	r3, [r7, #32]
 3569              	.L93:
 291:.\main.c      ****     }
 292:.\main.c      ****     
 293:.\main.c      ****     int empty_HEX =y_max /(outputs+1) - width_HEX/2;
 3570              		.loc 1 293 0
 3571 008a 7B69     		ldr	r3, [r7, #20]
 3572 008c 03F10103 		add	r3, r3, #1
ARM GAS  C:\Users\barror2\AppData\Local\Temp\ccQzPEXq.s 			page 69


 3573 0090 4FF4A072 		mov	r2, #320
 3574 0094 92FBF3F2 		sdiv	r2, r2, r3
 3575 0098 FB69     		ldr	r3, [r7, #28]
 3576 009a 4FEAD371 		lsr	r1, r3, #31
 3577 009e CB18     		adds	r3, r1, r3
 3578 00a0 4FEA6303 		asr	r3, r3, #1
 3579 00a4 D31A     		subs	r3, r2, r3
 3580 00a6 3B61     		str	r3, [r7, #16]
 294:.\main.c      ****     int x_HEX = top_space + length_HEX/2;
 3581              		.loc 1 294 0
 3582 00a8 BB69     		ldr	r3, [r7, #24]
 3583 00aa 4FEAD372 		lsr	r2, r3, #31
 3584 00ae D318     		adds	r3, r2, r3
 3585 00b0 4FEA6303 		asr	r3, r3, #1
 3586 00b4 03F11903 		add	r3, r3, #25
 3587 00b8 FB60     		str	r3, [r7, #12]
 295:.\main.c      ****     
 296:.\main.c      ****     if (state != 0){color = RED;}
 3588              		.loc 1 296 0
 3589 00ba FB78     		ldrb	r3, [r7, #3]	@ zero_extendqisi2
 3590 00bc 002B     		cmp	r3, #0
 3591 00be 03D0     		beq	.L95
 3592              		.loc 1 296 0 is_stmt 0 discriminator 1
 3593 00c0 4FF47843 		mov	r3, #63488
 3594 00c4 FB84     		strh	r3, [r7, #38]	@ movhi
 3595 00c6 02E0     		b	.L96
 3596              	.L95:
 297:.\main.c      ****     else {color = 0x0102;}
 3597              		.loc 1 297 0 is_stmt 1
 3598 00c8 4FF48173 		mov	r3, #258
 3599 00cc FB84     		strh	r3, [r7, #38]	@ movhi
 3600              	.L96:
 298:.\main.c      ****     
 299:.\main.c      ****     TFTSHIELD_1_FillRoundRect(x_HEX + ((.20*length_HEX)/2) + (length_HEX)/10, (i+1)*empty_HEX + i*w
 3601              		.loc 1 299 0
 3602 00ce F868     		ldr	r0, [r7, #12]
 3603 00d0 FFF7FEFF 		bl	__aeabi_i2d
 3604 00d4 0446     		mov	r4, r0
 3605 00d6 0D46     		mov	r5, r1
 3606 00d8 B869     		ldr	r0, [r7, #24]
 3607 00da FFF7FEFF 		bl	__aeabi_i2d
 3608 00de 0246     		mov	r2, r0
 3609 00e0 0B46     		mov	r3, r1
 3610 00e2 1046     		mov	r0, r2
 3611 00e4 1946     		mov	r1, r3
 3612 00e6 78A3     		adr	r3, .L98
 3613 00e8 D3E90023 		ldrd	r2, [r3]
 3614 00ec FFF7FEFF 		bl	__aeabi_dmul
 3615 00f0 0246     		mov	r2, r0
 3616 00f2 0B46     		mov	r3, r1
 3617 00f4 1046     		mov	r0, r2
 3618 00f6 1946     		mov	r1, r3
 3619 00f8 4FF00002 		mov	r2, #0
 3620 00fc 4FF08043 		mov	r3, #1073741824
 3621 0100 FFF7FEFF 		bl	__aeabi_ddiv
 3622 0104 0246     		mov	r2, r0
 3623 0106 0B46     		mov	r3, r1
ARM GAS  C:\Users\barror2\AppData\Local\Temp\ccQzPEXq.s 			page 70


 3624 0108 2046     		mov	r0, r4
 3625 010a 2946     		mov	r1, r5
 3626 010c FFF7FEFF 		bl	__aeabi_dadd
 3627 0110 0246     		mov	r2, r0
 3628 0112 0B46     		mov	r3, r1
 3629 0114 1446     		mov	r4, r2
 3630 0116 1D46     		mov	r5, r3
 3631 0118 BA69     		ldr	r2, [r7, #24]
 3632 011a 46F26763 		movw	r3, #26215
 3633 011e C6F26663 		movt	r3, 26214
 3634 0122 83FB0213 		smull	r1, r3, r3, r2
 3635 0126 4FEAA301 		asr	r1, r3, #2
 3636 012a 4FEAE273 		asr	r3, r2, #31
 3637 012e CB1A     		subs	r3, r1, r3
 3638 0130 1846     		mov	r0, r3
 3639 0132 FFF7FEFF 		bl	__aeabi_i2d
 3640 0136 0246     		mov	r2, r0
 3641 0138 0B46     		mov	r3, r1
 3642 013a 2046     		mov	r0, r4
 3643 013c 2946     		mov	r1, r5
 3644 013e FFF7FEFF 		bl	__aeabi_dadd
 3645 0142 0246     		mov	r2, r0
 3646 0144 0B46     		mov	r3, r1
 3647 0146 1046     		mov	r0, r2
 3648 0148 1946     		mov	r1, r3
 3649 014a FFF7FEFF 		bl	__aeabi_d2iz
 3650 014e 0346     		mov	r3, r0
 3651 0150 1FFA83F9 		uxth	r9, r3
 3652 0154 7B68     		ldr	r3, [r7, #4]
 3653 0156 03F10103 		add	r3, r3, #1
 3654 015a 3A69     		ldr	r2, [r7, #16]
 3655 015c 02FB03F2 		mul	r2, r2, r3
 3656 0160 7B68     		ldr	r3, [r7, #4]
 3657 0162 F969     		ldr	r1, [r7, #28]
 3658 0164 01FB03F3 		mul	r3, r1, r3
 3659 0168 4FEAD371 		lsr	r1, r3, #31
 3660 016c CB18     		adds	r3, r1, r3
 3661 016e 4FEA6303 		asr	r3, r3, #1
 3662 0172 D318     		adds	r3, r2, r3
 3663 0174 1846     		mov	r0, r3
 3664 0176 FFF7FEFF 		bl	__aeabi_i2d
 3665 017a 0446     		mov	r4, r0
 3666 017c 0D46     		mov	r5, r1
 3667 017e F869     		ldr	r0, [r7, #28]
 3668 0180 FFF7FEFF 		bl	__aeabi_i2d
 3669 0184 0246     		mov	r2, r0
 3670 0186 0B46     		mov	r3, r1
 3671 0188 1046     		mov	r0, r2
 3672 018a 1946     		mov	r1, r3
 3673 018c 50A3     		adr	r3, .L98+8
 3674 018e D3E90023 		ldrd	r2, [r3]
 3675 0192 FFF7FEFF 		bl	__aeabi_dmul
 3676 0196 0246     		mov	r2, r0
 3677 0198 0B46     		mov	r3, r1
 3678 019a 1046     		mov	r0, r2
 3679 019c 1946     		mov	r1, r3
 3680 019e 4FF00002 		mov	r2, #0
ARM GAS  C:\Users\barror2\AppData\Local\Temp\ccQzPEXq.s 			page 71


 3681 01a2 4FF08043 		mov	r3, #1073741824
 3682 01a6 FFF7FEFF 		bl	__aeabi_ddiv
 3683 01aa 0246     		mov	r2, r0
 3684 01ac 0B46     		mov	r3, r1
 3685 01ae 2046     		mov	r0, r4
 3686 01b0 2946     		mov	r1, r5
 3687 01b2 FFF7FEFF 		bl	__aeabi_dadd
 3688 01b6 0246     		mov	r2, r0
 3689 01b8 0B46     		mov	r3, r1
 3690 01ba 1046     		mov	r0, r2
 3691 01bc 1946     		mov	r1, r3
 3692 01be FFF7FEFF 		bl	__aeabi_d2iz
 3693 01c2 0346     		mov	r3, r0
 3694 01c4 1FFA83F8 		uxth	r8, r3
 3695 01c8 F869     		ldr	r0, [r7, #28]
 3696 01ca FFF7FEFF 		bl	__aeabi_i2d
 3697 01ce 0246     		mov	r2, r0
 3698 01d0 0B46     		mov	r3, r1
 3699 01d2 1046     		mov	r0, r2
 3700 01d4 1946     		mov	r1, r3
 3701 01d6 40A3     		adr	r3, .L98+16
 3702 01d8 D3E90023 		ldrd	r2, [r3]
 3703 01dc FFF7FEFF 		bl	__aeabi_dmul
 3704 01e0 0246     		mov	r2, r0
 3705 01e2 0B46     		mov	r3, r1
 3706 01e4 1446     		mov	r4, r2
 3707 01e6 1D46     		mov	r5, r3
 3708 01e8 BA69     		ldr	r2, [r7, #24]
 3709 01ea 46F26763 		movw	r3, #26215
 3710 01ee C6F26663 		movt	r3, 26214
 3711 01f2 83FB0213 		smull	r1, r3, r3, r2
 3712 01f6 4FEAA301 		asr	r1, r3, #2
 3713 01fa 4FEAE273 		asr	r3, r2, #31
 3714 01fe CB1A     		subs	r3, r1, r3
 3715 0200 1846     		mov	r0, r3
 3716 0202 FFF7FEFF 		bl	__aeabi_i2d
 3717 0206 0246     		mov	r2, r0
 3718 0208 0B46     		mov	r3, r1
 3719 020a 2046     		mov	r0, r4
 3720 020c 2946     		mov	r1, r5
 3721 020e FFF7FEFF 		bl	__aeabi_dsub
 3722 0212 0246     		mov	r2, r0
 3723 0214 0B46     		mov	r3, r1
 3724 0216 1046     		mov	r0, r2
 3725 0218 1946     		mov	r1, r3
 3726 021a FFF7FEFF 		bl	__aeabi_d2iz
 3727 021e 0346     		mov	r3, r0
 3728 0220 9EB2     		uxth	r6, r3
 3729 0222 B869     		ldr	r0, [r7, #24]
 3730 0224 FFF7FEFF 		bl	__aeabi_i2d
 3731 0228 0246     		mov	r2, r0
 3732 022a 0B46     		mov	r3, r1
 3733 022c 1046     		mov	r0, r2
 3734 022e 1946     		mov	r1, r3
 3735 0230 2BA3     		adr	r3, .L98+24
 3736 0232 D3E90023 		ldrd	r2, [r3]
 3737 0236 FFF7FEFF 		bl	__aeabi_dmul
ARM GAS  C:\Users\barror2\AppData\Local\Temp\ccQzPEXq.s 			page 72


 3738 023a 0246     		mov	r2, r0
 3739 023c 0B46     		mov	r3, r1
 3740 023e 1046     		mov	r0, r2
 3741 0240 1946     		mov	r1, r3
 3742 0242 4FF00002 		mov	r2, #0
 3743 0246 4FF00003 		mov	r3, #0
 3744 024a C4F22403 		movt	r3, 16420
 3745 024e FFF7FEFF 		bl	__aeabi_ddiv
 3746 0252 0246     		mov	r2, r0
 3747 0254 0B46     		mov	r3, r1
 3748 0256 1046     		mov	r0, r2
 3749 0258 1946     		mov	r1, r3
 3750 025a FFF7FEFF 		bl	__aeabi_d2iz
 3751 025e 0346     		mov	r3, r0
 3752 0260 9DB2     		uxth	r5, r3
 3753 0262 B869     		ldr	r0, [r7, #24]
 3754 0264 FFF7FEFF 		bl	__aeabi_i2d
 3755 0268 0246     		mov	r2, r0
 3756 026a 0B46     		mov	r3, r1
 3757 026c 1046     		mov	r0, r2
 3758 026e 1946     		mov	r1, r3
 3759 0270 1BA3     		adr	r3, .L98+24
 3760 0272 D3E90023 		ldrd	r2, [r3]
 3761 0276 FFF7FEFF 		bl	__aeabi_dmul
 3762 027a 0246     		mov	r2, r0
 3763 027c 0B46     		mov	r3, r1
 3764 027e 1046     		mov	r0, r2
 3765 0280 1946     		mov	r1, r3
 3766 0282 4FF00002 		mov	r2, #0
 3767 0286 4FF00003 		mov	r3, #0
 3768 028a C4F24403 		movt	r3, 16452
 3769 028e FFF7FEFF 		bl	__aeabi_ddiv
 3770 0292 0246     		mov	r2, r0
 3771 0294 0B46     		mov	r3, r1
 3772 0296 1046     		mov	r0, r2
 3773 0298 1946     		mov	r1, r3
 3774 029a FFF7FEFF 		bl	__aeabi_d2iz
 3775 029e 0346     		mov	r3, r0
 3776 02a0 9CB2     		uxth	r4, r3
 3777 02a2 0FFA89F0 		sxth	r0, r9
 3778 02a6 0FFA88F1 		sxth	r1, r8
 3779 02aa 32B2     		sxth	r2, r6
 3780 02ac 2BB2     		sxth	r3, r5
 3781 02ae 24B2     		sxth	r4, r4
 3782 02b0 0094     		str	r4, [sp, #0]
 3783 02b2 FC8C     		ldrh	r4, [r7, #38]
 3784 02b4 0194     		str	r4, [sp, #4]
 3785 02b6 FFF7FEFF 		bl	TFTSHIELD_1_FillRoundRect
 300:.\main.c      **** }
 3786              		.loc 1 300 0
 3787 02ba 07F12C07 		add	r7, r7, #44
 3788 02be BD46     		mov	sp, r7
 3789 02c0 BDE8F083 		pop	{r4, r5, r6, r7, r8, r9, pc}
 3790              	.L99:
 3791 02c4 AFF30080 		.align	3
 3792              	.L98:
 3793 02c8 9A999999 		.word	-1717986918
ARM GAS  C:\Users\barror2\AppData\Local\Temp\ccQzPEXq.s 			page 73


 3794 02cc 9999C93F 		.word	1070176665
 3795 02d0 66666666 		.word	1717986918
 3796 02d4 6666D63F 		.word	1071015526
 3797 02d8 CDCCCCCC 		.word	-858993459
 3798 02dc CCCCE43F 		.word	1071959244
 3799 02e0 9A999999 		.word	-1717986918
 3800 02e4 9999E93F 		.word	1072273817
 3801              		.cfi_endproc
 3802              	.LFE62:
 3803              		.size	DrawHEX_b, .-DrawHEX_b
 3804              		.section	.text.DrawHEX_c,"ax",%progbits
 3805              		.align	2
 3806              		.global	DrawHEX_c
 3807              		.thumb
 3808              		.thumb_func
 3809              		.type	DrawHEX_c, %function
 3810              	DrawHEX_c:
 3811              	.LFB63:
 301:.\main.c      **** void DrawHEX_c(int i, uint8 state)
 302:.\main.c      **** {
 3812              		.loc 1 302 0
 3813              		.cfi_startproc
 3814              		@ args = 0, pretend = 0, frame = 40
 3815              		@ frame_needed = 1, uses_anonymous_args = 0
 3816 0000 2DE9F043 		push	{r4, r5, r6, r7, r8, r9, lr}
 3817              	.LCFI20:
 3818              		.cfi_def_cfa_offset 28
 3819              		.cfi_offset 4, -28
 3820              		.cfi_offset 5, -24
 3821              		.cfi_offset 6, -20
 3822              		.cfi_offset 7, -16
 3823              		.cfi_offset 8, -12
 3824              		.cfi_offset 9, -8
 3825              		.cfi_offset 14, -4
 3826 0004 8DB0     		sub	sp, sp, #52
 3827              	.LCFI21:
 3828              		.cfi_def_cfa_offset 80
 3829 0006 02AF     		add	r7, sp, #8
 3830              	.LCFI22:
 3831              		.cfi_def_cfa 7, 72
 3832 0008 7860     		str	r0, [r7, #4]
 3833 000a 0B46     		mov	r3, r1
 3834 000c FB70     		strb	r3, [r7, #3]
 303:.\main.c      ****     uint16 color ;
 304:.\main.c      ****     int separation_HEX;
 305:.\main.c      ****     int outputs = HEX + LEDs;
 3835              		.loc 1 305 0
 3836 000e 4FF00503 		mov	r3, #5
 3837 0012 7B61     		str	r3, [r7, #20]
 306:.\main.c      ****     
 307:.\main.c      ****     if (outputs>0){separation_HEX = y_max/outputs;}//check for div by zero
 3838              		.loc 1 307 0
 3839 0014 7B69     		ldr	r3, [r7, #20]
 3840 0016 002B     		cmp	r3, #0
 3841 0018 06DD     		ble	.L101
 3842              		.loc 1 307 0 is_stmt 0 discriminator 1
 3843 001a 4FF4A072 		mov	r2, #320
ARM GAS  C:\Users\barror2\AppData\Local\Temp\ccQzPEXq.s 			page 74


 3844 001e 7B69     		ldr	r3, [r7, #20]
 3845 0020 92FBF3F3 		sdiv	r3, r2, r3
 3846 0024 3B62     		str	r3, [r7, #32]
 3847 0026 02E0     		b	.L102
 3848              	.L101:
 308:.\main.c      ****     else      {separation_HEX = y_max + 1;}
 3849              		.loc 1 308 0 is_stmt 1
 3850 0028 40F24113 		movw	r3, #321
 3851 002c 3B62     		str	r3, [r7, #32]
 3852              	.L102:
 309:.\main.c      ****     
 310:.\main.c      ****     int width_HEX = separation_HEX/2;
 3853              		.loc 1 310 0
 3854 002e 3B6A     		ldr	r3, [r7, #32]
 3855 0030 4FEAD372 		lsr	r2, r3, #31
 3856 0034 D318     		adds	r3, r2, r3
 3857 0036 4FEA6303 		asr	r3, r3, #1
 3858 003a FB61     		str	r3, [r7, #28]
 311:.\main.c      ****     int length_HEX = width_HEX*2;
 3859              		.loc 1 311 0
 3860 003c FB69     		ldr	r3, [r7, #28]
 3861 003e 4FEA4303 		lsl	r3, r3, #1
 3862 0042 BB61     		str	r3, [r7, #24]
 312:.\main.c      ****     if (length_HEX + top_space >x_max/2.5)
 3863              		.loc 1 312 0
 3864 0044 BB69     		ldr	r3, [r7, #24]
 3865 0046 03F11903 		add	r3, r3, #25
 3866 004a 1846     		mov	r0, r3
 3867 004c FFF7FEFF 		bl	__aeabi_i2d
 3868 0050 0246     		mov	r2, r0
 3869 0052 0B46     		mov	r3, r1
 3870 0054 1046     		mov	r0, r2
 3871 0056 1946     		mov	r1, r3
 3872 0058 4FF00002 		mov	r2, #0
 3873 005c 4FF00003 		mov	r3, #0
 3874 0060 C4F25803 		movt	r3, 16472
 3875 0064 FFF7FEFF 		bl	__aeabi_dcmpgt
 3876 0068 0346     		mov	r3, r0
 3877 006a 002B     		cmp	r3, #0
 3878 006c 0DD0     		beq	.L103
 3879              	.L107:
 313:.\main.c      ****     {   
 314:.\main.c      ****         length_HEX = x_max/2.5 - top_space;
 3880              		.loc 1 314 0
 3881 006e 4FF04703 		mov	r3, #71
 3882 0072 BB61     		str	r3, [r7, #24]
 315:.\main.c      ****         width_HEX = length_HEX/2;
 3883              		.loc 1 315 0
 3884 0074 BB69     		ldr	r3, [r7, #24]
 3885 0076 4FEAD372 		lsr	r2, r3, #31
 3886 007a D318     		adds	r3, r2, r3
 3887 007c 4FEA6303 		asr	r3, r3, #1
 3888 0080 FB61     		str	r3, [r7, #28]
 316:.\main.c      ****         separation_HEX = 2*width_HEX;
 3889              		.loc 1 316 0
 3890 0082 FB69     		ldr	r3, [r7, #28]
 3891 0084 4FEA4303 		lsl	r3, r3, #1
ARM GAS  C:\Users\barror2\AppData\Local\Temp\ccQzPEXq.s 			page 75


 3892 0088 3B62     		str	r3, [r7, #32]
 3893              	.L103:
 317:.\main.c      ****     }
 318:.\main.c      ****     
 319:.\main.c      ****     int empty_HEX =y_max /(outputs+1) - width_HEX/2;
 3894              		.loc 1 319 0
 3895 008a 7B69     		ldr	r3, [r7, #20]
 3896 008c 03F10103 		add	r3, r3, #1
 3897 0090 4FF4A072 		mov	r2, #320
 3898 0094 92FBF3F2 		sdiv	r2, r2, r3
 3899 0098 FB69     		ldr	r3, [r7, #28]
 3900 009a 4FEAD371 		lsr	r1, r3, #31
 3901 009e CB18     		adds	r3, r1, r3
 3902 00a0 4FEA6303 		asr	r3, r3, #1
 3903 00a4 D31A     		subs	r3, r2, r3
 3904 00a6 3B61     		str	r3, [r7, #16]
 320:.\main.c      ****     int x_HEX = top_space + length_HEX/2;
 3905              		.loc 1 320 0
 3906 00a8 BB69     		ldr	r3, [r7, #24]
 3907 00aa 4FEAD372 		lsr	r2, r3, #31
 3908 00ae D318     		adds	r3, r2, r3
 3909 00b0 4FEA6303 		asr	r3, r3, #1
 3910 00b4 03F11903 		add	r3, r3, #25
 3911 00b8 FB60     		str	r3, [r7, #12]
 321:.\main.c      ****     
 322:.\main.c      ****     if (state != 0){color = RED;}
 3912              		.loc 1 322 0
 3913 00ba FB78     		ldrb	r3, [r7, #3]	@ zero_extendqisi2
 3914 00bc 002B     		cmp	r3, #0
 3915 00be 03D0     		beq	.L105
 3916              		.loc 1 322 0 is_stmt 0 discriminator 1
 3917 00c0 4FF47843 		mov	r3, #63488
 3918 00c4 FB84     		strh	r3, [r7, #38]	@ movhi
 3919 00c6 02E0     		b	.L106
 3920              	.L105:
 323:.\main.c      ****     else {color = 0x0102;}
 3921              		.loc 1 323 0 is_stmt 1
 3922 00c8 4FF48173 		mov	r3, #258
 3923 00cc FB84     		strh	r3, [r7, #38]	@ movhi
 3924              	.L106:
 324:.\main.c      ****     
 325:.\main.c      ****     TFTSHIELD_1_FillRoundRect(x_HEX + ((.20*length_HEX)/2) + (length_HEX)/10 + .70*width_HEX, (i+1)
 3925              		.loc 1 325 0
 3926 00ce F868     		ldr	r0, [r7, #12]
 3927 00d0 FFF7FEFF 		bl	__aeabi_i2d
 3928 00d4 0446     		mov	r4, r0
 3929 00d6 0D46     		mov	r5, r1
 3930 00d8 B869     		ldr	r0, [r7, #24]
 3931 00da FFF7FEFF 		bl	__aeabi_i2d
 3932 00de 0246     		mov	r2, r0
 3933 00e0 0B46     		mov	r3, r1
 3934 00e2 1046     		mov	r0, r2
 3935 00e4 1946     		mov	r1, r3
 3936 00e6 82A3     		adr	r3, .L108
 3937 00e8 D3E90023 		ldrd	r2, [r3]
 3938 00ec FFF7FEFF 		bl	__aeabi_dmul
 3939 00f0 0246     		mov	r2, r0
ARM GAS  C:\Users\barror2\AppData\Local\Temp\ccQzPEXq.s 			page 76


 3940 00f2 0B46     		mov	r3, r1
 3941 00f4 1046     		mov	r0, r2
 3942 00f6 1946     		mov	r1, r3
 3943 00f8 4FF00002 		mov	r2, #0
 3944 00fc 4FF08043 		mov	r3, #1073741824
 3945 0100 FFF7FEFF 		bl	__aeabi_ddiv
 3946 0104 0246     		mov	r2, r0
 3947 0106 0B46     		mov	r3, r1
 3948 0108 2046     		mov	r0, r4
 3949 010a 2946     		mov	r1, r5
 3950 010c FFF7FEFF 		bl	__aeabi_dadd
 3951 0110 0246     		mov	r2, r0
 3952 0112 0B46     		mov	r3, r1
 3953 0114 1446     		mov	r4, r2
 3954 0116 1D46     		mov	r5, r3
 3955 0118 BA69     		ldr	r2, [r7, #24]
 3956 011a 46F26763 		movw	r3, #26215
 3957 011e C6F26663 		movt	r3, 26214
 3958 0122 83FB0213 		smull	r1, r3, r3, r2
 3959 0126 4FEAA301 		asr	r1, r3, #2
 3960 012a 4FEAE273 		asr	r3, r2, #31
 3961 012e CB1A     		subs	r3, r1, r3
 3962 0130 1846     		mov	r0, r3
 3963 0132 FFF7FEFF 		bl	__aeabi_i2d
 3964 0136 0246     		mov	r2, r0
 3965 0138 0B46     		mov	r3, r1
 3966 013a 2046     		mov	r0, r4
 3967 013c 2946     		mov	r1, r5
 3968 013e FFF7FEFF 		bl	__aeabi_dadd
 3969 0142 0246     		mov	r2, r0
 3970 0144 0B46     		mov	r3, r1
 3971 0146 1446     		mov	r4, r2
 3972 0148 1D46     		mov	r5, r3
 3973 014a F869     		ldr	r0, [r7, #28]
 3974 014c FFF7FEFF 		bl	__aeabi_i2d
 3975 0150 0246     		mov	r2, r0
 3976 0152 0B46     		mov	r3, r1
 3977 0154 1046     		mov	r0, r2
 3978 0156 1946     		mov	r1, r3
 3979 0158 67A3     		adr	r3, .L108+8
 3980 015a D3E90023 		ldrd	r2, [r3]
 3981 015e FFF7FEFF 		bl	__aeabi_dmul
 3982 0162 0246     		mov	r2, r0
 3983 0164 0B46     		mov	r3, r1
 3984 0166 2046     		mov	r0, r4
 3985 0168 2946     		mov	r1, r5
 3986 016a FFF7FEFF 		bl	__aeabi_dadd
 3987 016e 0246     		mov	r2, r0
 3988 0170 0B46     		mov	r3, r1
 3989 0172 1046     		mov	r0, r2
 3990 0174 1946     		mov	r1, r3
 3991 0176 FFF7FEFF 		bl	__aeabi_d2iz
 3992 017a 0346     		mov	r3, r0
 3993 017c 1FFA83F9 		uxth	r9, r3
 3994 0180 7B68     		ldr	r3, [r7, #4]
 3995 0182 03F10103 		add	r3, r3, #1
 3996 0186 3A69     		ldr	r2, [r7, #16]
ARM GAS  C:\Users\barror2\AppData\Local\Temp\ccQzPEXq.s 			page 77


 3997 0188 02FB03F2 		mul	r2, r2, r3
 3998 018c 7B68     		ldr	r3, [r7, #4]
 3999 018e F969     		ldr	r1, [r7, #28]
 4000 0190 01FB03F3 		mul	r3, r1, r3
 4001 0194 4FEAD371 		lsr	r1, r3, #31
 4002 0198 CB18     		adds	r3, r1, r3
 4003 019a 4FEA6303 		asr	r3, r3, #1
 4004 019e D318     		adds	r3, r2, r3
 4005 01a0 1846     		mov	r0, r3
 4006 01a2 FFF7FEFF 		bl	__aeabi_i2d
 4007 01a6 0446     		mov	r4, r0
 4008 01a8 0D46     		mov	r5, r1
 4009 01aa F869     		ldr	r0, [r7, #28]
 4010 01ac FFF7FEFF 		bl	__aeabi_i2d
 4011 01b0 0246     		mov	r2, r0
 4012 01b2 0B46     		mov	r3, r1
 4013 01b4 1046     		mov	r0, r2
 4014 01b6 1946     		mov	r1, r3
 4015 01b8 51A3     		adr	r3, .L108+16
 4016 01ba D3E90023 		ldrd	r2, [r3]
 4017 01be FFF7FEFF 		bl	__aeabi_dmul
 4018 01c2 0246     		mov	r2, r0
 4019 01c4 0B46     		mov	r3, r1
 4020 01c6 1046     		mov	r0, r2
 4021 01c8 1946     		mov	r1, r3
 4022 01ca 4FF00002 		mov	r2, #0
 4023 01ce 4FF08043 		mov	r3, #1073741824
 4024 01d2 FFF7FEFF 		bl	__aeabi_ddiv
 4025 01d6 0246     		mov	r2, r0
 4026 01d8 0B46     		mov	r3, r1
 4027 01da 2046     		mov	r0, r4
 4028 01dc 2946     		mov	r1, r5
 4029 01de FFF7FEFF 		bl	__aeabi_dadd
 4030 01e2 0246     		mov	r2, r0
 4031 01e4 0B46     		mov	r3, r1
 4032 01e6 1046     		mov	r0, r2
 4033 01e8 1946     		mov	r1, r3
 4034 01ea FFF7FEFF 		bl	__aeabi_d2iz
 4035 01ee 0346     		mov	r3, r0
 4036 01f0 1FFA83F8 		uxth	r8, r3
 4037 01f4 F869     		ldr	r0, [r7, #28]
 4038 01f6 FFF7FEFF 		bl	__aeabi_i2d
 4039 01fa 0246     		mov	r2, r0
 4040 01fc 0B46     		mov	r3, r1
 4041 01fe 1046     		mov	r0, r2
 4042 0200 1946     		mov	r1, r3
 4043 0202 41A3     		adr	r3, .L108+24
 4044 0204 D3E90023 		ldrd	r2, [r3]
 4045 0208 FFF7FEFF 		bl	__aeabi_dmul
 4046 020c 0246     		mov	r2, r0
 4047 020e 0B46     		mov	r3, r1
 4048 0210 1446     		mov	r4, r2
 4049 0212 1D46     		mov	r5, r3
 4050 0214 BA69     		ldr	r2, [r7, #24]
 4051 0216 46F26763 		movw	r3, #26215
 4052 021a C6F26663 		movt	r3, 26214
 4053 021e 83FB0213 		smull	r1, r3, r3, r2
ARM GAS  C:\Users\barror2\AppData\Local\Temp\ccQzPEXq.s 			page 78


 4054 0222 4FEAA301 		asr	r1, r3, #2
 4055 0226 4FEAE273 		asr	r3, r2, #31
 4056 022a CB1A     		subs	r3, r1, r3
 4057 022c 1846     		mov	r0, r3
 4058 022e FFF7FEFF 		bl	__aeabi_i2d
 4059 0232 0246     		mov	r2, r0
 4060 0234 0B46     		mov	r3, r1
 4061 0236 2046     		mov	r0, r4
 4062 0238 2946     		mov	r1, r5
 4063 023a FFF7FEFF 		bl	__aeabi_dsub
 4064 023e 0246     		mov	r2, r0
 4065 0240 0B46     		mov	r3, r1
 4066 0242 1046     		mov	r0, r2
 4067 0244 1946     		mov	r1, r3
 4068 0246 FFF7FEFF 		bl	__aeabi_d2iz
 4069 024a 0346     		mov	r3, r0
 4070 024c 9EB2     		uxth	r6, r3
 4071 024e B869     		ldr	r0, [r7, #24]
 4072 0250 FFF7FEFF 		bl	__aeabi_i2d
 4073 0254 0246     		mov	r2, r0
 4074 0256 0B46     		mov	r3, r1
 4075 0258 1046     		mov	r0, r2
 4076 025a 1946     		mov	r1, r3
 4077 025c 2CA3     		adr	r3, .L108+32
 4078 025e D3E90023 		ldrd	r2, [r3]
 4079 0262 FFF7FEFF 		bl	__aeabi_dmul
 4080 0266 0246     		mov	r2, r0
 4081 0268 0B46     		mov	r3, r1
 4082 026a 1046     		mov	r0, r2
 4083 026c 1946     		mov	r1, r3
 4084 026e 4FF00002 		mov	r2, #0
 4085 0272 4FF00003 		mov	r3, #0
 4086 0276 C4F22403 		movt	r3, 16420
 4087 027a FFF7FEFF 		bl	__aeabi_ddiv
 4088 027e 0246     		mov	r2, r0
 4089 0280 0B46     		mov	r3, r1
 4090 0282 1046     		mov	r0, r2
 4091 0284 1946     		mov	r1, r3
 4092 0286 FFF7FEFF 		bl	__aeabi_d2iz
 4093 028a 0346     		mov	r3, r0
 4094 028c 9DB2     		uxth	r5, r3
 4095 028e B869     		ldr	r0, [r7, #24]
 4096 0290 FFF7FEFF 		bl	__aeabi_i2d
 4097 0294 0246     		mov	r2, r0
 4098 0296 0B46     		mov	r3, r1
 4099 0298 1046     		mov	r0, r2
 4100 029a 1946     		mov	r1, r3
 4101 029c 1CA3     		adr	r3, .L108+32
 4102 029e D3E90023 		ldrd	r2, [r3]
 4103 02a2 FFF7FEFF 		bl	__aeabi_dmul
 4104 02a6 0246     		mov	r2, r0
 4105 02a8 0B46     		mov	r3, r1
 4106 02aa 1046     		mov	r0, r2
 4107 02ac 1946     		mov	r1, r3
 4108 02ae 4FF00002 		mov	r2, #0
 4109 02b2 4FF00003 		mov	r3, #0
 4110 02b6 C4F24403 		movt	r3, 16452
ARM GAS  C:\Users\barror2\AppData\Local\Temp\ccQzPEXq.s 			page 79


 4111 02ba FFF7FEFF 		bl	__aeabi_ddiv
 4112 02be 0246     		mov	r2, r0
 4113 02c0 0B46     		mov	r3, r1
 4114 02c2 1046     		mov	r0, r2
 4115 02c4 1946     		mov	r1, r3
 4116 02c6 FFF7FEFF 		bl	__aeabi_d2iz
 4117 02ca 0346     		mov	r3, r0
 4118 02cc 9CB2     		uxth	r4, r3
 4119 02ce 0FFA89F0 		sxth	r0, r9
 4120 02d2 0FFA88F1 		sxth	r1, r8
 4121 02d6 32B2     		sxth	r2, r6
 4122 02d8 2BB2     		sxth	r3, r5
 4123 02da 24B2     		sxth	r4, r4
 4124 02dc 0094     		str	r4, [sp, #0]
 4125 02de FC8C     		ldrh	r4, [r7, #38]
 4126 02e0 0194     		str	r4, [sp, #4]
 4127 02e2 FFF7FEFF 		bl	TFTSHIELD_1_FillRoundRect
 326:.\main.c      **** 
 327:.\main.c      **** }
 4128              		.loc 1 327 0
 4129 02e6 07F12C07 		add	r7, r7, #44
 4130 02ea BD46     		mov	sp, r7
 4131 02ec BDE8F083 		pop	{r4, r5, r6, r7, r8, r9, pc}
 4132              	.L109:
 4133              		.align	3
 4134              	.L108:
 4135 02f0 9A999999 		.word	-1717986918
 4136 02f4 9999C93F 		.word	1070176665
 4137 02f8 66666666 		.word	1717986918
 4138 02fc 6666E63F 		.word	1072064102
 4139 0300 66666666 		.word	1717986918
 4140 0304 6666D63F 		.word	1071015526
 4141 0308 CDCCCCCC 		.word	-858993459
 4142 030c CCCCE43F 		.word	1071959244
 4143 0310 9A999999 		.word	-1717986918
 4144 0314 9999E93F 		.word	1072273817
 4145              		.cfi_endproc
 4146              	.LFE63:
 4147              		.size	DrawHEX_c, .-DrawHEX_c
 4148              		.section	.text.DrawHEX_d,"ax",%progbits
 4149              		.align	2
 4150              		.global	DrawHEX_d
 4151              		.thumb
 4152              		.thumb_func
 4153              		.type	DrawHEX_d, %function
 4154              	DrawHEX_d:
 4155              	.LFB64:
 328:.\main.c      **** void DrawHEX_d(int i, uint8 state)
 329:.\main.c      **** {
 4156              		.loc 1 329 0
 4157              		.cfi_startproc
 4158              		@ args = 0, pretend = 0, frame = 40
 4159              		@ frame_needed = 1, uses_anonymous_args = 0
 4160 0000 2DE9F043 		push	{r4, r5, r6, r7, r8, r9, lr}
 4161              	.LCFI23:
 4162              		.cfi_def_cfa_offset 28
 4163              		.cfi_offset 4, -28
ARM GAS  C:\Users\barror2\AppData\Local\Temp\ccQzPEXq.s 			page 80


 4164              		.cfi_offset 5, -24
 4165              		.cfi_offset 6, -20
 4166              		.cfi_offset 7, -16
 4167              		.cfi_offset 8, -12
 4168              		.cfi_offset 9, -8
 4169              		.cfi_offset 14, -4
 4170 0004 8DB0     		sub	sp, sp, #52
 4171              	.LCFI24:
 4172              		.cfi_def_cfa_offset 80
 4173 0006 02AF     		add	r7, sp, #8
 4174              	.LCFI25:
 4175              		.cfi_def_cfa 7, 72
 4176 0008 7860     		str	r0, [r7, #4]
 4177 000a 0B46     		mov	r3, r1
 4178 000c FB70     		strb	r3, [r7, #3]
 330:.\main.c      ****     uint16 color ;
 331:.\main.c      ****     int separation_HEX;
 332:.\main.c      ****     int outputs = HEX + LEDs;
 4179              		.loc 1 332 0
 4180 000e 4FF00503 		mov	r3, #5
 4181 0012 7B61     		str	r3, [r7, #20]
 333:.\main.c      ****     
 334:.\main.c      ****     if (outputs>0){separation_HEX = y_max/outputs;}//check for div by zero
 4182              		.loc 1 334 0
 4183 0014 7B69     		ldr	r3, [r7, #20]
 4184 0016 002B     		cmp	r3, #0
 4185 0018 06DD     		ble	.L111
 4186              		.loc 1 334 0 is_stmt 0 discriminator 1
 4187 001a 4FF4A072 		mov	r2, #320
 4188 001e 7B69     		ldr	r3, [r7, #20]
 4189 0020 92FBF3F3 		sdiv	r3, r2, r3
 4190 0024 3B62     		str	r3, [r7, #32]
 4191 0026 02E0     		b	.L112
 4192              	.L111:
 335:.\main.c      ****     else      {separation_HEX = y_max + 1;}
 4193              		.loc 1 335 0 is_stmt 1
 4194 0028 40F24113 		movw	r3, #321
 4195 002c 3B62     		str	r3, [r7, #32]
 4196              	.L112:
 336:.\main.c      ****     
 337:.\main.c      ****     int width_HEX = separation_HEX/2;
 4197              		.loc 1 337 0
 4198 002e 3B6A     		ldr	r3, [r7, #32]
 4199 0030 4FEAD372 		lsr	r2, r3, #31
 4200 0034 D318     		adds	r3, r2, r3
 4201 0036 4FEA6303 		asr	r3, r3, #1
 4202 003a FB61     		str	r3, [r7, #28]
 338:.\main.c      ****     int length_HEX = width_HEX*2;
 4203              		.loc 1 338 0
 4204 003c FB69     		ldr	r3, [r7, #28]
 4205 003e 4FEA4303 		lsl	r3, r3, #1
 4206 0042 BB61     		str	r3, [r7, #24]
 339:.\main.c      ****     if (length_HEX + top_space >x_max/2.5)
 4207              		.loc 1 339 0
 4208 0044 BB69     		ldr	r3, [r7, #24]
 4209 0046 03F11903 		add	r3, r3, #25
 4210 004a 1846     		mov	r0, r3
ARM GAS  C:\Users\barror2\AppData\Local\Temp\ccQzPEXq.s 			page 81


 4211 004c FFF7FEFF 		bl	__aeabi_i2d
 4212 0050 0246     		mov	r2, r0
 4213 0052 0B46     		mov	r3, r1
 4214 0054 1046     		mov	r0, r2
 4215 0056 1946     		mov	r1, r3
 4216 0058 4FF00002 		mov	r2, #0
 4217 005c 4FF00003 		mov	r3, #0
 4218 0060 C4F25803 		movt	r3, 16472
 4219 0064 FFF7FEFF 		bl	__aeabi_dcmpgt
 4220 0068 0346     		mov	r3, r0
 4221 006a 002B     		cmp	r3, #0
 4222 006c 0DD0     		beq	.L113
 4223              	.L117:
 340:.\main.c      ****     {   
 341:.\main.c      ****         length_HEX = x_max/2.5 - top_space;
 4224              		.loc 1 341 0
 4225 006e 4FF04703 		mov	r3, #71
 4226 0072 BB61     		str	r3, [r7, #24]
 342:.\main.c      ****         width_HEX = length_HEX/2;
 4227              		.loc 1 342 0
 4228 0074 BB69     		ldr	r3, [r7, #24]
 4229 0076 4FEAD372 		lsr	r2, r3, #31
 4230 007a D318     		adds	r3, r2, r3
 4231 007c 4FEA6303 		asr	r3, r3, #1
 4232 0080 FB61     		str	r3, [r7, #28]
 343:.\main.c      ****         separation_HEX = 2*width_HEX;
 4233              		.loc 1 343 0
 4234 0082 FB69     		ldr	r3, [r7, #28]
 4235 0084 4FEA4303 		lsl	r3, r3, #1
 4236 0088 3B62     		str	r3, [r7, #32]
 4237              	.L113:
 344:.\main.c      ****     }
 345:.\main.c      ****     
 346:.\main.c      ****     int empty_HEX =y_max /(outputs+1) - width_HEX/2;
 4238              		.loc 1 346 0
 4239 008a 7B69     		ldr	r3, [r7, #20]
 4240 008c 03F10103 		add	r3, r3, #1
 4241 0090 4FF4A072 		mov	r2, #320
 4242 0094 92FBF3F2 		sdiv	r2, r2, r3
 4243 0098 FB69     		ldr	r3, [r7, #28]
 4244 009a 4FEAD371 		lsr	r1, r3, #31
 4245 009e CB18     		adds	r3, r1, r3
 4246 00a0 4FEA6303 		asr	r3, r3, #1
 4247 00a4 D31A     		subs	r3, r2, r3
 4248 00a6 3B61     		str	r3, [r7, #16]
 347:.\main.c      ****     int x_HEX = top_space + length_HEX/2;
 4249              		.loc 1 347 0
 4250 00a8 BB69     		ldr	r3, [r7, #24]
 4251 00aa 4FEAD372 		lsr	r2, r3, #31
 4252 00ae D318     		adds	r3, r2, r3
 4253 00b0 4FEA6303 		asr	r3, r3, #1
 4254 00b4 03F11903 		add	r3, r3, #25
 4255 00b8 FB60     		str	r3, [r7, #12]
 348:.\main.c      ****     
 349:.\main.c      ****     if (state != 0){color = RED;}
 4256              		.loc 1 349 0
 4257 00ba FB78     		ldrb	r3, [r7, #3]	@ zero_extendqisi2
ARM GAS  C:\Users\barror2\AppData\Local\Temp\ccQzPEXq.s 			page 82


 4258 00bc 002B     		cmp	r3, #0
 4259 00be 03D0     		beq	.L115
 4260              		.loc 1 349 0 is_stmt 0 discriminator 1
 4261 00c0 4FF47843 		mov	r3, #63488
 4262 00c4 FB84     		strh	r3, [r7, #38]	@ movhi
 4263 00c6 02E0     		b	.L116
 4264              	.L115:
 350:.\main.c      ****     else {color = 0x0102;}
 4265              		.loc 1 350 0 is_stmt 1
 4266 00c8 4FF48173 		mov	r3, #258
 4267 00cc FB84     		strh	r3, [r7, #38]	@ movhi
 4268              	.L116:
 351:.\main.c      ****     
 352:.\main.c      ****     TFTSHIELD_1_FillRoundRect(x_HEX + length_HEX*.9 - ((.24*length_HEX)/2), (i+1)*empty_HEX + i*wid
 4269              		.loc 1 352 0
 4270 00ce F868     		ldr	r0, [r7, #12]
 4271 00d0 FFF7FEFF 		bl	__aeabi_i2d
 4272 00d4 0446     		mov	r4, r0
 4273 00d6 0D46     		mov	r5, r1
 4274 00d8 B869     		ldr	r0, [r7, #24]
 4275 00da FFF7FEFF 		bl	__aeabi_i2d
 4276 00de 0246     		mov	r2, r0
 4277 00e0 0B46     		mov	r3, r1
 4278 00e2 1046     		mov	r0, r2
 4279 00e4 1946     		mov	r1, r3
 4280 00e6 6AA3     		adr	r3, .L118
 4281 00e8 D3E90023 		ldrd	r2, [r3]
 4282 00ec FFF7FEFF 		bl	__aeabi_dmul
 4283 00f0 0246     		mov	r2, r0
 4284 00f2 0B46     		mov	r3, r1
 4285 00f4 2046     		mov	r0, r4
 4286 00f6 2946     		mov	r1, r5
 4287 00f8 FFF7FEFF 		bl	__aeabi_dadd
 4288 00fc 0246     		mov	r2, r0
 4289 00fe 0B46     		mov	r3, r1
 4290 0100 1446     		mov	r4, r2
 4291 0102 1D46     		mov	r5, r3
 4292 0104 B869     		ldr	r0, [r7, #24]
 4293 0106 FFF7FEFF 		bl	__aeabi_i2d
 4294 010a 0246     		mov	r2, r0
 4295 010c 0B46     		mov	r3, r1
 4296 010e 1046     		mov	r0, r2
 4297 0110 1946     		mov	r1, r3
 4298 0112 61A3     		adr	r3, .L118+8
 4299 0114 D3E90023 		ldrd	r2, [r3]
 4300 0118 FFF7FEFF 		bl	__aeabi_dmul
 4301 011c 0246     		mov	r2, r0
 4302 011e 0B46     		mov	r3, r1
 4303 0120 1046     		mov	r0, r2
 4304 0122 1946     		mov	r1, r3
 4305 0124 4FF00002 		mov	r2, #0
 4306 0128 4FF08043 		mov	r3, #1073741824
 4307 012c FFF7FEFF 		bl	__aeabi_ddiv
 4308 0130 0246     		mov	r2, r0
 4309 0132 0B46     		mov	r3, r1
 4310 0134 2046     		mov	r0, r4
 4311 0136 2946     		mov	r1, r5
ARM GAS  C:\Users\barror2\AppData\Local\Temp\ccQzPEXq.s 			page 83


 4312 0138 FFF7FEFF 		bl	__aeabi_dsub
 4313 013c 0246     		mov	r2, r0
 4314 013e 0B46     		mov	r3, r1
 4315 0140 1046     		mov	r0, r2
 4316 0142 1946     		mov	r1, r3
 4317 0144 FFF7FEFF 		bl	__aeabi_d2iz
 4318 0148 0346     		mov	r3, r0
 4319 014a 1FFA83F9 		uxth	r9, r3
 4320 014e 7B68     		ldr	r3, [r7, #4]
 4321 0150 03F10103 		add	r3, r3, #1
 4322 0154 3A69     		ldr	r2, [r7, #16]
 4323 0156 02FB03F2 		mul	r2, r2, r3
 4324 015a 7B68     		ldr	r3, [r7, #4]
 4325 015c F969     		ldr	r1, [r7, #28]
 4326 015e 01FB03F3 		mul	r3, r1, r3
 4327 0162 4FEAD371 		lsr	r1, r3, #31
 4328 0166 CB18     		adds	r3, r1, r3
 4329 0168 4FEA6303 		asr	r3, r3, #1
 4330 016c D318     		adds	r3, r2, r3
 4331 016e 1846     		mov	r0, r3
 4332 0170 FFF7FEFF 		bl	__aeabi_i2d
 4333 0174 0446     		mov	r4, r0
 4334 0176 0D46     		mov	r5, r1
 4335 0178 F869     		ldr	r0, [r7, #28]
 4336 017a FFF7FEFF 		bl	__aeabi_i2d
 4337 017e 0246     		mov	r2, r0
 4338 0180 0B46     		mov	r3, r1
 4339 0182 1046     		mov	r0, r2
 4340 0184 1946     		mov	r1, r3
 4341 0186 46A3     		adr	r3, .L118+16
 4342 0188 D3E90023 		ldrd	r2, [r3]
 4343 018c FFF7FEFF 		bl	__aeabi_dmul
 4344 0190 0246     		mov	r2, r0
 4345 0192 0B46     		mov	r3, r1
 4346 0194 1046     		mov	r0, r2
 4347 0196 1946     		mov	r1, r3
 4348 0198 4FF00002 		mov	r2, #0
 4349 019c 4FF08043 		mov	r3, #1073741824
 4350 01a0 FFF7FEFF 		bl	__aeabi_ddiv
 4351 01a4 0246     		mov	r2, r0
 4352 01a6 0B46     		mov	r3, r1
 4353 01a8 2046     		mov	r0, r4
 4354 01aa 2946     		mov	r1, r5
 4355 01ac FFF7FEFF 		bl	__aeabi_dadd
 4356 01b0 0246     		mov	r2, r0
 4357 01b2 0B46     		mov	r3, r1
 4358 01b4 1046     		mov	r0, r2
 4359 01b6 1946     		mov	r1, r3
 4360 01b8 FFF7FEFF 		bl	__aeabi_d2iz
 4361 01bc 0346     		mov	r3, r0
 4362 01be 1FFA83F8 		uxth	r8, r3
 4363 01c2 B869     		ldr	r0, [r7, #24]
 4364 01c4 FFF7FEFF 		bl	__aeabi_i2d
 4365 01c8 0246     		mov	r2, r0
 4366 01ca 0B46     		mov	r3, r1
 4367 01cc 1046     		mov	r0, r2
 4368 01ce 1946     		mov	r1, r3
ARM GAS  C:\Users\barror2\AppData\Local\Temp\ccQzPEXq.s 			page 84


 4369 01d0 35A3     		adr	r3, .L118+24
 4370 01d2 D3E90023 		ldrd	r2, [r3]
 4371 01d6 FFF7FEFF 		bl	__aeabi_dmul
 4372 01da 0246     		mov	r2, r0
 4373 01dc 0B46     		mov	r3, r1
 4374 01de 1046     		mov	r0, r2
 4375 01e0 1946     		mov	r1, r3
 4376 01e2 4FF00002 		mov	r2, #0
 4377 01e6 4FF00003 		mov	r3, #0
 4378 01ea C4F22403 		movt	r3, 16420
 4379 01ee FFF7FEFF 		bl	__aeabi_ddiv
 4380 01f2 0246     		mov	r2, r0
 4381 01f4 0B46     		mov	r3, r1
 4382 01f6 1046     		mov	r0, r2
 4383 01f8 1946     		mov	r1, r3
 4384 01fa FFF7FEFF 		bl	__aeabi_d2iz
 4385 01fe 0346     		mov	r3, r0
 4386 0200 9EB2     		uxth	r6, r3
 4387 0202 F869     		ldr	r0, [r7, #28]
 4388 0204 FFF7FEFF 		bl	__aeabi_i2d
 4389 0208 0246     		mov	r2, r0
 4390 020a 0B46     		mov	r3, r1
 4391 020c 1046     		mov	r0, r2
 4392 020e 1946     		mov	r1, r3
 4393 0210 27A3     		adr	r3, .L118+32
 4394 0212 D3E90023 		ldrd	r2, [r3]
 4395 0216 FFF7FEFF 		bl	__aeabi_dmul
 4396 021a 0246     		mov	r2, r0
 4397 021c 0B46     		mov	r3, r1
 4398 021e 1046     		mov	r0, r2
 4399 0220 1946     		mov	r1, r3
 4400 0222 FFF7FEFF 		bl	__aeabi_d2iz
 4401 0226 0346     		mov	r3, r0
 4402 0228 9DB2     		uxth	r5, r3
 4403 022a B869     		ldr	r0, [r7, #24]
 4404 022c FFF7FEFF 		bl	__aeabi_i2d
 4405 0230 0246     		mov	r2, r0
 4406 0232 0B46     		mov	r3, r1
 4407 0234 1046     		mov	r0, r2
 4408 0236 1946     		mov	r1, r3
 4409 0238 1BA3     		adr	r3, .L118+24
 4410 023a D3E90023 		ldrd	r2, [r3]
 4411 023e FFF7FEFF 		bl	__aeabi_dmul
 4412 0242 0246     		mov	r2, r0
 4413 0244 0B46     		mov	r3, r1
 4414 0246 1046     		mov	r0, r2
 4415 0248 1946     		mov	r1, r3
 4416 024a 4FF00002 		mov	r2, #0
 4417 024e 4FF00003 		mov	r3, #0
 4418 0252 C4F24403 		movt	r3, 16452
 4419 0256 FFF7FEFF 		bl	__aeabi_ddiv
 4420 025a 0246     		mov	r2, r0
 4421 025c 0B46     		mov	r3, r1
 4422 025e 1046     		mov	r0, r2
 4423 0260 1946     		mov	r1, r3
 4424 0262 FFF7FEFF 		bl	__aeabi_d2iz
 4425 0266 0346     		mov	r3, r0
ARM GAS  C:\Users\barror2\AppData\Local\Temp\ccQzPEXq.s 			page 85


 4426 0268 9CB2     		uxth	r4, r3
 4427 026a 0FFA89F0 		sxth	r0, r9
 4428 026e 0FFA88F1 		sxth	r1, r8
 4429 0272 32B2     		sxth	r2, r6
 4430 0274 2BB2     		sxth	r3, r5
 4431 0276 24B2     		sxth	r4, r4
 4432 0278 0094     		str	r4, [sp, #0]
 4433 027a FC8C     		ldrh	r4, [r7, #38]
 4434 027c 0194     		str	r4, [sp, #4]
 4435 027e FFF7FEFF 		bl	TFTSHIELD_1_FillRoundRect
 353:.\main.c      ****     
 354:.\main.c      **** }
 4436              		.loc 1 354 0
 4437 0282 07F12C07 		add	r7, r7, #44
 4438 0286 BD46     		mov	sp, r7
 4439 0288 BDE8F083 		pop	{r4, r5, r6, r7, r8, r9, pc}
 4440              	.L119:
 4441 028c AFF30080 		.align	3
 4442              	.L118:
 4443 0290 CDCCCCCC 		.word	-858993459
 4444 0294 CCCCEC3F 		.word	1072483532
 4445 0298 B81E85EB 		.word	-343597384
 4446 029c 51B8CE3F 		.word	1070512209
 4447 02a0 CDCCCCCC 		.word	-858993459
 4448 02a4 CCCCDC3F 		.word	1071434956
 4449 02a8 9A999999 		.word	-1717986918
 4450 02ac 9999E93F 		.word	1072273817
 4451 02b0 9A999999 		.word	-1717986918
 4452 02b4 9999E13F 		.word	1071749529
 4453              		.cfi_endproc
 4454              	.LFE64:
 4455              		.size	DrawHEX_d, .-DrawHEX_d
 4456              		.section	.text.DrawHEX_e,"ax",%progbits
 4457              		.align	2
 4458              		.global	DrawHEX_e
 4459              		.thumb
 4460              		.thumb_func
 4461              		.type	DrawHEX_e, %function
 4462              	DrawHEX_e:
 4463              	.LFB65:
 355:.\main.c      **** void DrawHEX_e(int i, uint8 state)
 356:.\main.c      **** {
 4464              		.loc 1 356 0
 4465              		.cfi_startproc
 4466              		@ args = 0, pretend = 0, frame = 40
 4467              		@ frame_needed = 1, uses_anonymous_args = 0
 4468 0000 2DE9F043 		push	{r4, r5, r6, r7, r8, r9, lr}
 4469              	.LCFI26:
 4470              		.cfi_def_cfa_offset 28
 4471              		.cfi_offset 4, -28
 4472              		.cfi_offset 5, -24
 4473              		.cfi_offset 6, -20
 4474              		.cfi_offset 7, -16
 4475              		.cfi_offset 8, -12
 4476              		.cfi_offset 9, -8
 4477              		.cfi_offset 14, -4
 4478 0004 8DB0     		sub	sp, sp, #52
ARM GAS  C:\Users\barror2\AppData\Local\Temp\ccQzPEXq.s 			page 86


 4479              	.LCFI27:
 4480              		.cfi_def_cfa_offset 80
 4481 0006 02AF     		add	r7, sp, #8
 4482              	.LCFI28:
 4483              		.cfi_def_cfa 7, 72
 4484 0008 7860     		str	r0, [r7, #4]
 4485 000a 0B46     		mov	r3, r1
 4486 000c FB70     		strb	r3, [r7, #3]
 357:.\main.c      ****     
 358:.\main.c      ****     uint16 color ;
 359:.\main.c      ****     int separation_HEX;
 360:.\main.c      ****     int outputs = HEX + LEDs;
 4487              		.loc 1 360 0
 4488 000e 4FF00503 		mov	r3, #5
 4489 0012 7B61     		str	r3, [r7, #20]
 361:.\main.c      ****     
 362:.\main.c      ****     if (outputs>0){separation_HEX = y_max/outputs;}//check for div by zero
 4490              		.loc 1 362 0
 4491 0014 7B69     		ldr	r3, [r7, #20]
 4492 0016 002B     		cmp	r3, #0
 4493 0018 06DD     		ble	.L121
 4494              		.loc 1 362 0 is_stmt 0 discriminator 1
 4495 001a 4FF4A072 		mov	r2, #320
 4496 001e 7B69     		ldr	r3, [r7, #20]
 4497 0020 92FBF3F3 		sdiv	r3, r2, r3
 4498 0024 3B62     		str	r3, [r7, #32]
 4499 0026 02E0     		b	.L122
 4500              	.L121:
 363:.\main.c      ****     else      {separation_HEX = y_max + 1;}
 4501              		.loc 1 363 0 is_stmt 1
 4502 0028 40F24113 		movw	r3, #321
 4503 002c 3B62     		str	r3, [r7, #32]
 4504              	.L122:
 364:.\main.c      ****     
 365:.\main.c      ****     int width_HEX = separation_HEX/2;
 4505              		.loc 1 365 0
 4506 002e 3B6A     		ldr	r3, [r7, #32]
 4507 0030 4FEAD372 		lsr	r2, r3, #31
 4508 0034 D318     		adds	r3, r2, r3
 4509 0036 4FEA6303 		asr	r3, r3, #1
 4510 003a FB61     		str	r3, [r7, #28]
 366:.\main.c      ****     int length_HEX = width_HEX*2;
 4511              		.loc 1 366 0
 4512 003c FB69     		ldr	r3, [r7, #28]
 4513 003e 4FEA4303 		lsl	r3, r3, #1
 4514 0042 BB61     		str	r3, [r7, #24]
 367:.\main.c      ****     if (length_HEX + top_space > x_max/2.5)
 4515              		.loc 1 367 0
 4516 0044 BB69     		ldr	r3, [r7, #24]
 4517 0046 03F11903 		add	r3, r3, #25
 4518 004a 1846     		mov	r0, r3
 4519 004c FFF7FEFF 		bl	__aeabi_i2d
 4520 0050 0246     		mov	r2, r0
 4521 0052 0B46     		mov	r3, r1
 4522 0054 1046     		mov	r0, r2
 4523 0056 1946     		mov	r1, r3
 4524 0058 4FF00002 		mov	r2, #0
ARM GAS  C:\Users\barror2\AppData\Local\Temp\ccQzPEXq.s 			page 87


 4525 005c 4FF00003 		mov	r3, #0
 4526 0060 C4F25803 		movt	r3, 16472
 4527 0064 FFF7FEFF 		bl	__aeabi_dcmpgt
 4528 0068 0346     		mov	r3, r0
 4529 006a 002B     		cmp	r3, #0
 4530 006c 0DD0     		beq	.L123
 4531              	.L127:
 368:.\main.c      ****     {   
 369:.\main.c      ****         length_HEX = x_max/2.5 - top_space;
 4532              		.loc 1 369 0
 4533 006e 4FF04703 		mov	r3, #71
 4534 0072 BB61     		str	r3, [r7, #24]
 370:.\main.c      ****         width_HEX = length_HEX/2;
 4535              		.loc 1 370 0
 4536 0074 BB69     		ldr	r3, [r7, #24]
 4537 0076 4FEAD372 		lsr	r2, r3, #31
 4538 007a D318     		adds	r3, r2, r3
 4539 007c 4FEA6303 		asr	r3, r3, #1
 4540 0080 FB61     		str	r3, [r7, #28]
 371:.\main.c      ****         separation_HEX = 2*width_HEX;
 4541              		.loc 1 371 0
 4542 0082 FB69     		ldr	r3, [r7, #28]
 4543 0084 4FEA4303 		lsl	r3, r3, #1
 4544 0088 3B62     		str	r3, [r7, #32]
 4545              	.L123:
 372:.\main.c      ****     }
 373:.\main.c      ****     
 374:.\main.c      ****     int empty_HEX = y_max/(outputs+1) - width_HEX/2;
 4546              		.loc 1 374 0
 4547 008a 7B69     		ldr	r3, [r7, #20]
 4548 008c 03F10103 		add	r3, r3, #1
 4549 0090 4FF4A072 		mov	r2, #320
 4550 0094 92FBF3F2 		sdiv	r2, r2, r3
 4551 0098 FB69     		ldr	r3, [r7, #28]
 4552 009a 4FEAD371 		lsr	r1, r3, #31
 4553 009e CB18     		adds	r3, r1, r3
 4554 00a0 4FEA6303 		asr	r3, r3, #1
 4555 00a4 D31A     		subs	r3, r2, r3
 4556 00a6 3B61     		str	r3, [r7, #16]
 375:.\main.c      ****     int x_HEX = top_space + length_HEX/2;
 4557              		.loc 1 375 0
 4558 00a8 BB69     		ldr	r3, [r7, #24]
 4559 00aa 4FEAD372 		lsr	r2, r3, #31
 4560 00ae D318     		adds	r3, r2, r3
 4561 00b0 4FEA6303 		asr	r3, r3, #1
 4562 00b4 03F11903 		add	r3, r3, #25
 4563 00b8 FB60     		str	r3, [r7, #12]
 376:.\main.c      ****     
 377:.\main.c      ****     if (state != 0){color = RED;}
 4564              		.loc 1 377 0
 4565 00ba FB78     		ldrb	r3, [r7, #3]	@ zero_extendqisi2
 4566 00bc 002B     		cmp	r3, #0
 4567 00be 03D0     		beq	.L125
 4568              		.loc 1 377 0 is_stmt 0 discriminator 1
 4569 00c0 4FF47843 		mov	r3, #63488
 4570 00c4 FB84     		strh	r3, [r7, #38]	@ movhi
 4571 00c6 02E0     		b	.L126
ARM GAS  C:\Users\barror2\AppData\Local\Temp\ccQzPEXq.s 			page 88


 4572              	.L125:
 378:.\main.c      ****     else {color = 0x0102;}
 4573              		.loc 1 378 0 is_stmt 1
 4574 00c8 4FF48173 		mov	r3, #258
 4575 00cc FB84     		strh	r3, [r7, #38]	@ movhi
 4576              	.L126:
 379:.\main.c      ****     
 380:.\main.c      ****     TFTSHIELD_1_FillRoundRect(x_HEX + ((.20*length_HEX)/2) + (length_HEX)/10 + .70*width_HEX, (i+1)
 4577              		.loc 1 380 0
 4578 00ce F868     		ldr	r0, [r7, #12]
 4579 00d0 FFF7FEFF 		bl	__aeabi_i2d
 4580 00d4 0446     		mov	r4, r0
 4581 00d6 0D46     		mov	r5, r1
 4582 00d8 B869     		ldr	r0, [r7, #24]
 4583 00da FFF7FEFF 		bl	__aeabi_i2d
 4584 00de 0246     		mov	r2, r0
 4585 00e0 0B46     		mov	r3, r1
 4586 00e2 1046     		mov	r0, r2
 4587 00e4 1946     		mov	r1, r3
 4588 00e6 9EA3     		adr	r3, .L128
 4589 00e8 D3E90023 		ldrd	r2, [r3]
 4590 00ec FFF7FEFF 		bl	__aeabi_dmul
 4591 00f0 0246     		mov	r2, r0
 4592 00f2 0B46     		mov	r3, r1
 4593 00f4 1046     		mov	r0, r2
 4594 00f6 1946     		mov	r1, r3
 4595 00f8 4FF00002 		mov	r2, #0
 4596 00fc 4FF08043 		mov	r3, #1073741824
 4597 0100 FFF7FEFF 		bl	__aeabi_ddiv
 4598 0104 0246     		mov	r2, r0
 4599 0106 0B46     		mov	r3, r1
 4600 0108 2046     		mov	r0, r4
 4601 010a 2946     		mov	r1, r5
 4602 010c FFF7FEFF 		bl	__aeabi_dadd
 4603 0110 0246     		mov	r2, r0
 4604 0112 0B46     		mov	r3, r1
 4605 0114 1446     		mov	r4, r2
 4606 0116 1D46     		mov	r5, r3
 4607 0118 BA69     		ldr	r2, [r7, #24]
 4608 011a 46F26763 		movw	r3, #26215
 4609 011e C6F26663 		movt	r3, 26214
 4610 0122 83FB0213 		smull	r1, r3, r3, r2
 4611 0126 4FEAA301 		asr	r1, r3, #2
 4612 012a 4FEAE273 		asr	r3, r2, #31
 4613 012e CB1A     		subs	r3, r1, r3
 4614 0130 1846     		mov	r0, r3
 4615 0132 FFF7FEFF 		bl	__aeabi_i2d
 4616 0136 0246     		mov	r2, r0
 4617 0138 0B46     		mov	r3, r1
 4618 013a 2046     		mov	r0, r4
 4619 013c 2946     		mov	r1, r5
 4620 013e FFF7FEFF 		bl	__aeabi_dadd
 4621 0142 0246     		mov	r2, r0
 4622 0144 0B46     		mov	r3, r1
 4623 0146 1446     		mov	r4, r2
 4624 0148 1D46     		mov	r5, r3
 4625 014a F869     		ldr	r0, [r7, #28]
ARM GAS  C:\Users\barror2\AppData\Local\Temp\ccQzPEXq.s 			page 89


 4626 014c FFF7FEFF 		bl	__aeabi_i2d
 4627 0150 0246     		mov	r2, r0
 4628 0152 0B46     		mov	r3, r1
 4629 0154 1046     		mov	r0, r2
 4630 0156 1946     		mov	r1, r3
 4631 0158 83A3     		adr	r3, .L128+8
 4632 015a D3E90023 		ldrd	r2, [r3]
 4633 015e FFF7FEFF 		bl	__aeabi_dmul
 4634 0162 0246     		mov	r2, r0
 4635 0164 0B46     		mov	r3, r1
 4636 0166 2046     		mov	r0, r4
 4637 0168 2946     		mov	r1, r5
 4638 016a FFF7FEFF 		bl	__aeabi_dadd
 4639 016e 0246     		mov	r2, r0
 4640 0170 0B46     		mov	r3, r1
 4641 0172 1046     		mov	r0, r2
 4642 0174 1946     		mov	r1, r3
 4643 0176 FFF7FEFF 		bl	__aeabi_d2iz
 4644 017a 0346     		mov	r3, r0
 4645 017c 1FFA83F9 		uxth	r9, r3
 4646 0180 7B68     		ldr	r3, [r7, #4]
 4647 0182 03F10103 		add	r3, r3, #1
 4648 0186 3A69     		ldr	r2, [r7, #16]
 4649 0188 02FB03F2 		mul	r2, r2, r3
 4650 018c 7B68     		ldr	r3, [r7, #4]
 4651 018e F969     		ldr	r1, [r7, #28]
 4652 0190 01FB03F3 		mul	r3, r1, r3
 4653 0194 4FEAD371 		lsr	r1, r3, #31
 4654 0198 CB18     		adds	r3, r1, r3
 4655 019a 4FEA6303 		asr	r3, r3, #1
 4656 019e D318     		adds	r3, r2, r3
 4657 01a0 1846     		mov	r0, r3
 4658 01a2 FFF7FEFF 		bl	__aeabi_i2d
 4659 01a6 0446     		mov	r4, r0
 4660 01a8 0D46     		mov	r5, r1
 4661 01aa F869     		ldr	r0, [r7, #28]
 4662 01ac FFF7FEFF 		bl	__aeabi_i2d
 4663 01b0 0246     		mov	r2, r0
 4664 01b2 0B46     		mov	r3, r1
 4665 01b4 1046     		mov	r0, r2
 4666 01b6 1946     		mov	r1, r3
 4667 01b8 6DA3     		adr	r3, .L128+16
 4668 01ba D3E90023 		ldrd	r2, [r3]
 4669 01be FFF7FEFF 		bl	__aeabi_dmul
 4670 01c2 0246     		mov	r2, r0
 4671 01c4 0B46     		mov	r3, r1
 4672 01c6 1046     		mov	r0, r2
 4673 01c8 1946     		mov	r1, r3
 4674 01ca 4FF00002 		mov	r2, #0
 4675 01ce 4FF08043 		mov	r3, #1073741824
 4676 01d2 FFF7FEFF 		bl	__aeabi_ddiv
 4677 01d6 0246     		mov	r2, r0
 4678 01d8 0B46     		mov	r3, r1
 4679 01da 2046     		mov	r0, r4
 4680 01dc 2946     		mov	r1, r5
 4681 01de FFF7FEFF 		bl	__aeabi_dadd
 4682 01e2 0246     		mov	r2, r0
ARM GAS  C:\Users\barror2\AppData\Local\Temp\ccQzPEXq.s 			page 90


 4683 01e4 0B46     		mov	r3, r1
 4684 01e6 1446     		mov	r4, r2
 4685 01e8 1D46     		mov	r5, r3
 4686 01ea F869     		ldr	r0, [r7, #28]
 4687 01ec FFF7FEFF 		bl	__aeabi_i2d
 4688 01f0 0246     		mov	r2, r0
 4689 01f2 0B46     		mov	r3, r1
 4690 01f4 1046     		mov	r0, r2
 4691 01f6 1946     		mov	r1, r3
 4692 01f8 5FA3     		adr	r3, .L128+24
 4693 01fa D3E90023 		ldrd	r2, [r3]
 4694 01fe FFF7FEFF 		bl	__aeabi_dmul
 4695 0202 0246     		mov	r2, r0
 4696 0204 0B46     		mov	r3, r1
 4697 0206 2046     		mov	r0, r4
 4698 0208 2946     		mov	r1, r5
 4699 020a FFF7FEFF 		bl	__aeabi_dadd
 4700 020e 0246     		mov	r2, r0
 4701 0210 0B46     		mov	r3, r1
 4702 0212 1446     		mov	r4, r2
 4703 0214 1D46     		mov	r5, r3
 4704 0216 B869     		ldr	r0, [r7, #24]
 4705 0218 FFF7FEFF 		bl	__aeabi_i2d
 4706 021c 0246     		mov	r2, r0
 4707 021e 0B46     		mov	r3, r1
 4708 0220 1046     		mov	r0, r2
 4709 0222 1946     		mov	r1, r3
 4710 0224 56A3     		adr	r3, .L128+32
 4711 0226 D3E90023 		ldrd	r2, [r3]
 4712 022a FFF7FEFF 		bl	__aeabi_dmul
 4713 022e 0246     		mov	r2, r0
 4714 0230 0B46     		mov	r3, r1
 4715 0232 1046     		mov	r0, r2
 4716 0234 1946     		mov	r1, r3
 4717 0236 4FF00002 		mov	r2, #0
 4718 023a 4FF00003 		mov	r3, #0
 4719 023e C4F22403 		movt	r3, 16420
 4720 0242 FFF7FEFF 		bl	__aeabi_ddiv
 4721 0246 0246     		mov	r2, r0
 4722 0248 0B46     		mov	r3, r1
 4723 024a 2046     		mov	r0, r4
 4724 024c 2946     		mov	r1, r5
 4725 024e FFF7FEFF 		bl	__aeabi_dsub
 4726 0252 0246     		mov	r2, r0
 4727 0254 0B46     		mov	r3, r1
 4728 0256 1046     		mov	r0, r2
 4729 0258 1946     		mov	r1, r3
 4730 025a FFF7FEFF 		bl	__aeabi_d2iz
 4731 025e 0346     		mov	r3, r0
 4732 0260 1FFA83F8 		uxth	r8, r3
 4733 0264 F869     		ldr	r0, [r7, #28]
 4734 0266 FFF7FEFF 		bl	__aeabi_i2d
 4735 026a 0246     		mov	r2, r0
 4736 026c 0B46     		mov	r3, r1
 4737 026e 1046     		mov	r0, r2
 4738 0270 1946     		mov	r1, r3
 4739 0272 41A3     		adr	r3, .L128+24
ARM GAS  C:\Users\barror2\AppData\Local\Temp\ccQzPEXq.s 			page 91


 4740 0274 D3E90023 		ldrd	r2, [r3]
 4741 0278 FFF7FEFF 		bl	__aeabi_dmul
 4742 027c 0246     		mov	r2, r0
 4743 027e 0B46     		mov	r3, r1
 4744 0280 1446     		mov	r4, r2
 4745 0282 1D46     		mov	r5, r3
 4746 0284 BA69     		ldr	r2, [r7, #24]
 4747 0286 46F26763 		movw	r3, #26215
 4748 028a C6F26663 		movt	r3, 26214
 4749 028e 83FB0213 		smull	r1, r3, r3, r2
 4750 0292 4FEAA301 		asr	r1, r3, #2
 4751 0296 4FEAE273 		asr	r3, r2, #31
 4752 029a CB1A     		subs	r3, r1, r3
 4753 029c 1846     		mov	r0, r3
 4754 029e FFF7FEFF 		bl	__aeabi_i2d
 4755 02a2 0246     		mov	r2, r0
 4756 02a4 0B46     		mov	r3, r1
 4757 02a6 2046     		mov	r0, r4
 4758 02a8 2946     		mov	r1, r5
 4759 02aa FFF7FEFF 		bl	__aeabi_dsub
 4760 02ae 0246     		mov	r2, r0
 4761 02b0 0B46     		mov	r3, r1
 4762 02b2 1046     		mov	r0, r2
 4763 02b4 1946     		mov	r1, r3
 4764 02b6 FFF7FEFF 		bl	__aeabi_d2iz
 4765 02ba 0346     		mov	r3, r0
 4766 02bc 9EB2     		uxth	r6, r3
 4767 02be B869     		ldr	r0, [r7, #24]
 4768 02c0 FFF7FEFF 		bl	__aeabi_i2d
 4769 02c4 0246     		mov	r2, r0
 4770 02c6 0B46     		mov	r3, r1
 4771 02c8 1046     		mov	r0, r2
 4772 02ca 1946     		mov	r1, r3
 4773 02cc 2CA3     		adr	r3, .L128+32
 4774 02ce D3E90023 		ldrd	r2, [r3]
 4775 02d2 FFF7FEFF 		bl	__aeabi_dmul
 4776 02d6 0246     		mov	r2, r0
 4777 02d8 0B46     		mov	r3, r1
 4778 02da 1046     		mov	r0, r2
 4779 02dc 1946     		mov	r1, r3
 4780 02de 4FF00002 		mov	r2, #0
 4781 02e2 4FF00003 		mov	r3, #0
 4782 02e6 C4F22403 		movt	r3, 16420
 4783 02ea FFF7FEFF 		bl	__aeabi_ddiv
 4784 02ee 0246     		mov	r2, r0
 4785 02f0 0B46     		mov	r3, r1
 4786 02f2 1046     		mov	r0, r2
 4787 02f4 1946     		mov	r1, r3
 4788 02f6 FFF7FEFF 		bl	__aeabi_d2iz
 4789 02fa 0346     		mov	r3, r0
 4790 02fc 9DB2     		uxth	r5, r3
 4791 02fe B869     		ldr	r0, [r7, #24]
 4792 0300 FFF7FEFF 		bl	__aeabi_i2d
 4793 0304 0246     		mov	r2, r0
 4794 0306 0B46     		mov	r3, r1
 4795 0308 1046     		mov	r0, r2
 4796 030a 1946     		mov	r1, r3
ARM GAS  C:\Users\barror2\AppData\Local\Temp\ccQzPEXq.s 			page 92


 4797 030c 1CA3     		adr	r3, .L128+32
 4798 030e D3E90023 		ldrd	r2, [r3]
 4799 0312 FFF7FEFF 		bl	__aeabi_dmul
 4800 0316 0246     		mov	r2, r0
 4801 0318 0B46     		mov	r3, r1
 4802 031a 1046     		mov	r0, r2
 4803 031c 1946     		mov	r1, r3
 4804 031e 4FF00002 		mov	r2, #0
 4805 0322 4FF00003 		mov	r3, #0
 4806 0326 C4F24403 		movt	r3, 16452
 4807 032a FFF7FEFF 		bl	__aeabi_ddiv
 4808 032e 0246     		mov	r2, r0
 4809 0330 0B46     		mov	r3, r1
 4810 0332 1046     		mov	r0, r2
 4811 0334 1946     		mov	r1, r3
 4812 0336 FFF7FEFF 		bl	__aeabi_d2iz
 4813 033a 0346     		mov	r3, r0
 4814 033c 9CB2     		uxth	r4, r3
 4815 033e 0FFA89F0 		sxth	r0, r9
 4816 0342 0FFA88F1 		sxth	r1, r8
 4817 0346 32B2     		sxth	r2, r6
 4818 0348 2BB2     		sxth	r3, r5
 4819 034a 24B2     		sxth	r4, r4
 4820 034c 0094     		str	r4, [sp, #0]
 4821 034e FC8C     		ldrh	r4, [r7, #38]
 4822 0350 0194     		str	r4, [sp, #4]
 4823 0352 FFF7FEFF 		bl	TFTSHIELD_1_FillRoundRect
 381:.\main.c      **** }
 4824              		.loc 1 381 0
 4825 0356 07F12C07 		add	r7, r7, #44
 4826 035a BD46     		mov	sp, r7
 4827 035c BDE8F083 		pop	{r4, r5, r6, r7, r8, r9, pc}
 4828              	.L129:
 4829              		.align	3
 4830              	.L128:
 4831 0360 9A999999 		.word	-1717986918
 4832 0364 9999C93F 		.word	1070176665
 4833 0368 66666666 		.word	1717986918
 4834 036c 6666E63F 		.word	1072064102
 4835 0370 66666666 		.word	1717986918
 4836 0374 6666D63F 		.word	1071015526
 4837 0378 CDCCCCCC 		.word	-858993459
 4838 037c CCCCE43F 		.word	1071959244
 4839 0380 9A999999 		.word	-1717986918
 4840 0384 9999E93F 		.word	1072273817
 4841              		.cfi_endproc
 4842              	.LFE65:
 4843              		.size	DrawHEX_e, .-DrawHEX_e
 4844              		.section	.text.DrawHEX_f,"ax",%progbits
 4845              		.align	2
 4846              		.global	DrawHEX_f
 4847              		.thumb
 4848              		.thumb_func
 4849              		.type	DrawHEX_f, %function
 4850              	DrawHEX_f:
 4851              	.LFB66:
 382:.\main.c      **** void DrawHEX_f(int i, uint8 state)
ARM GAS  C:\Users\barror2\AppData\Local\Temp\ccQzPEXq.s 			page 93


 383:.\main.c      **** {
 4852              		.loc 1 383 0
 4853              		.cfi_startproc
 4854              		@ args = 0, pretend = 0, frame = 40
 4855              		@ frame_needed = 1, uses_anonymous_args = 0
 4856 0000 2DE9F043 		push	{r4, r5, r6, r7, r8, r9, lr}
 4857              	.LCFI29:
 4858              		.cfi_def_cfa_offset 28
 4859              		.cfi_offset 4, -28
 4860              		.cfi_offset 5, -24
 4861              		.cfi_offset 6, -20
 4862              		.cfi_offset 7, -16
 4863              		.cfi_offset 8, -12
 4864              		.cfi_offset 9, -8
 4865              		.cfi_offset 14, -4
 4866 0004 8DB0     		sub	sp, sp, #52
 4867              	.LCFI30:
 4868              		.cfi_def_cfa_offset 80
 4869 0006 02AF     		add	r7, sp, #8
 4870              	.LCFI31:
 4871              		.cfi_def_cfa 7, 72
 4872 0008 7860     		str	r0, [r7, #4]
 4873 000a 0B46     		mov	r3, r1
 4874 000c FB70     		strb	r3, [r7, #3]
 384:.\main.c      ****     uint16 color ;
 385:.\main.c      ****     int separation_HEX;
 386:.\main.c      ****     int outputs = HEX + LEDs;
 4875              		.loc 1 386 0
 4876 000e 4FF00503 		mov	r3, #5
 4877 0012 7B61     		str	r3, [r7, #20]
 387:.\main.c      ****     
 388:.\main.c      ****     if (outputs>0){separation_HEX = y_max/outputs;}//check for div by zero
 4878              		.loc 1 388 0
 4879 0014 7B69     		ldr	r3, [r7, #20]
 4880 0016 002B     		cmp	r3, #0
 4881 0018 06DD     		ble	.L131
 4882              		.loc 1 388 0 is_stmt 0 discriminator 1
 4883 001a 4FF4A072 		mov	r2, #320
 4884 001e 7B69     		ldr	r3, [r7, #20]
 4885 0020 92FBF3F3 		sdiv	r3, r2, r3
 4886 0024 3B62     		str	r3, [r7, #32]
 4887 0026 02E0     		b	.L132
 4888              	.L131:
 389:.\main.c      ****     else      {separation_HEX = y_max + 1;}
 4889              		.loc 1 389 0 is_stmt 1
 4890 0028 40F24113 		movw	r3, #321
 4891 002c 3B62     		str	r3, [r7, #32]
 4892              	.L132:
 390:.\main.c      ****     
 391:.\main.c      ****     int width_HEX = separation_HEX/2;
 4893              		.loc 1 391 0
 4894 002e 3B6A     		ldr	r3, [r7, #32]
 4895 0030 4FEAD372 		lsr	r2, r3, #31
 4896 0034 D318     		adds	r3, r2, r3
 4897 0036 4FEA6303 		asr	r3, r3, #1
 4898 003a FB61     		str	r3, [r7, #28]
 392:.\main.c      ****     int length_HEX = width_HEX*2;
ARM GAS  C:\Users\barror2\AppData\Local\Temp\ccQzPEXq.s 			page 94


 4899              		.loc 1 392 0
 4900 003c FB69     		ldr	r3, [r7, #28]
 4901 003e 4FEA4303 		lsl	r3, r3, #1
 4902 0042 BB61     		str	r3, [r7, #24]
 393:.\main.c      ****     if (length_HEX + top_space > x_max/2.5)
 4903              		.loc 1 393 0
 4904 0044 BB69     		ldr	r3, [r7, #24]
 4905 0046 03F11903 		add	r3, r3, #25
 4906 004a 1846     		mov	r0, r3
 4907 004c FFF7FEFF 		bl	__aeabi_i2d
 4908 0050 0246     		mov	r2, r0
 4909 0052 0B46     		mov	r3, r1
 4910 0054 1046     		mov	r0, r2
 4911 0056 1946     		mov	r1, r3
 4912 0058 4FF00002 		mov	r2, #0
 4913 005c 4FF00003 		mov	r3, #0
 4914 0060 C4F25803 		movt	r3, 16472
 4915 0064 FFF7FEFF 		bl	__aeabi_dcmpgt
 4916 0068 0346     		mov	r3, r0
 4917 006a 002B     		cmp	r3, #0
 4918 006c 0DD0     		beq	.L133
 4919              	.L137:
 394:.\main.c      ****     {   
 395:.\main.c      ****         length_HEX = x_max/2.5 - top_space;
 4920              		.loc 1 395 0
 4921 006e 4FF04703 		mov	r3, #71
 4922 0072 BB61     		str	r3, [r7, #24]
 396:.\main.c      ****         width_HEX = length_HEX/2;
 4923              		.loc 1 396 0
 4924 0074 BB69     		ldr	r3, [r7, #24]
 4925 0076 4FEAD372 		lsr	r2, r3, #31
 4926 007a D318     		adds	r3, r2, r3
 4927 007c 4FEA6303 		asr	r3, r3, #1
 4928 0080 FB61     		str	r3, [r7, #28]
 397:.\main.c      ****         separation_HEX = 2*width_HEX;
 4929              		.loc 1 397 0
 4930 0082 FB69     		ldr	r3, [r7, #28]
 4931 0084 4FEA4303 		lsl	r3, r3, #1
 4932 0088 3B62     		str	r3, [r7, #32]
 4933              	.L133:
 398:.\main.c      ****     }
 399:.\main.c      ****     
 400:.\main.c      ****     int empty_HEX =y_max /(outputs+1) - width_HEX/2;
 4934              		.loc 1 400 0
 4935 008a 7B69     		ldr	r3, [r7, #20]
 4936 008c 03F10103 		add	r3, r3, #1
 4937 0090 4FF4A072 		mov	r2, #320
 4938 0094 92FBF3F2 		sdiv	r2, r2, r3
 4939 0098 FB69     		ldr	r3, [r7, #28]
 4940 009a 4FEAD371 		lsr	r1, r3, #31
 4941 009e CB18     		adds	r3, r1, r3
 4942 00a0 4FEA6303 		asr	r3, r3, #1
 4943 00a4 D31A     		subs	r3, r2, r3
 4944 00a6 3B61     		str	r3, [r7, #16]
 401:.\main.c      ****     int x_HEX = top_space + length_HEX/2;
 4945              		.loc 1 401 0
 4946 00a8 BB69     		ldr	r3, [r7, #24]
ARM GAS  C:\Users\barror2\AppData\Local\Temp\ccQzPEXq.s 			page 95


 4947 00aa 4FEAD372 		lsr	r2, r3, #31
 4948 00ae D318     		adds	r3, r2, r3
 4949 00b0 4FEA6303 		asr	r3, r3, #1
 4950 00b4 03F11903 		add	r3, r3, #25
 4951 00b8 FB60     		str	r3, [r7, #12]
 402:.\main.c      ****     
 403:.\main.c      ****     if (state != 0){color = RED;}
 4952              		.loc 1 403 0
 4953 00ba FB78     		ldrb	r3, [r7, #3]	@ zero_extendqisi2
 4954 00bc 002B     		cmp	r3, #0
 4955 00be 03D0     		beq	.L135
 4956              		.loc 1 403 0 is_stmt 0 discriminator 1
 4957 00c0 4FF47843 		mov	r3, #63488
 4958 00c4 FB84     		strh	r3, [r7, #38]	@ movhi
 4959 00c6 02E0     		b	.L136
 4960              	.L135:
 404:.\main.c      ****     else {color = 0x0102;}
 4961              		.loc 1 404 0 is_stmt 1
 4962 00c8 4FF48173 		mov	r3, #258
 4963 00cc FB84     		strh	r3, [r7, #38]	@ movhi
 4964              	.L136:
 405:.\main.c      ****     
 406:.\main.c      ****     TFTSHIELD_1_FillRoundRect(x_HEX + ((.20*length_HEX)/2) + (length_HEX)/10, (i+1)*empty_HEX + i*w
 4965              		.loc 1 406 0
 4966 00ce F868     		ldr	r0, [r7, #12]
 4967 00d0 FFF7FEFF 		bl	__aeabi_i2d
 4968 00d4 0446     		mov	r4, r0
 4969 00d6 0D46     		mov	r5, r1
 4970 00d8 B869     		ldr	r0, [r7, #24]
 4971 00da FFF7FEFF 		bl	__aeabi_i2d
 4972 00de 0246     		mov	r2, r0
 4973 00e0 0B46     		mov	r3, r1
 4974 00e2 1046     		mov	r0, r2
 4975 00e4 1946     		mov	r1, r3
 4976 00e6 94A3     		adr	r3, .L138
 4977 00e8 D3E90023 		ldrd	r2, [r3]
 4978 00ec FFF7FEFF 		bl	__aeabi_dmul
 4979 00f0 0246     		mov	r2, r0
 4980 00f2 0B46     		mov	r3, r1
 4981 00f4 1046     		mov	r0, r2
 4982 00f6 1946     		mov	r1, r3
 4983 00f8 4FF00002 		mov	r2, #0
 4984 00fc 4FF08043 		mov	r3, #1073741824
 4985 0100 FFF7FEFF 		bl	__aeabi_ddiv
 4986 0104 0246     		mov	r2, r0
 4987 0106 0B46     		mov	r3, r1
 4988 0108 2046     		mov	r0, r4
 4989 010a 2946     		mov	r1, r5
 4990 010c FFF7FEFF 		bl	__aeabi_dadd
 4991 0110 0246     		mov	r2, r0
 4992 0112 0B46     		mov	r3, r1
 4993 0114 1446     		mov	r4, r2
 4994 0116 1D46     		mov	r5, r3
 4995 0118 BA69     		ldr	r2, [r7, #24]
 4996 011a 46F26763 		movw	r3, #26215
 4997 011e C6F26663 		movt	r3, 26214
 4998 0122 83FB0213 		smull	r1, r3, r3, r2
ARM GAS  C:\Users\barror2\AppData\Local\Temp\ccQzPEXq.s 			page 96


 4999 0126 4FEAA301 		asr	r1, r3, #2
 5000 012a 4FEAE273 		asr	r3, r2, #31
 5001 012e CB1A     		subs	r3, r1, r3
 5002 0130 1846     		mov	r0, r3
 5003 0132 FFF7FEFF 		bl	__aeabi_i2d
 5004 0136 0246     		mov	r2, r0
 5005 0138 0B46     		mov	r3, r1
 5006 013a 2046     		mov	r0, r4
 5007 013c 2946     		mov	r1, r5
 5008 013e FFF7FEFF 		bl	__aeabi_dadd
 5009 0142 0246     		mov	r2, r0
 5010 0144 0B46     		mov	r3, r1
 5011 0146 1046     		mov	r0, r2
 5012 0148 1946     		mov	r1, r3
 5013 014a FFF7FEFF 		bl	__aeabi_d2iz
 5014 014e 0346     		mov	r3, r0
 5015 0150 1FFA83F9 		uxth	r9, r3
 5016 0154 7B68     		ldr	r3, [r7, #4]
 5017 0156 03F10103 		add	r3, r3, #1
 5018 015a 3A69     		ldr	r2, [r7, #16]
 5019 015c 02FB03F2 		mul	r2, r2, r3
 5020 0160 7B68     		ldr	r3, [r7, #4]
 5021 0162 F969     		ldr	r1, [r7, #28]
 5022 0164 01FB03F3 		mul	r3, r1, r3
 5023 0168 4FEAD371 		lsr	r1, r3, #31
 5024 016c CB18     		adds	r3, r1, r3
 5025 016e 4FEA6303 		asr	r3, r3, #1
 5026 0172 D318     		adds	r3, r2, r3
 5027 0174 1846     		mov	r0, r3
 5028 0176 FFF7FEFF 		bl	__aeabi_i2d
 5029 017a 0446     		mov	r4, r0
 5030 017c 0D46     		mov	r5, r1
 5031 017e F869     		ldr	r0, [r7, #28]
 5032 0180 FFF7FEFF 		bl	__aeabi_i2d
 5033 0184 0246     		mov	r2, r0
 5034 0186 0B46     		mov	r3, r1
 5035 0188 1046     		mov	r0, r2
 5036 018a 1946     		mov	r1, r3
 5037 018c 6CA3     		adr	r3, .L138+8
 5038 018e D3E90023 		ldrd	r2, [r3]
 5039 0192 FFF7FEFF 		bl	__aeabi_dmul
 5040 0196 0246     		mov	r2, r0
 5041 0198 0B46     		mov	r3, r1
 5042 019a 1046     		mov	r0, r2
 5043 019c 1946     		mov	r1, r3
 5044 019e 4FF00002 		mov	r2, #0
 5045 01a2 4FF08043 		mov	r3, #1073741824
 5046 01a6 FFF7FEFF 		bl	__aeabi_ddiv
 5047 01aa 0246     		mov	r2, r0
 5048 01ac 0B46     		mov	r3, r1
 5049 01ae 2046     		mov	r0, r4
 5050 01b0 2946     		mov	r1, r5
 5051 01b2 FFF7FEFF 		bl	__aeabi_dadd
 5052 01b6 0246     		mov	r2, r0
 5053 01b8 0B46     		mov	r3, r1
 5054 01ba 1446     		mov	r4, r2
 5055 01bc 1D46     		mov	r5, r3
ARM GAS  C:\Users\barror2\AppData\Local\Temp\ccQzPEXq.s 			page 97


 5056 01be F869     		ldr	r0, [r7, #28]
 5057 01c0 FFF7FEFF 		bl	__aeabi_i2d
 5058 01c4 0246     		mov	r2, r0
 5059 01c6 0B46     		mov	r3, r1
 5060 01c8 1046     		mov	r0, r2
 5061 01ca 1946     		mov	r1, r3
 5062 01cc 5EA3     		adr	r3, .L138+16
 5063 01ce D3E90023 		ldrd	r2, [r3]
 5064 01d2 FFF7FEFF 		bl	__aeabi_dmul
 5065 01d6 0246     		mov	r2, r0
 5066 01d8 0B46     		mov	r3, r1
 5067 01da 2046     		mov	r0, r4
 5068 01dc 2946     		mov	r1, r5
 5069 01de FFF7FEFF 		bl	__aeabi_dadd
 5070 01e2 0246     		mov	r2, r0
 5071 01e4 0B46     		mov	r3, r1
 5072 01e6 1446     		mov	r4, r2
 5073 01e8 1D46     		mov	r5, r3
 5074 01ea B869     		ldr	r0, [r7, #24]
 5075 01ec FFF7FEFF 		bl	__aeabi_i2d
 5076 01f0 0246     		mov	r2, r0
 5077 01f2 0B46     		mov	r3, r1
 5078 01f4 1046     		mov	r0, r2
 5079 01f6 1946     		mov	r1, r3
 5080 01f8 55A3     		adr	r3, .L138+24
 5081 01fa D3E90023 		ldrd	r2, [r3]
 5082 01fe FFF7FEFF 		bl	__aeabi_dmul
 5083 0202 0246     		mov	r2, r0
 5084 0204 0B46     		mov	r3, r1
 5085 0206 1046     		mov	r0, r2
 5086 0208 1946     		mov	r1, r3
 5087 020a 4FF00002 		mov	r2, #0
 5088 020e 4FF00003 		mov	r3, #0
 5089 0212 C4F22403 		movt	r3, 16420
 5090 0216 FFF7FEFF 		bl	__aeabi_ddiv
 5091 021a 0246     		mov	r2, r0
 5092 021c 0B46     		mov	r3, r1
 5093 021e 2046     		mov	r0, r4
 5094 0220 2946     		mov	r1, r5
 5095 0222 FFF7FEFF 		bl	__aeabi_dsub
 5096 0226 0246     		mov	r2, r0
 5097 0228 0B46     		mov	r3, r1
 5098 022a 1046     		mov	r0, r2
 5099 022c 1946     		mov	r1, r3
 5100 022e FFF7FEFF 		bl	__aeabi_d2iz
 5101 0232 0346     		mov	r3, r0
 5102 0234 1FFA83F8 		uxth	r8, r3
 5103 0238 F869     		ldr	r0, [r7, #28]
 5104 023a FFF7FEFF 		bl	__aeabi_i2d
 5105 023e 0246     		mov	r2, r0
 5106 0240 0B46     		mov	r3, r1
 5107 0242 1046     		mov	r0, r2
 5108 0244 1946     		mov	r1, r3
 5109 0246 40A3     		adr	r3, .L138+16
 5110 0248 D3E90023 		ldrd	r2, [r3]
 5111 024c FFF7FEFF 		bl	__aeabi_dmul
 5112 0250 0246     		mov	r2, r0
ARM GAS  C:\Users\barror2\AppData\Local\Temp\ccQzPEXq.s 			page 98


 5113 0252 0B46     		mov	r3, r1
 5114 0254 1446     		mov	r4, r2
 5115 0256 1D46     		mov	r5, r3
 5116 0258 BA69     		ldr	r2, [r7, #24]
 5117 025a 46F26763 		movw	r3, #26215
 5118 025e C6F26663 		movt	r3, 26214
 5119 0262 83FB0213 		smull	r1, r3, r3, r2
 5120 0266 4FEAA301 		asr	r1, r3, #2
 5121 026a 4FEAE273 		asr	r3, r2, #31
 5122 026e CB1A     		subs	r3, r1, r3
 5123 0270 1846     		mov	r0, r3
 5124 0272 FFF7FEFF 		bl	__aeabi_i2d
 5125 0276 0246     		mov	r2, r0
 5126 0278 0B46     		mov	r3, r1
 5127 027a 2046     		mov	r0, r4
 5128 027c 2946     		mov	r1, r5
 5129 027e FFF7FEFF 		bl	__aeabi_dsub
 5130 0282 0246     		mov	r2, r0
 5131 0284 0B46     		mov	r3, r1
 5132 0286 1046     		mov	r0, r2
 5133 0288 1946     		mov	r1, r3
 5134 028a FFF7FEFF 		bl	__aeabi_d2iz
 5135 028e 0346     		mov	r3, r0
 5136 0290 9EB2     		uxth	r6, r3
 5137 0292 B869     		ldr	r0, [r7, #24]
 5138 0294 FFF7FEFF 		bl	__aeabi_i2d
 5139 0298 0246     		mov	r2, r0
 5140 029a 0B46     		mov	r3, r1
 5141 029c 1046     		mov	r0, r2
 5142 029e 1946     		mov	r1, r3
 5143 02a0 2BA3     		adr	r3, .L138+24
 5144 02a2 D3E90023 		ldrd	r2, [r3]
 5145 02a6 FFF7FEFF 		bl	__aeabi_dmul
 5146 02aa 0246     		mov	r2, r0
 5147 02ac 0B46     		mov	r3, r1
 5148 02ae 1046     		mov	r0, r2
 5149 02b0 1946     		mov	r1, r3
 5150 02b2 4FF00002 		mov	r2, #0
 5151 02b6 4FF00003 		mov	r3, #0
 5152 02ba C4F22403 		movt	r3, 16420
 5153 02be FFF7FEFF 		bl	__aeabi_ddiv
 5154 02c2 0246     		mov	r2, r0
 5155 02c4 0B46     		mov	r3, r1
 5156 02c6 1046     		mov	r0, r2
 5157 02c8 1946     		mov	r1, r3
 5158 02ca FFF7FEFF 		bl	__aeabi_d2iz
 5159 02ce 0346     		mov	r3, r0
 5160 02d0 9DB2     		uxth	r5, r3
 5161 02d2 B869     		ldr	r0, [r7, #24]
 5162 02d4 FFF7FEFF 		bl	__aeabi_i2d
 5163 02d8 0246     		mov	r2, r0
 5164 02da 0B46     		mov	r3, r1
 5165 02dc 1046     		mov	r0, r2
 5166 02de 1946     		mov	r1, r3
 5167 02e0 1BA3     		adr	r3, .L138+24
 5168 02e2 D3E90023 		ldrd	r2, [r3]
 5169 02e6 FFF7FEFF 		bl	__aeabi_dmul
ARM GAS  C:\Users\barror2\AppData\Local\Temp\ccQzPEXq.s 			page 99


 5170 02ea 0246     		mov	r2, r0
 5171 02ec 0B46     		mov	r3, r1
 5172 02ee 1046     		mov	r0, r2
 5173 02f0 1946     		mov	r1, r3
 5174 02f2 4FF00002 		mov	r2, #0
 5175 02f6 4FF00003 		mov	r3, #0
 5176 02fa C4F24403 		movt	r3, 16452
 5177 02fe FFF7FEFF 		bl	__aeabi_ddiv
 5178 0302 0246     		mov	r2, r0
 5179 0304 0B46     		mov	r3, r1
 5180 0306 1046     		mov	r0, r2
 5181 0308 1946     		mov	r1, r3
 5182 030a FFF7FEFF 		bl	__aeabi_d2iz
 5183 030e 0346     		mov	r3, r0
 5184 0310 9CB2     		uxth	r4, r3
 5185 0312 0FFA89F0 		sxth	r0, r9
 5186 0316 0FFA88F1 		sxth	r1, r8
 5187 031a 32B2     		sxth	r2, r6
 5188 031c 2BB2     		sxth	r3, r5
 5189 031e 24B2     		sxth	r4, r4
 5190 0320 0094     		str	r4, [sp, #0]
 5191 0322 FC8C     		ldrh	r4, [r7, #38]
 5192 0324 0194     		str	r4, [sp, #4]
 5193 0326 FFF7FEFF 		bl	TFTSHIELD_1_FillRoundRect
 407:.\main.c      **** }
 5194              		.loc 1 407 0
 5195 032a 07F12C07 		add	r7, r7, #44
 5196 032e BD46     		mov	sp, r7
 5197 0330 BDE8F083 		pop	{r4, r5, r6, r7, r8, r9, pc}
 5198              	.L139:
 5199 0334 AFF30080 		.align	3
 5200              	.L138:
 5201 0338 9A999999 		.word	-1717986918
 5202 033c 9999C93F 		.word	1070176665
 5203 0340 66666666 		.word	1717986918
 5204 0344 6666D63F 		.word	1071015526
 5205 0348 CDCCCCCC 		.word	-858993459
 5206 034c CCCCE43F 		.word	1071959244
 5207 0350 9A999999 		.word	-1717986918
 5208 0354 9999E93F 		.word	1072273817
 5209              		.cfi_endproc
 5210              	.LFE66:
 5211              		.size	DrawHEX_f, .-DrawHEX_f
 5212              		.section	.text.DrawHEX_g,"ax",%progbits
 5213              		.align	2
 5214              		.global	DrawHEX_g
 5215              		.thumb
 5216              		.thumb_func
 5217              		.type	DrawHEX_g, %function
 5218              	DrawHEX_g:
 5219              	.LFB67:
 408:.\main.c      **** void DrawHEX_g(int i, uint8 state)
 409:.\main.c      **** {
 5220              		.loc 1 409 0
 5221              		.cfi_startproc
 5222              		@ args = 0, pretend = 0, frame = 40
 5223              		@ frame_needed = 1, uses_anonymous_args = 0
ARM GAS  C:\Users\barror2\AppData\Local\Temp\ccQzPEXq.s 			page 100


 5224 0000 2DE9F043 		push	{r4, r5, r6, r7, r8, r9, lr}
 5225              	.LCFI32:
 5226              		.cfi_def_cfa_offset 28
 5227              		.cfi_offset 4, -28
 5228              		.cfi_offset 5, -24
 5229              		.cfi_offset 6, -20
 5230              		.cfi_offset 7, -16
 5231              		.cfi_offset 8, -12
 5232              		.cfi_offset 9, -8
 5233              		.cfi_offset 14, -4
 5234 0004 8DB0     		sub	sp, sp, #52
 5235              	.LCFI33:
 5236              		.cfi_def_cfa_offset 80
 5237 0006 02AF     		add	r7, sp, #8
 5238              	.LCFI34:
 5239              		.cfi_def_cfa 7, 72
 5240 0008 7860     		str	r0, [r7, #4]
 5241 000a 0B46     		mov	r3, r1
 5242 000c FB70     		strb	r3, [r7, #3]
 410:.\main.c      ****     
 411:.\main.c      ****     uint16 color ;
 412:.\main.c      ****     int separation_HEX;
 413:.\main.c      ****     int outputs = HEX + LEDs;
 5243              		.loc 1 413 0
 5244 000e 4FF00503 		mov	r3, #5
 5245 0012 7B61     		str	r3, [r7, #20]
 414:.\main.c      ****     
 415:.\main.c      ****     if (outputs>0){separation_HEX = y_max/outputs;}//check for div by zero
 5246              		.loc 1 415 0
 5247 0014 7B69     		ldr	r3, [r7, #20]
 5248 0016 002B     		cmp	r3, #0
 5249 0018 06DD     		ble	.L141
 5250              		.loc 1 415 0 is_stmt 0 discriminator 1
 5251 001a 4FF4A072 		mov	r2, #320
 5252 001e 7B69     		ldr	r3, [r7, #20]
 5253 0020 92FBF3F3 		sdiv	r3, r2, r3
 5254 0024 3B62     		str	r3, [r7, #32]
 5255 0026 02E0     		b	.L142
 5256              	.L141:
 416:.\main.c      ****     else      {separation_HEX = y_max + 1;}
 5257              		.loc 1 416 0 is_stmt 1
 5258 0028 40F24113 		movw	r3, #321
 5259 002c 3B62     		str	r3, [r7, #32]
 5260              	.L142:
 417:.\main.c      ****     
 418:.\main.c      ****     int width_HEX = separation_HEX/2;
 5261              		.loc 1 418 0
 5262 002e 3B6A     		ldr	r3, [r7, #32]
 5263 0030 4FEAD372 		lsr	r2, r3, #31
 5264 0034 D318     		adds	r3, r2, r3
 5265 0036 4FEA6303 		asr	r3, r3, #1
 5266 003a FB61     		str	r3, [r7, #28]
 419:.\main.c      ****     int length_HEX = width_HEX*2;
 5267              		.loc 1 419 0
 5268 003c FB69     		ldr	r3, [r7, #28]
 5269 003e 4FEA4303 		lsl	r3, r3, #1
 5270 0042 BB61     		str	r3, [r7, #24]
ARM GAS  C:\Users\barror2\AppData\Local\Temp\ccQzPEXq.s 			page 101


 420:.\main.c      ****     if (length_HEX + top_space > x_max/2.5)
 5271              		.loc 1 420 0
 5272 0044 BB69     		ldr	r3, [r7, #24]
 5273 0046 03F11903 		add	r3, r3, #25
 5274 004a 1846     		mov	r0, r3
 5275 004c FFF7FEFF 		bl	__aeabi_i2d
 5276 0050 0246     		mov	r2, r0
 5277 0052 0B46     		mov	r3, r1
 5278 0054 1046     		mov	r0, r2
 5279 0056 1946     		mov	r1, r3
 5280 0058 4FF00002 		mov	r2, #0
 5281 005c 4FF00003 		mov	r3, #0
 5282 0060 C4F25803 		movt	r3, 16472
 5283 0064 FFF7FEFF 		bl	__aeabi_dcmpgt
 5284 0068 0346     		mov	r3, r0
 5285 006a 002B     		cmp	r3, #0
 5286 006c 0DD0     		beq	.L143
 5287              	.L147:
 421:.\main.c      ****     {   
 422:.\main.c      ****         length_HEX = x_max/2.5 - top_space;
 5288              		.loc 1 422 0
 5289 006e 4FF04703 		mov	r3, #71
 5290 0072 BB61     		str	r3, [r7, #24]
 423:.\main.c      ****         width_HEX = length_HEX/2;
 5291              		.loc 1 423 0
 5292 0074 BB69     		ldr	r3, [r7, #24]
 5293 0076 4FEAD372 		lsr	r2, r3, #31
 5294 007a D318     		adds	r3, r2, r3
 5295 007c 4FEA6303 		asr	r3, r3, #1
 5296 0080 FB61     		str	r3, [r7, #28]
 424:.\main.c      ****         separation_HEX = 2*width_HEX;
 5297              		.loc 1 424 0
 5298 0082 FB69     		ldr	r3, [r7, #28]
 5299 0084 4FEA4303 		lsl	r3, r3, #1
 5300 0088 3B62     		str	r3, [r7, #32]
 5301              	.L143:
 425:.\main.c      ****     }
 426:.\main.c      ****     
 427:.\main.c      ****     int empty_HEX = y_max /(outputs+1) - width_HEX/2;
 5302              		.loc 1 427 0
 5303 008a 7B69     		ldr	r3, [r7, #20]
 5304 008c 03F10103 		add	r3, r3, #1
 5305 0090 4FF4A072 		mov	r2, #320
 5306 0094 92FBF3F2 		sdiv	r2, r2, r3
 5307 0098 FB69     		ldr	r3, [r7, #28]
 5308 009a 4FEAD371 		lsr	r1, r3, #31
 5309 009e CB18     		adds	r3, r1, r3
 5310 00a0 4FEA6303 		asr	r3, r3, #1
 5311 00a4 D31A     		subs	r3, r2, r3
 5312 00a6 3B61     		str	r3, [r7, #16]
 428:.\main.c      ****     int x_HEX = top_space + length_HEX/2;
 5313              		.loc 1 428 0
 5314 00a8 BB69     		ldr	r3, [r7, #24]
 5315 00aa 4FEAD372 		lsr	r2, r3, #31
 5316 00ae D318     		adds	r3, r2, r3
 5317 00b0 4FEA6303 		asr	r3, r3, #1
 5318 00b4 03F11903 		add	r3, r3, #25
ARM GAS  C:\Users\barror2\AppData\Local\Temp\ccQzPEXq.s 			page 102


 5319 00b8 FB60     		str	r3, [r7, #12]
 429:.\main.c      ****     
 430:.\main.c      ****     if (state !=0 ){color = RED;}
 5320              		.loc 1 430 0
 5321 00ba FB78     		ldrb	r3, [r7, #3]	@ zero_extendqisi2
 5322 00bc 002B     		cmp	r3, #0
 5323 00be 03D0     		beq	.L145
 5324              		.loc 1 430 0 is_stmt 0 discriminator 1
 5325 00c0 4FF47843 		mov	r3, #63488
 5326 00c4 FB84     		strh	r3, [r7, #38]	@ movhi
 5327 00c6 02E0     		b	.L146
 5328              	.L145:
 431:.\main.c      ****     else {color = 0x0102;}
 5329              		.loc 1 431 0 is_stmt 1
 5330 00c8 4FF48173 		mov	r3, #258
 5331 00cc FB84     		strh	r3, [r7, #38]	@ movhi
 5332              	.L146:
 432:.\main.c      ****     
 433:.\main.c      ****     TFTSHIELD_1_FillRoundRect(x_HEX + ((length_HEX*45)/100) , (i+1)*empty_HEX + i*width_HEX/2 + .45
 5333              		.loc 1 433 0
 5334 00ce BA69     		ldr	r2, [r7, #24]
 5335 00d0 1346     		mov	r3, r2
 5336 00d2 4FEA4303 		lsl	r3, r3, #1
 5337 00d6 9B18     		adds	r3, r3, r2
 5338 00d8 4FEA0312 		lsl	r2, r3, #4
 5339 00dc D21A     		subs	r2, r2, r3
 5340 00de 48F21F53 		movw	r3, #34079
 5341 00e2 C5F2EB13 		movt	r3, 20971
 5342 00e6 83FB0213 		smull	r1, r3, r3, r2
 5343 00ea 4FEA6311 		asr	r1, r3, #5
 5344 00ee 4FEAE273 		asr	r3, r2, #31
 5345 00f2 CB1A     		subs	r3, r1, r3
 5346 00f4 9AB2     		uxth	r2, r3
 5347 00f6 FB68     		ldr	r3, [r7, #12]
 5348 00f8 9BB2     		uxth	r3, r3
 5349 00fa D318     		adds	r3, r2, r3
 5350 00fc 9BB2     		uxth	r3, r3
 5351 00fe 1FFA83F9 		uxth	r9, r3
 5352 0102 7B68     		ldr	r3, [r7, #4]
 5353 0104 03F10103 		add	r3, r3, #1
 5354 0108 3A69     		ldr	r2, [r7, #16]
 5355 010a 02FB03F2 		mul	r2, r2, r3
 5356 010e 7B68     		ldr	r3, [r7, #4]
 5357 0110 F969     		ldr	r1, [r7, #28]
 5358 0112 01FB03F3 		mul	r3, r1, r3
 5359 0116 4FEAD371 		lsr	r1, r3, #31
 5360 011a CB18     		adds	r3, r1, r3
 5361 011c 4FEA6303 		asr	r3, r3, #1
 5362 0120 D318     		adds	r3, r2, r3
 5363 0122 1846     		mov	r0, r3
 5364 0124 FFF7FEFF 		bl	__aeabi_i2d
 5365 0128 0446     		mov	r4, r0
 5366 012a 0D46     		mov	r5, r1
 5367 012c F869     		ldr	r0, [r7, #28]
 5368 012e FFF7FEFF 		bl	__aeabi_i2d
 5369 0132 0246     		mov	r2, r0
 5370 0134 0B46     		mov	r3, r1
ARM GAS  C:\Users\barror2\AppData\Local\Temp\ccQzPEXq.s 			page 103


 5371 0136 1046     		mov	r0, r2
 5372 0138 1946     		mov	r1, r3
 5373 013a 41A3     		adr	r3, .L148
 5374 013c D3E90023 		ldrd	r2, [r3]
 5375 0140 FFF7FEFF 		bl	__aeabi_dmul
 5376 0144 0246     		mov	r2, r0
 5377 0146 0B46     		mov	r3, r1
 5378 0148 1046     		mov	r0, r2
 5379 014a 1946     		mov	r1, r3
 5380 014c 4FF00002 		mov	r2, #0
 5381 0150 4FF08043 		mov	r3, #1073741824
 5382 0154 FFF7FEFF 		bl	__aeabi_ddiv
 5383 0158 0246     		mov	r2, r0
 5384 015a 0B46     		mov	r3, r1
 5385 015c 2046     		mov	r0, r4
 5386 015e 2946     		mov	r1, r5
 5387 0160 FFF7FEFF 		bl	__aeabi_dadd
 5388 0164 0246     		mov	r2, r0
 5389 0166 0B46     		mov	r3, r1
 5390 0168 1046     		mov	r0, r2
 5391 016a 1946     		mov	r1, r3
 5392 016c FFF7FEFF 		bl	__aeabi_d2iz
 5393 0170 0346     		mov	r3, r0
 5394 0172 1FFA83F8 		uxth	r8, r3
 5395 0176 B869     		ldr	r0, [r7, #24]
 5396 0178 FFF7FEFF 		bl	__aeabi_i2d
 5397 017c 0246     		mov	r2, r0
 5398 017e 0B46     		mov	r3, r1
 5399 0180 1046     		mov	r0, r2
 5400 0182 1946     		mov	r1, r3
 5401 0184 30A3     		adr	r3, .L148+8
 5402 0186 D3E90023 		ldrd	r2, [r3]
 5403 018a FFF7FEFF 		bl	__aeabi_dmul
 5404 018e 0246     		mov	r2, r0
 5405 0190 0B46     		mov	r3, r1
 5406 0192 1046     		mov	r0, r2
 5407 0194 1946     		mov	r1, r3
 5408 0196 4FF00002 		mov	r2, #0
 5409 019a 4FF00003 		mov	r3, #0
 5410 019e C4F22403 		movt	r3, 16420
 5411 01a2 FFF7FEFF 		bl	__aeabi_ddiv
 5412 01a6 0246     		mov	r2, r0
 5413 01a8 0B46     		mov	r3, r1
 5414 01aa 1046     		mov	r0, r2
 5415 01ac 1946     		mov	r1, r3
 5416 01ae FFF7FEFF 		bl	__aeabi_d2iz
 5417 01b2 0346     		mov	r3, r0
 5418 01b4 9EB2     		uxth	r6, r3
 5419 01b6 F869     		ldr	r0, [r7, #28]
 5420 01b8 FFF7FEFF 		bl	__aeabi_i2d
 5421 01bc 0246     		mov	r2, r0
 5422 01be 0B46     		mov	r3, r1
 5423 01c0 1046     		mov	r0, r2
 5424 01c2 1946     		mov	r1, r3
 5425 01c4 22A3     		adr	r3, .L148+16
 5426 01c6 D3E90023 		ldrd	r2, [r3]
 5427 01ca FFF7FEFF 		bl	__aeabi_dmul
ARM GAS  C:\Users\barror2\AppData\Local\Temp\ccQzPEXq.s 			page 104


 5428 01ce 0246     		mov	r2, r0
 5429 01d0 0B46     		mov	r3, r1
 5430 01d2 1046     		mov	r0, r2
 5431 01d4 1946     		mov	r1, r3
 5432 01d6 FFF7FEFF 		bl	__aeabi_d2iz
 5433 01da 0346     		mov	r3, r0
 5434 01dc 9DB2     		uxth	r5, r3
 5435 01de B869     		ldr	r0, [r7, #24]
 5436 01e0 FFF7FEFF 		bl	__aeabi_i2d
 5437 01e4 0246     		mov	r2, r0
 5438 01e6 0B46     		mov	r3, r1
 5439 01e8 1046     		mov	r0, r2
 5440 01ea 1946     		mov	r1, r3
 5441 01ec 1AA3     		adr	r3, .L148+24
 5442 01ee D3E90023 		ldrd	r2, [r3]
 5443 01f2 FFF7FEFF 		bl	__aeabi_dmul
 5444 01f6 0246     		mov	r2, r0
 5445 01f8 0B46     		mov	r3, r1
 5446 01fa 1046     		mov	r0, r2
 5447 01fc 1946     		mov	r1, r3
 5448 01fe 4FF00002 		mov	r2, #0
 5449 0202 4FF00003 		mov	r3, #0
 5450 0206 C4F24403 		movt	r3, 16452
 5451 020a FFF7FEFF 		bl	__aeabi_ddiv
 5452 020e 0246     		mov	r2, r0
 5453 0210 0B46     		mov	r3, r1
 5454 0212 1046     		mov	r0, r2
 5455 0214 1946     		mov	r1, r3
 5456 0216 FFF7FEFF 		bl	__aeabi_d2iz
 5457 021a 0346     		mov	r3, r0
 5458 021c 9CB2     		uxth	r4, r3
 5459 021e 0FFA89F0 		sxth	r0, r9
 5460 0222 0FFA88F1 		sxth	r1, r8
 5461 0226 32B2     		sxth	r2, r6
 5462 0228 2BB2     		sxth	r3, r5
 5463 022a 24B2     		sxth	r4, r4
 5464 022c 0094     		str	r4, [sp, #0]
 5465 022e FC8C     		ldrh	r4, [r7, #38]
 5466 0230 0194     		str	r4, [sp, #4]
 5467 0232 FFF7FEFF 		bl	TFTSHIELD_1_FillRoundRect
 434:.\main.c      ****    
 435:.\main.c      **** }
 5468              		.loc 1 435 0
 5469 0236 07F12C07 		add	r7, r7, #44
 5470 023a BD46     		mov	sp, r7
 5471 023c BDE8F083 		pop	{r4, r5, r6, r7, r8, r9, pc}
 5472              	.L149:
 5473              		.align	3
 5474              	.L148:
 5475 0240 CDCCCCCC 		.word	-858993459
 5476 0244 CCCCDC3F 		.word	1071434956
 5477 0248 CDCCCCCC 		.word	-858993459
 5478 024c CCCCEC3F 		.word	1072483532
 5479 0250 9A999999 		.word	-1717986918
 5480 0254 9999E13F 		.word	1071749529
 5481 0258 9A999999 		.word	-1717986918
 5482 025c 9999E93F 		.word	1072273817
ARM GAS  C:\Users\barror2\AppData\Local\Temp\ccQzPEXq.s 			page 105


 5483              		.cfi_endproc
 5484              	.LFE67:
 5485              		.size	DrawHEX_g, .-DrawHEX_g
 5486              		.section	.text.DrawHex,"ax",%progbits
 5487              		.align	2
 5488              		.global	DrawHex
 5489              		.thumb
 5490              		.thumb_func
 5491              		.type	DrawHex, %function
 5492              	DrawHex:
 5493              	.LFB68:
 436:.\main.c      **** 
 437:.\main.c      **** void DrawHex(int i, uint8 stat)
 438:.\main.c      **** {
 5494              		.loc 1 438 0
 5495              		.cfi_startproc
 5496              		@ args = 0, pretend = 0, frame = 32
 5497              		@ frame_needed = 1, uses_anonymous_args = 0
 5498 0000 F0B5     		push	{r4, r5, r6, r7, lr}
 5499              	.LCFI35:
 5500              		.cfi_def_cfa_offset 20
 5501              		.cfi_offset 4, -20
 5502              		.cfi_offset 5, -16
 5503              		.cfi_offset 6, -12
 5504              		.cfi_offset 7, -8
 5505              		.cfi_offset 14, -4
 5506 0002 8BB0     		sub	sp, sp, #44
 5507              	.LCFI36:
 5508              		.cfi_def_cfa_offset 64
 5509 0004 02AF     		add	r7, sp, #8
 5510              	.LCFI37:
 5511              		.cfi_def_cfa 7, 56
 5512 0006 7860     		str	r0, [r7, #4]
 5513 0008 0B46     		mov	r3, r1
 5514 000a FB70     		strb	r3, [r7, #3]
 439:.\main.c      ****    
 440:.\main.c      ****     int separation_HEX;
 441:.\main.c      ****     int outputs = HEX + LEDs;
 5515              		.loc 1 441 0
 5516 000c 4FF00503 		mov	r3, #5
 5517 0010 3B61     		str	r3, [r7, #16]
 442:.\main.c      ****     
 443:.\main.c      ****     if (outputs>0){separation_HEX = y_max/outputs;}//check for div by zero
 5518              		.loc 1 443 0
 5519 0012 3B69     		ldr	r3, [r7, #16]
 5520 0014 002B     		cmp	r3, #0
 5521 0016 06DD     		ble	.L151
 5522              		.loc 1 443 0 is_stmt 0 discriminator 1
 5523 0018 4FF4A072 		mov	r2, #320
 5524 001c 3B69     		ldr	r3, [r7, #16]
 5525 001e 92FBF3F3 		sdiv	r3, r2, r3
 5526 0022 FB61     		str	r3, [r7, #28]
 5527 0024 02E0     		b	.L152
 5528              	.L151:
 444:.\main.c      ****     else      {separation_HEX = y_max + 1;}
 5529              		.loc 1 444 0 is_stmt 1
 5530 0026 40F24113 		movw	r3, #321
ARM GAS  C:\Users\barror2\AppData\Local\Temp\ccQzPEXq.s 			page 106


 5531 002a FB61     		str	r3, [r7, #28]
 5532              	.L152:
 445:.\main.c      ****     
 446:.\main.c      ****     int width_HEX = separation_HEX/2;
 5533              		.loc 1 446 0
 5534 002c FB69     		ldr	r3, [r7, #28]
 5535 002e 4FEAD372 		lsr	r2, r3, #31
 5536 0032 D318     		adds	r3, r2, r3
 5537 0034 4FEA6303 		asr	r3, r3, #1
 5538 0038 BB61     		str	r3, [r7, #24]
 447:.\main.c      ****     int length_HEX = width_HEX*2;
 5539              		.loc 1 447 0
 5540 003a BB69     		ldr	r3, [r7, #24]
 5541 003c 4FEA4303 		lsl	r3, r3, #1
 5542 0040 7B61     		str	r3, [r7, #20]
 448:.\main.c      ****     
 449:.\main.c      ****     if (length_HEX + top_space > x_max/2.5)
 5543              		.loc 1 449 0
 5544 0042 7B69     		ldr	r3, [r7, #20]
 5545 0044 03F11903 		add	r3, r3, #25
 5546 0048 1846     		mov	r0, r3
 5547 004a FFF7FEFF 		bl	__aeabi_i2d
 5548 004e 0246     		mov	r2, r0
 5549 0050 0B46     		mov	r3, r1
 5550 0052 1046     		mov	r0, r2
 5551 0054 1946     		mov	r1, r3
 5552 0056 4FF00002 		mov	r2, #0
 5553 005a 4FF00003 		mov	r3, #0
 5554 005e C4F25803 		movt	r3, 16472
 5555 0062 FFF7FEFF 		bl	__aeabi_dcmpgt
 5556 0066 0346     		mov	r3, r0
 5557 0068 002B     		cmp	r3, #0
 5558 006a 0DD0     		beq	.L153
 5559              	.L155:
 450:.\main.c      ****     {   
 451:.\main.c      ****         length_HEX = x_max/2.5 - top_space;
 5560              		.loc 1 451 0
 5561 006c 4FF04703 		mov	r3, #71
 5562 0070 7B61     		str	r3, [r7, #20]
 452:.\main.c      ****         width_HEX = length_HEX/2;
 5563              		.loc 1 452 0
 5564 0072 7B69     		ldr	r3, [r7, #20]
 5565 0074 4FEAD372 		lsr	r2, r3, #31
 5566 0078 D318     		adds	r3, r2, r3
 5567 007a 4FEA6303 		asr	r3, r3, #1
 5568 007e BB61     		str	r3, [r7, #24]
 453:.\main.c      ****         separation_HEX = 2*width_HEX;
 5569              		.loc 1 453 0
 5570 0080 BB69     		ldr	r3, [r7, #24]
 5571 0082 4FEA4303 		lsl	r3, r3, #1
 5572 0086 FB61     		str	r3, [r7, #28]
 5573              	.L153:
 454:.\main.c      ****     }
 455:.\main.c      ****     
 456:.\main.c      ****     int empty_HEX =y_max /(outputs+1) - width_HEX/2;
 5574              		.loc 1 456 0
 5575 0088 3B69     		ldr	r3, [r7, #16]
ARM GAS  C:\Users\barror2\AppData\Local\Temp\ccQzPEXq.s 			page 107


 5576 008a 03F10103 		add	r3, r3, #1
 5577 008e 4FF4A072 		mov	r2, #320
 5578 0092 92FBF3F2 		sdiv	r2, r2, r3
 5579 0096 BB69     		ldr	r3, [r7, #24]
 5580 0098 4FEAD371 		lsr	r1, r3, #31
 5581 009c CB18     		adds	r3, r1, r3
 5582 009e 4FEA6303 		asr	r3, r3, #1
 5583 00a2 D31A     		subs	r3, r2, r3
 5584 00a4 FB60     		str	r3, [r7, #12]
 457:.\main.c      ****     int x_HEX = top_space + length_HEX/2;
 5585              		.loc 1 457 0
 5586 00a6 7B69     		ldr	r3, [r7, #20]
 5587 00a8 4FEAD372 		lsr	r2, r3, #31
 5588 00ac D318     		adds	r3, r2, r3
 5589 00ae 4FEA6303 		asr	r3, r3, #1
 5590 00b2 03F11903 		add	r3, r3, #25
 5591 00b6 BB60     		str	r3, [r7, #8]
 458:.\main.c      ****  
 459:.\main.c      ****     TFTSHIELD_1_FillRect(x_HEX, (i+1)*empty_HEX + i*width_HEX/2, length_HEX, width_HEX, GRAY);
 5592              		.loc 1 459 0
 5593 00b8 BB68     		ldr	r3, [r7, #8]
 5594 00ba 98B2     		uxth	r0, r3
 5595 00bc 7B68     		ldr	r3, [r7, #4]
 5596 00be 03F10103 		add	r3, r3, #1
 5597 00c2 9BB2     		uxth	r3, r3
 5598 00c4 FA68     		ldr	r2, [r7, #12]
 5599 00c6 92B2     		uxth	r2, r2
 5600 00c8 02FB03F3 		mul	r3, r2, r3
 5601 00cc 9AB2     		uxth	r2, r3
 5602 00ce 7B68     		ldr	r3, [r7, #4]
 5603 00d0 B969     		ldr	r1, [r7, #24]
 5604 00d2 01FB03F3 		mul	r3, r1, r3
 5605 00d6 4FEAD371 		lsr	r1, r3, #31
 5606 00da CB18     		adds	r3, r1, r3
 5607 00dc 4FEA6303 		asr	r3, r3, #1
 5608 00e0 9BB2     		uxth	r3, r3
 5609 00e2 D318     		adds	r3, r2, r3
 5610 00e4 9BB2     		uxth	r3, r3
 5611 00e6 99B2     		uxth	r1, r3
 5612 00e8 7B69     		ldr	r3, [r7, #20]
 5613 00ea 9AB2     		uxth	r2, r3
 5614 00ec BB69     		ldr	r3, [r7, #24]
 5615 00ee 9BB2     		uxth	r3, r3
 5616 00f0 00B2     		sxth	r0, r0
 5617 00f2 09B2     		sxth	r1, r1
 5618 00f4 12B2     		sxth	r2, r2
 5619 00f6 1BB2     		sxth	r3, r3
 5620 00f8 47F6EF34 		movw	r4, #31727
 5621 00fc 0094     		str	r4, [sp, #0]
 5622 00fe FFF7FEFF 		bl	TFTSHIELD_1_FillRect
 460:.\main.c      ****     TFTSHIELD_1_FillRect(x_HEX + ((.1*length_HEX)/2), (i+1)*empty_HEX + i*width_HEX/2 + .1*width_HE
 5623              		.loc 1 460 0
 5624 0102 B868     		ldr	r0, [r7, #8]
 5625 0104 FFF7FEFF 		bl	__aeabi_i2d
 5626 0108 0446     		mov	r4, r0
 5627 010a 0D46     		mov	r5, r1
 5628 010c 7869     		ldr	r0, [r7, #20]
ARM GAS  C:\Users\barror2\AppData\Local\Temp\ccQzPEXq.s 			page 108


 5629 010e FFF7FEFF 		bl	__aeabi_i2d
 5630 0112 0246     		mov	r2, r0
 5631 0114 0B46     		mov	r3, r1
 5632 0116 1046     		mov	r0, r2
 5633 0118 1946     		mov	r1, r3
 5634 011a 61A3     		adr	r3, .L156
 5635 011c D3E90023 		ldrd	r2, [r3]
 5636 0120 FFF7FEFF 		bl	__aeabi_dmul
 5637 0124 0246     		mov	r2, r0
 5638 0126 0B46     		mov	r3, r1
 5639 0128 1046     		mov	r0, r2
 5640 012a 1946     		mov	r1, r3
 5641 012c 4FF00002 		mov	r2, #0
 5642 0130 4FF08043 		mov	r3, #1073741824
 5643 0134 FFF7FEFF 		bl	__aeabi_ddiv
 5644 0138 0246     		mov	r2, r0
 5645 013a 0B46     		mov	r3, r1
 5646 013c 2046     		mov	r0, r4
 5647 013e 2946     		mov	r1, r5
 5648 0140 FFF7FEFF 		bl	__aeabi_dadd
 5649 0144 0246     		mov	r2, r0
 5650 0146 0B46     		mov	r3, r1
 5651 0148 1046     		mov	r0, r2
 5652 014a 1946     		mov	r1, r3
 5653 014c FFF7FEFF 		bl	__aeabi_d2iz
 5654 0150 0346     		mov	r3, r0
 5655 0152 9EB2     		uxth	r6, r3
 5656 0154 7B68     		ldr	r3, [r7, #4]
 5657 0156 03F10103 		add	r3, r3, #1
 5658 015a FA68     		ldr	r2, [r7, #12]
 5659 015c 02FB03F2 		mul	r2, r2, r3
 5660 0160 7B68     		ldr	r3, [r7, #4]
 5661 0162 B969     		ldr	r1, [r7, #24]
 5662 0164 01FB03F3 		mul	r3, r1, r3
 5663 0168 4FEAD371 		lsr	r1, r3, #31
 5664 016c CB18     		adds	r3, r1, r3
 5665 016e 4FEA6303 		asr	r3, r3, #1
 5666 0172 D318     		adds	r3, r2, r3
 5667 0174 1846     		mov	r0, r3
 5668 0176 FFF7FEFF 		bl	__aeabi_i2d
 5669 017a 0446     		mov	r4, r0
 5670 017c 0D46     		mov	r5, r1
 5671 017e B869     		ldr	r0, [r7, #24]
 5672 0180 FFF7FEFF 		bl	__aeabi_i2d
 5673 0184 0246     		mov	r2, r0
 5674 0186 0B46     		mov	r3, r1
 5675 0188 1046     		mov	r0, r2
 5676 018a 1946     		mov	r1, r3
 5677 018c 44A3     		adr	r3, .L156
 5678 018e D3E90023 		ldrd	r2, [r3]
 5679 0192 FFF7FEFF 		bl	__aeabi_dmul
 5680 0196 0246     		mov	r2, r0
 5681 0198 0B46     		mov	r3, r1
 5682 019a 1046     		mov	r0, r2
 5683 019c 1946     		mov	r1, r3
 5684 019e 4FF00002 		mov	r2, #0
 5685 01a2 4FF08043 		mov	r3, #1073741824
ARM GAS  C:\Users\barror2\AppData\Local\Temp\ccQzPEXq.s 			page 109


 5686 01a6 FFF7FEFF 		bl	__aeabi_ddiv
 5687 01aa 0246     		mov	r2, r0
 5688 01ac 0B46     		mov	r3, r1
 5689 01ae 2046     		mov	r0, r4
 5690 01b0 2946     		mov	r1, r5
 5691 01b2 FFF7FEFF 		bl	__aeabi_dadd
 5692 01b6 0246     		mov	r2, r0
 5693 01b8 0B46     		mov	r3, r1
 5694 01ba 1046     		mov	r0, r2
 5695 01bc 1946     		mov	r1, r3
 5696 01be FFF7FEFF 		bl	__aeabi_d2iz
 5697 01c2 0346     		mov	r3, r0
 5698 01c4 9DB2     		uxth	r5, r3
 5699 01c6 7869     		ldr	r0, [r7, #20]
 5700 01c8 FFF7FEFF 		bl	__aeabi_i2d
 5701 01cc 0246     		mov	r2, r0
 5702 01ce 0B46     		mov	r3, r1
 5703 01d0 1046     		mov	r0, r2
 5704 01d2 1946     		mov	r1, r3
 5705 01d4 34A3     		adr	r3, .L156+8
 5706 01d6 D3E90023 		ldrd	r2, [r3]
 5707 01da FFF7FEFF 		bl	__aeabi_dmul
 5708 01de 0246     		mov	r2, r0
 5709 01e0 0B46     		mov	r3, r1
 5710 01e2 1046     		mov	r0, r2
 5711 01e4 1946     		mov	r1, r3
 5712 01e6 FFF7FEFF 		bl	__aeabi_d2iz
 5713 01ea 0346     		mov	r3, r0
 5714 01ec 9CB2     		uxth	r4, r3
 5715 01ee B869     		ldr	r0, [r7, #24]
 5716 01f0 FFF7FEFF 		bl	__aeabi_i2d
 5717 01f4 0246     		mov	r2, r0
 5718 01f6 0B46     		mov	r3, r1
 5719 01f8 1046     		mov	r0, r2
 5720 01fa 1946     		mov	r1, r3
 5721 01fc 2AA3     		adr	r3, .L156+8
 5722 01fe D3E90023 		ldrd	r2, [r3]
 5723 0202 FFF7FEFF 		bl	__aeabi_dmul
 5724 0206 0246     		mov	r2, r0
 5725 0208 0B46     		mov	r3, r1
 5726 020a 1046     		mov	r0, r2
 5727 020c 1946     		mov	r1, r3
 5728 020e FFF7FEFF 		bl	__aeabi_d2iz
 5729 0212 0346     		mov	r3, r0
 5730 0214 9BB2     		uxth	r3, r3
 5731 0216 30B2     		sxth	r0, r6
 5732 0218 29B2     		sxth	r1, r5
 5733 021a 22B2     		sxth	r2, r4
 5734 021c 1BB2     		sxth	r3, r3
 5735 021e 4FF00004 		mov	r4, #0
 5736 0222 0094     		str	r4, [sp, #0]
 5737 0224 FFF7FEFF 		bl	TFTSHIELD_1_FillRect
 461:.\main.c      **** 
 462:.\main.c      ****     DrawHEX_a(i, stat&0x01);
 5738              		.loc 1 462 0
 5739 0228 FB78     		ldrb	r3, [r7, #3]
 5740 022a 03F00103 		and	r3, r3, #1
ARM GAS  C:\Users\barror2\AppData\Local\Temp\ccQzPEXq.s 			page 110


 5741 022e DBB2     		uxtb	r3, r3
 5742 0230 7868     		ldr	r0, [r7, #4]
 5743 0232 1946     		mov	r1, r3
 5744 0234 FFF7FEFF 		bl	DrawHEX_a
 463:.\main.c      ****     DrawHEX_b(i, stat&0x02);
 5745              		.loc 1 463 0
 5746 0238 FB78     		ldrb	r3, [r7, #3]
 5747 023a 03F00203 		and	r3, r3, #2
 5748 023e DBB2     		uxtb	r3, r3
 5749 0240 7868     		ldr	r0, [r7, #4]
 5750 0242 1946     		mov	r1, r3
 5751 0244 FFF7FEFF 		bl	DrawHEX_b
 464:.\main.c      ****     DrawHEX_c(i, stat&0x04);
 5752              		.loc 1 464 0
 5753 0248 FB78     		ldrb	r3, [r7, #3]
 5754 024a 03F00403 		and	r3, r3, #4
 5755 024e DBB2     		uxtb	r3, r3
 5756 0250 7868     		ldr	r0, [r7, #4]
 5757 0252 1946     		mov	r1, r3
 5758 0254 FFF7FEFF 		bl	DrawHEX_c
 465:.\main.c      ****     DrawHEX_d(i, stat&0x08);
 5759              		.loc 1 465 0
 5760 0258 FB78     		ldrb	r3, [r7, #3]
 5761 025a 03F00803 		and	r3, r3, #8
 5762 025e DBB2     		uxtb	r3, r3
 5763 0260 7868     		ldr	r0, [r7, #4]
 5764 0262 1946     		mov	r1, r3
 5765 0264 FFF7FEFF 		bl	DrawHEX_d
 466:.\main.c      ****     DrawHEX_e(i, stat&0x10);
 5766              		.loc 1 466 0
 5767 0268 FB78     		ldrb	r3, [r7, #3]
 5768 026a 03F01003 		and	r3, r3, #16
 5769 026e DBB2     		uxtb	r3, r3
 5770 0270 7868     		ldr	r0, [r7, #4]
 5771 0272 1946     		mov	r1, r3
 5772 0274 FFF7FEFF 		bl	DrawHEX_e
 467:.\main.c      ****     DrawHEX_f(i, stat&0x20);
 5773              		.loc 1 467 0
 5774 0278 FB78     		ldrb	r3, [r7, #3]
 5775 027a 03F02003 		and	r3, r3, #32
 5776 027e DBB2     		uxtb	r3, r3
 5777 0280 7868     		ldr	r0, [r7, #4]
 5778 0282 1946     		mov	r1, r3
 5779 0284 FFF7FEFF 		bl	DrawHEX_f
 468:.\main.c      ****     DrawHEX_g(i, stat&0x40);
 5780              		.loc 1 468 0
 5781 0288 FB78     		ldrb	r3, [r7, #3]
 5782 028a 03F04003 		and	r3, r3, #64
 5783 028e DBB2     		uxtb	r3, r3
 5784 0290 7868     		ldr	r0, [r7, #4]
 5785 0292 1946     		mov	r1, r3
 5786 0294 FFF7FEFF 		bl	DrawHEX_g
 469:.\main.c      ****     
 470:.\main.c      ****  }
 5787              		.loc 1 470 0
 5788 0298 07F12407 		add	r7, r7, #36
 5789 029c BD46     		mov	sp, r7
ARM GAS  C:\Users\barror2\AppData\Local\Temp\ccQzPEXq.s 			page 111


 5790 029e F0BD     		pop	{r4, r5, r6, r7, pc}
 5791              	.L157:
 5792              		.align	3
 5793              	.L156:
 5794 02a0 9A999999 		.word	-1717986918
 5795 02a4 9999B93F 		.word	1069128089
 5796 02a8 CDCCCCCC 		.word	-858993459
 5797 02ac CCCCEC3F 		.word	1072483532
 5798              		.cfi_endproc
 5799              	.LFE68:
 5800              		.size	DrawHex, .-DrawHex
 5801              		.section	.text.InputTouched,"ax",%progbits
 5802              		.align	2
 5803              		.global	InputTouched
 5804              		.thumb
 5805              		.thumb_func
 5806              		.type	InputTouched, %function
 5807              	InputTouched:
 5808              	.LFB69:
 471:.\main.c      **** int InputTouched()
 472:.\main.c      **** {   
 5809              		.loc 1 472 0
 5810              		.cfi_startproc
 5811              		@ args = 0, pretend = 0, frame = 40
 5812              		@ frame_needed = 1, uses_anonymous_args = 0
 5813 0000 80B5     		push	{r7, lr}
 5814              	.LCFI38:
 5815              		.cfi_def_cfa_offset 8
 5816              		.cfi_offset 7, -8
 5817              		.cfi_offset 14, -4
 5818 0002 8CB0     		sub	sp, sp, #48
 5819              	.LCFI39:
 5820              		.cfi_def_cfa_offset 56
 5821 0004 02AF     		add	r7, sp, #8
 5822              	.LCFI40:
 5823              		.cfi_def_cfa 7, 48
 473:.\main.c      ****     int inputs = switches + push_buttons;
 5824              		.loc 1 473 0
 5825 0006 4FF00803 		mov	r3, #8
 5826 000a 7B61     		str	r3, [r7, #20]
 474:.\main.c      ****     int separation;
 475:.\main.c      ****     
 476:.\main.c      ****     if (inputs>0){separation = y_max/inputs;} //check for div by zero
 5827              		.loc 1 476 0
 5828 000c 7B69     		ldr	r3, [r7, #20]
 5829 000e 002B     		cmp	r3, #0
 5830 0010 06DD     		ble	.L159
 5831              		.loc 1 476 0 is_stmt 0 discriminator 1
 5832 0012 4FF4A072 		mov	r2, #320
 5833 0016 7B69     		ldr	r3, [r7, #20]
 5834 0018 92FBF3F3 		sdiv	r3, r2, r3
 5835 001c 7B62     		str	r3, [r7, #36]
 5836 001e 02E0     		b	.L160
 5837              	.L159:
 477:.\main.c      ****     else         {separation = y_max + 1;}
 5838              		.loc 1 477 0 is_stmt 1
 5839 0020 40F24113 		movw	r3, #321
ARM GAS  C:\Users\barror2\AppData\Local\Temp\ccQzPEXq.s 			page 112


 5840 0024 7B62     		str	r3, [r7, #36]
 5841              	.L160:
 478:.\main.c      ****     int width = separation/2;
 5842              		.loc 1 478 0
 5843 0026 7B6A     		ldr	r3, [r7, #36]
 5844 0028 4FEAD372 		lsr	r2, r3, #31
 5845 002c D318     		adds	r3, r2, r3
 5846 002e 4FEA6303 		asr	r3, r3, #1
 5847 0032 3B62     		str	r3, [r7, #32]
 479:.\main.c      ****     int length = width*2;
 5848              		.loc 1 479 0
 5849 0034 3B6A     		ldr	r3, [r7, #32]
 5850 0036 4FEA4303 		lsl	r3, r3, #1
 5851 003a FB61     		str	r3, [r7, #28]
 480:.\main.c      ****     if (length>x_max/2.5)
 5852              		.loc 1 480 0
 5853 003c F869     		ldr	r0, [r7, #28]
 5854 003e FFF7FEFF 		bl	__aeabi_i2d
 5855 0042 0246     		mov	r2, r0
 5856 0044 0B46     		mov	r3, r1
 5857 0046 1046     		mov	r0, r2
 5858 0048 1946     		mov	r1, r3
 5859 004a 4FF00002 		mov	r2, #0
 5860 004e 4FF00003 		mov	r3, #0
 5861 0052 C4F25803 		movt	r3, 16472
 5862 0056 FFF7FEFF 		bl	__aeabi_dcmpgt
 5863 005a 0346     		mov	r3, r0
 5864 005c 002B     		cmp	r3, #0
 5865 005e 0DD0     		beq	.L161
 5866              	.L170:
 481:.\main.c      ****     {   
 482:.\main.c      ****         length = x_max/2.5;
 5867              		.loc 1 482 0
 5868 0060 4FF06003 		mov	r3, #96
 5869 0064 FB61     		str	r3, [r7, #28]
 483:.\main.c      ****         width = length/2;
 5870              		.loc 1 483 0
 5871 0066 FB69     		ldr	r3, [r7, #28]
 5872 0068 4FEAD372 		lsr	r2, r3, #31
 5873 006c D318     		adds	r3, r2, r3
 5874 006e 4FEA6303 		asr	r3, r3, #1
 5875 0072 3B62     		str	r3, [r7, #32]
 484:.\main.c      ****         separation = 2*width;
 5876              		.loc 1 484 0
 5877 0074 3B6A     		ldr	r3, [r7, #32]
 5878 0076 4FEA4303 		lsl	r3, r3, #1
 5879 007a 7B62     		str	r3, [r7, #36]
 5880              	.L161:
 485:.\main.c      ****     }
 486:.\main.c      ****     
 487:.\main.c      ****     int empty = y_max/(inputs+1) - width/2;
 5881              		.loc 1 487 0
 5882 007c 7B69     		ldr	r3, [r7, #20]
 5883 007e 03F10103 		add	r3, r3, #1
 5884 0082 4FF4A072 		mov	r2, #320
 5885 0086 92FBF3F2 		sdiv	r2, r2, r3
 5886 008a 3B6A     		ldr	r3, [r7, #32]
ARM GAS  C:\Users\barror2\AppData\Local\Temp\ccQzPEXq.s 			page 113


 5887 008c 4FEAD371 		lsr	r1, r3, #31
 5888 0090 CB18     		adds	r3, r1, r3
 5889 0092 4FEA6303 		asr	r3, r3, #1
 5890 0096 D31A     		subs	r3, r2, r3
 5891 0098 3B61     		str	r3, [r7, #16]
 488:.\main.c      ****     int x_input = x_max - 1.5*length;
 5892              		.loc 1 488 0
 5893 009a F869     		ldr	r0, [r7, #28]
 5894 009c FFF7FEFF 		bl	__aeabi_i2d
 5895 00a0 0246     		mov	r2, r0
 5896 00a2 0B46     		mov	r3, r1
 5897 00a4 1046     		mov	r0, r2
 5898 00a6 1946     		mov	r1, r3
 5899 00a8 4FF00002 		mov	r2, #0
 5900 00ac 4FF00003 		mov	r3, #0
 5901 00b0 C3F6F873 		movt	r3, 16376
 5902 00b4 FFF7FEFF 		bl	__aeabi_dmul
 5903 00b8 0246     		mov	r2, r0
 5904 00ba 0B46     		mov	r3, r1
 5905 00bc 4FF00000 		mov	r0, #0
 5906 00c0 4FF00001 		mov	r1, #0
 5907 00c4 C4F26E01 		movt	r1, 16494
 5908 00c8 FFF7FEFF 		bl	__aeabi_dsub
 5909 00cc 0246     		mov	r2, r0
 5910 00ce 0B46     		mov	r3, r1
 5911 00d0 1046     		mov	r0, r2
 5912 00d2 1946     		mov	r1, r3
 5913 00d4 FFF7FEFF 		bl	__aeabi_d2iz
 5914 00d8 0346     		mov	r3, r0
 5915 00da FB60     		str	r3, [r7, #12]
 489:.\main.c      ****     uint16_t x, y;
 490:.\main.c      ****     uint8_t z;
 491:.\main.c      ****     int i = 0;
 5916              		.loc 1 491 0
 5917 00dc 4FF00003 		mov	r3, #0
 5918 00e0 BB61     		str	r3, [r7, #24]
 492:.\main.c      ****     
 493:.\main.c      ****     Clock_1_SetDividerValue(24);
 5919              		.loc 1 493 0
 5920 00e2 4FF01700 		mov	r0, #23
 5921 00e6 4FF00101 		mov	r1, #1
 5922 00ea FFF7FEFF 		bl	Clock_1_SetDividerRegister
 494:.\main.c      ****     CyDelay(1);
 5923              		.loc 1 494 0
 5924 00ee 4FF00100 		mov	r0, #1
 5925 00f2 FFF7FEFF 		bl	CyDelay
 495:.\main.c      ****     
 496:.\main.c      ****     if(TFTSHIELD_1_Touched())
 5926              		.loc 1 496 0
 5927 00f6 FFF7FEFF 		bl	TFTSHIELD_1_Touched
 5928 00fa 0346     		mov	r3, r0
 5929 00fc 002B     		cmp	r3, #0
 5930 00fe 76D0     		beq	.L163
 497:.\main.c      ****     {
 498:.\main.c      ****          TFTSHIELD_1_ReadData(&x,&y,&z);
 5931              		.loc 1 498 0
 5932 0100 07F10A01 		add	r1, r7, #10
ARM GAS  C:\Users\barror2\AppData\Local\Temp\ccQzPEXq.s 			page 114


 5933 0104 07F10802 		add	r2, r7, #8
 5934 0108 07F10703 		add	r3, r7, #7
 5935 010c 0846     		mov	r0, r1
 5936 010e 1146     		mov	r1, r2
 5937 0110 1A46     		mov	r2, r3
 5938 0112 FFF7FEFF 		bl	TFTSHIELD_1_ReadData
 499:.\main.c      ****          x = mapCoor(x, TS_MINX, TS_MAXX, 0, 240);
 5939              		.loc 1 499 0
 5940 0116 7B89     		ldrh	r3, [r7, #10]
 5941 0118 4FF0F002 		mov	r2, #240
 5942 011c 0092     		str	r2, [sp, #0]
 5943 011e 1846     		mov	r0, r3
 5944 0120 4FF09601 		mov	r1, #150
 5945 0124 40F6D862 		movw	r2, #3800
 5946 0128 4FF00003 		mov	r3, #0
 5947 012c FFF7FEFF 		bl	mapCoor
 5948 0130 0346     		mov	r3, r0
 5949 0132 9BB2     		uxth	r3, r3
 5950 0134 7B81     		strh	r3, [r7, #10]	@ movhi
 500:.\main.c      ****          y = mapCoor(y, TS_MINY, TS_MAXY, 0, 320);
 5951              		.loc 1 500 0
 5952 0136 3B89     		ldrh	r3, [r7, #8]
 5953 0138 4FF4A072 		mov	r2, #320
 5954 013c 0092     		str	r2, [sp, #0]
 5955 013e 1846     		mov	r0, r3
 5956 0140 4FF08201 		mov	r1, #130
 5957 0144 4FF47A62 		mov	r2, #4000
 5958 0148 4FF00003 		mov	r3, #0
 5959 014c FFF7FEFF 		bl	mapCoor
 5960 0150 0346     		mov	r3, r0
 5961 0152 9BB2     		uxth	r3, r3
 5962 0154 3B81     		strh	r3, [r7, #8]	@ movhi
 501:.\main.c      ****         
 502:.\main.c      ****     if(x > x_input && x < (x_max - length/2))
 5963              		.loc 1 502 0
 5964 0156 7B89     		ldrh	r3, [r7, #10]
 5965 0158 1A46     		mov	r2, r3
 5966 015a FB68     		ldr	r3, [r7, #12]
 5967 015c 9A42     		cmp	r2, r3
 5968 015e 51DD     		ble	.L164
 5969              		.loc 1 502 0 is_stmt 0 discriminator 1
 5970 0160 7B89     		ldrh	r3, [r7, #10]
 5971 0162 1A46     		mov	r2, r3
 5972 0164 FB69     		ldr	r3, [r7, #28]
 5973 0166 4FEAD371 		lsr	r1, r3, #31
 5974 016a CB18     		adds	r3, r1, r3
 5975 016c 4FEA6303 		asr	r3, r3, #1
 5976 0170 C3F1F003 		rsb	r3, r3, #240
 5977 0174 9A42     		cmp	r2, r3
 5978 0176 45DA     		bge	.L164
 503:.\main.c      ****     {
 504:.\main.c      ****        for (i=0; i<inputs; i++)
 5979              		.loc 1 504 0 is_stmt 1
 5980 0178 4FF00003 		mov	r3, #0
 5981 017c BB61     		str	r3, [r7, #24]
 5982 017e 27E0     		b	.L165
 5983              	.L168:
ARM GAS  C:\Users\barror2\AppData\Local\Temp\ccQzPEXq.s 			page 115


 505:.\main.c      ****         {
 506:.\main.c      ****             if (y>((i+1)*empty) && y < ((i+1)*empty + (i+1)*(width/2)))
 5984              		.loc 1 506 0
 5985 0180 3B89     		ldrh	r3, [r7, #8]
 5986 0182 1A46     		mov	r2, r3
 5987 0184 BB69     		ldr	r3, [r7, #24]
 5988 0186 03F10103 		add	r3, r3, #1
 5989 018a 3969     		ldr	r1, [r7, #16]
 5990 018c 01FB03F3 		mul	r3, r1, r3
 5991 0190 9A42     		cmp	r2, r3
 5992 0192 19DD     		ble	.L166
 5993              		.loc 1 506 0 is_stmt 0 discriminator 1
 5994 0194 3B89     		ldrh	r3, [r7, #8]
 5995 0196 1A46     		mov	r2, r3
 5996 0198 3B6A     		ldr	r3, [r7, #32]
 5997 019a 4FEAD371 		lsr	r1, r3, #31
 5998 019e CB18     		adds	r3, r1, r3
 5999 01a0 4FEA6303 		asr	r3, r3, #1
 6000 01a4 1946     		mov	r1, r3
 6001 01a6 3B69     		ldr	r3, [r7, #16]
 6002 01a8 CB18     		adds	r3, r1, r3
 6003 01aa B969     		ldr	r1, [r7, #24]
 6004 01ac 01F10101 		add	r1, r1, #1
 6005 01b0 01FB03F3 		mul	r3, r1, r3
 6006 01b4 9A42     		cmp	r2, r3
 6007 01b6 07DA     		bge	.L166
 507:.\main.c      ****             { 
 508:.\main.c      ****               Clock_1_SetDividerValue(1);
 6008              		.loc 1 508 0 is_stmt 1
 6009 01b8 4FF00000 		mov	r0, #0
 6010 01bc 4FF00101 		mov	r1, #1
 6011 01c0 FFF7FEFF 		bl	Clock_1_SetDividerRegister
 509:.\main.c      ****               return i;//input i touched
 6012              		.loc 1 509 0
 6013 01c4 BB69     		ldr	r3, [r7, #24]
 6014 01c6 1EE0     		b	.L169
 6015              	.L166:
 504:.\main.c      ****        for (i=0; i<inputs; i++)
 6016              		.loc 1 504 0
 6017 01c8 BB69     		ldr	r3, [r7, #24]
 6018 01ca 03F10103 		add	r3, r3, #1
 6019 01ce BB61     		str	r3, [r7, #24]
 6020              	.L165:
 504:.\main.c      ****        for (i=0; i<inputs; i++)
 6021              		.loc 1 504 0 is_stmt 0 discriminator 1
 6022 01d0 BA69     		ldr	r2, [r7, #24]
 6023 01d2 7B69     		ldr	r3, [r7, #20]
 6024 01d4 9A42     		cmp	r2, r3
 6025 01d6 D3DB     		blt	.L168
 510:.\main.c      ****             }
 511:.\main.c      ****         }   
 512:.\main.c      ****             TFTSHIELD_1_ResetBuffer();//clears and resets FIFO buffer
 6026              		.loc 1 512 0 is_stmt 1
 6027 01d8 FFF7FEFF 		bl	TFTSHIELD_1_ResetBuffer
 513:.\main.c      ****             Clock_1_SetDividerValue(1);
 6028              		.loc 1 513 0
 6029 01dc 4FF00000 		mov	r0, #0
ARM GAS  C:\Users\barror2\AppData\Local\Temp\ccQzPEXq.s 			page 116


 6030 01e0 4FF00101 		mov	r1, #1
 6031 01e4 FFF7FEFF 		bl	Clock_1_SetDividerRegister
 514:.\main.c      ****             return -1;//nothing touched
 6032              		.loc 1 514 0
 6033 01e8 4FF0FF33 		mov	r3, #-1
 6034 01ec 0BE0     		b	.L169
 6035              	.L163:
 515:.\main.c      ****     }
 516:.\main.c      ****     }
 517:.\main.c      ****     
 518:.\main.c      ****     else 
 519:.\main.c      ****     {   
 520:.\main.c      ****         TFTSHIELD_1_ResetBuffer();
 6036              		.loc 1 520 0
 6037 01ee FFF7FEFF 		bl	TFTSHIELD_1_ResetBuffer
 521:.\main.c      ****         Clock_1_SetDividerValue(1);
 6038              		.loc 1 521 0
 6039 01f2 4FF00000 		mov	r0, #0
 6040 01f6 4FF00101 		mov	r1, #1
 6041 01fa FFF7FEFF 		bl	Clock_1_SetDividerRegister
 522:.\main.c      ****         return -1;//nothing touched
 6042              		.loc 1 522 0
 6043 01fe 4FF0FF33 		mov	r3, #-1
 6044 0202 00E0     		b	.L169
 6045              	.L164:
 6046 0204 FFE7     		b	.L158
 6047              	.L169:
 6048              	.L158:
 523:.\main.c      ****     }
 524:.\main.c      ****     
 525:.\main.c      ****     
 526:.\main.c      **** }
 6049              		.loc 1 526 0
 6050 0206 1846     		mov	r0, r3
 6051 0208 07F12807 		add	r7, r7, #40
 6052 020c BD46     		mov	sp, r7
 6053 020e 80BD     		pop	{r7, pc}
 6054              		.cfi_endproc
 6055              	.LFE69:
 6056              		.size	InputTouched, .-InputTouched
 6057              		.section	.text.TFT_INIT,"ax",%progbits
 6058              		.align	2
 6059              		.global	TFT_INIT
 6060              		.thumb
 6061              		.thumb_func
 6062              		.type	TFT_INIT, %function
 6063              	TFT_INIT:
 6064              	.LFB70:
 527:.\main.c      ****     
 528:.\main.c      **** void TFT_INIT()
 529:.\main.c      **** {
 6065              		.loc 1 529 0
 6066              		.cfi_startproc
 6067              		@ args = 0, pretend = 0, frame = 0
 6068              		@ frame_needed = 1, uses_anonymous_args = 0
 6069 0000 80B5     		push	{r7, lr}
 6070              	.LCFI41:
ARM GAS  C:\Users\barror2\AppData\Local\Temp\ccQzPEXq.s 			page 117


 6071              		.cfi_def_cfa_offset 8
 6072              		.cfi_offset 7, -8
 6073              		.cfi_offset 14, -4
 6074 0002 00AF     		add	r7, sp, #0
 6075              	.LCFI42:
 6076              		.cfi_def_cfa_register 7
 530:.\main.c      ****     CyDelay(1000);
 6077              		.loc 1 530 0
 6078 0004 4FF47A70 		mov	r0, #1000
 6079 0008 FFF7FEFF 		bl	CyDelay
 531:.\main.c      ****     Clock_1_SetDividerValue(24);
 6080              		.loc 1 531 0
 6081 000c 4FF01700 		mov	r0, #23
 6082 0010 4FF00101 		mov	r1, #1
 6083 0014 FFF7FEFF 		bl	Clock_1_SetDividerRegister
 532:.\main.c      ****     CyDelay(10);
 6084              		.loc 1 532 0
 6085 0018 4FF00A00 		mov	r0, #10
 6086 001c FFF7FEFF 		bl	CyDelay
 533:.\main.c      ****     while(!TFTSHIELD_1_StartTouch()){}
 6087              		.loc 1 533 0
 6088 0020 00BF     		nop
 6089              	.L172:
 6090              		.loc 1 533 0 is_stmt 0 discriminator 1
 6091 0022 FFF7FEFF 		bl	TFTSHIELD_1_StartTouch
 6092 0026 0346     		mov	r3, r0
 6093 0028 83F00103 		eor	r3, r3, #1
 6094 002c DBB2     		uxtb	r3, r3
 6095 002e 002B     		cmp	r3, #0
 6096 0030 F7D1     		bne	.L172
 534:.\main.c      ****     CyDelay(1000);
 6097              		.loc 1 534 0 is_stmt 1
 6098 0032 4FF47A70 		mov	r0, #1000
 6099 0036 FFF7FEFF 		bl	CyDelay
 535:.\main.c      ****     Clock_1_SetDividerValue(1);
 6100              		.loc 1 535 0
 6101 003a 4FF00000 		mov	r0, #0
 6102 003e 4FF00101 		mov	r1, #1
 6103 0042 FFF7FEFF 		bl	Clock_1_SetDividerRegister
 536:.\main.c      ****     CyDelay(10);
 6104              		.loc 1 536 0
 6105 0046 4FF00A00 		mov	r0, #10
 6106 004a FFF7FEFF 		bl	CyDelay
 537:.\main.c      ****     TFTSHIELD_1_Start();
 6107              		.loc 1 537 0
 6108 004e FFF7FEFF 		bl	TFTSHIELD_1_Start
 538:.\main.c      ****     TFTSHIELD_1_FillScreen(BLACK);
 6109              		.loc 1 538 0
 6110 0052 4FF00000 		mov	r0, #0
 6111 0056 FFF7FEFF 		bl	TFTSHIELD_1_FillScreen
 539:.\main.c      ****     TFTSHIELD_1_SetCursor(0,0);//start at 0,0 for text
 6112              		.loc 1 539 0
 6113 005a 4FF00000 		mov	r0, #0
 6114 005e 4FF00001 		mov	r1, #0
 6115 0062 FFF7FEFF 		bl	TFTSHIELD_1_SetCursor
 540:.\main.c      ****     TFTSHIELD_1_SetTextColor(WHITE);  
 6116              		.loc 1 540 0
ARM GAS  C:\Users\barror2\AppData\Local\Temp\ccQzPEXq.s 			page 118


 6117 0066 4FF6FF70 		movw	r0, #65535
 6118 006a FFF7FEFF 		bl	TFTSHIELD_1_SetTextColor
 541:.\main.c      ****     TFTSHIELD_1_SetTextSize(2);
 6119              		.loc 1 541 0
 6120 006e 4FF00200 		mov	r0, #2
 6121 0072 FFF7FEFF 		bl	TFTSHIELD_1_SetTextSize
 542:.\main.c      ****     CyDelay(10);
 6122              		.loc 1 542 0
 6123 0076 4FF00A00 		mov	r0, #10
 6124 007a FFF7FEFF 		bl	CyDelay
 543:.\main.c      ****     
 544:.\main.c      **** }
 6125              		.loc 1 544 0
 6126 007e 80BD     		pop	{r7, pc}
 6127              		.cfi_endproc
 6128              	.LFE70:
 6129              		.size	TFT_INIT, .-TFT_INIT
 6130              		.section	.text.mapCoor,"ax",%progbits
 6131              		.align	2
 6132              		.global	mapCoor
 6133              		.thumb
 6134              		.thumb_func
 6135              		.type	mapCoor, %function
 6136              	mapCoor:
 6137              	.LFB71:
 545:.\main.c      **** 
 546:.\main.c      **** long mapCoor(long x, long in_min, long in_max, long out_min, long out_max)
 547:.\main.c      **** {
 6138              		.loc 1 547 0
 6139              		.cfi_startproc
 6140              		@ args = 4, pretend = 0, frame = 16
 6141              		@ frame_needed = 1, uses_anonymous_args = 0
 6142              		@ link register save eliminated.
 6143 0000 80B4     		push	{r7}
 6144              	.LCFI43:
 6145              		.cfi_def_cfa_offset 4
 6146              		.cfi_offset 7, -4
 6147 0002 85B0     		sub	sp, sp, #20
 6148              	.LCFI44:
 6149              		.cfi_def_cfa_offset 24
 6150 0004 00AF     		add	r7, sp, #0
 6151              	.LCFI45:
 6152              		.cfi_def_cfa_register 7
 6153 0006 F860     		str	r0, [r7, #12]
 6154 0008 B960     		str	r1, [r7, #8]
 6155 000a 7A60     		str	r2, [r7, #4]
 6156 000c 3B60     		str	r3, [r7, #0]
 548:.\main.c      ****   return (x - in_min) * (out_max - out_min) / (in_max - in_min) + out_min;
 6157              		.loc 1 548 0
 6158 000e FA68     		ldr	r2, [r7, #12]
 6159 0010 BB68     		ldr	r3, [r7, #8]
 6160 0012 D31A     		subs	r3, r2, r3
 6161 0014 B969     		ldr	r1, [r7, #24]
 6162 0016 3A68     		ldr	r2, [r7, #0]
 6163 0018 8A1A     		subs	r2, r1, r2
 6164 001a 02FB03F2 		mul	r2, r2, r3
 6165 001e 7968     		ldr	r1, [r7, #4]
ARM GAS  C:\Users\barror2\AppData\Local\Temp\ccQzPEXq.s 			page 119


 6166 0020 BB68     		ldr	r3, [r7, #8]
 6167 0022 CB1A     		subs	r3, r1, r3
 6168 0024 92FBF3F2 		sdiv	r2, r2, r3
 6169 0028 3B68     		ldr	r3, [r7, #0]
 6170 002a D318     		adds	r3, r2, r3
 549:.\main.c      **** }
 6171              		.loc 1 549 0
 6172 002c 1846     		mov	r0, r3
 6173 002e 07F11407 		add	r7, r7, #20
 6174 0032 BD46     		mov	sp, r7
 6175 0034 80BC     		pop	{r7}
 6176 0036 7047     		bx	lr
 6177              		.cfi_endproc
 6178              	.LFE71:
 6179              		.size	mapCoor, .-mapCoor
 6180              		.section	.text.DrawInputs,"ax",%progbits
 6181              		.align	2
 6182              		.global	DrawInputs
 6183              		.thumb
 6184              		.thumb_func
 6185              		.type	DrawInputs, %function
 6186              	DrawInputs:
 6187              	.LFB72:
 550:.\main.c      **** 
 551:.\main.c      **** void DrawInputs()
 552:.\main.c      **** {   
 6188              		.loc 1 552 0
 6189              		.cfi_startproc
 6190              		@ args = 0, pretend = 0, frame = 40
 6191              		@ frame_needed = 1, uses_anonymous_args = 0
 6192 0000 B0B5     		push	{r4, r5, r7, lr}
 6193              	.LCFI46:
 6194              		.cfi_def_cfa_offset 16
 6195              		.cfi_offset 4, -16
 6196              		.cfi_offset 5, -12
 6197              		.cfi_offset 7, -8
 6198              		.cfi_offset 14, -4
 6199 0002 8AB0     		sub	sp, sp, #40
 6200              	.LCFI47:
 6201              		.cfi_def_cfa_offset 56
 6202 0004 00AF     		add	r7, sp, #0
 6203              	.LCFI48:
 6204              		.cfi_def_cfa_register 7
 553:.\main.c      ****     int i = 0;
 6205              		.loc 1 553 0
 6206 0006 4FF00003 		mov	r3, #0
 6207 000a 7B62     		str	r3, [r7, #36]
 554:.\main.c      ****     int SW_state[] = {-1,-1,-1,-1,-1,-1,-1,-1};
 6208              		.loc 1 554 0
 6209 000c 40F20003 		movw	r3, #:lower16:.LC0
 6210 0010 C0F20003 		movt	r3, #:upper16:.LC0
 6211 0014 07F10404 		add	r4, r7, #4
 6212 0018 1D46     		mov	r5, r3
 6213 001a 0FCD     		ldmia	r5!, {r0, r1, r2, r3}
 6214 001c 0FC4     		stmia	r4!, {r0, r1, r2, r3}
 6215 001e 95E80F00 		ldmia	r5, {r0, r1, r2, r3}
 6216 0022 84E80F00 		stmia	r4, {r0, r1, r2, r3}
ARM GAS  C:\Users\barror2\AppData\Local\Temp\ccQzPEXq.s 			page 120


 555:.\main.c      ****     
 556:.\main.c      ****     for (i=0; i<switches; i++){DrawSlideSwitch(i, SW_state[i]);}//Draw switches
 6217              		.loc 1 556 0
 6218 0026 4FF00003 		mov	r3, #0
 6219 002a 7B62     		str	r3, [r7, #36]
 6220 002c 0FE0     		b	.L176
 6221              	.L177:
 6222              		.loc 1 556 0 is_stmt 0 discriminator 2
 6223 002e 7B6A     		ldr	r3, [r7, #36]
 6224 0030 4FEA8303 		lsl	r3, r3, #2
 6225 0034 07F12802 		add	r2, r7, #40
 6226 0038 D318     		adds	r3, r2, r3
 6227 003a 53F8243C 		ldr	r3, [r3, #-36]
 6228 003e 786A     		ldr	r0, [r7, #36]
 6229 0040 1946     		mov	r1, r3
 6230 0042 FFF7FEFF 		bl	DrawSlideSwitch
 6231 0046 7B6A     		ldr	r3, [r7, #36]
 6232 0048 03F10103 		add	r3, r3, #1
 6233 004c 7B62     		str	r3, [r7, #36]
 6234              	.L176:
 6235              		.loc 1 556 0 discriminator 1
 6236 004e 7B6A     		ldr	r3, [r7, #36]
 6237 0050 032B     		cmp	r3, #3
 6238 0052 ECDD     		ble	.L177
 557:.\main.c      ****     for (i = switches ; i < (switches + push_buttons) ; i++){DrawPushbutton(i);}//Draw buttons
 6239              		.loc 1 557 0 is_stmt 1
 6240 0054 4FF00403 		mov	r3, #4
 6241 0058 7B62     		str	r3, [r7, #36]
 6242 005a 06E0     		b	.L178
 6243              	.L179:
 6244              		.loc 1 557 0 is_stmt 0 discriminator 2
 6245 005c 786A     		ldr	r0, [r7, #36]
 6246 005e FFF7FEFF 		bl	DrawPushbutton
 6247 0062 7B6A     		ldr	r3, [r7, #36]
 6248 0064 03F10103 		add	r3, r3, #1
 6249 0068 7B62     		str	r3, [r7, #36]
 6250              	.L178:
 6251              		.loc 1 557 0 discriminator 1
 6252 006a 7B6A     		ldr	r3, [r7, #36]
 6253 006c 072B     		cmp	r3, #7
 6254 006e F5DD     		ble	.L179
 558:.\main.c      **** }
 6255              		.loc 1 558 0 is_stmt 1
 6256 0070 07F12807 		add	r7, r7, #40
 6257 0074 BD46     		mov	sp, r7
 6258 0076 B0BD     		pop	{r4, r5, r7, pc}
 6259              		.cfi_endproc
 6260              	.LFE72:
 6261              		.size	DrawInputs, .-DrawInputs
 6262              		.section	.text.DrawOutputs,"ax",%progbits
 6263              		.align	2
 6264              		.global	DrawOutputs
 6265              		.thumb
 6266              		.thumb_func
 6267              		.type	DrawOutputs, %function
 6268              	DrawOutputs:
 6269              	.LFB73:
ARM GAS  C:\Users\barror2\AppData\Local\Temp\ccQzPEXq.s 			page 121


 559:.\main.c      **** 
 560:.\main.c      **** void DrawOutputs()
 561:.\main.c      **** {   
 6270              		.loc 1 561 0
 6271              		.cfi_startproc
 6272              		@ args = 0, pretend = 0, frame = 8
 6273              		@ frame_needed = 1, uses_anonymous_args = 0
 6274 0000 80B5     		push	{r7, lr}
 6275              	.LCFI49:
 6276              		.cfi_def_cfa_offset 8
 6277              		.cfi_offset 7, -8
 6278              		.cfi_offset 14, -4
 6279 0002 82B0     		sub	sp, sp, #8
 6280              	.LCFI50:
 6281              		.cfi_def_cfa_offset 16
 6282 0004 00AF     		add	r7, sp, #0
 6283              	.LCFI51:
 6284              		.cfi_def_cfa_register 7
 562:.\main.c      ****     int i = 0;
 6285              		.loc 1 562 0
 6286 0006 4FF00003 		mov	r3, #0
 6287 000a 7B60     		str	r3, [r7, #4]
 563:.\main.c      ****     uint8 HEX_state = 0x00;
 6288              		.loc 1 563 0
 6289 000c 4FF00003 		mov	r3, #0
 6290 0010 FB70     		strb	r3, [r7, #3]
 564:.\main.c      ****     
 565:.\main.c      ****     for (i = 0 ; i<HEX ; i++){DrawHex(i, HEX_state);} //Draw HEX displays
 6291              		.loc 1 565 0
 6292 0012 4FF00003 		mov	r3, #0
 6293 0016 7B60     		str	r3, [r7, #4]
 6294 0018 08E0     		b	.L181
 6295              	.L182:
 6296              		.loc 1 565 0 is_stmt 0 discriminator 2
 6297 001a FB78     		ldrb	r3, [r7, #3]	@ zero_extendqisi2
 6298 001c 7868     		ldr	r0, [r7, #4]
 6299 001e 1946     		mov	r1, r3
 6300 0020 FFF7FEFF 		bl	DrawHex
 6301 0024 7B68     		ldr	r3, [r7, #4]
 6302 0026 03F10103 		add	r3, r3, #1
 6303 002a 7B60     		str	r3, [r7, #4]
 6304              	.L181:
 6305              		.loc 1 565 0 discriminator 1
 6306 002c 7B68     		ldr	r3, [r7, #4]
 6307 002e 002B     		cmp	r3, #0
 6308 0030 F3DD     		ble	.L182
 566:.\main.c      ****     for (i=HEX; i<LEDs + HEX; i++){DrawLED(i, 0);} //Draw LEDs
 6309              		.loc 1 566 0 is_stmt 1
 6310 0032 4FF00103 		mov	r3, #1
 6311 0036 7B60     		str	r3, [r7, #4]
 6312 0038 08E0     		b	.L183
 6313              	.L184:
 6314              		.loc 1 566 0 is_stmt 0 discriminator 2
 6315 003a 7868     		ldr	r0, [r7, #4]
 6316 003c 4FF00001 		mov	r1, #0
 6317 0040 FFF7FEFF 		bl	DrawLED
 6318 0044 7B68     		ldr	r3, [r7, #4]
ARM GAS  C:\Users\barror2\AppData\Local\Temp\ccQzPEXq.s 			page 122


 6319 0046 03F10103 		add	r3, r3, #1
 6320 004a 7B60     		str	r3, [r7, #4]
 6321              	.L183:
 6322              		.loc 1 566 0 discriminator 1
 6323 004c 7B68     		ldr	r3, [r7, #4]
 6324 004e 042B     		cmp	r3, #4
 6325 0050 F3DD     		ble	.L184
 567:.\main.c      **** }...
 6326              		.loc 1 567 0 is_stmt 1
 6327 0052 07F10807 		add	r7, r7, #8
 6328 0056 BD46     		mov	sp, r7
 6329 0058 80BD     		pop	{r7, pc}
 6330              		.cfi_endproc
 6331              	.LFE73:
 6332              		.size	DrawOutputs, .-DrawOutputs
 6333 005a 00BF     		.text
 6334              	.Letext0:
 6335              		.file 2 "c:\\program files (x86)\\cypress\\psoc creator\\3.0\\psoc creator\\import\\gnu_cs\\arm\\4
 6336              		.file 3 "./Generated_Source/PSoC5/cytypes.h"
 6337              		.file 4 "./Generated_Source/PSoC5/TFTSHIELD_1.h"
 6338              		.file 5 "./Generated_Source/PSoC5/core_cm3.h"
 6339              		.section	.debug_info,"",%progbits
 6340              	.Ldebug_info0:
 6341 0000 990B0000 		.4byte	0xb99
 6342 0004 0200     		.2byte	0x2
 6343 0006 00000000 		.4byte	.Ldebug_abbrev0
 6344 000a 04       		.byte	0x4
 6345 000b 01       		.uleb128 0x1
 6346 000c E7010000 		.4byte	.LASF101
 6347 0010 01       		.byte	0x1
 6348 0011 0A040000 		.4byte	.LASF102
 6349 0015 2C030000 		.4byte	.LASF103
 6350 0019 00000000 		.4byte	.Ldebug_ranges0+0
 6351 001d 00000000 		.4byte	0
 6352 0021 00000000 		.4byte	0
 6353 0025 00000000 		.4byte	.Ldebug_line0
 6354 0029 02       		.uleb128 0x2
 6355 002a 01       		.byte	0x1
 6356 002b 06       		.byte	0x6
 6357 002c 62010000 		.4byte	.LASF0
 6358 0030 03       		.uleb128 0x3
 6359 0031 13040000 		.4byte	.LASF2
 6360 0035 02       		.byte	0x2
 6361 0036 2A       		.byte	0x2a
 6362 0037 3B000000 		.4byte	0x3b
 6363 003b 02       		.uleb128 0x2
 6364 003c 01       		.byte	0x1
 6365 003d 08       		.byte	0x8
 6366 003e 3A020000 		.4byte	.LASF1
 6367 0042 03       		.uleb128 0x3
 6368 0043 A8030000 		.4byte	.LASF3
 6369 0047 02       		.byte	0x2
 6370 0048 35       		.byte	0x35
 6371 0049 4D000000 		.4byte	0x4d
 6372 004d 02       		.uleb128 0x2
 6373 004e 02       		.byte	0x2
 6374 004f 05       		.byte	0x5
ARM GAS  C:\Users\barror2\AppData\Local\Temp\ccQzPEXq.s 			page 123


 6375 0050 39000000 		.4byte	.LASF4
 6376 0054 03       		.uleb128 0x3
 6377 0055 D3020000 		.4byte	.LASF5
 6378 0059 02       		.byte	0x2
 6379 005a 36       		.byte	0x36
 6380 005b 5F000000 		.4byte	0x5f
 6381 005f 02       		.uleb128 0x2
 6382 0060 02       		.byte	0x2
 6383 0061 07       		.byte	0x7
 6384 0062 95030000 		.4byte	.LASF6
 6385 0066 03       		.uleb128 0x3
 6386 0067 5A000000 		.4byte	.LASF7
 6387 006b 02       		.byte	0x2
 6388 006c 4F       		.byte	0x4f
 6389 006d 71000000 		.4byte	0x71
 6390 0071 02       		.uleb128 0x2
 6391 0072 04       		.byte	0x4
 6392 0073 05       		.byte	0x5
 6393 0074 A4010000 		.4byte	.LASF8
 6394 0078 02       		.uleb128 0x2
 6395 0079 04       		.byte	0x4
 6396 007a 07       		.byte	0x7
 6397 007b D5030000 		.4byte	.LASF9
 6398 007f 02       		.uleb128 0x2
 6399 0080 08       		.byte	0x8
 6400 0081 05       		.byte	0x5
 6401 0082 96010000 		.4byte	.LASF10
 6402 0086 02       		.uleb128 0x2
 6403 0087 08       		.byte	0x8
 6404 0088 07       		.byte	0x7
 6405 0089 8B020000 		.4byte	.LASF11
 6406 008d 04       		.uleb128 0x4
 6407 008e 04       		.byte	0x4
 6408 008f 05       		.byte	0x5
 6409 0090 696E7400 		.ascii	"int\000"
 6410 0094 02       		.uleb128 0x2
 6411 0095 04       		.byte	0x4
 6412 0096 07       		.byte	0x7
 6413 0097 C6020000 		.4byte	.LASF12
 6414 009b 03       		.uleb128 0x3
 6415 009c B0030000 		.4byte	.LASF13
 6416 00a0 03       		.byte	0x3
 6417 00a1 5B       		.byte	0x5b
 6418 00a2 3B000000 		.4byte	0x3b
 6419 00a6 03       		.uleb128 0x3
 6420 00a7 D6000000 		.4byte	.LASF14
 6421 00ab 03       		.byte	0x3
 6422 00ac 5C       		.byte	0x5c
 6423 00ad 5F000000 		.4byte	0x5f
 6424 00b1 02       		.uleb128 0x2
 6425 00b2 04       		.byte	0x4
 6426 00b3 04       		.byte	0x4
 6427 00b4 7D010000 		.4byte	.LASF15
 6428 00b8 02       		.uleb128 0x2
 6429 00b9 08       		.byte	0x8
 6430 00ba 04       		.byte	0x4
 6431 00bb E7030000 		.4byte	.LASF16
ARM GAS  C:\Users\barror2\AppData\Local\Temp\ccQzPEXq.s 			page 124


 6432 00bf 02       		.uleb128 0x2
 6433 00c0 01       		.byte	0x1
 6434 00c1 08       		.byte	0x8
 6435 00c2 27030000 		.4byte	.LASF17
 6436 00c6 02       		.uleb128 0x2
 6437 00c7 04       		.byte	0x4
 6438 00c8 07       		.byte	0x7
 6439 00c9 2A040000 		.4byte	.LASF18
 6440 00cd 05       		.uleb128 0x5
 6441 00ce 01       		.byte	0x1
 6442 00cf 8B000000 		.4byte	.LASF34
 6443 00d3 01       		.byte	0x1
 6444 00d4 2F       		.byte	0x2f
 6445 00d5 8D000000 		.4byte	0x8d
 6446 00d9 00000000 		.4byte	.LFB56
 6447 00dd DC020000 		.4byte	.LFE56
 6448 00e1 00000000 		.4byte	.LLST0
 6449 00e5 01       		.byte	0x1
 6450 00e6 04020000 		.4byte	0x204
 6451 00ea 06       		.uleb128 0x6
 6452 00eb 08030000 		.4byte	.LASF19
 6453 00ef 01       		.byte	0x1
 6454 00f0 32       		.byte	0x32
 6455 00f1 04020000 		.4byte	0x204
 6456 00f5 03       		.byte	0x3
 6457 00f6 91       		.byte	0x91
 6458 00f7 B07F     		.sleb128 -80
 6459 00f9 07       		.uleb128 0x7
 6460 00fa 4C000000 		.4byte	.LBB2
 6461 00fe DA020000 		.4byte	.LBE2
 6462 0102 08       		.uleb128 0x8
 6463 0103 6900     		.ascii	"i\000"
 6464 0105 01       		.byte	0x1
 6465 0106 3A       		.byte	0x3a
 6466 0107 8D000000 		.4byte	0x8d
 6467 010b 02       		.byte	0x2
 6468 010c 91       		.byte	0x91
 6469 010d 6C       		.sleb128 -20
 6470 010e 06       		.uleb128 0x6
 6471 010f FA020000 		.4byte	.LASF20
 6472 0113 01       		.byte	0x1
 6473 0114 3B       		.byte	0x3b
 6474 0115 04020000 		.4byte	0x204
 6475 0119 03       		.byte	0x3
 6476 011a 91       		.byte	0x91
 6477 011b FC7E     		.sleb128 -132
 6478 011d 06       		.uleb128 0x6
 6479 011e BC030000 		.4byte	.LASF21
 6480 0122 01       		.byte	0x1
 6481 0123 40       		.byte	0x40
 6482 0124 8D000000 		.4byte	0x8d
 6483 0128 02       		.byte	0x2
 6484 0129 91       		.byte	0x91
 6485 012a 5C       		.sleb128 -36
 6486 012b 06       		.uleb128 0x6
 6487 012c 01040000 		.4byte	.LASF22
 6488 0130 01       		.byte	0x1
ARM GAS  C:\Users\barror2\AppData\Local\Temp\ccQzPEXq.s 			page 125


 6489 0131 69       		.byte	0x69
 6490 0132 A6000000 		.4byte	0xa6
 6491 0136 02       		.byte	0x2
 6492 0137 91       		.byte	0x91
 6493 0138 54       		.sleb128 -44
 6494 0139 06       		.uleb128 0x6
 6495 013a EC020000 		.4byte	.LASF23
 6496 013e 01       		.byte	0x1
 6497 013f 6A       		.byte	0x6a
 6498 0140 A6000000 		.4byte	0xa6
 6499 0144 02       		.byte	0x2
 6500 0145 91       		.byte	0x91
 6501 0146 62       		.sleb128 -30
 6502 0147 06       		.uleb128 0x6
 6503 0148 65040000 		.4byte	.LASF24
 6504 014c 01       		.byte	0x1
 6505 014d 76       		.byte	0x76
 6506 014e A6000000 		.4byte	0xa6
 6507 0152 02       		.byte	0x2
 6508 0153 91       		.byte	0x91
 6509 0154 60       		.sleb128 -32
 6510 0155 06       		.uleb128 0x6
 6511 0156 6F020000 		.4byte	.LASF25
 6512 015a 01       		.byte	0x1
 6513 015b 77       		.byte	0x77
 6514 015c A6000000 		.4byte	0xa6
 6515 0160 02       		.byte	0x2
 6516 0161 91       		.byte	0x91
 6517 0162 50       		.sleb128 -48
 6518 0163 09       		.uleb128 0x9
 6519 0164 10010000 		.4byte	.LBB3
 6520 0168 FE010000 		.4byte	.LBE3
 6521 016c DC010000 		.4byte	0x1dc
 6522 0170 06       		.uleb128 0x6
 6523 0171 C0010000 		.4byte	.LASF26
 6524 0175 01       		.byte	0x1
 6525 0176 48       		.byte	0x48
 6526 0177 A6000000 		.4byte	0xa6
 6527 017b 02       		.byte	0x2
 6528 017c 91       		.byte	0x91
 6529 017d 5A       		.sleb128 -38
 6530 017e 06       		.uleb128 0x6
 6531 017f 1B030000 		.4byte	.LASF27
 6532 0183 01       		.byte	0x1
 6533 0184 49       		.byte	0x49
 6534 0185 A6000000 		.4byte	0xa6
 6535 0189 02       		.byte	0x2
 6536 018a 91       		.byte	0x91
 6537 018b 6A       		.sleb128 -22
 6538 018c 06       		.uleb128 0x6
 6539 018d EE030000 		.4byte	.LASF28
 6540 0191 01       		.byte	0x1
 6541 0192 4A       		.byte	0x4a
 6542 0193 A6000000 		.4byte	0xa6
 6543 0197 02       		.byte	0x2
 6544 0198 91       		.byte	0x91
 6545 0199 58       		.sleb128 -40
ARM GAS  C:\Users\barror2\AppData\Local\Temp\ccQzPEXq.s 			page 126


 6546 019a 06       		.uleb128 0x6
 6547 019b FA030000 		.4byte	.LASF29
 6548 019f 01       		.byte	0x1
 6549 01a0 4B       		.byte	0x4b
 6550 01a1 A6000000 		.4byte	0xa6
 6551 01a5 02       		.byte	0x2
 6552 01a6 91       		.byte	0x91
 6553 01a7 68       		.sleb128 -24
 6554 01a8 06       		.uleb128 0x6
 6555 01a9 CE030000 		.4byte	.LASF30
 6556 01ad 01       		.byte	0x1
 6557 01ae 4E       		.byte	0x4e
 6558 01af 14020000 		.4byte	0x214
 6559 01b3 03       		.byte	0x3
 6560 01b4 91       		.byte	0x91
 6561 01b5 FC7E     		.sleb128 -132
 6562 01b7 07       		.uleb128 0x7
 6563 01b8 38010000 		.4byte	.LBB4
 6564 01bc B8010000 		.4byte	.LBE4
 6565 01c0 08       		.uleb128 0x8
 6566 01c1 6B00     		.ascii	"k\000"
 6567 01c3 01       		.byte	0x1
 6568 01c4 54       		.byte	0x54
 6569 01c5 8D000000 		.4byte	0x8d
 6570 01c9 02       		.byte	0x2
 6571 01ca 91       		.byte	0x91
 6572 01cb 64       		.sleb128 -28
 6573 01cc 06       		.uleb128 0x6
 6574 01cd 88040000 		.4byte	.LASF31
 6575 01d1 01       		.byte	0x1
 6576 01d2 57       		.byte	0x57
 6577 01d3 A6000000 		.4byte	0xa6
 6578 01d7 02       		.byte	0x2
 6579 01d8 91       		.byte	0x91
 6580 01d9 56       		.sleb128 -42
 6581 01da 00       		.byte	0
 6582 01db 00       		.byte	0
 6583 01dc 07       		.uleb128 0x7
 6584 01dd 20020000 		.4byte	.LBB5
 6585 01e1 96020000 		.4byte	.LBE5
 6586 01e5 06       		.uleb128 0x6
 6587 01e6 73040000 		.4byte	.LASF32
 6588 01ea 01       		.byte	0x1
 6589 01eb 6F       		.byte	0x6f
 6590 01ec 9B000000 		.4byte	0x9b
 6591 01f0 02       		.byte	0x2
 6592 01f1 91       		.byte	0x91
 6593 01f2 53       		.sleb128 -45
 6594 01f3 06       		.uleb128 0x6
 6595 01f4 52010000 		.4byte	.LASF33
 6596 01f8 01       		.byte	0x1
 6597 01f9 70       		.byte	0x70
 6598 01fa 9B000000 		.4byte	0x9b
 6599 01fe 02       		.byte	0x2
 6600 01ff 91       		.byte	0x91
 6601 0200 52       		.sleb128 -46
 6602 0201 00       		.byte	0
ARM GAS  C:\Users\barror2\AppData\Local\Temp\ccQzPEXq.s 			page 127


 6603 0202 00       		.byte	0
 6604 0203 00       		.byte	0
 6605 0204 0A       		.uleb128 0xa
 6606 0205 8D000000 		.4byte	0x8d
 6607 0209 14020000 		.4byte	0x214
 6608 020d 0B       		.uleb128 0xb
 6609 020e C6000000 		.4byte	0xc6
 6610 0212 07       		.byte	0x7
 6611 0213 00       		.byte	0
 6612 0214 0A       		.uleb128 0xa
 6613 0215 BF000000 		.4byte	0xbf
 6614 0219 24020000 		.4byte	0x224
 6615 021d 0B       		.uleb128 0xb
 6616 021e C6000000 		.4byte	0xc6
 6617 0222 31       		.byte	0x31
 6618 0223 00       		.byte	0
 6619 0224 0C       		.uleb128 0xc
 6620 0225 01       		.byte	0x1
 6621 0226 1B040000 		.4byte	.LASF35
 6622 022a 01       		.byte	0x1
 6623 022b 80       		.byte	0x80
 6624 022c 01       		.byte	0x1
 6625 022d 00000000 		.4byte	.LFB57
 6626 0231 C0010000 		.4byte	.LFE57
 6627 0235 3A000000 		.4byte	.LLST1
 6628 0239 01       		.byte	0x1
 6629 023a C9020000 		.4byte	0x2c9
 6630 023e 0D       		.uleb128 0xd
 6631 023f 6900     		.ascii	"i\000"
 6632 0241 01       		.byte	0x1
 6633 0242 80       		.byte	0x80
 6634 0243 8D000000 		.4byte	0x8d
 6635 0247 02       		.byte	0x2
 6636 0248 91       		.byte	0x91
 6637 0249 44       		.sleb128 -60
 6638 024a 06       		.uleb128 0x6
 6639 024b 43000000 		.4byte	.LASF36
 6640 024f 01       		.byte	0x1
 6641 0250 82       		.byte	0x82
 6642 0251 8D000000 		.4byte	0x8d
 6643 0255 02       		.byte	0x2
 6644 0256 91       		.byte	0x91
 6645 0257 6C       		.sleb128 -20
 6646 0258 06       		.uleb128 0x6
 6647 0259 E5020000 		.4byte	.LASF37
 6648 025d 01       		.byte	0x1
 6649 025e 83       		.byte	0x83
 6650 025f 8D000000 		.4byte	0x8d
 6651 0263 02       		.byte	0x2
 6652 0264 91       		.byte	0x91
 6653 0265 60       		.sleb128 -32
 6654 0266 06       		.uleb128 0x6
 6655 0267 51000000 		.4byte	.LASF38
 6656 026b 01       		.byte	0x1
 6657 026c 88       		.byte	0x88
 6658 026d 8D000000 		.4byte	0x8d
 6659 0271 02       		.byte	0x2
ARM GAS  C:\Users\barror2\AppData\Local\Temp\ccQzPEXq.s 			page 128


 6660 0272 91       		.byte	0x91
 6661 0273 68       		.sleb128 -24
 6662 0274 06       		.uleb128 0x6
 6663 0275 30020000 		.4byte	.LASF39
 6664 0279 01       		.byte	0x1
 6665 027a 89       		.byte	0x89
 6666 027b 8D000000 		.4byte	0x8d
 6667 027f 02       		.byte	0x2
 6668 0280 91       		.byte	0x91
 6669 0281 64       		.sleb128 -28
 6670 0282 06       		.uleb128 0x6
 6671 0283 DE010000 		.4byte	.LASF40
 6672 0287 01       		.byte	0x1
 6673 0288 92       		.byte	0x92
 6674 0289 8D000000 		.4byte	0x8d
 6675 028d 02       		.byte	0x2
 6676 028e 91       		.byte	0x91
 6677 028f 5C       		.sleb128 -36
 6678 0290 06       		.uleb128 0x6
 6679 0291 46040000 		.4byte	.LASF41
 6680 0295 01       		.byte	0x1
 6681 0296 94       		.byte	0x94
 6682 0297 8D000000 		.4byte	0x8d
 6683 029b 02       		.byte	0x2
 6684 029c 91       		.byte	0x91
 6685 029d 58       		.sleb128 -40
 6686 029e 06       		.uleb128 0x6
 6687 029f EC000000 		.4byte	.LASF42
 6688 02a3 01       		.byte	0x1
 6689 02a4 98       		.byte	0x98
 6690 02a5 8D000000 		.4byte	0x8d
 6691 02a9 02       		.byte	0x2
 6692 02aa 91       		.byte	0x91
 6693 02ab 54       		.sleb128 -44
 6694 02ac 06       		.uleb128 0x6
 6695 02ad A2020000 		.4byte	.LASF43
 6696 02b1 01       		.byte	0x1
 6697 02b2 99       		.byte	0x99
 6698 02b3 8D000000 		.4byte	0x8d
 6699 02b7 02       		.byte	0x2
 6700 02b8 91       		.byte	0x91
 6701 02b9 50       		.sleb128 -48
 6702 02ba 06       		.uleb128 0x6
 6703 02bb F8000000 		.4byte	.LASF44
 6704 02bf 01       		.byte	0x1
 6705 02c0 9A       		.byte	0x9a
 6706 02c1 8D000000 		.4byte	0x8d
 6707 02c5 02       		.byte	0x2
 6708 02c6 91       		.byte	0x91
 6709 02c7 4C       		.sleb128 -52
 6710 02c8 00       		.byte	0
 6711 02c9 0E       		.uleb128 0xe
 6712 02ca 01       		.byte	0x1
 6713 02cb 50040000 		.4byte	.LASF82
 6714 02cf 01       		.byte	0x1
 6715 02d0 9D       		.byte	0x9d
 6716 02d1 00000000 		.4byte	.LFB58
ARM GAS  C:\Users\barror2\AppData\Local\Temp\ccQzPEXq.s 			page 129


 6717 02d5 34000000 		.4byte	.LFE58
 6718 02d9 74000000 		.4byte	.LLST2
 6719 02dd 01       		.byte	0x1
 6720 02de 0C       		.uleb128 0xc
 6721 02df 01       		.byte	0x1
 6722 02e0 B6020000 		.4byte	.LASF45
 6723 02e4 01       		.byte	0x1
 6724 02e5 A3       		.byte	0xa3
 6725 02e6 01       		.byte	0x1
 6726 02e7 00000000 		.4byte	.LFB59
 6727 02eb 4A170000 		.4byte	.LFE59
 6728 02ef A0000000 		.4byte	.LLST3
 6729 02f3 01       		.byte	0x1
 6730 02f4 99030000 		.4byte	0x399
 6731 02f8 0D       		.uleb128 0xd
 6732 02f9 6900     		.ascii	"i\000"
 6733 02fb 01       		.byte	0x1
 6734 02fc A3       		.byte	0xa3
 6735 02fd 8D000000 		.4byte	0x8d
 6736 0301 03       		.byte	0x3
 6737 0302 91       		.byte	0x91
 6738 0303 BC7F     		.sleb128 -68
 6739 0305 0F       		.uleb128 0xf
 6740 0306 23000000 		.4byte	.LASF46
 6741 030a 01       		.byte	0x1
 6742 030b A3       		.byte	0xa3
 6743 030c 8D000000 		.4byte	0x8d
 6744 0310 03       		.byte	0x3
 6745 0311 91       		.byte	0x91
 6746 0312 B87F     		.sleb128 -72
 6747 0314 06       		.uleb128 0x6
 6748 0315 C8000000 		.4byte	.LASF47
 6749 0319 01       		.byte	0x1
 6750 031a A6       		.byte	0xa6
 6751 031b 8D000000 		.4byte	0x8d
 6752 031f 02       		.byte	0x2
 6753 0320 91       		.byte	0x91
 6754 0321 5C       		.sleb128 -36
 6755 0322 06       		.uleb128 0x6
 6756 0323 E5020000 		.4byte	.LASF37
 6757 0327 01       		.byte	0x1
 6758 0328 A7       		.byte	0xa7
 6759 0329 8D000000 		.4byte	0x8d
 6760 032d 02       		.byte	0x2
 6761 032e 91       		.byte	0x91
 6762 032f 48       		.sleb128 -56
 6763 0330 06       		.uleb128 0x6
 6764 0331 00000000 		.4byte	.LASF48
 6765 0335 01       		.byte	0x1
 6766 0336 AC       		.byte	0xac
 6767 0337 8D000000 		.4byte	0x8d
 6768 033b 02       		.byte	0x2
 6769 033c 91       		.byte	0x91
 6770 033d 58       		.sleb128 -40
 6771 033e 06       		.uleb128 0x6
 6772 033f 8C010000 		.4byte	.LASF49
 6773 0343 01       		.byte	0x1
ARM GAS  C:\Users\barror2\AppData\Local\Temp\ccQzPEXq.s 			page 130


 6774 0344 AD       		.byte	0xad
 6775 0345 8D000000 		.4byte	0x8d
 6776 0349 02       		.byte	0x2
 6777 034a 91       		.byte	0x91
 6778 034b 54       		.sleb128 -44
 6779 034c 06       		.uleb128 0x6
 6780 034d 74010000 		.4byte	.LASF50
 6781 0351 01       		.byte	0x1
 6782 0352 B5       		.byte	0xb5
 6783 0353 8D000000 		.4byte	0x8d
 6784 0357 02       		.byte	0x2
 6785 0358 91       		.byte	0x91
 6786 0359 44       		.sleb128 -60
 6787 035a 06       		.uleb128 0x6
 6788 035b F5030000 		.4byte	.LASF51
 6789 035f 01       		.byte	0x1
 6790 0360 B6       		.byte	0xb6
 6791 0361 8D000000 		.4byte	0x8d
 6792 0365 02       		.byte	0x2
 6793 0366 91       		.byte	0x91
 6794 0367 40       		.sleb128 -64
 6795 0368 09       		.uleb128 0x9
 6796 0369 42010000 		.4byte	.LBB6
 6797 036d FC0B0000 		.4byte	.LBE6
 6798 0371 82030000 		.4byte	0x382
 6799 0375 08       		.uleb128 0x8
 6800 0376 6B00     		.ascii	"k\000"
 6801 0378 01       		.byte	0x1
 6802 0379 BC       		.byte	0xbc
 6803 037a 8D000000 		.4byte	0x8d
 6804 037e 02       		.byte	0x2
 6805 037f 91       		.byte	0x91
 6806 0380 50       		.sleb128 -48
 6807 0381 00       		.byte	0
 6808 0382 07       		.uleb128 0x7
 6809 0383 060C0000 		.4byte	.LBB7
 6810 0387 40170000 		.4byte	.LBE7
 6811 038b 08       		.uleb128 0x8
 6812 038c 6B00     		.ascii	"k\000"
 6813 038e 01       		.byte	0x1
 6814 038f CD       		.byte	0xcd
 6815 0390 8D000000 		.4byte	0x8d
 6816 0394 02       		.byte	0x2
 6817 0395 91       		.byte	0x91
 6818 0396 4C       		.sleb128 -52
 6819 0397 00       		.byte	0
 6820 0398 00       		.byte	0
 6821 0399 0C       		.uleb128 0xc
 6822 039a 01       		.byte	0x1
 6823 039b 33040000 		.4byte	.LASF52
 6824 039f 01       		.byte	0x1
 6825 03a0 E0       		.byte	0xe0
 6826 03a1 01       		.byte	0x1
 6827 03a2 00000000 		.4byte	.LFB60
 6828 03a6 68010000 		.4byte	.LFE60
 6829 03aa DA000000 		.4byte	.LLST4
 6830 03ae 01       		.byte	0x1
ARM GAS  C:\Users\barror2\AppData\Local\Temp\ccQzPEXq.s 			page 131


 6831 03af 4C040000 		.4byte	0x44c
 6832 03b3 0D       		.uleb128 0xd
 6833 03b4 6900     		.ascii	"i\000"
 6834 03b6 01       		.byte	0x1
 6835 03b7 E0       		.byte	0xe0
 6836 03b8 8D000000 		.4byte	0x8d
 6837 03bc 02       		.byte	0x2
 6838 03bd 91       		.byte	0x91
 6839 03be 4C       		.sleb128 -52
 6840 03bf 0F       		.uleb128 0xf
 6841 03c0 23000000 		.4byte	.LASF46
 6842 03c4 01       		.byte	0x1
 6843 03c5 E0       		.byte	0xe0
 6844 03c6 8D000000 		.4byte	0x8d
 6845 03ca 02       		.byte	0x2
 6846 03cb 91       		.byte	0x91
 6847 03cc 48       		.sleb128 -56
 6848 03cd 06       		.uleb128 0x6
 6849 03ce 09000000 		.4byte	.LASF53
 6850 03d2 01       		.byte	0x1
 6851 03d3 E2       		.byte	0xe2
 6852 03d4 A6000000 		.4byte	0xa6
 6853 03d8 02       		.byte	0x2
 6854 03d9 91       		.byte	0x91
 6855 03da 76       		.sleb128 -10
 6856 03db 06       		.uleb128 0x6
 6857 03dc 4F020000 		.4byte	.LASF54
 6858 03e0 01       		.byte	0x1
 6859 03e1 E7       		.byte	0xe7
 6860 03e2 8D000000 		.4byte	0x8d
 6861 03e6 02       		.byte	0x2
 6862 03e7 91       		.byte	0x91
 6863 03e8 68       		.sleb128 -24
 6864 03e9 06       		.uleb128 0x6
 6865 03ea 60020000 		.4byte	.LASF55
 6866 03ee 01       		.byte	0x1
 6867 03ef E8       		.byte	0xe8
 6868 03f0 8D000000 		.4byte	0x8d
 6869 03f4 02       		.byte	0x2
 6870 03f5 91       		.byte	0x91
 6871 03f6 70       		.sleb128 -16
 6872 03f7 06       		.uleb128 0x6
 6873 03f8 57020000 		.4byte	.LASF56
 6874 03fc 01       		.byte	0x1
 6875 03fd ED       		.byte	0xed
 6876 03fe 8D000000 		.4byte	0x8d
 6877 0402 02       		.byte	0x2
 6878 0403 91       		.byte	0x91
 6879 0404 6C       		.sleb128 -20
 6880 0405 06       		.uleb128 0x6
 6881 0406 11030000 		.4byte	.LASF57
 6882 040a 01       		.byte	0x1
 6883 040b F1       		.byte	0xf1
 6884 040c 8D000000 		.4byte	0x8d
 6885 0410 02       		.byte	0x2
 6886 0411 91       		.byte	0x91
 6887 0412 64       		.sleb128 -28
ARM GAS  C:\Users\barror2\AppData\Local\Temp\ccQzPEXq.s 			page 132


 6888 0413 06       		.uleb128 0x6
 6889 0414 72000000 		.4byte	.LASF58
 6890 0418 01       		.byte	0x1
 6891 0419 F2       		.byte	0xf2
 6892 041a 8D000000 		.4byte	0x8d
 6893 041e 02       		.byte	0x2
 6894 041f 91       		.byte	0x91
 6895 0420 60       		.sleb128 -32
 6896 0421 06       		.uleb128 0x6
 6897 0422 9A000000 		.4byte	.LASF59
 6898 0426 01       		.byte	0x1
 6899 0427 F3       		.byte	0xf3
 6900 0428 8D000000 		.4byte	0x8d
 6901 042c 02       		.byte	0x2
 6902 042d 91       		.byte	0x91
 6903 042e 5C       		.sleb128 -36
 6904 042f 06       		.uleb128 0x6
 6905 0430 3B040000 		.4byte	.LASF60
 6906 0434 01       		.byte	0x1
 6907 0435 F4       		.byte	0xf4
 6908 0436 8D000000 		.4byte	0x8d
 6909 043a 02       		.byte	0x2
 6910 043b 91       		.byte	0x91
 6911 043c 58       		.sleb128 -40
 6912 043d 06       		.uleb128 0x6
 6913 043e A7000000 		.4byte	.LASF61
 6914 0442 01       		.byte	0x1
 6915 0443 F5       		.byte	0xf5
 6916 0444 8D000000 		.4byte	0x8d
 6917 0448 02       		.byte	0x2
 6918 0449 91       		.byte	0x91
 6919 044a 54       		.sleb128 -44
 6920 044b 00       		.byte	0
 6921 044c 0C       		.uleb128 0xc
 6922 044d 01       		.byte	0x1
 6923 044e 04010000 		.4byte	.LASF62
 6924 0452 01       		.byte	0x1
 6925 0453 F9       		.byte	0xf9
 6926 0454 01       		.byte	0x1
 6927 0455 00000000 		.4byte	.LFB61
 6928 0459 80020000 		.4byte	.LFE61
 6929 045d 12010000 		.4byte	.LLST5
 6930 0461 01       		.byte	0x1
 6931 0462 E9040000 		.4byte	0x4e9
 6932 0466 0D       		.uleb128 0xd
 6933 0467 6900     		.ascii	"i\000"
 6934 0469 01       		.byte	0x1
 6935 046a F9       		.byte	0xf9
 6936 046b 8D000000 		.4byte	0x8d
 6937 046f 03       		.byte	0x3
 6938 0470 91       		.byte	0x91
 6939 0471 BC7F     		.sleb128 -68
 6940 0473 0F       		.uleb128 0xf
 6941 0474 23000000 		.4byte	.LASF46
 6942 0478 01       		.byte	0x1
 6943 0479 F9       		.byte	0xf9
 6944 047a 9B000000 		.4byte	0x9b
ARM GAS  C:\Users\barror2\AppData\Local\Temp\ccQzPEXq.s 			page 133


 6945 047e 03       		.byte	0x3
 6946 047f 91       		.byte	0x91
 6947 0480 BB7F     		.sleb128 -69
 6948 0482 06       		.uleb128 0x6
 6949 0483 09000000 		.4byte	.LASF53
 6950 0487 01       		.byte	0x1
 6951 0488 FB       		.byte	0xfb
 6952 0489 A6000000 		.4byte	0xa6
 6953 048d 02       		.byte	0x2
 6954 048e 91       		.byte	0x91
 6955 048f 5E       		.sleb128 -34
 6956 0490 06       		.uleb128 0x6
 6957 0491 DD000000 		.4byte	.LASF63
 6958 0495 01       		.byte	0x1
 6959 0496 FC       		.byte	0xfc
 6960 0497 8D000000 		.4byte	0x8d
 6961 049b 02       		.byte	0x2
 6962 049c 91       		.byte	0x91
 6963 049d 58       		.sleb128 -40
 6964 049e 06       		.uleb128 0x6
 6965 049f 4F020000 		.4byte	.LASF54
 6966 04a3 01       		.byte	0x1
 6967 04a4 FD       		.byte	0xfd
 6968 04a5 8D000000 		.4byte	0x8d
 6969 04a9 02       		.byte	0x2
 6970 04aa 91       		.byte	0x91
 6971 04ab 4C       		.sleb128 -52
 6972 04ac 10       		.uleb128 0x10
 6973 04ad D4010000 		.4byte	.LASF64
 6974 04b1 01       		.byte	0x1
 6975 04b2 0201     		.2byte	0x102
 6976 04b4 8D000000 		.4byte	0x8d
 6977 04b8 02       		.byte	0x2
 6978 04b9 91       		.byte	0x91
 6979 04ba 54       		.sleb128 -44
 6980 04bb 10       		.uleb128 0x10
 6981 04bc 8A030000 		.4byte	.LASF65
 6982 04c0 01       		.byte	0x1
 6983 04c1 0301     		.2byte	0x103
 6984 04c3 8D000000 		.4byte	0x8d
 6985 04c7 02       		.byte	0x2
 6986 04c8 91       		.byte	0x91
 6987 04c9 50       		.sleb128 -48
 6988 04ca 10       		.uleb128 0x10
 6989 04cb 90000000 		.4byte	.LASF66
 6990 04cf 01       		.byte	0x1
 6991 04d0 0B01     		.2byte	0x10b
 6992 04d2 8D000000 		.4byte	0x8d
 6993 04d6 02       		.byte	0x2
 6994 04d7 91       		.byte	0x91
 6995 04d8 48       		.sleb128 -56
 6996 04d9 10       		.uleb128 0x10
 6997 04da B6030000 		.4byte	.LASF67
 6998 04de 01       		.byte	0x1
 6999 04df 0C01     		.2byte	0x10c
 7000 04e1 8D000000 		.4byte	0x8d
 7001 04e5 02       		.byte	0x2
ARM GAS  C:\Users\barror2\AppData\Local\Temp\ccQzPEXq.s 			page 134


 7002 04e6 91       		.byte	0x91
 7003 04e7 44       		.sleb128 -60
 7004 04e8 00       		.byte	0
 7005 04e9 11       		.uleb128 0x11
 7006 04ea 01       		.byte	0x1
 7007 04eb 0E010000 		.4byte	.LASF68
 7008 04ef 01       		.byte	0x1
 7009 04f0 1301     		.2byte	0x113
 7010 04f2 01       		.byte	0x1
 7011 04f3 00000000 		.4byte	.LFB62
 7012 04f7 E8020000 		.4byte	.LFE62
 7013 04fb 4C010000 		.4byte	.LLST6
 7014 04ff 01       		.byte	0x1
 7015 0500 8C050000 		.4byte	0x58c
 7016 0504 12       		.uleb128 0x12
 7017 0505 6900     		.ascii	"i\000"
 7018 0507 01       		.byte	0x1
 7019 0508 1301     		.2byte	0x113
 7020 050a 8D000000 		.4byte	0x8d
 7021 050e 03       		.byte	0x3
 7022 050f 91       		.byte	0x91
 7023 0510 BC7F     		.sleb128 -68
 7024 0512 13       		.uleb128 0x13
 7025 0513 23000000 		.4byte	.LASF46
 7026 0517 01       		.byte	0x1
 7027 0518 1301     		.2byte	0x113
 7028 051a 9B000000 		.4byte	0x9b
 7029 051e 03       		.byte	0x3
 7030 051f 91       		.byte	0x91
 7031 0520 BB7F     		.sleb128 -69
 7032 0522 10       		.uleb128 0x10
 7033 0523 09000000 		.4byte	.LASF53
 7034 0527 01       		.byte	0x1
 7035 0528 1501     		.2byte	0x115
 7036 052a A6000000 		.4byte	0xa6
 7037 052e 02       		.byte	0x2
 7038 052f 91       		.byte	0x91
 7039 0530 5E       		.sleb128 -34
 7040 0531 10       		.uleb128 0x10
 7041 0532 DD000000 		.4byte	.LASF63
 7042 0536 01       		.byte	0x1
 7043 0537 1601     		.2byte	0x116
 7044 0539 8D000000 		.4byte	0x8d
 7045 053d 02       		.byte	0x2
 7046 053e 91       		.byte	0x91
 7047 053f 58       		.sleb128 -40
 7048 0540 10       		.uleb128 0x10
 7049 0541 4F020000 		.4byte	.LASF54
 7050 0545 01       		.byte	0x1
 7051 0546 1701     		.2byte	0x117
 7052 0548 8D000000 		.4byte	0x8d
 7053 054c 02       		.byte	0x2
 7054 054d 91       		.byte	0x91
 7055 054e 4C       		.sleb128 -52
 7056 054f 10       		.uleb128 0x10
 7057 0550 D4010000 		.4byte	.LASF64
 7058 0554 01       		.byte	0x1
ARM GAS  C:\Users\barror2\AppData\Local\Temp\ccQzPEXq.s 			page 135


 7059 0555 1C01     		.2byte	0x11c
 7060 0557 8D000000 		.4byte	0x8d
 7061 055b 02       		.byte	0x2
 7062 055c 91       		.byte	0x91
 7063 055d 54       		.sleb128 -44
 7064 055e 10       		.uleb128 0x10
 7065 055f 8A030000 		.4byte	.LASF65
 7066 0563 01       		.byte	0x1
 7067 0564 1D01     		.2byte	0x11d
 7068 0566 8D000000 		.4byte	0x8d
 7069 056a 02       		.byte	0x2
 7070 056b 91       		.byte	0x91
 7071 056c 50       		.sleb128 -48
 7072 056d 10       		.uleb128 0x10
 7073 056e 90000000 		.4byte	.LASF66
 7074 0572 01       		.byte	0x1
 7075 0573 2501     		.2byte	0x125
 7076 0575 8D000000 		.4byte	0x8d
 7077 0579 02       		.byte	0x2
 7078 057a 91       		.byte	0x91
 7079 057b 48       		.sleb128 -56
 7080 057c 10       		.uleb128 0x10
 7081 057d B6030000 		.4byte	.LASF67
 7082 0581 01       		.byte	0x1
 7083 0582 2601     		.2byte	0x126
 7084 0584 8D000000 		.4byte	0x8d
 7085 0588 02       		.byte	0x2
 7086 0589 91       		.byte	0x91
 7087 058a 44       		.sleb128 -60
 7088 058b 00       		.byte	0
 7089 058c 11       		.uleb128 0x11
 7090 058d 01       		.byte	0x1
 7091 058e 18010000 		.4byte	.LASF69
 7092 0592 01       		.byte	0x1
 7093 0593 2D01     		.2byte	0x12d
 7094 0595 01       		.byte	0x1
 7095 0596 00000000 		.4byte	.LFB63
 7096 059a 18030000 		.4byte	.LFE63
 7097 059e 86010000 		.4byte	.LLST7
 7098 05a2 01       		.byte	0x1
 7099 05a3 2F060000 		.4byte	0x62f
 7100 05a7 12       		.uleb128 0x12
 7101 05a8 6900     		.ascii	"i\000"
 7102 05aa 01       		.byte	0x1
 7103 05ab 2D01     		.2byte	0x12d
 7104 05ad 8D000000 		.4byte	0x8d
 7105 05b1 03       		.byte	0x3
 7106 05b2 91       		.byte	0x91
 7107 05b3 BC7F     		.sleb128 -68
 7108 05b5 13       		.uleb128 0x13
 7109 05b6 23000000 		.4byte	.LASF46
 7110 05ba 01       		.byte	0x1
 7111 05bb 2D01     		.2byte	0x12d
 7112 05bd 9B000000 		.4byte	0x9b
 7113 05c1 03       		.byte	0x3
 7114 05c2 91       		.byte	0x91
 7115 05c3 BB7F     		.sleb128 -69
ARM GAS  C:\Users\barror2\AppData\Local\Temp\ccQzPEXq.s 			page 136


 7116 05c5 10       		.uleb128 0x10
 7117 05c6 09000000 		.4byte	.LASF53
 7118 05ca 01       		.byte	0x1
 7119 05cb 2F01     		.2byte	0x12f
 7120 05cd A6000000 		.4byte	0xa6
 7121 05d1 02       		.byte	0x2
 7122 05d2 91       		.byte	0x91
 7123 05d3 5E       		.sleb128 -34
 7124 05d4 10       		.uleb128 0x10
 7125 05d5 DD000000 		.4byte	.LASF63
 7126 05d9 01       		.byte	0x1
 7127 05da 3001     		.2byte	0x130
 7128 05dc 8D000000 		.4byte	0x8d
 7129 05e0 02       		.byte	0x2
 7130 05e1 91       		.byte	0x91
 7131 05e2 58       		.sleb128 -40
 7132 05e3 10       		.uleb128 0x10
 7133 05e4 4F020000 		.4byte	.LASF54
 7134 05e8 01       		.byte	0x1
 7135 05e9 3101     		.2byte	0x131
 7136 05eb 8D000000 		.4byte	0x8d
 7137 05ef 02       		.byte	0x2
 7138 05f0 91       		.byte	0x91
 7139 05f1 4C       		.sleb128 -52
 7140 05f2 10       		.uleb128 0x10
 7141 05f3 D4010000 		.4byte	.LASF64
 7142 05f7 01       		.byte	0x1
 7143 05f8 3601     		.2byte	0x136
 7144 05fa 8D000000 		.4byte	0x8d
 7145 05fe 02       		.byte	0x2
 7146 05ff 91       		.byte	0x91
 7147 0600 54       		.sleb128 -44
 7148 0601 10       		.uleb128 0x10
 7149 0602 8A030000 		.4byte	.LASF65
 7150 0606 01       		.byte	0x1
 7151 0607 3701     		.2byte	0x137
 7152 0609 8D000000 		.4byte	0x8d
 7153 060d 02       		.byte	0x2
 7154 060e 91       		.byte	0x91
 7155 060f 50       		.sleb128 -48
 7156 0610 10       		.uleb128 0x10
 7157 0611 90000000 		.4byte	.LASF66
 7158 0615 01       		.byte	0x1
 7159 0616 3F01     		.2byte	0x13f
 7160 0618 8D000000 		.4byte	0x8d
 7161 061c 02       		.byte	0x2
 7162 061d 91       		.byte	0x91
 7163 061e 48       		.sleb128 -56
 7164 061f 10       		.uleb128 0x10
 7165 0620 B6030000 		.4byte	.LASF67
 7166 0624 01       		.byte	0x1
 7167 0625 4001     		.2byte	0x140
 7168 0627 8D000000 		.4byte	0x8d
 7169 062b 02       		.byte	0x2
 7170 062c 91       		.byte	0x91
 7171 062d 44       		.sleb128 -60
 7172 062e 00       		.byte	0
ARM GAS  C:\Users\barror2\AppData\Local\Temp\ccQzPEXq.s 			page 137


 7173 062f 11       		.uleb128 0x11
 7174 0630 01       		.byte	0x1
 7175 0631 22010000 		.4byte	.LASF70
 7176 0635 01       		.byte	0x1
 7177 0636 4801     		.2byte	0x148
 7178 0638 01       		.byte	0x1
 7179 0639 00000000 		.4byte	.LFB64
 7180 063d B8020000 		.4byte	.LFE64
 7181 0641 C0010000 		.4byte	.LLST8
 7182 0645 01       		.byte	0x1
 7183 0646 D2060000 		.4byte	0x6d2
 7184 064a 12       		.uleb128 0x12
 7185 064b 6900     		.ascii	"i\000"
 7186 064d 01       		.byte	0x1
 7187 064e 4801     		.2byte	0x148
 7188 0650 8D000000 		.4byte	0x8d
 7189 0654 03       		.byte	0x3
 7190 0655 91       		.byte	0x91
 7191 0656 BC7F     		.sleb128 -68
 7192 0658 13       		.uleb128 0x13
 7193 0659 23000000 		.4byte	.LASF46
 7194 065d 01       		.byte	0x1
 7195 065e 4801     		.2byte	0x148
 7196 0660 9B000000 		.4byte	0x9b
 7197 0664 03       		.byte	0x3
 7198 0665 91       		.byte	0x91
 7199 0666 BB7F     		.sleb128 -69
 7200 0668 10       		.uleb128 0x10
 7201 0669 09000000 		.4byte	.LASF53
 7202 066d 01       		.byte	0x1
 7203 066e 4A01     		.2byte	0x14a
 7204 0670 A6000000 		.4byte	0xa6
 7205 0674 02       		.byte	0x2
 7206 0675 91       		.byte	0x91
 7207 0676 5E       		.sleb128 -34
 7208 0677 10       		.uleb128 0x10
 7209 0678 DD000000 		.4byte	.LASF63
 7210 067c 01       		.byte	0x1
 7211 067d 4B01     		.2byte	0x14b
 7212 067f 8D000000 		.4byte	0x8d
 7213 0683 02       		.byte	0x2
 7214 0684 91       		.byte	0x91
 7215 0685 58       		.sleb128 -40
 7216 0686 10       		.uleb128 0x10
 7217 0687 4F020000 		.4byte	.LASF54
 7218 068b 01       		.byte	0x1
 7219 068c 4C01     		.2byte	0x14c
 7220 068e 8D000000 		.4byte	0x8d
 7221 0692 02       		.byte	0x2
 7222 0693 91       		.byte	0x91
 7223 0694 4C       		.sleb128 -52
 7224 0695 10       		.uleb128 0x10
 7225 0696 D4010000 		.4byte	.LASF64
 7226 069a 01       		.byte	0x1
 7227 069b 5101     		.2byte	0x151
 7228 069d 8D000000 		.4byte	0x8d
 7229 06a1 02       		.byte	0x2
ARM GAS  C:\Users\barror2\AppData\Local\Temp\ccQzPEXq.s 			page 138


 7230 06a2 91       		.byte	0x91
 7231 06a3 54       		.sleb128 -44
 7232 06a4 10       		.uleb128 0x10
 7233 06a5 8A030000 		.4byte	.LASF65
 7234 06a9 01       		.byte	0x1
 7235 06aa 5201     		.2byte	0x152
 7236 06ac 8D000000 		.4byte	0x8d
 7237 06b0 02       		.byte	0x2
 7238 06b1 91       		.byte	0x91
 7239 06b2 50       		.sleb128 -48
 7240 06b3 10       		.uleb128 0x10
 7241 06b4 90000000 		.4byte	.LASF66
 7242 06b8 01       		.byte	0x1
 7243 06b9 5A01     		.2byte	0x15a
 7244 06bb 8D000000 		.4byte	0x8d
 7245 06bf 02       		.byte	0x2
 7246 06c0 91       		.byte	0x91
 7247 06c1 48       		.sleb128 -56
 7248 06c2 10       		.uleb128 0x10
 7249 06c3 B6030000 		.4byte	.LASF67
 7250 06c7 01       		.byte	0x1
 7251 06c8 5B01     		.2byte	0x15b
 7252 06ca 8D000000 		.4byte	0x8d
 7253 06ce 02       		.byte	0x2
 7254 06cf 91       		.byte	0x91
 7255 06d0 44       		.sleb128 -60
 7256 06d1 00       		.byte	0
 7257 06d2 11       		.uleb128 0x11
 7258 06d3 01       		.byte	0x1
 7259 06d4 2C010000 		.4byte	.LASF71
 7260 06d8 01       		.byte	0x1
 7261 06d9 6301     		.2byte	0x163
 7262 06db 01       		.byte	0x1
 7263 06dc 00000000 		.4byte	.LFB65
 7264 06e0 88030000 		.4byte	.LFE65
 7265 06e4 FA010000 		.4byte	.LLST9
 7266 06e8 01       		.byte	0x1
 7267 06e9 75070000 		.4byte	0x775
 7268 06ed 12       		.uleb128 0x12
 7269 06ee 6900     		.ascii	"i\000"
 7270 06f0 01       		.byte	0x1
 7271 06f1 6301     		.2byte	0x163
 7272 06f3 8D000000 		.4byte	0x8d
 7273 06f7 03       		.byte	0x3
 7274 06f8 91       		.byte	0x91
 7275 06f9 BC7F     		.sleb128 -68
 7276 06fb 13       		.uleb128 0x13
 7277 06fc 23000000 		.4byte	.LASF46
 7278 0700 01       		.byte	0x1
 7279 0701 6301     		.2byte	0x163
 7280 0703 9B000000 		.4byte	0x9b
 7281 0707 03       		.byte	0x3
 7282 0708 91       		.byte	0x91
 7283 0709 BB7F     		.sleb128 -69
 7284 070b 10       		.uleb128 0x10
 7285 070c 09000000 		.4byte	.LASF53
 7286 0710 01       		.byte	0x1
ARM GAS  C:\Users\barror2\AppData\Local\Temp\ccQzPEXq.s 			page 139


 7287 0711 6601     		.2byte	0x166
 7288 0713 A6000000 		.4byte	0xa6
 7289 0717 02       		.byte	0x2
 7290 0718 91       		.byte	0x91
 7291 0719 5E       		.sleb128 -34
 7292 071a 10       		.uleb128 0x10
 7293 071b DD000000 		.4byte	.LASF63
 7294 071f 01       		.byte	0x1
 7295 0720 6701     		.2byte	0x167
 7296 0722 8D000000 		.4byte	0x8d
 7297 0726 02       		.byte	0x2
 7298 0727 91       		.byte	0x91
 7299 0728 58       		.sleb128 -40
 7300 0729 10       		.uleb128 0x10
 7301 072a 4F020000 		.4byte	.LASF54
 7302 072e 01       		.byte	0x1
 7303 072f 6801     		.2byte	0x168
 7304 0731 8D000000 		.4byte	0x8d
 7305 0735 02       		.byte	0x2
 7306 0736 91       		.byte	0x91
 7307 0737 4C       		.sleb128 -52
 7308 0738 10       		.uleb128 0x10
 7309 0739 D4010000 		.4byte	.LASF64
 7310 073d 01       		.byte	0x1
 7311 073e 6D01     		.2byte	0x16d
 7312 0740 8D000000 		.4byte	0x8d
 7313 0744 02       		.byte	0x2
 7314 0745 91       		.byte	0x91
 7315 0746 54       		.sleb128 -44
 7316 0747 10       		.uleb128 0x10
 7317 0748 8A030000 		.4byte	.LASF65
 7318 074c 01       		.byte	0x1
 7319 074d 6E01     		.2byte	0x16e
 7320 074f 8D000000 		.4byte	0x8d
 7321 0753 02       		.byte	0x2
 7322 0754 91       		.byte	0x91
 7323 0755 50       		.sleb128 -48
 7324 0756 10       		.uleb128 0x10
 7325 0757 90000000 		.4byte	.LASF66
 7326 075b 01       		.byte	0x1
 7327 075c 7601     		.2byte	0x176
 7328 075e 8D000000 		.4byte	0x8d
 7329 0762 02       		.byte	0x2
 7330 0763 91       		.byte	0x91
 7331 0764 48       		.sleb128 -56
 7332 0765 10       		.uleb128 0x10
 7333 0766 B6030000 		.4byte	.LASF67
 7334 076a 01       		.byte	0x1
 7335 076b 7701     		.2byte	0x177
 7336 076d 8D000000 		.4byte	0x8d
 7337 0771 02       		.byte	0x2
 7338 0772 91       		.byte	0x91
 7339 0773 44       		.sleb128 -60
 7340 0774 00       		.byte	0
 7341 0775 11       		.uleb128 0x11
 7342 0776 01       		.byte	0x1
 7343 0777 36010000 		.4byte	.LASF72
ARM GAS  C:\Users\barror2\AppData\Local\Temp\ccQzPEXq.s 			page 140


 7344 077b 01       		.byte	0x1
 7345 077c 7E01     		.2byte	0x17e
 7346 077e 01       		.byte	0x1
 7347 077f 00000000 		.4byte	.LFB66
 7348 0783 58030000 		.4byte	.LFE66
 7349 0787 34020000 		.4byte	.LLST10
 7350 078b 01       		.byte	0x1
 7351 078c 18080000 		.4byte	0x818
 7352 0790 12       		.uleb128 0x12
 7353 0791 6900     		.ascii	"i\000"
 7354 0793 01       		.byte	0x1
 7355 0794 7E01     		.2byte	0x17e
 7356 0796 8D000000 		.4byte	0x8d
 7357 079a 03       		.byte	0x3
 7358 079b 91       		.byte	0x91
 7359 079c BC7F     		.sleb128 -68
 7360 079e 13       		.uleb128 0x13
 7361 079f 23000000 		.4byte	.LASF46
 7362 07a3 01       		.byte	0x1
 7363 07a4 7E01     		.2byte	0x17e
 7364 07a6 9B000000 		.4byte	0x9b
 7365 07aa 03       		.byte	0x3
 7366 07ab 91       		.byte	0x91
 7367 07ac BB7F     		.sleb128 -69
 7368 07ae 10       		.uleb128 0x10
 7369 07af 09000000 		.4byte	.LASF53
 7370 07b3 01       		.byte	0x1
 7371 07b4 8001     		.2byte	0x180
 7372 07b6 A6000000 		.4byte	0xa6
 7373 07ba 02       		.byte	0x2
 7374 07bb 91       		.byte	0x91
 7375 07bc 5E       		.sleb128 -34
 7376 07bd 10       		.uleb128 0x10
 7377 07be DD000000 		.4byte	.LASF63
 7378 07c2 01       		.byte	0x1
 7379 07c3 8101     		.2byte	0x181
 7380 07c5 8D000000 		.4byte	0x8d
 7381 07c9 02       		.byte	0x2
 7382 07ca 91       		.byte	0x91
 7383 07cb 58       		.sleb128 -40
 7384 07cc 10       		.uleb128 0x10
 7385 07cd 4F020000 		.4byte	.LASF54
 7386 07d1 01       		.byte	0x1
 7387 07d2 8201     		.2byte	0x182
 7388 07d4 8D000000 		.4byte	0x8d
 7389 07d8 02       		.byte	0x2
 7390 07d9 91       		.byte	0x91
 7391 07da 4C       		.sleb128 -52
 7392 07db 10       		.uleb128 0x10
 7393 07dc D4010000 		.4byte	.LASF64
 7394 07e0 01       		.byte	0x1
 7395 07e1 8701     		.2byte	0x187
 7396 07e3 8D000000 		.4byte	0x8d
 7397 07e7 02       		.byte	0x2
 7398 07e8 91       		.byte	0x91
 7399 07e9 54       		.sleb128 -44
 7400 07ea 10       		.uleb128 0x10
ARM GAS  C:\Users\barror2\AppData\Local\Temp\ccQzPEXq.s 			page 141


 7401 07eb 8A030000 		.4byte	.LASF65
 7402 07ef 01       		.byte	0x1
 7403 07f0 8801     		.2byte	0x188
 7404 07f2 8D000000 		.4byte	0x8d
 7405 07f6 02       		.byte	0x2
 7406 07f7 91       		.byte	0x91
 7407 07f8 50       		.sleb128 -48
 7408 07f9 10       		.uleb128 0x10
 7409 07fa 90000000 		.4byte	.LASF66
 7410 07fe 01       		.byte	0x1
 7411 07ff 9001     		.2byte	0x190
 7412 0801 8D000000 		.4byte	0x8d
 7413 0805 02       		.byte	0x2
 7414 0806 91       		.byte	0x91
 7415 0807 48       		.sleb128 -56
 7416 0808 10       		.uleb128 0x10
 7417 0809 B6030000 		.4byte	.LASF67
 7418 080d 01       		.byte	0x1
 7419 080e 9101     		.2byte	0x191
 7420 0810 8D000000 		.4byte	0x8d
 7421 0814 02       		.byte	0x2
 7422 0815 91       		.byte	0x91
 7423 0816 44       		.sleb128 -60
 7424 0817 00       		.byte	0
 7425 0818 11       		.uleb128 0x11
 7426 0819 01       		.byte	0x1
 7427 081a 40010000 		.4byte	.LASF73
 7428 081e 01       		.byte	0x1
 7429 081f 9801     		.2byte	0x198
 7430 0821 01       		.byte	0x1
 7431 0822 00000000 		.4byte	.LFB67
 7432 0826 60020000 		.4byte	.LFE67
 7433 082a 6E020000 		.4byte	.LLST11
 7434 082e 01       		.byte	0x1
 7435 082f BB080000 		.4byte	0x8bb
 7436 0833 12       		.uleb128 0x12
 7437 0834 6900     		.ascii	"i\000"
 7438 0836 01       		.byte	0x1
 7439 0837 9801     		.2byte	0x198
 7440 0839 8D000000 		.4byte	0x8d
 7441 083d 03       		.byte	0x3
 7442 083e 91       		.byte	0x91
 7443 083f BC7F     		.sleb128 -68
 7444 0841 13       		.uleb128 0x13
 7445 0842 23000000 		.4byte	.LASF46
 7446 0846 01       		.byte	0x1
 7447 0847 9801     		.2byte	0x198
 7448 0849 9B000000 		.4byte	0x9b
 7449 084d 03       		.byte	0x3
 7450 084e 91       		.byte	0x91
 7451 084f BB7F     		.sleb128 -69
 7452 0851 10       		.uleb128 0x10
 7453 0852 09000000 		.4byte	.LASF53
 7454 0856 01       		.byte	0x1
 7455 0857 9B01     		.2byte	0x19b
 7456 0859 A6000000 		.4byte	0xa6
 7457 085d 02       		.byte	0x2
ARM GAS  C:\Users\barror2\AppData\Local\Temp\ccQzPEXq.s 			page 142


 7458 085e 91       		.byte	0x91
 7459 085f 5E       		.sleb128 -34
 7460 0860 10       		.uleb128 0x10
 7461 0861 DD000000 		.4byte	.LASF63
 7462 0865 01       		.byte	0x1
 7463 0866 9C01     		.2byte	0x19c
 7464 0868 8D000000 		.4byte	0x8d
 7465 086c 02       		.byte	0x2
 7466 086d 91       		.byte	0x91
 7467 086e 58       		.sleb128 -40
 7468 086f 10       		.uleb128 0x10
 7469 0870 4F020000 		.4byte	.LASF54
 7470 0874 01       		.byte	0x1
 7471 0875 9D01     		.2byte	0x19d
 7472 0877 8D000000 		.4byte	0x8d
 7473 087b 02       		.byte	0x2
 7474 087c 91       		.byte	0x91
 7475 087d 4C       		.sleb128 -52
 7476 087e 10       		.uleb128 0x10
 7477 087f D4010000 		.4byte	.LASF64
 7478 0883 01       		.byte	0x1
 7479 0884 A201     		.2byte	0x1a2
 7480 0886 8D000000 		.4byte	0x8d
 7481 088a 02       		.byte	0x2
 7482 088b 91       		.byte	0x91
 7483 088c 54       		.sleb128 -44
 7484 088d 10       		.uleb128 0x10
 7485 088e 8A030000 		.4byte	.LASF65
 7486 0892 01       		.byte	0x1
 7487 0893 A301     		.2byte	0x1a3
 7488 0895 8D000000 		.4byte	0x8d
 7489 0899 02       		.byte	0x2
 7490 089a 91       		.byte	0x91
 7491 089b 50       		.sleb128 -48
 7492 089c 10       		.uleb128 0x10
 7493 089d 90000000 		.4byte	.LASF66
 7494 08a1 01       		.byte	0x1
 7495 08a2 AB01     		.2byte	0x1ab
 7496 08a4 8D000000 		.4byte	0x8d
 7497 08a8 02       		.byte	0x2
 7498 08a9 91       		.byte	0x91
 7499 08aa 48       		.sleb128 -56
 7500 08ab 10       		.uleb128 0x10
 7501 08ac B6030000 		.4byte	.LASF67
 7502 08b0 01       		.byte	0x1
 7503 08b1 AC01     		.2byte	0x1ac
 7504 08b3 8D000000 		.4byte	0x8d
 7505 08b7 02       		.byte	0x2
 7506 08b8 91       		.byte	0x91
 7507 08b9 44       		.sleb128 -60
 7508 08ba 00       		.byte	0
 7509 08bb 11       		.uleb128 0x11
 7510 08bc 01       		.byte	0x1
 7511 08bd 29000000 		.4byte	.LASF74
 7512 08c1 01       		.byte	0x1
 7513 08c2 B501     		.2byte	0x1b5
 7514 08c4 01       		.byte	0x1
ARM GAS  C:\Users\barror2\AppData\Local\Temp\ccQzPEXq.s 			page 143


 7515 08c5 00000000 		.4byte	.LFB68
 7516 08c9 B0020000 		.4byte	.LFE68
 7517 08cd A8020000 		.4byte	.LLST12
 7518 08d1 01       		.byte	0x1
 7519 08d2 4D090000 		.4byte	0x94d
 7520 08d6 12       		.uleb128 0x12
 7521 08d7 6900     		.ascii	"i\000"
 7522 08d9 01       		.byte	0x1
 7523 08da B501     		.2byte	0x1b5
 7524 08dc 8D000000 		.4byte	0x8d
 7525 08e0 02       		.byte	0x2
 7526 08e1 91       		.byte	0x91
 7527 08e2 4C       		.sleb128 -52
 7528 08e3 13       		.uleb128 0x13
 7529 08e4 4B040000 		.4byte	.LASF75
 7530 08e8 01       		.byte	0x1
 7531 08e9 B501     		.2byte	0x1b5
 7532 08eb 9B000000 		.4byte	0x9b
 7533 08ef 02       		.byte	0x2
 7534 08f0 91       		.byte	0x91
 7535 08f1 4B       		.sleb128 -53
 7536 08f2 10       		.uleb128 0x10
 7537 08f3 DD000000 		.4byte	.LASF63
 7538 08f7 01       		.byte	0x1
 7539 08f8 B801     		.2byte	0x1b8
 7540 08fa 8D000000 		.4byte	0x8d
 7541 08fe 02       		.byte	0x2
 7542 08ff 91       		.byte	0x91
 7543 0900 64       		.sleb128 -28
 7544 0901 10       		.uleb128 0x10
 7545 0902 4F020000 		.4byte	.LASF54
 7546 0906 01       		.byte	0x1
 7547 0907 B901     		.2byte	0x1b9
 7548 0909 8D000000 		.4byte	0x8d
 7549 090d 02       		.byte	0x2
 7550 090e 91       		.byte	0x91
 7551 090f 58       		.sleb128 -40
 7552 0910 10       		.uleb128 0x10
 7553 0911 D4010000 		.4byte	.LASF64
 7554 0915 01       		.byte	0x1
 7555 0916 BE01     		.2byte	0x1be
 7556 0918 8D000000 		.4byte	0x8d
 7557 091c 02       		.byte	0x2
 7558 091d 91       		.byte	0x91
 7559 091e 60       		.sleb128 -32
 7560 091f 10       		.uleb128 0x10
 7561 0920 8A030000 		.4byte	.LASF65
 7562 0924 01       		.byte	0x1
 7563 0925 BF01     		.2byte	0x1bf
 7564 0927 8D000000 		.4byte	0x8d
 7565 092b 02       		.byte	0x2
 7566 092c 91       		.byte	0x91
 7567 092d 5C       		.sleb128 -36
 7568 092e 10       		.uleb128 0x10
 7569 092f 90000000 		.4byte	.LASF66
 7570 0933 01       		.byte	0x1
 7571 0934 C801     		.2byte	0x1c8
ARM GAS  C:\Users\barror2\AppData\Local\Temp\ccQzPEXq.s 			page 144


 7572 0936 8D000000 		.4byte	0x8d
 7573 093a 02       		.byte	0x2
 7574 093b 91       		.byte	0x91
 7575 093c 54       		.sleb128 -44
 7576 093d 10       		.uleb128 0x10
 7577 093e B6030000 		.4byte	.LASF67
 7578 0942 01       		.byte	0x1
 7579 0943 C901     		.2byte	0x1c9
 7580 0945 8D000000 		.4byte	0x8d
 7581 0949 02       		.byte	0x2
 7582 094a 91       		.byte	0x91
 7583 094b 50       		.sleb128 -48
 7584 094c 00       		.byte	0
 7585 094d 14       		.uleb128 0x14
 7586 094e 01       		.byte	0x1
 7587 094f 0F000000 		.4byte	.LASF76
 7588 0953 01       		.byte	0x1
 7589 0954 D701     		.2byte	0x1d7
 7590 0956 8D000000 		.4byte	0x8d
 7591 095a 00000000 		.4byte	.LFB69
 7592 095e 10020000 		.4byte	.LFE69
 7593 0962 E1020000 		.4byte	.LLST13
 7594 0966 01       		.byte	0x1
 7595 0967 FA090000 		.4byte	0x9fa
 7596 096b 10       		.uleb128 0x10
 7597 096c E5020000 		.4byte	.LASF37
 7598 0970 01       		.byte	0x1
 7599 0971 D901     		.2byte	0x1d9
 7600 0973 8D000000 		.4byte	0x8d
 7601 0977 02       		.byte	0x2
 7602 0978 91       		.byte	0x91
 7603 0979 64       		.sleb128 -28
 7604 097a 10       		.uleb128 0x10
 7605 097b B5010000 		.4byte	.LASF77
 7606 097f 01       		.byte	0x1
 7607 0980 DA01     		.2byte	0x1da
 7608 0982 8D000000 		.4byte	0x8d
 7609 0986 02       		.byte	0x2
 7610 0987 91       		.byte	0x91
 7611 0988 74       		.sleb128 -12
 7612 0989 10       		.uleb128 0x10
 7613 098a 6E010000 		.4byte	.LASF78
 7614 098e 01       		.byte	0x1
 7615 098f DE01     		.2byte	0x1de
 7616 0991 8D000000 		.4byte	0x8d
 7617 0995 02       		.byte	0x2
 7618 0996 91       		.byte	0x91
 7619 0997 70       		.sleb128 -16
 7620 0998 10       		.uleb128 0x10
 7621 0999 6B000000 		.4byte	.LASF79
 7622 099d 01       		.byte	0x1
 7623 099e DF01     		.2byte	0x1df
 7624 09a0 8D000000 		.4byte	0x8d
 7625 09a4 02       		.byte	0x2
 7626 09a5 91       		.byte	0x91
 7627 09a6 6C       		.sleb128 -20
 7628 09a7 10       		.uleb128 0x10
ARM GAS  C:\Users\barror2\AppData\Local\Temp\ccQzPEXq.s 			page 145


 7629 09a8 B9000000 		.4byte	.LASF80
 7630 09ac 01       		.byte	0x1
 7631 09ad E701     		.2byte	0x1e7
 7632 09af 8D000000 		.4byte	0x8d
 7633 09b3 02       		.byte	0x2
 7634 09b4 91       		.byte	0x91
 7635 09b5 60       		.sleb128 -32
 7636 09b6 10       		.uleb128 0x10
 7637 09b7 83020000 		.4byte	.LASF81
 7638 09bb 01       		.byte	0x1
 7639 09bc E801     		.2byte	0x1e8
 7640 09be 8D000000 		.4byte	0x8d
 7641 09c2 02       		.byte	0x2
 7642 09c3 91       		.byte	0x91
 7643 09c4 5C       		.sleb128 -36
 7644 09c5 15       		.uleb128 0x15
 7645 09c6 7800     		.ascii	"x\000"
 7646 09c8 01       		.byte	0x1
 7647 09c9 E901     		.2byte	0x1e9
 7648 09cb 54000000 		.4byte	0x54
 7649 09cf 02       		.byte	0x2
 7650 09d0 91       		.byte	0x91
 7651 09d1 5A       		.sleb128 -38
 7652 09d2 15       		.uleb128 0x15
 7653 09d3 7900     		.ascii	"y\000"
 7654 09d5 01       		.byte	0x1
 7655 09d6 E901     		.2byte	0x1e9
 7656 09d8 54000000 		.4byte	0x54
 7657 09dc 02       		.byte	0x2
 7658 09dd 91       		.byte	0x91
 7659 09de 58       		.sleb128 -40
 7660 09df 15       		.uleb128 0x15
 7661 09e0 7A00     		.ascii	"z\000"
 7662 09e2 01       		.byte	0x1
 7663 09e3 EA01     		.2byte	0x1ea
 7664 09e5 30000000 		.4byte	0x30
 7665 09e9 02       		.byte	0x2
 7666 09ea 91       		.byte	0x91
 7667 09eb 57       		.sleb128 -41
 7668 09ec 15       		.uleb128 0x15
 7669 09ed 6900     		.ascii	"i\000"
 7670 09ef 01       		.byte	0x1
 7671 09f0 EB01     		.2byte	0x1eb
 7672 09f2 8D000000 		.4byte	0x8d
 7673 09f6 02       		.byte	0x2
 7674 09f7 91       		.byte	0x91
 7675 09f8 68       		.sleb128 -24
 7676 09f9 00       		.byte	0
 7677 09fa 16       		.uleb128 0x16
 7678 09fb 01       		.byte	0x1
 7679 09fc 7F040000 		.4byte	.LASF83
 7680 0a00 01       		.byte	0x1
 7681 0a01 1002     		.2byte	0x210
 7682 0a03 00000000 		.4byte	.LFB70
 7683 0a07 80000000 		.4byte	.LFE70
 7684 0a0b 19030000 		.4byte	.LLST14
 7685 0a0f 01       		.byte	0x1
ARM GAS  C:\Users\barror2\AppData\Local\Temp\ccQzPEXq.s 			page 146


 7686 0a10 17       		.uleb128 0x17
 7687 0a11 01       		.byte	0x1
 7688 0a12 AD010000 		.4byte	.LASF104
 7689 0a16 01       		.byte	0x1
 7690 0a17 2202     		.2byte	0x222
 7691 0a19 01       		.byte	0x1
 7692 0a1a 71000000 		.4byte	0x71
 7693 0a1e 00000000 		.4byte	.LFB71
 7694 0a22 38000000 		.4byte	.LFE71
 7695 0a26 45030000 		.4byte	.LLST15
 7696 0a2a 01       		.byte	0x1
 7697 0a2b 790A0000 		.4byte	0xa79
 7698 0a2f 12       		.uleb128 0x12
 7699 0a30 7800     		.ascii	"x\000"
 7700 0a32 01       		.byte	0x1
 7701 0a33 2202     		.2byte	0x222
 7702 0a35 71000000 		.4byte	0x71
 7703 0a39 02       		.byte	0x2
 7704 0a3a 91       		.byte	0x91
 7705 0a3b 74       		.sleb128 -12
 7706 0a3c 13       		.uleb128 0x13
 7707 0a3d 84000000 		.4byte	.LASF84
 7708 0a41 01       		.byte	0x1
 7709 0a42 2202     		.2byte	0x222
 7710 0a44 71000000 		.4byte	0x71
 7711 0a48 02       		.byte	0x2
 7712 0a49 91       		.byte	0x91
 7713 0a4a 70       		.sleb128 -16
 7714 0a4b 13       		.uleb128 0x13
 7715 0a4c 1C000000 		.4byte	.LASF85
 7716 0a50 01       		.byte	0x1
 7717 0a51 2202     		.2byte	0x222
 7718 0a53 71000000 		.4byte	0x71
 7719 0a57 02       		.byte	0x2
 7720 0a58 91       		.byte	0x91
 7721 0a59 6C       		.sleb128 -20
 7722 0a5a 13       		.uleb128 0x13
 7723 0a5b 31000000 		.4byte	.LASF86
 7724 0a5f 01       		.byte	0x1
 7725 0a60 2202     		.2byte	0x222
 7726 0a62 71000000 		.4byte	0x71
 7727 0a66 02       		.byte	0x2
 7728 0a67 91       		.byte	0x91
 7729 0a68 68       		.sleb128 -24
 7730 0a69 13       		.uleb128 0x13
 7731 0a6a 8D040000 		.4byte	.LASF87
 7732 0a6e 01       		.byte	0x1
 7733 0a6f 2202     		.2byte	0x222
 7734 0a71 71000000 		.4byte	0x71
 7735 0a75 02       		.byte	0x2
 7736 0a76 91       		.byte	0x91
 7737 0a77 00       		.sleb128 0
 7738 0a78 00       		.byte	0
 7739 0a79 18       		.uleb128 0x18
 7740 0a7a 01       		.byte	0x1
 7741 0a7b 78020000 		.4byte	.LASF88
 7742 0a7f 01       		.byte	0x1
ARM GAS  C:\Users\barror2\AppData\Local\Temp\ccQzPEXq.s 			page 147


 7743 0a80 2702     		.2byte	0x227
 7744 0a82 00000000 		.4byte	.LFB72
 7745 0a86 78000000 		.4byte	.LFE72
 7746 0a8a 7D030000 		.4byte	.LLST16
 7747 0a8e 01       		.byte	0x1
 7748 0a8f B00A0000 		.4byte	0xab0
 7749 0a93 15       		.uleb128 0x15
 7750 0a94 6900     		.ascii	"i\000"
 7751 0a96 01       		.byte	0x1
 7752 0a97 2902     		.2byte	0x229
 7753 0a99 8D000000 		.4byte	0x8d
 7754 0a9d 02       		.byte	0x2
 7755 0a9e 91       		.byte	0x91
 7756 0a9f 6C       		.sleb128 -20
 7757 0aa0 10       		.uleb128 0x10
 7758 0aa1 08030000 		.4byte	.LASF19
 7759 0aa5 01       		.byte	0x1
 7760 0aa6 2A02     		.2byte	0x22a
 7761 0aa8 04020000 		.4byte	0x204
 7762 0aac 02       		.byte	0x2
 7763 0aad 91       		.byte	0x91
 7764 0aae 4C       		.sleb128 -52
 7765 0aaf 00       		.byte	0
 7766 0ab0 18       		.uleb128 0x18
 7767 0ab1 01       		.byte	0x1
 7768 0ab2 C8010000 		.4byte	.LASF89
 7769 0ab6 01       		.byte	0x1
 7770 0ab7 3002     		.2byte	0x230
 7771 0ab9 00000000 		.4byte	.LFB73
 7772 0abd 5A000000 		.4byte	.LFE73
 7773 0ac1 B5030000 		.4byte	.LLST17
 7774 0ac5 01       		.byte	0x1
 7775 0ac6 E70A0000 		.4byte	0xae7
 7776 0aca 15       		.uleb128 0x15
 7777 0acb 6900     		.ascii	"i\000"
 7778 0acd 01       		.byte	0x1
 7779 0ace 3202     		.2byte	0x232
 7780 0ad0 8D000000 		.4byte	0x8d
 7781 0ad4 02       		.byte	0x2
 7782 0ad5 91       		.byte	0x91
 7783 0ad6 74       		.sleb128 -12
 7784 0ad7 10       		.uleb128 0x10
 7785 0ad8 AC020000 		.4byte	.LASF90
 7786 0adc 01       		.byte	0x1
 7787 0add 3302     		.2byte	0x233
 7788 0adf 9B000000 		.4byte	0x9b
 7789 0ae3 02       		.byte	0x2
 7790 0ae4 91       		.byte	0x91
 7791 0ae5 73       		.sleb128 -13
 7792 0ae6 00       		.byte	0
 7793 0ae7 19       		.uleb128 0x19
 7794 0ae8 BF000000 		.4byte	.LASF91
 7795 0aec 04       		.byte	0x4
 7796 0aed 6D       		.byte	0x6d
 7797 0aee 42000000 		.4byte	0x42
 7798 0af2 01       		.byte	0x1
 7799 0af3 05       		.byte	0x5
ARM GAS  C:\Users\barror2\AppData\Local\Temp\ccQzPEXq.s 			page 148


 7800 0af4 03       		.byte	0x3
 7801 0af5 00000000 		.4byte	cursor_x
 7802 0af9 19       		.uleb128 0x19
 7803 0afa 62000000 		.4byte	.LASF92
 7804 0afe 04       		.byte	0x4
 7805 0aff 6E       		.byte	0x6e
 7806 0b00 42000000 		.4byte	0x42
 7807 0b04 01       		.byte	0x1
 7808 0b05 05       		.byte	0x5
 7809 0b06 03       		.byte	0x3
 7810 0b07 00000000 		.4byte	cursor_y
 7811 0b0b 19       		.uleb128 0x19
 7812 0b0c C4030000 		.4byte	.LASF93
 7813 0b10 04       		.byte	0x4
 7814 0b11 6F       		.byte	0x6f
 7815 0b12 54000000 		.4byte	0x54
 7816 0b16 01       		.byte	0x1
 7817 0b17 05       		.byte	0x5
 7818 0b18 03       		.byte	0x3
 7819 0b19 00000000 		.4byte	textcolor
 7820 0b1d 19       		.uleb128 0x19
 7821 0b1e 78000000 		.4byte	.LASF94
 7822 0b22 04       		.byte	0x4
 7823 0b23 70       		.byte	0x70
 7824 0b24 54000000 		.4byte	0x54
 7825 0b28 01       		.byte	0x1
 7826 0b29 05       		.byte	0x5
 7827 0b2a 03       		.byte	0x3
 7828 0b2b 00000000 		.4byte	textbgcolor
 7829 0b2f 19       		.uleb128 0x19
 7830 0b30 83010000 		.4byte	.LASF95
 7831 0b34 04       		.byte	0x4
 7832 0b35 71       		.byte	0x71
 7833 0b36 30000000 		.4byte	0x30
 7834 0b3a 01       		.byte	0x1
 7835 0b3b 05       		.byte	0x5
 7836 0b3c 03       		.byte	0x3
 7837 0b3d 00000000 		.4byte	textsize
 7838 0b41 19       		.uleb128 0x19
 7839 0b42 DC020000 		.4byte	.LASF96
 7840 0b46 04       		.byte	0x4
 7841 0b47 72       		.byte	0x72
 7842 0b48 30000000 		.4byte	0x30
 7843 0b4c 01       		.byte	0x1
 7844 0b4d 05       		.byte	0x5
 7845 0b4e 03       		.byte	0x3
 7846 0b4f 00000000 		.4byte	rotation
 7847 0b53 19       		.uleb128 0x19
 7848 0b54 B4000000 		.4byte	.LASF97
 7849 0b58 04       		.byte	0x4
 7850 0b59 73       		.byte	0x73
 7851 0b5a 30000000 		.4byte	0x30
 7852 0b5e 01       		.byte	0x1
 7853 0b5f 05       		.byte	0x5
 7854 0b60 03       		.byte	0x3
 7855 0b61 00000000 		.4byte	wrap
 7856 0b65 19       		.uleb128 0x19
ARM GAS  C:\Users\barror2\AppData\Local\Temp\ccQzPEXq.s 			page 149


 7857 0b66 48020000 		.4byte	.LASF98
 7858 0b6a 04       		.byte	0x4
 7859 0b6b 74       		.byte	0x74
 7860 0b6c 8D000000 		.4byte	0x8d
 7861 0b70 01       		.byte	0x1
 7862 0b71 05       		.byte	0x5
 7863 0b72 03       		.byte	0x3
 7864 0b73 00000000 		.4byte	_width
 7865 0b77 19       		.uleb128 0x19
 7866 0b78 4A010000 		.4byte	.LASF99
 7867 0b7c 04       		.byte	0x4
 7868 0b7d 75       		.byte	0x75
 7869 0b7e 8D000000 		.4byte	0x8d
 7870 0b82 01       		.byte	0x1
 7871 0b83 05       		.byte	0x5
 7872 0b84 03       		.byte	0x3
 7873 0b85 00000000 		.4byte	_height
 7874 0b89 1A       		.uleb128 0x1a
 7875 0b8a 58040000 		.4byte	.LASF100
 7876 0b8e 05       		.byte	0x5
 7877 0b8f 1606     		.2byte	0x616
 7878 0b91 970B0000 		.4byte	0xb97
 7879 0b95 01       		.byte	0x1
 7880 0b96 01       		.byte	0x1
 7881 0b97 1B       		.uleb128 0x1b
 7882 0b98 66000000 		.4byte	0x66
 7883 0b9c 00       		.byte	0
 7884              		.section	.debug_abbrev,"",%progbits
 7885              	.Ldebug_abbrev0:
 7886 0000 01       		.uleb128 0x1
 7887 0001 11       		.uleb128 0x11
 7888 0002 01       		.byte	0x1
 7889 0003 25       		.uleb128 0x25
 7890 0004 0E       		.uleb128 0xe
 7891 0005 13       		.uleb128 0x13
 7892 0006 0B       		.uleb128 0xb
 7893 0007 03       		.uleb128 0x3
 7894 0008 0E       		.uleb128 0xe
 7895 0009 1B       		.uleb128 0x1b
 7896 000a 0E       		.uleb128 0xe
 7897 000b 55       		.uleb128 0x55
 7898 000c 06       		.uleb128 0x6
 7899 000d 11       		.uleb128 0x11
 7900 000e 01       		.uleb128 0x1
 7901 000f 52       		.uleb128 0x52
 7902 0010 01       		.uleb128 0x1
 7903 0011 10       		.uleb128 0x10
 7904 0012 06       		.uleb128 0x6
 7905 0013 00       		.byte	0
 7906 0014 00       		.byte	0
 7907 0015 02       		.uleb128 0x2
 7908 0016 24       		.uleb128 0x24
 7909 0017 00       		.byte	0
 7910 0018 0B       		.uleb128 0xb
 7911 0019 0B       		.uleb128 0xb
 7912 001a 3E       		.uleb128 0x3e
 7913 001b 0B       		.uleb128 0xb
ARM GAS  C:\Users\barror2\AppData\Local\Temp\ccQzPEXq.s 			page 150


 7914 001c 03       		.uleb128 0x3
 7915 001d 0E       		.uleb128 0xe
 7916 001e 00       		.byte	0
 7917 001f 00       		.byte	0
 7918 0020 03       		.uleb128 0x3
 7919 0021 16       		.uleb128 0x16
 7920 0022 00       		.byte	0
 7921 0023 03       		.uleb128 0x3
 7922 0024 0E       		.uleb128 0xe
 7923 0025 3A       		.uleb128 0x3a
 7924 0026 0B       		.uleb128 0xb
 7925 0027 3B       		.uleb128 0x3b
 7926 0028 0B       		.uleb128 0xb
 7927 0029 49       		.uleb128 0x49
 7928 002a 13       		.uleb128 0x13
 7929 002b 00       		.byte	0
 7930 002c 00       		.byte	0
 7931 002d 04       		.uleb128 0x4
 7932 002e 24       		.uleb128 0x24
 7933 002f 00       		.byte	0
 7934 0030 0B       		.uleb128 0xb
 7935 0031 0B       		.uleb128 0xb
 7936 0032 3E       		.uleb128 0x3e
 7937 0033 0B       		.uleb128 0xb
 7938 0034 03       		.uleb128 0x3
 7939 0035 08       		.uleb128 0x8
 7940 0036 00       		.byte	0
 7941 0037 00       		.byte	0
 7942 0038 05       		.uleb128 0x5
 7943 0039 2E       		.uleb128 0x2e
 7944 003a 01       		.byte	0x1
 7945 003b 3F       		.uleb128 0x3f
 7946 003c 0C       		.uleb128 0xc
 7947 003d 03       		.uleb128 0x3
 7948 003e 0E       		.uleb128 0xe
 7949 003f 3A       		.uleb128 0x3a
 7950 0040 0B       		.uleb128 0xb
 7951 0041 3B       		.uleb128 0x3b
 7952 0042 0B       		.uleb128 0xb
 7953 0043 49       		.uleb128 0x49
 7954 0044 13       		.uleb128 0x13
 7955 0045 11       		.uleb128 0x11
 7956 0046 01       		.uleb128 0x1
 7957 0047 12       		.uleb128 0x12
 7958 0048 01       		.uleb128 0x1
 7959 0049 40       		.uleb128 0x40
 7960 004a 06       		.uleb128 0x6
 7961 004b 9642     		.uleb128 0x2116
 7962 004d 0C       		.uleb128 0xc
 7963 004e 01       		.uleb128 0x1
 7964 004f 13       		.uleb128 0x13
 7965 0050 00       		.byte	0
 7966 0051 00       		.byte	0
 7967 0052 06       		.uleb128 0x6
 7968 0053 34       		.uleb128 0x34
 7969 0054 00       		.byte	0
 7970 0055 03       		.uleb128 0x3
ARM GAS  C:\Users\barror2\AppData\Local\Temp\ccQzPEXq.s 			page 151


 7971 0056 0E       		.uleb128 0xe
 7972 0057 3A       		.uleb128 0x3a
 7973 0058 0B       		.uleb128 0xb
 7974 0059 3B       		.uleb128 0x3b
 7975 005a 0B       		.uleb128 0xb
 7976 005b 49       		.uleb128 0x49
 7977 005c 13       		.uleb128 0x13
 7978 005d 02       		.uleb128 0x2
 7979 005e 0A       		.uleb128 0xa
 7980 005f 00       		.byte	0
 7981 0060 00       		.byte	0
 7982 0061 07       		.uleb128 0x7
 7983 0062 0B       		.uleb128 0xb
 7984 0063 01       		.byte	0x1
 7985 0064 11       		.uleb128 0x11
 7986 0065 01       		.uleb128 0x1
 7987 0066 12       		.uleb128 0x12
 7988 0067 01       		.uleb128 0x1
 7989 0068 00       		.byte	0
 7990 0069 00       		.byte	0
 7991 006a 08       		.uleb128 0x8
 7992 006b 34       		.uleb128 0x34
 7993 006c 00       		.byte	0
 7994 006d 03       		.uleb128 0x3
 7995 006e 08       		.uleb128 0x8
 7996 006f 3A       		.uleb128 0x3a
 7997 0070 0B       		.uleb128 0xb
 7998 0071 3B       		.uleb128 0x3b
 7999 0072 0B       		.uleb128 0xb
 8000 0073 49       		.uleb128 0x49
 8001 0074 13       		.uleb128 0x13
 8002 0075 02       		.uleb128 0x2
 8003 0076 0A       		.uleb128 0xa
 8004 0077 00       		.byte	0
 8005 0078 00       		.byte	0
 8006 0079 09       		.uleb128 0x9
 8007 007a 0B       		.uleb128 0xb
 8008 007b 01       		.byte	0x1
 8009 007c 11       		.uleb128 0x11
 8010 007d 01       		.uleb128 0x1
 8011 007e 12       		.uleb128 0x12
 8012 007f 01       		.uleb128 0x1
 8013 0080 01       		.uleb128 0x1
 8014 0081 13       		.uleb128 0x13
 8015 0082 00       		.byte	0
 8016 0083 00       		.byte	0
 8017 0084 0A       		.uleb128 0xa
 8018 0085 01       		.uleb128 0x1
 8019 0086 01       		.byte	0x1
 8020 0087 49       		.uleb128 0x49
 8021 0088 13       		.uleb128 0x13
 8022 0089 01       		.uleb128 0x1
 8023 008a 13       		.uleb128 0x13
 8024 008b 00       		.byte	0
 8025 008c 00       		.byte	0
 8026 008d 0B       		.uleb128 0xb
 8027 008e 21       		.uleb128 0x21
ARM GAS  C:\Users\barror2\AppData\Local\Temp\ccQzPEXq.s 			page 152


 8028 008f 00       		.byte	0
 8029 0090 49       		.uleb128 0x49
 8030 0091 13       		.uleb128 0x13
 8031 0092 2F       		.uleb128 0x2f
 8032 0093 0B       		.uleb128 0xb
 8033 0094 00       		.byte	0
 8034 0095 00       		.byte	0
 8035 0096 0C       		.uleb128 0xc
 8036 0097 2E       		.uleb128 0x2e
 8037 0098 01       		.byte	0x1
 8038 0099 3F       		.uleb128 0x3f
 8039 009a 0C       		.uleb128 0xc
 8040 009b 03       		.uleb128 0x3
 8041 009c 0E       		.uleb128 0xe
 8042 009d 3A       		.uleb128 0x3a
 8043 009e 0B       		.uleb128 0xb
 8044 009f 3B       		.uleb128 0x3b
 8045 00a0 0B       		.uleb128 0xb
 8046 00a1 27       		.uleb128 0x27
 8047 00a2 0C       		.uleb128 0xc
 8048 00a3 11       		.uleb128 0x11
 8049 00a4 01       		.uleb128 0x1
 8050 00a5 12       		.uleb128 0x12
 8051 00a6 01       		.uleb128 0x1
 8052 00a7 40       		.uleb128 0x40
 8053 00a8 06       		.uleb128 0x6
 8054 00a9 9642     		.uleb128 0x2116
 8055 00ab 0C       		.uleb128 0xc
 8056 00ac 01       		.uleb128 0x1
 8057 00ad 13       		.uleb128 0x13
 8058 00ae 00       		.byte	0
 8059 00af 00       		.byte	0
 8060 00b0 0D       		.uleb128 0xd
 8061 00b1 05       		.uleb128 0x5
 8062 00b2 00       		.byte	0
 8063 00b3 03       		.uleb128 0x3
 8064 00b4 08       		.uleb128 0x8
 8065 00b5 3A       		.uleb128 0x3a
 8066 00b6 0B       		.uleb128 0xb
 8067 00b7 3B       		.uleb128 0x3b
 8068 00b8 0B       		.uleb128 0xb
 8069 00b9 49       		.uleb128 0x49
 8070 00ba 13       		.uleb128 0x13
 8071 00bb 02       		.uleb128 0x2
 8072 00bc 0A       		.uleb128 0xa
 8073 00bd 00       		.byte	0
 8074 00be 00       		.byte	0
 8075 00bf 0E       		.uleb128 0xe
 8076 00c0 2E       		.uleb128 0x2e
 8077 00c1 00       		.byte	0
 8078 00c2 3F       		.uleb128 0x3f
 8079 00c3 0C       		.uleb128 0xc
 8080 00c4 03       		.uleb128 0x3
 8081 00c5 0E       		.uleb128 0xe
 8082 00c6 3A       		.uleb128 0x3a
 8083 00c7 0B       		.uleb128 0xb
 8084 00c8 3B       		.uleb128 0x3b
ARM GAS  C:\Users\barror2\AppData\Local\Temp\ccQzPEXq.s 			page 153


 8085 00c9 0B       		.uleb128 0xb
 8086 00ca 11       		.uleb128 0x11
 8087 00cb 01       		.uleb128 0x1
 8088 00cc 12       		.uleb128 0x12
 8089 00cd 01       		.uleb128 0x1
 8090 00ce 40       		.uleb128 0x40
 8091 00cf 06       		.uleb128 0x6
 8092 00d0 9642     		.uleb128 0x2116
 8093 00d2 0C       		.uleb128 0xc
 8094 00d3 00       		.byte	0
 8095 00d4 00       		.byte	0
 8096 00d5 0F       		.uleb128 0xf
 8097 00d6 05       		.uleb128 0x5
 8098 00d7 00       		.byte	0
 8099 00d8 03       		.uleb128 0x3
 8100 00d9 0E       		.uleb128 0xe
 8101 00da 3A       		.uleb128 0x3a
 8102 00db 0B       		.uleb128 0xb
 8103 00dc 3B       		.uleb128 0x3b
 8104 00dd 0B       		.uleb128 0xb
 8105 00de 49       		.uleb128 0x49
 8106 00df 13       		.uleb128 0x13
 8107 00e0 02       		.uleb128 0x2
 8108 00e1 0A       		.uleb128 0xa
 8109 00e2 00       		.byte	0
 8110 00e3 00       		.byte	0
 8111 00e4 10       		.uleb128 0x10
 8112 00e5 34       		.uleb128 0x34
 8113 00e6 00       		.byte	0
 8114 00e7 03       		.uleb128 0x3
 8115 00e8 0E       		.uleb128 0xe
 8116 00e9 3A       		.uleb128 0x3a
 8117 00ea 0B       		.uleb128 0xb
 8118 00eb 3B       		.uleb128 0x3b
 8119 00ec 05       		.uleb128 0x5
 8120 00ed 49       		.uleb128 0x49
 8121 00ee 13       		.uleb128 0x13
 8122 00ef 02       		.uleb128 0x2
 8123 00f0 0A       		.uleb128 0xa
 8124 00f1 00       		.byte	0
 8125 00f2 00       		.byte	0
 8126 00f3 11       		.uleb128 0x11
 8127 00f4 2E       		.uleb128 0x2e
 8128 00f5 01       		.byte	0x1
 8129 00f6 3F       		.uleb128 0x3f
 8130 00f7 0C       		.uleb128 0xc
 8131 00f8 03       		.uleb128 0x3
 8132 00f9 0E       		.uleb128 0xe
 8133 00fa 3A       		.uleb128 0x3a
 8134 00fb 0B       		.uleb128 0xb
 8135 00fc 3B       		.uleb128 0x3b
 8136 00fd 05       		.uleb128 0x5
 8137 00fe 27       		.uleb128 0x27
 8138 00ff 0C       		.uleb128 0xc
 8139 0100 11       		.uleb128 0x11
 8140 0101 01       		.uleb128 0x1
 8141 0102 12       		.uleb128 0x12
ARM GAS  C:\Users\barror2\AppData\Local\Temp\ccQzPEXq.s 			page 154


 8142 0103 01       		.uleb128 0x1
 8143 0104 40       		.uleb128 0x40
 8144 0105 06       		.uleb128 0x6
 8145 0106 9642     		.uleb128 0x2116
 8146 0108 0C       		.uleb128 0xc
 8147 0109 01       		.uleb128 0x1
 8148 010a 13       		.uleb128 0x13
 8149 010b 00       		.byte	0
 8150 010c 00       		.byte	0
 8151 010d 12       		.uleb128 0x12
 8152 010e 05       		.uleb128 0x5
 8153 010f 00       		.byte	0
 8154 0110 03       		.uleb128 0x3
 8155 0111 08       		.uleb128 0x8
 8156 0112 3A       		.uleb128 0x3a
 8157 0113 0B       		.uleb128 0xb
 8158 0114 3B       		.uleb128 0x3b
 8159 0115 05       		.uleb128 0x5
 8160 0116 49       		.uleb128 0x49
 8161 0117 13       		.uleb128 0x13
 8162 0118 02       		.uleb128 0x2
 8163 0119 0A       		.uleb128 0xa
 8164 011a 00       		.byte	0
 8165 011b 00       		.byte	0
 8166 011c 13       		.uleb128 0x13
 8167 011d 05       		.uleb128 0x5
 8168 011e 00       		.byte	0
 8169 011f 03       		.uleb128 0x3
 8170 0120 0E       		.uleb128 0xe
 8171 0121 3A       		.uleb128 0x3a
 8172 0122 0B       		.uleb128 0xb
 8173 0123 3B       		.uleb128 0x3b
 8174 0124 05       		.uleb128 0x5
 8175 0125 49       		.uleb128 0x49
 8176 0126 13       		.uleb128 0x13
 8177 0127 02       		.uleb128 0x2
 8178 0128 0A       		.uleb128 0xa
 8179 0129 00       		.byte	0
 8180 012a 00       		.byte	0
 8181 012b 14       		.uleb128 0x14
 8182 012c 2E       		.uleb128 0x2e
 8183 012d 01       		.byte	0x1
 8184 012e 3F       		.uleb128 0x3f
 8185 012f 0C       		.uleb128 0xc
 8186 0130 03       		.uleb128 0x3
 8187 0131 0E       		.uleb128 0xe
 8188 0132 3A       		.uleb128 0x3a
 8189 0133 0B       		.uleb128 0xb
 8190 0134 3B       		.uleb128 0x3b
 8191 0135 05       		.uleb128 0x5
 8192 0136 49       		.uleb128 0x49
 8193 0137 13       		.uleb128 0x13
 8194 0138 11       		.uleb128 0x11
 8195 0139 01       		.uleb128 0x1
 8196 013a 12       		.uleb128 0x12
 8197 013b 01       		.uleb128 0x1
 8198 013c 40       		.uleb128 0x40
ARM GAS  C:\Users\barror2\AppData\Local\Temp\ccQzPEXq.s 			page 155


 8199 013d 06       		.uleb128 0x6
 8200 013e 9642     		.uleb128 0x2116
 8201 0140 0C       		.uleb128 0xc
 8202 0141 01       		.uleb128 0x1
 8203 0142 13       		.uleb128 0x13
 8204 0143 00       		.byte	0
 8205 0144 00       		.byte	0
 8206 0145 15       		.uleb128 0x15
 8207 0146 34       		.uleb128 0x34
 8208 0147 00       		.byte	0
 8209 0148 03       		.uleb128 0x3
 8210 0149 08       		.uleb128 0x8
 8211 014a 3A       		.uleb128 0x3a
 8212 014b 0B       		.uleb128 0xb
 8213 014c 3B       		.uleb128 0x3b
 8214 014d 05       		.uleb128 0x5
 8215 014e 49       		.uleb128 0x49
 8216 014f 13       		.uleb128 0x13
 8217 0150 02       		.uleb128 0x2
 8218 0151 0A       		.uleb128 0xa
 8219 0152 00       		.byte	0
 8220 0153 00       		.byte	0
 8221 0154 16       		.uleb128 0x16
 8222 0155 2E       		.uleb128 0x2e
 8223 0156 00       		.byte	0
 8224 0157 3F       		.uleb128 0x3f
 8225 0158 0C       		.uleb128 0xc
 8226 0159 03       		.uleb128 0x3
 8227 015a 0E       		.uleb128 0xe
 8228 015b 3A       		.uleb128 0x3a
 8229 015c 0B       		.uleb128 0xb
 8230 015d 3B       		.uleb128 0x3b
 8231 015e 05       		.uleb128 0x5
 8232 015f 11       		.uleb128 0x11
 8233 0160 01       		.uleb128 0x1
 8234 0161 12       		.uleb128 0x12
 8235 0162 01       		.uleb128 0x1
 8236 0163 40       		.uleb128 0x40
 8237 0164 06       		.uleb128 0x6
 8238 0165 9642     		.uleb128 0x2116
 8239 0167 0C       		.uleb128 0xc
 8240 0168 00       		.byte	0
 8241 0169 00       		.byte	0
 8242 016a 17       		.uleb128 0x17
 8243 016b 2E       		.uleb128 0x2e
 8244 016c 01       		.byte	0x1
 8245 016d 3F       		.uleb128 0x3f
 8246 016e 0C       		.uleb128 0xc
 8247 016f 03       		.uleb128 0x3
 8248 0170 0E       		.uleb128 0xe
 8249 0171 3A       		.uleb128 0x3a
 8250 0172 0B       		.uleb128 0xb
 8251 0173 3B       		.uleb128 0x3b
 8252 0174 05       		.uleb128 0x5
 8253 0175 27       		.uleb128 0x27
 8254 0176 0C       		.uleb128 0xc
 8255 0177 49       		.uleb128 0x49
ARM GAS  C:\Users\barror2\AppData\Local\Temp\ccQzPEXq.s 			page 156


 8256 0178 13       		.uleb128 0x13
 8257 0179 11       		.uleb128 0x11
 8258 017a 01       		.uleb128 0x1
 8259 017b 12       		.uleb128 0x12
 8260 017c 01       		.uleb128 0x1
 8261 017d 40       		.uleb128 0x40
 8262 017e 06       		.uleb128 0x6
 8263 017f 9742     		.uleb128 0x2117
 8264 0181 0C       		.uleb128 0xc
 8265 0182 01       		.uleb128 0x1
 8266 0183 13       		.uleb128 0x13
 8267 0184 00       		.byte	0
 8268 0185 00       		.byte	0
 8269 0186 18       		.uleb128 0x18
 8270 0187 2E       		.uleb128 0x2e
 8271 0188 01       		.byte	0x1
 8272 0189 3F       		.uleb128 0x3f
 8273 018a 0C       		.uleb128 0xc
 8274 018b 03       		.uleb128 0x3
 8275 018c 0E       		.uleb128 0xe
 8276 018d 3A       		.uleb128 0x3a
 8277 018e 0B       		.uleb128 0xb
 8278 018f 3B       		.uleb128 0x3b
 8279 0190 05       		.uleb128 0x5
 8280 0191 11       		.uleb128 0x11
 8281 0192 01       		.uleb128 0x1
 8282 0193 12       		.uleb128 0x12
 8283 0194 01       		.uleb128 0x1
 8284 0195 40       		.uleb128 0x40
 8285 0196 06       		.uleb128 0x6
 8286 0197 9642     		.uleb128 0x2116
 8287 0199 0C       		.uleb128 0xc
 8288 019a 01       		.uleb128 0x1
 8289 019b 13       		.uleb128 0x13
 8290 019c 00       		.byte	0
 8291 019d 00       		.byte	0
 8292 019e 19       		.uleb128 0x19
 8293 019f 34       		.uleb128 0x34
 8294 01a0 00       		.byte	0
 8295 01a1 03       		.uleb128 0x3
 8296 01a2 0E       		.uleb128 0xe
 8297 01a3 3A       		.uleb128 0x3a
 8298 01a4 0B       		.uleb128 0xb
 8299 01a5 3B       		.uleb128 0x3b
 8300 01a6 0B       		.uleb128 0xb
 8301 01a7 49       		.uleb128 0x49
 8302 01a8 13       		.uleb128 0x13
 8303 01a9 3F       		.uleb128 0x3f
 8304 01aa 0C       		.uleb128 0xc
 8305 01ab 02       		.uleb128 0x2
 8306 01ac 0A       		.uleb128 0xa
 8307 01ad 00       		.byte	0
 8308 01ae 00       		.byte	0
 8309 01af 1A       		.uleb128 0x1a
 8310 01b0 34       		.uleb128 0x34
 8311 01b1 00       		.byte	0
 8312 01b2 03       		.uleb128 0x3
ARM GAS  C:\Users\barror2\AppData\Local\Temp\ccQzPEXq.s 			page 157


 8313 01b3 0E       		.uleb128 0xe
 8314 01b4 3A       		.uleb128 0x3a
 8315 01b5 0B       		.uleb128 0xb
 8316 01b6 3B       		.uleb128 0x3b
 8317 01b7 05       		.uleb128 0x5
 8318 01b8 49       		.uleb128 0x49
 8319 01b9 13       		.uleb128 0x13
 8320 01ba 3F       		.uleb128 0x3f
 8321 01bb 0C       		.uleb128 0xc
 8322 01bc 3C       		.uleb128 0x3c
 8323 01bd 0C       		.uleb128 0xc
 8324 01be 00       		.byte	0
 8325 01bf 00       		.byte	0
 8326 01c0 1B       		.uleb128 0x1b
 8327 01c1 35       		.uleb128 0x35
 8328 01c2 00       		.byte	0
 8329 01c3 49       		.uleb128 0x49
 8330 01c4 13       		.uleb128 0x13
 8331 01c5 00       		.byte	0
 8332 01c6 00       		.byte	0
 8333 01c7 00       		.byte	0
 8334              		.section	.debug_loc,"",%progbits
 8335              	.Ldebug_loc0:
 8336              	.LLST0:
 8337 0000 00000000 		.4byte	.LFB56
 8338 0004 02000000 		.4byte	.LCFI0
 8339 0008 0200     		.2byte	0x2
 8340 000a 7D       		.byte	0x7d
 8341 000b 00       		.sleb128 0
 8342 000c 02000000 		.4byte	.LCFI0
 8343 0010 04000000 		.4byte	.LCFI1
 8344 0014 0200     		.2byte	0x2
 8345 0016 7D       		.byte	0x7d
 8346 0017 10       		.sleb128 16
 8347 0018 04000000 		.4byte	.LCFI1
 8348 001c 06000000 		.4byte	.LCFI2
 8349 0020 0300     		.2byte	0x3
 8350 0022 7D       		.byte	0x7d
 8351 0023 9001     		.sleb128 144
 8352 0025 06000000 		.4byte	.LCFI2
 8353 0029 DC020000 		.4byte	.LFE56
 8354 002d 0300     		.2byte	0x3
 8355 002f 77       		.byte	0x77
 8356 0030 8801     		.sleb128 136
 8357 0032 00000000 		.4byte	0
 8358 0036 00000000 		.4byte	0
 8359              	.LLST1:
 8360 003a 00000000 		.4byte	.LFB57
 8361 003e 02000000 		.4byte	.LCFI3
 8362 0042 0200     		.2byte	0x2
 8363 0044 7D       		.byte	0x7d
 8364 0045 00       		.sleb128 0
 8365 0046 02000000 		.4byte	.LCFI3
 8366 004a 04000000 		.4byte	.LCFI4
 8367 004e 0200     		.2byte	0x2
 8368 0050 7D       		.byte	0x7d
 8369 0051 0C       		.sleb128 12
ARM GAS  C:\Users\barror2\AppData\Local\Temp\ccQzPEXq.s 			page 158


 8370 0052 04000000 		.4byte	.LCFI4
 8371 0056 06000000 		.4byte	.LCFI5
 8372 005a 0300     		.2byte	0x3
 8373 005c 7D       		.byte	0x7d
 8374 005d C800     		.sleb128 72
 8375 005f 06000000 		.4byte	.LCFI5
 8376 0063 C0010000 		.4byte	.LFE57
 8377 0067 0300     		.2byte	0x3
 8378 0069 77       		.byte	0x77
 8379 006a C000     		.sleb128 64
 8380 006c 00000000 		.4byte	0
 8381 0070 00000000 		.4byte	0
 8382              	.LLST2:
 8383 0074 00000000 		.4byte	.LFB58
 8384 0078 02000000 		.4byte	.LCFI6
 8385 007c 0200     		.2byte	0x2
 8386 007e 7D       		.byte	0x7d
 8387 007f 00       		.sleb128 0
 8388 0080 02000000 		.4byte	.LCFI6
 8389 0084 04000000 		.4byte	.LCFI7
 8390 0088 0200     		.2byte	0x2
 8391 008a 7D       		.byte	0x7d
 8392 008b 08       		.sleb128 8
 8393 008c 04000000 		.4byte	.LCFI7
 8394 0090 34000000 		.4byte	.LFE58
 8395 0094 0200     		.2byte	0x2
 8396 0096 77       		.byte	0x77
 8397 0097 08       		.sleb128 8
 8398 0098 00000000 		.4byte	0
 8399 009c 00000000 		.4byte	0
 8400              	.LLST3:
 8401 00a0 00000000 		.4byte	.LFB59
 8402 00a4 04000000 		.4byte	.LCFI8
 8403 00a8 0200     		.2byte	0x2
 8404 00aa 7D       		.byte	0x7d
 8405 00ab 00       		.sleb128 0
 8406 00ac 04000000 		.4byte	.LCFI8
 8407 00b0 06000000 		.4byte	.LCFI9
 8408 00b4 0200     		.2byte	0x2
 8409 00b6 7D       		.byte	0x7d
 8410 00b7 1C       		.sleb128 28
 8411 00b8 06000000 		.4byte	.LCFI9
 8412 00bc 08000000 		.4byte	.LCFI10
 8413 00c0 0300     		.2byte	0x3
 8414 00c2 7D       		.byte	0x7d
 8415 00c3 D000     		.sleb128 80
 8416 00c5 08000000 		.4byte	.LCFI10
 8417 00c9 4A170000 		.4byte	.LFE59
 8418 00cd 0300     		.2byte	0x3
 8419 00cf 77       		.byte	0x77
 8420 00d0 C800     		.sleb128 72
 8421 00d2 00000000 		.4byte	0
 8422 00d6 00000000 		.4byte	0
 8423              	.LLST4:
 8424 00da 00000000 		.4byte	.LFB60
 8425 00de 02000000 		.4byte	.LCFI11
 8426 00e2 0200     		.2byte	0x2
ARM GAS  C:\Users\barror2\AppData\Local\Temp\ccQzPEXq.s 			page 159


 8427 00e4 7D       		.byte	0x7d
 8428 00e5 00       		.sleb128 0
 8429 00e6 02000000 		.4byte	.LCFI11
 8430 00ea 04000000 		.4byte	.LCFI12
 8431 00ee 0200     		.2byte	0x2
 8432 00f0 7D       		.byte	0x7d
 8433 00f1 08       		.sleb128 8
 8434 00f2 04000000 		.4byte	.LCFI12
 8435 00f6 06000000 		.4byte	.LCFI13
 8436 00fa 0200     		.2byte	0x2
 8437 00fc 7D       		.byte	0x7d
 8438 00fd 38       		.sleb128 56
 8439 00fe 06000000 		.4byte	.LCFI13
 8440 0102 68010000 		.4byte	.LFE60
 8441 0106 0200     		.2byte	0x2
 8442 0108 77       		.byte	0x77
 8443 0109 38       		.sleb128 56
 8444 010a 00000000 		.4byte	0
 8445 010e 00000000 		.4byte	0
 8446              	.LLST5:
 8447 0112 00000000 		.4byte	.LFB61
 8448 0116 04000000 		.4byte	.LCFI14
 8449 011a 0200     		.2byte	0x2
 8450 011c 7D       		.byte	0x7d
 8451 011d 00       		.sleb128 0
 8452 011e 04000000 		.4byte	.LCFI14
 8453 0122 06000000 		.4byte	.LCFI15
 8454 0126 0200     		.2byte	0x2
 8455 0128 7D       		.byte	0x7d
 8456 0129 1C       		.sleb128 28
 8457 012a 06000000 		.4byte	.LCFI15
 8458 012e 08000000 		.4byte	.LCFI16
 8459 0132 0300     		.2byte	0x3
 8460 0134 7D       		.byte	0x7d
 8461 0135 D000     		.sleb128 80
 8462 0137 08000000 		.4byte	.LCFI16
 8463 013b 80020000 		.4byte	.LFE61
 8464 013f 0300     		.2byte	0x3
 8465 0141 77       		.byte	0x77
 8466 0142 C800     		.sleb128 72
 8467 0144 00000000 		.4byte	0
 8468 0148 00000000 		.4byte	0
 8469              	.LLST6:
 8470 014c 00000000 		.4byte	.LFB62
 8471 0150 04000000 		.4byte	.LCFI17
 8472 0154 0200     		.2byte	0x2
 8473 0156 7D       		.byte	0x7d
 8474 0157 00       		.sleb128 0
 8475 0158 04000000 		.4byte	.LCFI17
 8476 015c 06000000 		.4byte	.LCFI18
 8477 0160 0200     		.2byte	0x2
 8478 0162 7D       		.byte	0x7d
 8479 0163 1C       		.sleb128 28
 8480 0164 06000000 		.4byte	.LCFI18
 8481 0168 08000000 		.4byte	.LCFI19
 8482 016c 0300     		.2byte	0x3
 8483 016e 7D       		.byte	0x7d
ARM GAS  C:\Users\barror2\AppData\Local\Temp\ccQzPEXq.s 			page 160


 8484 016f D000     		.sleb128 80
 8485 0171 08000000 		.4byte	.LCFI19
 8486 0175 E8020000 		.4byte	.LFE62
 8487 0179 0300     		.2byte	0x3
 8488 017b 77       		.byte	0x77
 8489 017c C800     		.sleb128 72
 8490 017e 00000000 		.4byte	0
 8491 0182 00000000 		.4byte	0
 8492              	.LLST7:
 8493 0186 00000000 		.4byte	.LFB63
 8494 018a 04000000 		.4byte	.LCFI20
 8495 018e 0200     		.2byte	0x2
 8496 0190 7D       		.byte	0x7d
 8497 0191 00       		.sleb128 0
 8498 0192 04000000 		.4byte	.LCFI20
 8499 0196 06000000 		.4byte	.LCFI21
 8500 019a 0200     		.2byte	0x2
 8501 019c 7D       		.byte	0x7d
 8502 019d 1C       		.sleb128 28
 8503 019e 06000000 		.4byte	.LCFI21
 8504 01a2 08000000 		.4byte	.LCFI22
 8505 01a6 0300     		.2byte	0x3
 8506 01a8 7D       		.byte	0x7d
 8507 01a9 D000     		.sleb128 80
 8508 01ab 08000000 		.4byte	.LCFI22
 8509 01af 18030000 		.4byte	.LFE63
 8510 01b3 0300     		.2byte	0x3
 8511 01b5 77       		.byte	0x77
 8512 01b6 C800     		.sleb128 72
 8513 01b8 00000000 		.4byte	0
 8514 01bc 00000000 		.4byte	0
 8515              	.LLST8:
 8516 01c0 00000000 		.4byte	.LFB64
 8517 01c4 04000000 		.4byte	.LCFI23
 8518 01c8 0200     		.2byte	0x2
 8519 01ca 7D       		.byte	0x7d
 8520 01cb 00       		.sleb128 0
 8521 01cc 04000000 		.4byte	.LCFI23
 8522 01d0 06000000 		.4byte	.LCFI24
 8523 01d4 0200     		.2byte	0x2
 8524 01d6 7D       		.byte	0x7d
 8525 01d7 1C       		.sleb128 28
 8526 01d8 06000000 		.4byte	.LCFI24
 8527 01dc 08000000 		.4byte	.LCFI25
 8528 01e0 0300     		.2byte	0x3
 8529 01e2 7D       		.byte	0x7d
 8530 01e3 D000     		.sleb128 80
 8531 01e5 08000000 		.4byte	.LCFI25
 8532 01e9 B8020000 		.4byte	.LFE64
 8533 01ed 0300     		.2byte	0x3
 8534 01ef 77       		.byte	0x77
 8535 01f0 C800     		.sleb128 72
 8536 01f2 00000000 		.4byte	0
 8537 01f6 00000000 		.4byte	0
 8538              	.LLST9:
 8539 01fa 00000000 		.4byte	.LFB65
 8540 01fe 04000000 		.4byte	.LCFI26
ARM GAS  C:\Users\barror2\AppData\Local\Temp\ccQzPEXq.s 			page 161


 8541 0202 0200     		.2byte	0x2
 8542 0204 7D       		.byte	0x7d
 8543 0205 00       		.sleb128 0
 8544 0206 04000000 		.4byte	.LCFI26
 8545 020a 06000000 		.4byte	.LCFI27
 8546 020e 0200     		.2byte	0x2
 8547 0210 7D       		.byte	0x7d
 8548 0211 1C       		.sleb128 28
 8549 0212 06000000 		.4byte	.LCFI27
 8550 0216 08000000 		.4byte	.LCFI28
 8551 021a 0300     		.2byte	0x3
 8552 021c 7D       		.byte	0x7d
 8553 021d D000     		.sleb128 80
 8554 021f 08000000 		.4byte	.LCFI28
 8555 0223 88030000 		.4byte	.LFE65
 8556 0227 0300     		.2byte	0x3
 8557 0229 77       		.byte	0x77
 8558 022a C800     		.sleb128 72
 8559 022c 00000000 		.4byte	0
 8560 0230 00000000 		.4byte	0
 8561              	.LLST10:
 8562 0234 00000000 		.4byte	.LFB66
 8563 0238 04000000 		.4byte	.LCFI29
 8564 023c 0200     		.2byte	0x2
 8565 023e 7D       		.byte	0x7d
 8566 023f 00       		.sleb128 0
 8567 0240 04000000 		.4byte	.LCFI29
 8568 0244 06000000 		.4byte	.LCFI30
 8569 0248 0200     		.2byte	0x2
 8570 024a 7D       		.byte	0x7d
 8571 024b 1C       		.sleb128 28
 8572 024c 06000000 		.4byte	.LCFI30
 8573 0250 08000000 		.4byte	.LCFI31
 8574 0254 0300     		.2byte	0x3
 8575 0256 7D       		.byte	0x7d
 8576 0257 D000     		.sleb128 80
 8577 0259 08000000 		.4byte	.LCFI31
 8578 025d 58030000 		.4byte	.LFE66
 8579 0261 0300     		.2byte	0x3
 8580 0263 77       		.byte	0x77
 8581 0264 C800     		.sleb128 72
 8582 0266 00000000 		.4byte	0
 8583 026a 00000000 		.4byte	0
 8584              	.LLST11:
 8585 026e 00000000 		.4byte	.LFB67
 8586 0272 04000000 		.4byte	.LCFI32
 8587 0276 0200     		.2byte	0x2
 8588 0278 7D       		.byte	0x7d
 8589 0279 00       		.sleb128 0
 8590 027a 04000000 		.4byte	.LCFI32
 8591 027e 06000000 		.4byte	.LCFI33
 8592 0282 0200     		.2byte	0x2
 8593 0284 7D       		.byte	0x7d
 8594 0285 1C       		.sleb128 28
 8595 0286 06000000 		.4byte	.LCFI33
 8596 028a 08000000 		.4byte	.LCFI34
 8597 028e 0300     		.2byte	0x3
ARM GAS  C:\Users\barror2\AppData\Local\Temp\ccQzPEXq.s 			page 162


 8598 0290 7D       		.byte	0x7d
 8599 0291 D000     		.sleb128 80
 8600 0293 08000000 		.4byte	.LCFI34
 8601 0297 60020000 		.4byte	.LFE67
 8602 029b 0300     		.2byte	0x3
 8603 029d 77       		.byte	0x77
 8604 029e C800     		.sleb128 72
 8605 02a0 00000000 		.4byte	0
 8606 02a4 00000000 		.4byte	0
 8607              	.LLST12:
 8608 02a8 00000000 		.4byte	.LFB68
 8609 02ac 02000000 		.4byte	.LCFI35
 8610 02b0 0200     		.2byte	0x2
 8611 02b2 7D       		.byte	0x7d
 8612 02b3 00       		.sleb128 0
 8613 02b4 02000000 		.4byte	.LCFI35
 8614 02b8 04000000 		.4byte	.LCFI36
 8615 02bc 0200     		.2byte	0x2
 8616 02be 7D       		.byte	0x7d
 8617 02bf 14       		.sleb128 20
 8618 02c0 04000000 		.4byte	.LCFI36
 8619 02c4 06000000 		.4byte	.LCFI37
 8620 02c8 0300     		.2byte	0x3
 8621 02ca 7D       		.byte	0x7d
 8622 02cb C000     		.sleb128 64
 8623 02cd 06000000 		.4byte	.LCFI37
 8624 02d1 B0020000 		.4byte	.LFE68
 8625 02d5 0200     		.2byte	0x2
 8626 02d7 77       		.byte	0x77
 8627 02d8 38       		.sleb128 56
 8628 02d9 00000000 		.4byte	0
 8629 02dd 00000000 		.4byte	0
 8630              	.LLST13:
 8631 02e1 00000000 		.4byte	.LFB69
 8632 02e5 02000000 		.4byte	.LCFI38
 8633 02e9 0200     		.2byte	0x2
 8634 02eb 7D       		.byte	0x7d
 8635 02ec 00       		.sleb128 0
 8636 02ed 02000000 		.4byte	.LCFI38
 8637 02f1 04000000 		.4byte	.LCFI39
 8638 02f5 0200     		.2byte	0x2
 8639 02f7 7D       		.byte	0x7d
 8640 02f8 08       		.sleb128 8
 8641 02f9 04000000 		.4byte	.LCFI39
 8642 02fd 06000000 		.4byte	.LCFI40
 8643 0301 0200     		.2byte	0x2
 8644 0303 7D       		.byte	0x7d
 8645 0304 38       		.sleb128 56
 8646 0305 06000000 		.4byte	.LCFI40
 8647 0309 10020000 		.4byte	.LFE69
 8648 030d 0200     		.2byte	0x2
 8649 030f 77       		.byte	0x77
 8650 0310 30       		.sleb128 48
 8651 0311 00000000 		.4byte	0
 8652 0315 00000000 		.4byte	0
 8653              	.LLST14:
 8654 0319 00000000 		.4byte	.LFB70
ARM GAS  C:\Users\barror2\AppData\Local\Temp\ccQzPEXq.s 			page 163


 8655 031d 02000000 		.4byte	.LCFI41
 8656 0321 0200     		.2byte	0x2
 8657 0323 7D       		.byte	0x7d
 8658 0324 00       		.sleb128 0
 8659 0325 02000000 		.4byte	.LCFI41
 8660 0329 04000000 		.4byte	.LCFI42
 8661 032d 0200     		.2byte	0x2
 8662 032f 7D       		.byte	0x7d
 8663 0330 08       		.sleb128 8
 8664 0331 04000000 		.4byte	.LCFI42
 8665 0335 80000000 		.4byte	.LFE70
 8666 0339 0200     		.2byte	0x2
 8667 033b 77       		.byte	0x77
 8668 033c 08       		.sleb128 8
 8669 033d 00000000 		.4byte	0
 8670 0341 00000000 		.4byte	0
 8671              	.LLST15:
 8672 0345 00000000 		.4byte	.LFB71
 8673 0349 02000000 		.4byte	.LCFI43
 8674 034d 0200     		.2byte	0x2
 8675 034f 7D       		.byte	0x7d
 8676 0350 00       		.sleb128 0
 8677 0351 02000000 		.4byte	.LCFI43
 8678 0355 04000000 		.4byte	.LCFI44
 8679 0359 0200     		.2byte	0x2
 8680 035b 7D       		.byte	0x7d
 8681 035c 04       		.sleb128 4
 8682 035d 04000000 		.4byte	.LCFI44
 8683 0361 06000000 		.4byte	.LCFI45
 8684 0365 0200     		.2byte	0x2
 8685 0367 7D       		.byte	0x7d
 8686 0368 18       		.sleb128 24
 8687 0369 06000000 		.4byte	.LCFI45
 8688 036d 38000000 		.4byte	.LFE71
 8689 0371 0200     		.2byte	0x2
 8690 0373 77       		.byte	0x77
 8691 0374 18       		.sleb128 24
 8692 0375 00000000 		.4byte	0
 8693 0379 00000000 		.4byte	0
 8694              	.LLST16:
 8695 037d 00000000 		.4byte	.LFB72
 8696 0381 02000000 		.4byte	.LCFI46
 8697 0385 0200     		.2byte	0x2
 8698 0387 7D       		.byte	0x7d
 8699 0388 00       		.sleb128 0
 8700 0389 02000000 		.4byte	.LCFI46
 8701 038d 04000000 		.4byte	.LCFI47
 8702 0391 0200     		.2byte	0x2
 8703 0393 7D       		.byte	0x7d
 8704 0394 10       		.sleb128 16
 8705 0395 04000000 		.4byte	.LCFI47
 8706 0399 06000000 		.4byte	.LCFI48
 8707 039d 0200     		.2byte	0x2
 8708 039f 7D       		.byte	0x7d
 8709 03a0 38       		.sleb128 56
 8710 03a1 06000000 		.4byte	.LCFI48
 8711 03a5 78000000 		.4byte	.LFE72
ARM GAS  C:\Users\barror2\AppData\Local\Temp\ccQzPEXq.s 			page 164


 8712 03a9 0200     		.2byte	0x2
 8713 03ab 77       		.byte	0x77
 8714 03ac 38       		.sleb128 56
 8715 03ad 00000000 		.4byte	0
 8716 03b1 00000000 		.4byte	0
 8717              	.LLST17:
 8718 03b5 00000000 		.4byte	.LFB73
 8719 03b9 02000000 		.4byte	.LCFI49
 8720 03bd 0200     		.2byte	0x2
 8721 03bf 7D       		.byte	0x7d
 8722 03c0 00       		.sleb128 0
 8723 03c1 02000000 		.4byte	.LCFI49
 8724 03c5 04000000 		.4byte	.LCFI50
 8725 03c9 0200     		.2byte	0x2
 8726 03cb 7D       		.byte	0x7d
 8727 03cc 08       		.sleb128 8
 8728 03cd 04000000 		.4byte	.LCFI50
 8729 03d1 06000000 		.4byte	.LCFI51
 8730 03d5 0200     		.2byte	0x2
 8731 03d7 7D       		.byte	0x7d
 8732 03d8 10       		.sleb128 16
 8733 03d9 06000000 		.4byte	.LCFI51
 8734 03dd 5A000000 		.4byte	.LFE73
 8735 03e1 0200     		.2byte	0x2
 8736 03e3 77       		.byte	0x77
 8737 03e4 10       		.sleb128 16
 8738 03e5 00000000 		.4byte	0
 8739 03e9 00000000 		.4byte	0
 8740              		.section	.debug_aranges,"",%progbits
 8741 0000 A4000000 		.4byte	0xa4
 8742 0004 0200     		.2byte	0x2
 8743 0006 00000000 		.4byte	.Ldebug_info0
 8744 000a 04       		.byte	0x4
 8745 000b 00       		.byte	0
 8746 000c 0000     		.2byte	0
 8747 000e 0000     		.2byte	0
 8748 0010 00000000 		.4byte	.LFB56
 8749 0014 DC020000 		.4byte	.LFE56-.LFB56
 8750 0018 00000000 		.4byte	.LFB57
 8751 001c C0010000 		.4byte	.LFE57-.LFB57
 8752 0020 00000000 		.4byte	.LFB58
 8753 0024 34000000 		.4byte	.LFE58-.LFB58
 8754 0028 00000000 		.4byte	.LFB59
 8755 002c 4A170000 		.4byte	.LFE59-.LFB59
 8756 0030 00000000 		.4byte	.LFB60
 8757 0034 68010000 		.4byte	.LFE60-.LFB60
 8758 0038 00000000 		.4byte	.LFB61
 8759 003c 80020000 		.4byte	.LFE61-.LFB61
 8760 0040 00000000 		.4byte	.LFB62
 8761 0044 E8020000 		.4byte	.LFE62-.LFB62
 8762 0048 00000000 		.4byte	.LFB63
 8763 004c 18030000 		.4byte	.LFE63-.LFB63
 8764 0050 00000000 		.4byte	.LFB64
 8765 0054 B8020000 		.4byte	.LFE64-.LFB64
 8766 0058 00000000 		.4byte	.LFB65
 8767 005c 88030000 		.4byte	.LFE65-.LFB65
 8768 0060 00000000 		.4byte	.LFB66
ARM GAS  C:\Users\barror2\AppData\Local\Temp\ccQzPEXq.s 			page 165


 8769 0064 58030000 		.4byte	.LFE66-.LFB66
 8770 0068 00000000 		.4byte	.LFB67
 8771 006c 60020000 		.4byte	.LFE67-.LFB67
 8772 0070 00000000 		.4byte	.LFB68
 8773 0074 B0020000 		.4byte	.LFE68-.LFB68
 8774 0078 00000000 		.4byte	.LFB69
 8775 007c 10020000 		.4byte	.LFE69-.LFB69
 8776 0080 00000000 		.4byte	.LFB70
 8777 0084 80000000 		.4byte	.LFE70-.LFB70
 8778 0088 00000000 		.4byte	.LFB71
 8779 008c 38000000 		.4byte	.LFE71-.LFB71
 8780 0090 00000000 		.4byte	.LFB72
 8781 0094 78000000 		.4byte	.LFE72-.LFB72
 8782 0098 00000000 		.4byte	.LFB73
 8783 009c 5A000000 		.4byte	.LFE73-.LFB73
 8784 00a0 00000000 		.4byte	0
 8785 00a4 00000000 		.4byte	0
 8786              		.section	.debug_ranges,"",%progbits
 8787              	.Ldebug_ranges0:
 8788 0000 00000000 		.4byte	.LFB56
 8789 0004 DC020000 		.4byte	.LFE56
 8790 0008 00000000 		.4byte	.LFB57
 8791 000c C0010000 		.4byte	.LFE57
 8792 0010 00000000 		.4byte	.LFB58
 8793 0014 34000000 		.4byte	.LFE58
 8794 0018 00000000 		.4byte	.LFB59
 8795 001c 4A170000 		.4byte	.LFE59
 8796 0020 00000000 		.4byte	.LFB60
 8797 0024 68010000 		.4byte	.LFE60
 8798 0028 00000000 		.4byte	.LFB61
 8799 002c 80020000 		.4byte	.LFE61
 8800 0030 00000000 		.4byte	.LFB62
 8801 0034 E8020000 		.4byte	.LFE62
 8802 0038 00000000 		.4byte	.LFB63
 8803 003c 18030000 		.4byte	.LFE63
 8804 0040 00000000 		.4byte	.LFB64
 8805 0044 B8020000 		.4byte	.LFE64
 8806 0048 00000000 		.4byte	.LFB65
 8807 004c 88030000 		.4byte	.LFE65
 8808 0050 00000000 		.4byte	.LFB66
 8809 0054 58030000 		.4byte	.LFE66
 8810 0058 00000000 		.4byte	.LFB67
 8811 005c 60020000 		.4byte	.LFE67
 8812 0060 00000000 		.4byte	.LFB68
 8813 0064 B0020000 		.4byte	.LFE68
 8814 0068 00000000 		.4byte	.LFB69
 8815 006c 10020000 		.4byte	.LFE69
 8816 0070 00000000 		.4byte	.LFB70
 8817 0074 80000000 		.4byte	.LFE70
 8818 0078 00000000 		.4byte	.LFB71
 8819 007c 38000000 		.4byte	.LFE71
 8820 0080 00000000 		.4byte	.LFB72
 8821 0084 78000000 		.4byte	.LFE72
 8822 0088 00000000 		.4byte	.LFB73
 8823 008c 5A000000 		.4byte	.LFE73
 8824 0090 00000000 		.4byte	0
 8825 0094 00000000 		.4byte	0
ARM GAS  C:\Users\barror2\AppData\Local\Temp\ccQzPEXq.s 			page 166


 8826              		.section	.debug_line,"",%progbits
 8827              	.Ldebug_line0:
 8828 0000 01050000 		.section	.debug_str,"MS",%progbits,1
 8828      02000A01 
 8828      00000201 
 8828      FB0E0D00 
 8828      01010101 
 8829              	.LASF48:
 8830 0000 77696474 		.ascii	"width_SW\000"
 8830      685F5357 
 8830      00
 8831              	.LASF53:
 8832 0009 636F6C6F 		.ascii	"color\000"
 8832      7200
 8833              	.LASF76:
 8834 000f 496E7075 		.ascii	"InputTouched\000"
 8834      74546F75 
 8834      63686564 
 8834      00
 8835              	.LASF85:
 8836 001c 696E5F6D 		.ascii	"in_max\000"
 8836      617800
 8837              	.LASF46:
 8838 0023 73746174 		.ascii	"state\000"
 8838      6500
 8839              	.LASF74:
 8840 0029 44726177 		.ascii	"DrawHex\000"
 8840      48657800 
 8841              	.LASF86:
 8842 0031 6F75745F 		.ascii	"out_min\000"
 8842      6D696E00 
 8843              	.LASF4:
 8844 0039 73686F72 		.ascii	"short int\000"
 8844      7420696E 
 8844      7400
 8845              	.LASF36:
 8846 0043 73657061 		.ascii	"separation_PB\000"
 8846      72617469 
 8846      6F6E5F50 
 8846      4200
 8847              	.LASF38:
 8848 0051 77696474 		.ascii	"width_PB\000"
 8848      685F5042 
 8848      00
 8849              	.LASF7:
 8850 005a 696E7433 		.ascii	"int32_t\000"
 8850      325F7400 
 8851              	.LASF92:
 8852 0062 63757273 		.ascii	"cursor_y\000"
 8852      6F725F79 
 8852      00
 8853              	.LASF79:
 8854 006b 6C656E67 		.ascii	"length\000"
 8854      746800
 8855              	.LASF58:
 8856 0072 785F4C45 		.ascii	"x_LED\000"
 8856      4400
ARM GAS  C:\Users\barror2\AppData\Local\Temp\ccQzPEXq.s 			page 167


 8857              	.LASF94:
 8858 0078 74657874 		.ascii	"textbgcolor\000"
 8858      6267636F 
 8858      6C6F7200 
 8859              	.LASF84:
 8860 0084 696E5F6D 		.ascii	"in_min\000"
 8860      696E00
 8861              	.LASF34:
 8862 008b 6D61696E 		.ascii	"main\000"
 8862      00
 8863              	.LASF66:
 8864 0090 656D7074 		.ascii	"empty_HEX\000"
 8864      795F4845 
 8864      5800
 8865              	.LASF59:
 8866 009a 63656E74 		.ascii	"center_LED_x\000"
 8866      65725F4C 
 8866      45445F78 
 8866      00
 8867              	.LASF61:
 8868 00a7 63656E74 		.ascii	"center_LED_y\000"
 8868      65725F4C 
 8868      45445F79 
 8868      00
 8869              	.LASF97:
 8870 00b4 77726170 		.ascii	"wrap\000"
 8870      00
 8871              	.LASF80:
 8872 00b9 656D7074 		.ascii	"empty\000"
 8872      7900
 8873              	.LASF91:
 8874 00bf 63757273 		.ascii	"cursor_x\000"
 8874      6F725F78 
 8874      00
 8875              	.LASF47:
 8876 00c8 73657061 		.ascii	"separation_SW\000"
 8876      72617469 
 8876      6F6E5F53 
 8876      5700
 8877              	.LASF14:
 8878 00d6 75696E74 		.ascii	"uint16\000"
 8878      313600
 8879              	.LASF63:
 8880 00dd 73657061 		.ascii	"separation_HEX\000"
 8880      72617469 
 8880      6F6E5F48 
 8880      455800
 8881              	.LASF42:
 8882 00ec 63656E74 		.ascii	"center_PB_x\000"
 8882      65725F50 
 8882      425F7800 
 8883              	.LASF44:
 8884 00f8 63656E74 		.ascii	"center_PB_y\000"
 8884      65725F50 
 8884      425F7900 
 8885              	.LASF62:
 8886 0104 44726177 		.ascii	"DrawHEX_a\000"
ARM GAS  C:\Users\barror2\AppData\Local\Temp\ccQzPEXq.s 			page 168


 8886      4845585F 
 8886      6100
 8887              	.LASF68:
 8888 010e 44726177 		.ascii	"DrawHEX_b\000"
 8888      4845585F 
 8888      6200
 8889              	.LASF69:
 8890 0118 44726177 		.ascii	"DrawHEX_c\000"
 8890      4845585F 
 8890      6300
 8891              	.LASF70:
 8892 0122 44726177 		.ascii	"DrawHEX_d\000"
 8892      4845585F 
 8892      6400
 8893              	.LASF71:
 8894 012c 44726177 		.ascii	"DrawHEX_e\000"
 8894      4845585F 
 8894      6500
 8895              	.LASF72:
 8896 0136 44726177 		.ascii	"DrawHEX_f\000"
 8896      4845585F 
 8896      6600
 8897              	.LASF73:
 8898 0140 44726177 		.ascii	"DrawHEX_g\000"
 8898      4845585F 
 8898      6700
 8899              	.LASF99:
 8900 014a 5F686569 		.ascii	"_height\000"
 8900      67687400 
 8901              	.LASF33:
 8902 0152 70726576 		.ascii	"prev_LED_i_stat\000"
 8902      5F4C4544 
 8902      5F695F73 
 8902      74617400 
 8903              	.LASF0:
 8904 0162 7369676E 		.ascii	"signed char\000"
 8904      65642063 
 8904      68617200 
 8905              	.LASF78:
 8906 016e 77696474 		.ascii	"width\000"
 8906      6800
 8907              	.LASF50:
 8908 0174 656D7074 		.ascii	"empty_SW\000"
 8908      795F5357 
 8908      00
 8909              	.LASF15:
 8910 017d 666C6F61 		.ascii	"float\000"
 8910      7400
 8911              	.LASF95:
 8912 0183 74657874 		.ascii	"textsize\000"
 8912      73697A65 
 8912      00
 8913              	.LASF49:
 8914 018c 6C656E67 		.ascii	"length_SW\000"
 8914      74685F53 
 8914      5700
 8915              	.LASF10:
ARM GAS  C:\Users\barror2\AppData\Local\Temp\ccQzPEXq.s 			page 169


 8916 0196 6C6F6E67 		.ascii	"long long int\000"
 8916      206C6F6E 
 8916      6720696E 
 8916      7400
 8917              	.LASF8:
 8918 01a4 6C6F6E67 		.ascii	"long int\000"
 8918      20696E74 
 8918      00
 8919              	.LASF104:
 8920 01ad 6D617043 		.ascii	"mapCoor\000"
 8920      6F6F7200 
 8921              	.LASF77:
 8922 01b5 73657061 		.ascii	"separation\000"
 8922      72617469 
 8922      6F6E00
 8923              	.LASF26:
 8924 01c0 73775F73 		.ascii	"sw_stat\000"
 8924      74617400 
 8925              	.LASF89:
 8926 01c8 44726177 		.ascii	"DrawOutputs\000"
 8926      4F757470 
 8926      75747300 
 8927              	.LASF64:
 8928 01d4 77696474 		.ascii	"width_HEX\000"
 8928      685F4845 
 8928      5800
 8929              	.LASF40:
 8930 01de 656D7074 		.ascii	"empty_PB\000"
 8930      795F5042 
 8930      00
 8931              	.LASF101:
 8932 01e7 474E5520 		.ascii	"GNU C 4.7.3 20130312 (release) [ARM/embedded-4_7-br"
 8932      4320342E 
 8932      372E3320 
 8932      32303133 
 8932      30333132 
 8933 021a 616E6368 		.ascii	"anch revision 196615]\000"
 8933      20726576 
 8933      6973696F 
 8933      6E203139 
 8933      36363135 
 8934              	.LASF39:
 8935 0230 6C656E67 		.ascii	"length_PB\000"
 8935      74685F50 
 8935      4200
 8936              	.LASF1:
 8937 023a 756E7369 		.ascii	"unsigned char\000"
 8937      676E6564 
 8937      20636861 
 8937      7200
 8938              	.LASF98:
 8939 0248 5F776964 		.ascii	"_width\000"
 8939      746800
 8940              	.LASF54:
 8941 024f 6F757470 		.ascii	"outputs\000"
 8941      75747300 
 8942              	.LASF56:
ARM GAS  C:\Users\barror2\AppData\Local\Temp\ccQzPEXq.s 			page 170


 8943 0257 73697A65 		.ascii	"size_LED\000"
 8943      5F4C4544 
 8943      00
 8944              	.LASF55:
 8945 0260 73657061 		.ascii	"separation_LED\000"
 8945      72617469 
 8945      6F6E5F4C 
 8945      454400
 8946              	.LASF25:
 8947 026f 6865785F 		.ascii	"hex_stat\000"
 8947      73746174 
 8947      00
 8948              	.LASF88:
 8949 0278 44726177 		.ascii	"DrawInputs\000"
 8949      496E7075 
 8949      747300
 8950              	.LASF81:
 8951 0283 785F696E 		.ascii	"x_input\000"
 8951      70757400 
 8952              	.LASF11:
 8953 028b 6C6F6E67 		.ascii	"long long unsigned int\000"
 8953      206C6F6E 
 8953      6720756E 
 8953      7369676E 
 8953      65642069 
 8954              	.LASF43:
 8955 02a2 72616469 		.ascii	"radius_PB\000"
 8955      75735F50 
 8955      4200
 8956              	.LASF90:
 8957 02ac 4845585F 		.ascii	"HEX_state\000"
 8957      73746174 
 8957      6500
 8958              	.LASF45:
 8959 02b6 44726177 		.ascii	"DrawSlideSwitch\000"
 8959      536C6964 
 8959      65537769 
 8959      74636800 
 8960              	.LASF12:
 8961 02c6 756E7369 		.ascii	"unsigned int\000"
 8961      676E6564 
 8961      20696E74 
 8961      00
 8962              	.LASF5:
 8963 02d3 75696E74 		.ascii	"uint16_t\000"
 8963      31365F74 
 8963      00
 8964              	.LASF96:
 8965 02dc 726F7461 		.ascii	"rotation\000"
 8965      74696F6E 
 8965      00
 8966              	.LASF37:
 8967 02e5 696E7075 		.ascii	"inputs\000"
 8967      747300
 8968              	.LASF23:
 8969 02ec 70726576 		.ascii	"prev_LED_stat\000"
 8969      5F4C4544 
ARM GAS  C:\Users\barror2\AppData\Local\Temp\ccQzPEXq.s 			page 171


 8969      5F737461 
 8969      7400
 8970              	.LASF20:
 8971 02fa 53575F73 		.ascii	"SW_state_prev\000"
 8971      74617465 
 8971      5F707265 
 8971      7600
 8972              	.LASF19:
 8973 0308 53575F73 		.ascii	"SW_state\000"
 8973      74617465 
 8973      00
 8974              	.LASF57:
 8975 0311 656D7074 		.ascii	"empty_LED\000"
 8975      795F4C45 
 8975      4400
 8976              	.LASF27:
 8977 031b 6E65775F 		.ascii	"new_sw_stat\000"
 8977      73775F73 
 8977      74617400 
 8978              	.LASF17:
 8979 0327 63686172 		.ascii	"char\000"
 8979      00
 8980              	.LASF103:
 8981 032c 433A5C55 		.ascii	"C:\\Users\\barror2\\Dropbox\\RPiSoC\\Projects\\tft_"
 8981      73657273 
 8981      5C626172 
 8981      726F7232 
 8981      5C44726F 
 8982 0359 74657374 		.ascii	"test.Bundle01_Rev_b - touch\\Inputs_outputs.cydsn\000"
 8982      2E42756E 
 8982      646C6530 
 8982      315F5265 
 8982      765F6220 
 8983              	.LASF65:
 8984 038a 6C656E67 		.ascii	"length_HEX\000"
 8984      74685F48 
 8984      455800
 8985              	.LASF6:
 8986 0395 73686F72 		.ascii	"short unsigned int\000"
 8986      7420756E 
 8986      7369676E 
 8986      65642069 
 8986      6E7400
 8987              	.LASF3:
 8988 03a8 696E7431 		.ascii	"int16_t\000"
 8988      365F7400 
 8989              	.LASF13:
 8990 03b0 75696E74 		.ascii	"uint8\000"
 8990      3800
 8991              	.LASF67:
 8992 03b6 785F4845 		.ascii	"x_HEX\000"
 8992      5800
 8993              	.LASF21:
 8994 03bc 746F7563 		.ascii	"touched\000"
 8994      68656400 
 8995              	.LASF93:
 8996 03c4 74657874 		.ascii	"textcolor\000"
ARM GAS  C:\Users\barror2\AppData\Local\Temp\ccQzPEXq.s 			page 172


 8996      636F6C6F 
 8996      7200
 8997              	.LASF30:
 8998 03ce 62756666 		.ascii	"buffer\000"
 8998      657200
 8999              	.LASF9:
 9000 03d5 6C6F6E67 		.ascii	"long unsigned int\000"
 9000      20756E73 
 9000      69676E65 
 9000      6420696E 
 9000      7400
 9001              	.LASF16:
 9002 03e7 646F7562 		.ascii	"double\000"
 9002      6C6500
 9003              	.LASF28:
 9004 03ee 6D61736B 		.ascii	"mask_h\000"
 9004      5F6800
 9005              	.LASF51:
 9006 03f5 785F5357 		.ascii	"x_SW\000"
 9006      00
 9007              	.LASF29:
 9008 03fa 6D61736B 		.ascii	"mask_l\000"
 9008      5F6C00
 9009              	.LASF22:
 9010 0401 4C45445F 		.ascii	"LED_stat\000"
 9010      73746174 
 9010      00
 9011              	.LASF102:
 9012 040a 2E5C6D61 		.ascii	".\\main.c\000"
 9012      696E2E63 
 9012      00
 9013              	.LASF2:
 9014 0413 75696E74 		.ascii	"uint8_t\000"
 9014      385F7400 
 9015              	.LASF35:
 9016 041b 44726177 		.ascii	"DrawPushbutton\000"
 9016      50757368 
 9016      62757474 
 9016      6F6E00
 9017              	.LASF18:
 9018 042a 73697A65 		.ascii	"sizetype\000"
 9018      74797065 
 9018      00
 9019              	.LASF52:
 9020 0433 44726177 		.ascii	"DrawLED\000"
 9020      4C454400 
 9021              	.LASF60:
 9022 043b 72616469 		.ascii	"radius_LED\000"
 9022      75735F4C 
 9022      454400
 9023              	.LASF41:
 9024 0446 785F5042 		.ascii	"x_PB\000"
 9024      00
 9025              	.LASF75:
 9026 044b 73746174 		.ascii	"stat\000"
 9026      00
 9027              	.LASF82:
ARM GAS  C:\Users\barror2\AppData\Local\Temp\ccQzPEXq.s 			page 173


 9028 0450 77616974 		.ascii	"waiting\000"
 9028      696E6700 
 9029              	.LASF100:
 9030 0458 49544D5F 		.ascii	"ITM_RxBuffer\000"
 9030      52784275 
 9030      66666572 
 9030      00
 9031              	.LASF24:
 9032 0465 70726576 		.ascii	"prev_hex_stat\000"
 9032      5F686578 
 9032      5F737461 
 9032      7400
 9033              	.LASF32:
 9034 0473 4C45445F 		.ascii	"LED_i_state\000"
 9034      695F7374 
 9034      61746500 
 9035              	.LASF83:
 9036 047f 5446545F 		.ascii	"TFT_INIT\000"
 9036      494E4954 
 9036      00
 9037              	.LASF31:
 9038 0488 6D61736B 		.ascii	"mask\000"
 9038      00
 9039              	.LASF87:
 9040 048d 6F75745F 		.ascii	"out_max\000"
 9040      6D617800 
 9041              		.ident	"GCC: (GNU Tools for ARM Embedded Processors) 4.7.3 20130312 (release) [ARM/embedded-4_7-br
