ARM GAS  C:\Users\LilRobby\AppData\Local\Temp\ccCay2SU.s 			page 1


   1              		.syntax unified
   2              		.cpu cortex-m3
   3              		.fpu softvfp
   4              		.eabi_attribute 20, 1
   5              		.eabi_attribute 21, 1
   6              		.eabi_attribute 23, 3
   7              		.eabi_attribute 24, 1
   8              		.eabi_attribute 25, 1
   9              		.eabi_attribute 26, 1
  10              		.eabi_attribute 30, 6
  11              		.eabi_attribute 34, 1
  12              		.eabi_attribute 18, 4
  13              		.thumb
  14              		.file	"main.c"
  15              		.text
  16              	.Ltext0:
  17              		.cfi_sections	.debug_frame
  18              		.comm	cursor_x,2,2
  19              		.comm	cursor_y,2,2
  20              		.comm	textcolor,2,2
  21              		.comm	textbgcolor,2,2
  22              		.comm	textsize,1,1
  23              		.comm	rotation,1,1
  24              		.comm	wrap,1,1
  25              		.comm	_width,4,4
  26              		.comm	_height,4,4
  27              		.comm	oldcolor,4,4
  28              		.comm	currentcolor,4,4
  29              		.section	.text.main,"ax",%progbits
  30              		.align	2
  31              		.global	main
  32              		.thumb
  33              		.thumb_func
  34              		.type	main, %function
  35              	main:
  36              	.LFB56:
  37              		.file 1 "main.c"
   1:main.c        **** /*******************************************************************************
   2:main.c        **** * \file main.c
   3:main.c        **** * \brief This file is used to demonstrate the TFTSHIELD API for PiSoC/PSoC. It mimics the functiona
   4:main.c        **** *
   5:main.c        **** * Version 1.1
   6:main.c        **** *
   7:main.c        **** * \author Robert Barron
   8:main.c        **** *
   9:main.c        **** * \bug 
  10:main.c        **** *
  11:main.c        **** * Here is the original credit:
  12:main.c        **** *
  13:main.c        **** *  This is our touchscreen painting example for the Adafruit ILI9341 Shield
  14:main.c        ****   ----> http://www.adafruit.com/products/1651
  15:main.c        **** 
  16:main.c        ****   Check out the links above for our tutorials and wiring diagrams
  17:main.c        ****   These displays use SPI to communicate, 4 or 5 pins are required to
  18:main.c        ****   interface (RST is optional)
  19:main.c        ****   Adafruit invests time and resources providing this open source code,
  20:main.c        ****   please support Adafruit and open-source hardware by purchasing
ARM GAS  C:\Users\LilRobby\AppData\Local\Temp\ccCay2SU.s 			page 2


  21:main.c        ****   products from Adafruit!
  22:main.c        **** 
  23:main.c        ****   Written by Limor Fried/Ladyada for Adafruit Industries.
  24:main.c        ****   MIT license, all text above must be included in any redistribution
  25:main.c        **** *******************************************************************************/
  26:main.c        **** #include <project.h>
  27:main.c        **** #include "stdio.h"
  28:main.c        **** 
  29:main.c        **** // This is calibration data for the raw touch data to the screen coordinates
  30:main.c        **** #define TS_MINX 150
  31:main.c        **** #define TS_MINY 130
  32:main.c        **** #define TS_MAXX 3800
  33:main.c        **** #define TS_MAXY 4000
  34:main.c        **** // Size of the color selection boxes and the paintbrush size
  35:main.c        **** #define BOXSIZE 40
  36:main.c        **** #define PENRADIUS 3
  37:main.c        **** int oldcolor, currentcolor;
  38:main.c        **** 
  39:main.c        **** long mapCoor(long x, long in_min, long in_max, long out_min, long out_max);
  40:main.c        **** 
  41:main.c        **** 
  42:main.c        **** int main()
  43:main.c        **** {   
  38              		.loc 1 43 0
  39              		.cfi_startproc
  40              		@ args = 0, pretend = 0, frame = 64
  41              		@ frame_needed = 1, uses_anonymous_args = 0
  42 0000 80B5     		push	{r7, lr}
  43              		.cfi_def_cfa_offset 8
  44              		.cfi_offset 7, -8
  45              		.cfi_offset 14, -4
  46 0002 92B0     		sub	sp, sp, #72
  47              		.cfi_def_cfa_offset 80
  48 0004 02AF     		add	r7, sp, #8
  49              		.cfi_def_cfa 7, 72
  44:main.c        ****     //initializes tft
  45:main.c        ****     CyDelay(1000);
  50              		.loc 1 45 0
  51 0006 4FF47A70 		mov	r0, #1000
  52 000a FFF7FEFF 		bl	CyDelay
  46:main.c        ****     Clock_1_SetDividerValue(24);
  53              		.loc 1 46 0
  54 000e 1720     		movs	r0, #23
  55 0010 0121     		movs	r1, #1
  56 0012 FFF7FEFF 		bl	Clock_1_SetDividerRegister
  47:main.c        ****     CyDelay(10);
  57              		.loc 1 47 0
  58 0016 0A20     		movs	r0, #10
  59 0018 FFF7FEFF 		bl	CyDelay
  48:main.c        ****     //TFTSHIELD_1_StartTouch();
  49:main.c        ****     bool touch_en = 0;
  60              		.loc 1 49 0
  61 001c 0023     		movs	r3, #0
  62 001e 87F83F30 		strb	r3, [r7, #63]
  50:main.c        ****     
  51:main.c        ****     if(TFTSHIELD_1_StartTouch())
  63              		.loc 1 51 0
ARM GAS  C:\Users\LilRobby\AppData\Local\Temp\ccCay2SU.s 			page 3


  64 0022 FFF7FEFF 		bl	TFTSHIELD_1_StartTouch
  65 0026 0346     		mov	r3, r0
  66 0028 002B     		cmp	r3, #0
  67 002a 02D0     		beq	.L2
  52:main.c        ****     {
  53:main.c        ****        touch_en = 1;
  68              		.loc 1 53 0
  69 002c 0123     		movs	r3, #1
  70 002e 87F83F30 		strb	r3, [r7, #63]
  71              	.L2:
  54:main.c        ****     }
  55:main.c        ****     
  56:main.c        ****     Clock_1_SetDividerValue(1);
  72              		.loc 1 56 0
  73 0032 0020     		movs	r0, #0
  74 0034 0121     		movs	r1, #1
  75 0036 FFF7FEFF 		bl	Clock_1_SetDividerRegister
  57:main.c        ****     CyDelay(10);
  76              		.loc 1 57 0
  77 003a 0A20     		movs	r0, #10
  78 003c FFF7FEFF 		bl	CyDelay
  58:main.c        ****     TFTSHIELD_1_Start();
  79              		.loc 1 58 0
  80 0040 FFF7FEFF 		bl	TFTSHIELD_1_Start
  59:main.c        ****     
  60:main.c        ****     TFTSHIELD_1_FillScreen(BLACK);
  81              		.loc 1 60 0
  82 0044 0020     		movs	r0, #0
  83 0046 FFF7FEFF 		bl	TFTSHIELD_1_FillScreen
  61:main.c        ****     //start at 0,0 for text
  62:main.c        ****     TFTSHIELD_1_SetCursor(0,0);
  84              		.loc 1 62 0
  85 004a 0020     		movs	r0, #0
  86 004c 0021     		movs	r1, #0
  87 004e FFF7FEFF 		bl	TFTSHIELD_1_SetCursor
  63:main.c        ****     TFTSHIELD_1_SetTextColor(WHITE);  
  88              		.loc 1 63 0
  89 0052 4FF6FF70 		movw	r0, #65535
  90 0056 FFF7FEFF 		bl	TFTSHIELD_1_SetTextColor
  64:main.c        ****     TFTSHIELD_1_SetTextSize(2);
  91              		.loc 1 64 0
  92 005a 0220     		movs	r0, #2
  93 005c FFF7FEFF 		bl	TFTSHIELD_1_SetTextSize
  65:main.c        ****     
  66:main.c        ****     //landscape orientation
  67:main.c        ****     //TFTSHIELD_1_SetRotation(1);
  68:main.c        ****     //TFTSHIELD_1_PrintString("tft lcd screen with word wrap working blah");
  69:main.c        ****     
  70:main.c        ****     //TFTSHIELD_1_DrawLine(50, 150, 100, 150, GREEN);
  71:main.c        ****    // TFTSHIELD_1_DrawLine(35, 100, 35 , 200, BLUE);
  72:main.c        ****     //TFTSHIELD_1_FillCircle(100,100,10,MAGENTA);
  73:main.c        ****     
  74:main.c        ****     //TFTSHIELD_1_FillRect(150, 150, 75,75, YELLOW);
  75:main.c        ****     if(touch_en)
  76:main.c        ****     {
  77:main.c        ****         //TFTSHIELD_1_PrintString("GO1");
  78:main.c        ****     }
ARM GAS  C:\Users\LilRobby\AppData\Local\Temp\ccCay2SU.s 			page 4


  79:main.c        ****     //initializes touchscreen
  80:main.c        ****     //clock must be set to 1MHZ when polling the touchscreen..
  81:main.c        ****     Clock_1_SetDividerValue(24);
  94              		.loc 1 81 0
  95 0060 1720     		movs	r0, #23
  96 0062 0121     		movs	r1, #1
  97 0064 FFF7FEFF 		bl	Clock_1_SetDividerRegister
  82:main.c        ****     CyDelay(10);
  98              		.loc 1 82 0
  99 0068 0A20     		movs	r0, #10
 100 006a FFF7FEFF 		bl	CyDelay
  83:main.c        ****     
  84:main.c        ****     //int touchon = 0;
  85:main.c        ****     if(TFTSHIELD_1_StartTouch())
 101              		.loc 1 85 0
 102 006e FFF7FEFF 		bl	TFTSHIELD_1_StartTouch
  86:main.c        ****     {
  87:main.c        ****          //touchon = 1;  
  88:main.c        ****         /*Clock_1_SetDividerValue(1);
  89:main.c        ****         CyDelay(1);
  90:main.c        ****         TFTSHIELD_1_PrintString("     GO2");
  91:main.c        ****         Clock_1_SetDividerValue(24);*/
  92:main.c        ****     }
  93:main.c        ****     
  94:main.c        ****     Clock_1_SetDividerValue(1);
 103              		.loc 1 94 0
 104 0072 0020     		movs	r0, #0
 105 0074 0121     		movs	r1, #1
 106 0076 FFF7FEFF 		bl	Clock_1_SetDividerRegister
  95:main.c        ****     CyDelay(10);
 107              		.loc 1 95 0
 108 007a 0A20     		movs	r0, #10
 109 007c FFF7FEFF 		bl	CyDelay
  96:main.c        ****    // make the color selection boxes
  97:main.c        ****     TFTSHIELD_1_FillRect(0, 0, BOXSIZE, BOXSIZE,RED);
 110              		.loc 1 97 0
 111 0080 4FF47843 		mov	r3, #63488
 112 0084 0093     		str	r3, [sp]
 113 0086 0020     		movs	r0, #0
 114 0088 0021     		movs	r1, #0
 115 008a 2822     		movs	r2, #40
 116 008c 2823     		movs	r3, #40
 117 008e FFF7FEFF 		bl	TFTSHIELD_1_FillRect
  98:main.c        ****     TFTSHIELD_1_FillRect(BOXSIZE, 0, BOXSIZE, BOXSIZE, YELLOW);
 118              		.loc 1 98 0
 119 0092 4FF6E073 		movw	r3, #65504
 120 0096 0093     		str	r3, [sp]
 121 0098 2820     		movs	r0, #40
 122 009a 0021     		movs	r1, #0
 123 009c 2822     		movs	r2, #40
 124 009e 2823     		movs	r3, #40
 125 00a0 FFF7FEFF 		bl	TFTSHIELD_1_FillRect
  99:main.c        ****     TFTSHIELD_1_FillRect(BOXSIZE*2, 0, BOXSIZE, BOXSIZE, GREEN);
 126              		.loc 1 99 0
 127 00a4 4FF4FC63 		mov	r3, #2016
 128 00a8 0093     		str	r3, [sp]
 129 00aa 5020     		movs	r0, #80
ARM GAS  C:\Users\LilRobby\AppData\Local\Temp\ccCay2SU.s 			page 5


 130 00ac 0021     		movs	r1, #0
 131 00ae 2822     		movs	r2, #40
 132 00b0 2823     		movs	r3, #40
 133 00b2 FFF7FEFF 		bl	TFTSHIELD_1_FillRect
 100:main.c        ****     TFTSHIELD_1_FillRect(BOXSIZE*3, 0, BOXSIZE, BOXSIZE, CYAN);
 134              		.loc 1 100 0
 135 00b6 40F2FF73 		movw	r3, #2047
 136 00ba 0093     		str	r3, [sp]
 137 00bc 7820     		movs	r0, #120
 138 00be 0021     		movs	r1, #0
 139 00c0 2822     		movs	r2, #40
 140 00c2 2823     		movs	r3, #40
 141 00c4 FFF7FEFF 		bl	TFTSHIELD_1_FillRect
 101:main.c        ****     TFTSHIELD_1_FillRect(BOXSIZE*4, 0, BOXSIZE, BOXSIZE, BLUE);
 142              		.loc 1 101 0
 143 00c8 1F23     		movs	r3, #31
 144 00ca 0093     		str	r3, [sp]
 145 00cc A020     		movs	r0, #160
 146 00ce 0021     		movs	r1, #0
 147 00d0 2822     		movs	r2, #40
 148 00d2 2823     		movs	r3, #40
 149 00d4 FFF7FEFF 		bl	TFTSHIELD_1_FillRect
 102:main.c        ****     TFTSHIELD_1_FillRect(BOXSIZE*5, 0, BOXSIZE, BOXSIZE, MAGENTA);
 150              		.loc 1 102 0
 151 00d8 4FF61F03 		movw	r3, #63519
 152 00dc 0093     		str	r3, [sp]
 153 00de C820     		movs	r0, #200
 154 00e0 0021     		movs	r1, #0
 155 00e2 2822     		movs	r2, #40
 156 00e4 2823     		movs	r3, #40
 157 00e6 FFF7FEFF 		bl	TFTSHIELD_1_FillRect
 103:main.c        ****  
 104:main.c        ****   // select the current color 'red'
 105:main.c        ****   TFTSHIELD_1_FillRect(0, 0, BOXSIZE, BOXSIZE,WHITE);
 158              		.loc 1 105 0
 159 00ea 4FF6FF73 		movw	r3, #65535
 160 00ee 0093     		str	r3, [sp]
 161 00f0 0020     		movs	r0, #0
 162 00f2 0021     		movs	r1, #0
 163 00f4 2822     		movs	r2, #40
 164 00f6 2823     		movs	r3, #40
 165 00f8 FFF7FEFF 		bl	TFTSHIELD_1_FillRect
 106:main.c        ****   currentcolor = RED;
 166              		.loc 1 106 0
 167 00fc 8D4B     		ldr	r3, .L17
 168 00fe 4FF47842 		mov	r2, #63488
 169 0102 1A60     		str	r2, [r3]
 170              	.L16:
 171              	.LBB2:
 107:main.c        ****     
 108:main.c        ****     for(;;)
 109:main.c        ****     {
 110:main.c        ****         Clock_1_SetDividerValue(24);
 172              		.loc 1 110 0
 173 0104 1720     		movs	r0, #23
 174 0106 0121     		movs	r1, #1
 175 0108 FFF7FEFF 		bl	Clock_1_SetDividerRegister
ARM GAS  C:\Users\LilRobby\AppData\Local\Temp\ccCay2SU.s 			page 6


 111:main.c        ****         uint16_t x, y;
 112:main.c        ****         uint8_t z, buf;
 113:main.c        ****         char buffer[50];
 114:main.c        ****         //Clock_1_SetDividerValue(24);
 115:main.c        ****         CyDelay(1);
 176              		.loc 1 115 0
 177 010c 0120     		movs	r0, #1
 178 010e FFF7FEFF 		bl	CyDelay
 116:main.c        ****         if(TFTSHIELD_1_Touched())
 179              		.loc 1 116 0
 180 0112 FFF7FEFF 		bl	TFTSHIELD_1_Touched
 181 0116 0346     		mov	r3, r0
 182 0118 002B     		cmp	r3, #0
 183 011a 00F00A81 		beq	.L3
 117:main.c        ****         {
 118:main.c        ****            
 119:main.c        ****             TFTSHIELD_1_ReadData(&x,&y,&z);
 184              		.loc 1 119 0
 185 011e 07F13C01 		add	r1, r7, #60
 186 0122 07F13A02 		add	r2, r7, #58
 187 0126 07F13903 		add	r3, r7, #57
 188 012a 0846     		mov	r0, r1
 189 012c 1146     		mov	r1, r2
 190 012e 1A46     		mov	r2, r3
 191 0130 FFF7FEFF 		bl	TFTSHIELD_1_ReadData
 120:main.c        ****             x = mapCoor(x, TS_MINX, TS_MAXX, 0, 240);
 192              		.loc 1 120 0
 193 0134 BB8F     		ldrh	r3, [r7, #60]
 194 0136 1A46     		mov	r2, r3
 195 0138 F023     		movs	r3, #240
 196 013a 0093     		str	r3, [sp]
 197 013c 1046     		mov	r0, r2
 198 013e 9621     		movs	r1, #150
 199 0140 40F6D862 		movw	r2, #3800
 200 0144 0023     		movs	r3, #0
 201 0146 FFF7FEFF 		bl	mapCoor
 202 014a 0346     		mov	r3, r0
 203 014c 9BB2     		uxth	r3, r3
 204 014e BB87     		strh	r3, [r7, #60]	@ movhi
 121:main.c        ****             y = mapCoor(y, TS_MINY, TS_MAXY, 0, 320);    
 205              		.loc 1 121 0
 206 0150 7B8F     		ldrh	r3, [r7, #58]
 207 0152 1A46     		mov	r2, r3
 208 0154 4FF4A073 		mov	r3, #320
 209 0158 0093     		str	r3, [sp]
 210 015a 1046     		mov	r0, r2
 211 015c 8221     		movs	r1, #130
 212 015e 4FF47A62 		mov	r2, #4000
 213 0162 0023     		movs	r3, #0
 214 0164 FFF7FEFF 		bl	mapCoor
 215 0168 0346     		mov	r3, r0
 216 016a 9BB2     		uxth	r3, r3
 217 016c 7B87     		strh	r3, [r7, #58]	@ movhi
 122:main.c        ****            
 123:main.c        ****             Clock_1_SetDividerValue(1);
 218              		.loc 1 123 0
 219 016e 0020     		movs	r0, #0
ARM GAS  C:\Users\LilRobby\AppData\Local\Temp\ccCay2SU.s 			page 7


 220 0170 0121     		movs	r1, #1
 221 0172 FFF7FEFF 		bl	Clock_1_SetDividerRegister
 124:main.c        ****             if (y < BOXSIZE) {
 222              		.loc 1 124 0
 223 0176 7B8F     		ldrh	r3, [r7, #58]
 224 0178 272B     		cmp	r3, #39
 225 017a 00F2C380 		bhi	.L4
 125:main.c        ****                  oldcolor = currentcolor;
 226              		.loc 1 125 0
 227 017e 6D4B     		ldr	r3, .L17
 228 0180 1B68     		ldr	r3, [r3]
 229 0182 6D4A     		ldr	r2, .L17+4
 230 0184 1360     		str	r3, [r2]
 126:main.c        **** 
 127:main.c        ****                  if (x < BOXSIZE) 
 231              		.loc 1 127 0
 232 0186 BB8F     		ldrh	r3, [r7, #60]
 233 0188 272B     		cmp	r3, #39
 234 018a 0DD8     		bhi	.L5
 128:main.c        ****                  { 
 129:main.c        ****                    currentcolor = RED; 
 235              		.loc 1 129 0
 236 018c 694B     		ldr	r3, .L17
 237 018e 4FF47842 		mov	r2, #63488
 238 0192 1A60     		str	r2, [r3]
 130:main.c        ****                    TFTSHIELD_1_DrawRect(0, 0, BOXSIZE, BOXSIZE, WHITE);
 239              		.loc 1 130 0
 240 0194 4FF6FF73 		movw	r3, #65535
 241 0198 0093     		str	r3, [sp]
 242 019a 0020     		movs	r0, #0
 243 019c 0021     		movs	r1, #0
 244 019e 2822     		movs	r2, #40
 245 01a0 2823     		movs	r3, #40
 246 01a2 FFF7FEFF 		bl	TFTSHIELD_1_DrawRect
 247 01a6 52E0     		b	.L6
 248              	.L5:
 131:main.c        ****                  } else if (x < BOXSIZE*2) {
 249              		.loc 1 131 0
 250 01a8 BB8F     		ldrh	r3, [r7, #60]
 251 01aa 4F2B     		cmp	r3, #79
 252 01ac 0DD8     		bhi	.L7
 132:main.c        ****                    currentcolor = YELLOW;
 253              		.loc 1 132 0
 254 01ae 614B     		ldr	r3, .L17
 255 01b0 4FF6E072 		movw	r2, #65504
 256 01b4 1A60     		str	r2, [r3]
 133:main.c        ****                    TFTSHIELD_1_DrawRect(BOXSIZE, 0, BOXSIZE, BOXSIZE, WHITE);
 257              		.loc 1 133 0
 258 01b6 4FF6FF73 		movw	r3, #65535
 259 01ba 0093     		str	r3, [sp]
 260 01bc 2820     		movs	r0, #40
 261 01be 0021     		movs	r1, #0
 262 01c0 2822     		movs	r2, #40
 263 01c2 2823     		movs	r3, #40
 264 01c4 FFF7FEFF 		bl	TFTSHIELD_1_DrawRect
 265 01c8 41E0     		b	.L6
 266              	.L7:
ARM GAS  C:\Users\LilRobby\AppData\Local\Temp\ccCay2SU.s 			page 8


 134:main.c        ****                  } else if (x < BOXSIZE*3) {
 267              		.loc 1 134 0
 268 01ca BB8F     		ldrh	r3, [r7, #60]
 269 01cc 772B     		cmp	r3, #119
 270 01ce 0DD8     		bhi	.L8
 135:main.c        ****                    currentcolor = GREEN;
 271              		.loc 1 135 0
 272 01d0 584B     		ldr	r3, .L17
 273 01d2 4FF4FC62 		mov	r2, #2016
 274 01d6 1A60     		str	r2, [r3]
 136:main.c        ****                    TFTSHIELD_1_DrawRect(BOXSIZE*2, 0, BOXSIZE, BOXSIZE, WHITE);
 275              		.loc 1 136 0
 276 01d8 4FF6FF73 		movw	r3, #65535
 277 01dc 0093     		str	r3, [sp]
 278 01de 5020     		movs	r0, #80
 279 01e0 0021     		movs	r1, #0
 280 01e2 2822     		movs	r2, #40
 281 01e4 2823     		movs	r3, #40
 282 01e6 FFF7FEFF 		bl	TFTSHIELD_1_DrawRect
 283 01ea 30E0     		b	.L6
 284              	.L8:
 137:main.c        ****                  } else if (x < BOXSIZE*4) {
 285              		.loc 1 137 0
 286 01ec BB8F     		ldrh	r3, [r7, #60]
 287 01ee 9F2B     		cmp	r3, #159
 288 01f0 0DD8     		bhi	.L9
 138:main.c        ****                    currentcolor = CYAN;
 289              		.loc 1 138 0
 290 01f2 504B     		ldr	r3, .L17
 291 01f4 40F2FF72 		movw	r2, #2047
 292 01f8 1A60     		str	r2, [r3]
 139:main.c        ****                    TFTSHIELD_1_DrawRect(BOXSIZE*3, 0, BOXSIZE, BOXSIZE, WHITE);
 293              		.loc 1 139 0
 294 01fa 4FF6FF73 		movw	r3, #65535
 295 01fe 0093     		str	r3, [sp]
 296 0200 7820     		movs	r0, #120
 297 0202 0021     		movs	r1, #0
 298 0204 2822     		movs	r2, #40
 299 0206 2823     		movs	r3, #40
 300 0208 FFF7FEFF 		bl	TFTSHIELD_1_DrawRect
 301 020c 1FE0     		b	.L6
 302              	.L9:
 140:main.c        ****                  } else if (x < BOXSIZE*5) {
 303              		.loc 1 140 0
 304 020e BB8F     		ldrh	r3, [r7, #60]
 305 0210 C72B     		cmp	r3, #199
 306 0212 0CD8     		bhi	.L10
 141:main.c        ****                    currentcolor = BLUE;
 307              		.loc 1 141 0
 308 0214 474B     		ldr	r3, .L17
 309 0216 1F22     		movs	r2, #31
 310 0218 1A60     		str	r2, [r3]
 142:main.c        ****                    TFTSHIELD_1_DrawRect(BOXSIZE*4, 0, BOXSIZE, BOXSIZE,WHITE);
 311              		.loc 1 142 0
 312 021a 4FF6FF73 		movw	r3, #65535
 313 021e 0093     		str	r3, [sp]
 314 0220 A020     		movs	r0, #160
ARM GAS  C:\Users\LilRobby\AppData\Local\Temp\ccCay2SU.s 			page 9


 315 0222 0021     		movs	r1, #0
 316 0224 2822     		movs	r2, #40
 317 0226 2823     		movs	r3, #40
 318 0228 FFF7FEFF 		bl	TFTSHIELD_1_DrawRect
 319 022c 0FE0     		b	.L6
 320              	.L10:
 143:main.c        ****                  } else if (x < BOXSIZE*6) {
 321              		.loc 1 143 0
 322 022e BB8F     		ldrh	r3, [r7, #60]
 323 0230 EF2B     		cmp	r3, #239
 324 0232 0CD8     		bhi	.L6
 144:main.c        ****                    currentcolor = MAGENTA;
 325              		.loc 1 144 0
 326 0234 3F4B     		ldr	r3, .L17
 327 0236 4FF61F02 		movw	r2, #63519
 328 023a 1A60     		str	r2, [r3]
 145:main.c        ****                    TFTSHIELD_1_DrawRect(BOXSIZE*5, 0, BOXSIZE, BOXSIZE, WHITE);
 329              		.loc 1 145 0
 330 023c 4FF6FF73 		movw	r3, #65535
 331 0240 0093     		str	r3, [sp]
 332 0242 C820     		movs	r0, #200
 333 0244 0021     		movs	r1, #0
 334 0246 2822     		movs	r2, #40
 335 0248 2823     		movs	r3, #40
 336 024a FFF7FEFF 		bl	TFTSHIELD_1_DrawRect
 337              	.L6:
 146:main.c        ****                  }
 147:main.c        **** 
 148:main.c        ****                  if (oldcolor != currentcolor) 
 338              		.loc 1 148 0
 339 024e 3A4B     		ldr	r3, .L17+4
 340 0250 1A68     		ldr	r2, [r3]
 341 0252 384B     		ldr	r3, .L17
 342 0254 1B68     		ldr	r3, [r3]
 343 0256 9A42     		cmp	r2, r3
 344 0258 54D0     		beq	.L4
 149:main.c        ****                 {
 150:main.c        ****                     if (oldcolor == RED) 
 345              		.loc 1 150 0
 346 025a 374B     		ldr	r3, .L17+4
 347 025c 1B68     		ldr	r3, [r3]
 348 025e B3F5784F 		cmp	r3, #63488
 349 0262 08D1     		bne	.L11
 151:main.c        ****                       TFTSHIELD_1_FillRect(0, 0, BOXSIZE, BOXSIZE, RED);
 350              		.loc 1 151 0
 351 0264 4FF47843 		mov	r3, #63488
 352 0268 0093     		str	r3, [sp]
 353 026a 0020     		movs	r0, #0
 354 026c 0021     		movs	r1, #0
 355 026e 2822     		movs	r2, #40
 356 0270 2823     		movs	r3, #40
 357 0272 FFF7FEFF 		bl	TFTSHIELD_1_FillRect
 358              	.L11:
 152:main.c        ****                     if (oldcolor == YELLOW) 
 359              		.loc 1 152 0
 360 0276 304B     		ldr	r3, .L17+4
 361 0278 1B68     		ldr	r3, [r3]
ARM GAS  C:\Users\LilRobby\AppData\Local\Temp\ccCay2SU.s 			page 10


 362 027a 4FF6E072 		movw	r2, #65504
 363 027e 9342     		cmp	r3, r2
 364 0280 08D1     		bne	.L12
 153:main.c        ****                       TFTSHIELD_1_FillRect(BOXSIZE, 0, BOXSIZE, BOXSIZE, YELLOW);
 365              		.loc 1 153 0
 366 0282 4FF6E073 		movw	r3, #65504
 367 0286 0093     		str	r3, [sp]
 368 0288 2820     		movs	r0, #40
 369 028a 0021     		movs	r1, #0
 370 028c 2822     		movs	r2, #40
 371 028e 2823     		movs	r3, #40
 372 0290 FFF7FEFF 		bl	TFTSHIELD_1_FillRect
 373              	.L12:
 154:main.c        ****                     if (oldcolor == GREEN) 
 374              		.loc 1 154 0
 375 0294 284B     		ldr	r3, .L17+4
 376 0296 1B68     		ldr	r3, [r3]
 377 0298 B3F5FC6F 		cmp	r3, #2016
 378 029c 08D1     		bne	.L13
 155:main.c        ****                       TFTSHIELD_1_FillRect(BOXSIZE*2, 0, BOXSIZE, BOXSIZE, GREEN);
 379              		.loc 1 155 0
 380 029e 4FF4FC63 		mov	r3, #2016
 381 02a2 0093     		str	r3, [sp]
 382 02a4 5020     		movs	r0, #80
 383 02a6 0021     		movs	r1, #0
 384 02a8 2822     		movs	r2, #40
 385 02aa 2823     		movs	r3, #40
 386 02ac FFF7FEFF 		bl	TFTSHIELD_1_FillRect
 387              	.L13:
 156:main.c        ****                     if (oldcolor == CYAN) 
 388              		.loc 1 156 0
 389 02b0 214B     		ldr	r3, .L17+4
 390 02b2 1B68     		ldr	r3, [r3]
 391 02b4 40F2FF72 		movw	r2, #2047
 392 02b8 9342     		cmp	r3, r2
 393 02ba 08D1     		bne	.L14
 157:main.c        ****                       TFTSHIELD_1_FillRect(BOXSIZE*3, 0, BOXSIZE, BOXSIZE, CYAN);
 394              		.loc 1 157 0
 395 02bc 40F2FF73 		movw	r3, #2047
 396 02c0 0093     		str	r3, [sp]
 397 02c2 7820     		movs	r0, #120
 398 02c4 0021     		movs	r1, #0
 399 02c6 2822     		movs	r2, #40
 400 02c8 2823     		movs	r3, #40
 401 02ca FFF7FEFF 		bl	TFTSHIELD_1_FillRect
 402              	.L14:
 158:main.c        ****                     if (oldcolor == BLUE) 
 403              		.loc 1 158 0
 404 02ce 1A4B     		ldr	r3, .L17+4
 405 02d0 1B68     		ldr	r3, [r3]
 406 02d2 1F2B     		cmp	r3, #31
 407 02d4 07D1     		bne	.L15
 159:main.c        ****                       TFTSHIELD_1_FillRect(BOXSIZE*4, 0, BOXSIZE, BOXSIZE, BLUE);
 408              		.loc 1 159 0
 409 02d6 1F23     		movs	r3, #31
 410 02d8 0093     		str	r3, [sp]
 411 02da A020     		movs	r0, #160
ARM GAS  C:\Users\LilRobby\AppData\Local\Temp\ccCay2SU.s 			page 11


 412 02dc 0021     		movs	r1, #0
 413 02de 2822     		movs	r2, #40
 414 02e0 2823     		movs	r3, #40
 415 02e2 FFF7FEFF 		bl	TFTSHIELD_1_FillRect
 416              	.L15:
 160:main.c        ****                     if (oldcolor == MAGENTA) 
 417              		.loc 1 160 0
 418 02e6 144B     		ldr	r3, .L17+4
 419 02e8 1B68     		ldr	r3, [r3]
 420 02ea 4FF61F02 		movw	r2, #63519
 421 02ee 9342     		cmp	r3, r2
 422 02f0 08D1     		bne	.L4
 161:main.c        ****                       TFTSHIELD_1_FillRect(BOXSIZE*5, 0, BOXSIZE, BOXSIZE, MAGENTA);
 423              		.loc 1 161 0
 424 02f2 4FF61F03 		movw	r3, #63519
 425 02f6 0093     		str	r3, [sp]
 426 02f8 C820     		movs	r0, #200
 427 02fa 0021     		movs	r1, #0
 428 02fc 2822     		movs	r2, #40
 429 02fe 2823     		movs	r3, #40
 430 0300 FFF7FEFF 		bl	TFTSHIELD_1_FillRect
 431              	.L4:
 162:main.c        ****                 }
 163:main.c        ****               }
 164:main.c        ****             if (((y-PENRADIUS) > BOXSIZE) && ((y+PENRADIUS) < 320))
 432              		.loc 1 164 0
 433 0304 7B8F     		ldrh	r3, [r7, #58]
 434 0306 033B     		subs	r3, r3, #3
 435 0308 282B     		cmp	r3, #40
 436 030a 12DD     		ble	.L3
 437              		.loc 1 164 0 is_stmt 0 discriminator 1
 438 030c 7B8F     		ldrh	r3, [r7, #58]
 439 030e 0333     		adds	r3, r3, #3
 440 0310 B3F5A07F 		cmp	r3, #320
 441 0314 0DDA     		bge	.L3
 165:main.c        ****             {
 166:main.c        ****                 TFTSHIELD_1_FillCircle(x, y, PENRADIUS, currentcolor);
 442              		.loc 1 166 0 is_stmt 1
 443 0316 BB8F     		ldrh	r3, [r7, #60]
 444 0318 99B2     		uxth	r1, r3
 445 031a 7B8F     		ldrh	r3, [r7, #58]
 446 031c 9AB2     		uxth	r2, r3
 447 031e 054B     		ldr	r3, .L17
 448 0320 1B68     		ldr	r3, [r3]
 449 0322 9BB2     		uxth	r3, r3
 450 0324 09B2     		sxth	r1, r1
 451 0326 12B2     		sxth	r2, r2
 452 0328 0846     		mov	r0, r1
 453 032a 1146     		mov	r1, r2
 454 032c 0322     		movs	r2, #3
 455 032e FFF7FEFF 		bl	TFTSHIELD_1_FillCircle
 456              	.L3:
 457              	.LBE2:
 167:main.c        ****             }
 168:main.c        ****         
 169:main.c        ****         }   
 170:main.c        ****     }
ARM GAS  C:\Users\LilRobby\AppData\Local\Temp\ccCay2SU.s 			page 12


 458              		.loc 1 170 0
 459 0332 E7E6     		b	.L16
 460              	.L18:
 461              		.align	2
 462              	.L17:
 463 0334 00000000 		.word	currentcolor
 464 0338 00000000 		.word	oldcolor
 465              		.cfi_endproc
 466              	.LFE56:
 467              		.size	main, .-main
 468              		.section	.text.mapCoor,"ax",%progbits
 469              		.align	2
 470              		.global	mapCoor
 471              		.thumb
 472              		.thumb_func
 473              		.type	mapCoor, %function
 474              	mapCoor:
 475              	.LFB57:
 171:main.c        **** }
 172:main.c        **** 
 173:main.c        **** long mapCoor(long x, long in_min, long in_max, long out_min, long out_max)
 174:main.c        **** {
 476              		.loc 1 174 0
 477              		.cfi_startproc
 478              		@ args = 4, pretend = 0, frame = 16
 479              		@ frame_needed = 1, uses_anonymous_args = 0
 480              		@ link register save eliminated.
 481 0000 80B4     		push	{r7}
 482              		.cfi_def_cfa_offset 4
 483              		.cfi_offset 7, -4
 484 0002 85B0     		sub	sp, sp, #20
 485              		.cfi_def_cfa_offset 24
 486 0004 00AF     		add	r7, sp, #0
 487              		.cfi_def_cfa_register 7
 488 0006 F860     		str	r0, [r7, #12]
 489 0008 B960     		str	r1, [r7, #8]
 490 000a 7A60     		str	r2, [r7, #4]
 491 000c 3B60     		str	r3, [r7]
 175:main.c        ****   return (x - in_min) * (out_max - out_min) / (in_max - in_min) + out_min;
 492              		.loc 1 175 0
 493 000e FA68     		ldr	r2, [r7, #12]
 494 0010 BB68     		ldr	r3, [r7, #8]
 495 0012 D31A     		subs	r3, r2, r3
 496 0014 B969     		ldr	r1, [r7, #24]
 497 0016 3A68     		ldr	r2, [r7]
 498 0018 8A1A     		subs	r2, r1, r2
 499 001a 02FB03F2 		mul	r2, r2, r3
 500 001e 7968     		ldr	r1, [r7, #4]
 501 0020 BB68     		ldr	r3, [r7, #8]
 502 0022 CB1A     		subs	r3, r1, r3
 503 0024 92FBF3F2 		sdiv	r2, r2, r3
 504 0028 3B68     		ldr	r3, [r7]
 505 002a 1344     		add	r3, r3, r2
 176:main.c        **** }
 506              		.loc 1 176 0
 507 002c 1846     		mov	r0, r3
 508 002e 1437     		adds	r7, r7, #20
ARM GAS  C:\Users\LilRobby\AppData\Local\Temp\ccCay2SU.s 			page 13


 509              		.cfi_def_cfa_offset 4
 510 0030 BD46     		mov	sp, r7
 511              		.cfi_def_cfa_register 13
 512              		@ sp needed
 513 0032 5DF8047B 		ldr	r7, [sp], #4
 514              		.cfi_restore 7
 515              		.cfi_def_cfa_offset 0
 516 0036 7047     		bx	lr
 517              		.cfi_endproc
 518              	.LFE57:
 519              		.size	mapCoor, .-mapCoor
 520              		.text
 521              	.Letext0:
 522              		.file 2 "c:\\program files (x86)\\cypress\\psoc creator\\4.0\\psoc creator\\import\\gnu\\arm\\4.9.
 523              		.file 3 "c:\\program files (x86)\\cypress\\psoc creator\\4.0\\psoc creator\\import\\gnu\\arm\\4.9.
 524              		.file 4 "Generated_Source\\PSoC5/TFTSHIELD_1.h"
 525              		.file 5 "Generated_Source\\PSoC5/core_cm3.h"