ARM GAS  C:\Users\LilRobby\AppData\Local\Temp\ccgNTm4U.s 			page 1


   1              		.syntax unified
   2              		.cpu cortex-m3
   3              		.fpu softvfp
   4              		.eabi_attribute 20, 1
   5              		.eabi_attribute 21, 1
   6              		.eabi_attribute 23, 3
   7              		.eabi_attribute 24, 1
   8              		.eabi_attribute 25, 1
   9              		.eabi_attribute 26, 1
  10              		.eabi_attribute 30, 6
  11              		.eabi_attribute 34, 1
  12              		.eabi_attribute 18, 4
  13              		.thumb
  14              		.file	"TFTSHIELD_1_SPIM_1.c"
  15              		.text
  16              	.Ltext0:
  17              		.cfi_sections	.debug_frame
  18              		.global	TFTSHIELD_1_SPIM_1_initVar
  19              		.bss
  20              		.type	TFTSHIELD_1_SPIM_1_initVar, %object
  21              		.size	TFTSHIELD_1_SPIM_1_initVar, 1
  22              	TFTSHIELD_1_SPIM_1_initVar:
  23 0000 00       		.space	1
  24              		.comm	TFTSHIELD_1_SPIM_1_swStatusTx,1,1
  25              		.comm	TFTSHIELD_1_SPIM_1_swStatusRx,1,1
  26              		.section	.text.TFTSHIELD_1_SPIM_1_Init,"ax",%progbits
  27              		.align	2
  28              		.global	TFTSHIELD_1_SPIM_1_Init
  29              		.thumb
  30              		.thumb_func
  31              		.type	TFTSHIELD_1_SPIM_1_Init, %function
  32              	TFTSHIELD_1_SPIM_1_Init:
  33              	.LFB0:
  34              		.file 1 "Generated_Source\\PSoC5\\TFTSHIELD_1_SPIM_1.c"
   1:Generated_Source\PSoC5/TFTSHIELD_1_SPIM_1.c **** /*******************************************************************************
   2:Generated_Source\PSoC5/TFTSHIELD_1_SPIM_1.c **** * File Name: TFTSHIELD_1_SPIM_1.c
   3:Generated_Source\PSoC5/TFTSHIELD_1_SPIM_1.c **** * Version 2.40
   4:Generated_Source\PSoC5/TFTSHIELD_1_SPIM_1.c **** *
   5:Generated_Source\PSoC5/TFTSHIELD_1_SPIM_1.c **** * Description:
   6:Generated_Source\PSoC5/TFTSHIELD_1_SPIM_1.c **** *  This file provides all API functionality of the SPI Master component.
   7:Generated_Source\PSoC5/TFTSHIELD_1_SPIM_1.c **** *
   8:Generated_Source\PSoC5/TFTSHIELD_1_SPIM_1.c **** * Note:
   9:Generated_Source\PSoC5/TFTSHIELD_1_SPIM_1.c **** *  None.
  10:Generated_Source\PSoC5/TFTSHIELD_1_SPIM_1.c **** *
  11:Generated_Source\PSoC5/TFTSHIELD_1_SPIM_1.c **** ********************************************************************************
  12:Generated_Source\PSoC5/TFTSHIELD_1_SPIM_1.c **** * Copyright 2008-2012, Cypress Semiconductor Corporation.  All rights reserved.
  13:Generated_Source\PSoC5/TFTSHIELD_1_SPIM_1.c **** * You may use this file only in accordance with the license, terms, conditions,
  14:Generated_Source\PSoC5/TFTSHIELD_1_SPIM_1.c **** * disclaimers, and limitations in the end user license agreement accompanying
  15:Generated_Source\PSoC5/TFTSHIELD_1_SPIM_1.c **** * the software package with which this file was provided.
  16:Generated_Source\PSoC5/TFTSHIELD_1_SPIM_1.c **** *******************************************************************************/
  17:Generated_Source\PSoC5/TFTSHIELD_1_SPIM_1.c **** 
  18:Generated_Source\PSoC5/TFTSHIELD_1_SPIM_1.c **** #include "TFTSHIELD_1_SPIM_1_PVT.h"
  19:Generated_Source\PSoC5/TFTSHIELD_1_SPIM_1.c **** 
  20:Generated_Source\PSoC5/TFTSHIELD_1_SPIM_1.c **** #if(TFTSHIELD_1_SPIM_1_TX_SOFTWARE_BUF_ENABLED)
  21:Generated_Source\PSoC5/TFTSHIELD_1_SPIM_1.c ****     volatile uint8 TFTSHIELD_1_SPIM_1_txBuffer[TFTSHIELD_1_SPIM_1_TX_BUFFER_SIZE] = {0u};
  22:Generated_Source\PSoC5/TFTSHIELD_1_SPIM_1.c ****     volatile uint8 TFTSHIELD_1_SPIM_1_txBufferFull;
  23:Generated_Source\PSoC5/TFTSHIELD_1_SPIM_1.c ****     volatile uint8 TFTSHIELD_1_SPIM_1_txBufferRead;
ARM GAS  C:\Users\LilRobby\AppData\Local\Temp\ccgNTm4U.s 			page 2


  24:Generated_Source\PSoC5/TFTSHIELD_1_SPIM_1.c ****     volatile uint8 TFTSHIELD_1_SPIM_1_txBufferWrite;
  25:Generated_Source\PSoC5/TFTSHIELD_1_SPIM_1.c **** #endif /* (TFTSHIELD_1_SPIM_1_TX_SOFTWARE_BUF_ENABLED) */
  26:Generated_Source\PSoC5/TFTSHIELD_1_SPIM_1.c **** 
  27:Generated_Source\PSoC5/TFTSHIELD_1_SPIM_1.c **** #if(TFTSHIELD_1_SPIM_1_RX_SOFTWARE_BUF_ENABLED)
  28:Generated_Source\PSoC5/TFTSHIELD_1_SPIM_1.c ****     volatile uint8 TFTSHIELD_1_SPIM_1_rxBuffer[TFTSHIELD_1_SPIM_1_RX_BUFFER_SIZE] = {0u};
  29:Generated_Source\PSoC5/TFTSHIELD_1_SPIM_1.c ****     volatile uint8 TFTSHIELD_1_SPIM_1_rxBufferFull;
  30:Generated_Source\PSoC5/TFTSHIELD_1_SPIM_1.c ****     volatile uint8 TFTSHIELD_1_SPIM_1_rxBufferRead;
  31:Generated_Source\PSoC5/TFTSHIELD_1_SPIM_1.c ****     volatile uint8 TFTSHIELD_1_SPIM_1_rxBufferWrite;
  32:Generated_Source\PSoC5/TFTSHIELD_1_SPIM_1.c **** #endif /* (TFTSHIELD_1_SPIM_1_RX_SOFTWARE_BUF_ENABLED) */
  33:Generated_Source\PSoC5/TFTSHIELD_1_SPIM_1.c **** 
  34:Generated_Source\PSoC5/TFTSHIELD_1_SPIM_1.c **** uint8 TFTSHIELD_1_SPIM_1_initVar = 0u;
  35:Generated_Source\PSoC5/TFTSHIELD_1_SPIM_1.c **** 
  36:Generated_Source\PSoC5/TFTSHIELD_1_SPIM_1.c **** volatile uint8 TFTSHIELD_1_SPIM_1_swStatusTx;
  37:Generated_Source\PSoC5/TFTSHIELD_1_SPIM_1.c **** volatile uint8 TFTSHIELD_1_SPIM_1_swStatusRx;
  38:Generated_Source\PSoC5/TFTSHIELD_1_SPIM_1.c **** 
  39:Generated_Source\PSoC5/TFTSHIELD_1_SPIM_1.c **** 
  40:Generated_Source\PSoC5/TFTSHIELD_1_SPIM_1.c **** /*******************************************************************************
  41:Generated_Source\PSoC5/TFTSHIELD_1_SPIM_1.c **** * Function Name: TFTSHIELD_1_SPIM_1_Init
  42:Generated_Source\PSoC5/TFTSHIELD_1_SPIM_1.c **** ********************************************************************************
  43:Generated_Source\PSoC5/TFTSHIELD_1_SPIM_1.c **** *
  44:Generated_Source\PSoC5/TFTSHIELD_1_SPIM_1.c **** * Summary:
  45:Generated_Source\PSoC5/TFTSHIELD_1_SPIM_1.c **** *  Inits/Restores default SPIM configuration provided with customizer.
  46:Generated_Source\PSoC5/TFTSHIELD_1_SPIM_1.c **** *
  47:Generated_Source\PSoC5/TFTSHIELD_1_SPIM_1.c **** * Parameters:
  48:Generated_Source\PSoC5/TFTSHIELD_1_SPIM_1.c **** *  None.
  49:Generated_Source\PSoC5/TFTSHIELD_1_SPIM_1.c **** *
  50:Generated_Source\PSoC5/TFTSHIELD_1_SPIM_1.c **** * Return:
  51:Generated_Source\PSoC5/TFTSHIELD_1_SPIM_1.c **** *  None.
  52:Generated_Source\PSoC5/TFTSHIELD_1_SPIM_1.c **** *
  53:Generated_Source\PSoC5/TFTSHIELD_1_SPIM_1.c **** * Side Effects:
  54:Generated_Source\PSoC5/TFTSHIELD_1_SPIM_1.c **** *  When this function is called it initializes all of the necessary parameters
  55:Generated_Source\PSoC5/TFTSHIELD_1_SPIM_1.c **** *  for execution. i.e. setting the initial interrupt mask, configuring the
  56:Generated_Source\PSoC5/TFTSHIELD_1_SPIM_1.c **** *  interrupt service routine, configuring the bit-counter parameters and
  57:Generated_Source\PSoC5/TFTSHIELD_1_SPIM_1.c **** *  clearing the FIFO and Status Register.
  58:Generated_Source\PSoC5/TFTSHIELD_1_SPIM_1.c **** *
  59:Generated_Source\PSoC5/TFTSHIELD_1_SPIM_1.c **** * Reentrant:
  60:Generated_Source\PSoC5/TFTSHIELD_1_SPIM_1.c **** *  No.
  61:Generated_Source\PSoC5/TFTSHIELD_1_SPIM_1.c **** *
  62:Generated_Source\PSoC5/TFTSHIELD_1_SPIM_1.c **** *******************************************************************************/
  63:Generated_Source\PSoC5/TFTSHIELD_1_SPIM_1.c **** void TFTSHIELD_1_SPIM_1_Init(void) 
  64:Generated_Source\PSoC5/TFTSHIELD_1_SPIM_1.c **** {
  35              		.loc 1 64 0
  36              		.cfi_startproc
  37              		@ args = 0, pretend = 0, frame = 0
  38              		@ frame_needed = 1, uses_anonymous_args = 0
  39 0000 80B5     		push	{r7, lr}
  40              		.cfi_def_cfa_offset 8
  41              		.cfi_offset 7, -8
  42              		.cfi_offset 14, -4
  43 0002 00AF     		add	r7, sp, #0
  44              		.cfi_def_cfa_register 7
  65:Generated_Source\PSoC5/TFTSHIELD_1_SPIM_1.c ****     /* Initialize the Bit counter */
  66:Generated_Source\PSoC5/TFTSHIELD_1_SPIM_1.c ****     TFTSHIELD_1_SPIM_1_COUNTER_PERIOD_REG = TFTSHIELD_1_SPIM_1_BITCTR_INIT;
  45              		.loc 1 66 0
  46 0004 124B     		ldr	r3, .L2
  47 0006 0F22     		movs	r2, #15
  48 0008 1A70     		strb	r2, [r3]
ARM GAS  C:\Users\LilRobby\AppData\Local\Temp\ccgNTm4U.s 			page 3


  67:Generated_Source\PSoC5/TFTSHIELD_1_SPIM_1.c **** 
  68:Generated_Source\PSoC5/TFTSHIELD_1_SPIM_1.c ****     /* Init TX ISR  */
  69:Generated_Source\PSoC5/TFTSHIELD_1_SPIM_1.c ****     #if(0u != TFTSHIELD_1_SPIM_1_INTERNAL_TX_INT_ENABLED)
  70:Generated_Source\PSoC5/TFTSHIELD_1_SPIM_1.c ****         CyIntDisable         (TFTSHIELD_1_SPIM_1_TX_ISR_NUMBER);
  49              		.loc 1 70 0
  50 000a 124B     		ldr	r3, .L2+4
  51 000c 0222     		movs	r2, #2
  52 000e 1A60     		str	r2, [r3]
  71:Generated_Source\PSoC5/TFTSHIELD_1_SPIM_1.c ****         CyIntSetPriority     (TFTSHIELD_1_SPIM_1_TX_ISR_NUMBER,  TFTSHIELD_1_SPIM_1_TX_ISR_PRIORITY
  53              		.loc 1 71 0
  54 0010 0120     		movs	r0, #1
  55 0012 0721     		movs	r1, #7
  56 0014 FFF7FEFF 		bl	CyIntSetPriority
  72:Generated_Source\PSoC5/TFTSHIELD_1_SPIM_1.c ****         (void) CyIntSetVector(TFTSHIELD_1_SPIM_1_TX_ISR_NUMBER, &TFTSHIELD_1_SPIM_1_TX_ISR);
  57              		.loc 1 72 0
  58 0018 0120     		movs	r0, #1
  59 001a 0F49     		ldr	r1, .L2+8
  60 001c FFF7FEFF 		bl	CyIntSetVector
  73:Generated_Source\PSoC5/TFTSHIELD_1_SPIM_1.c ****     #endif /* (0u != TFTSHIELD_1_SPIM_1_INTERNAL_TX_INT_ENABLED) */
  74:Generated_Source\PSoC5/TFTSHIELD_1_SPIM_1.c **** 
  75:Generated_Source\PSoC5/TFTSHIELD_1_SPIM_1.c ****     /* Init RX ISR  */
  76:Generated_Source\PSoC5/TFTSHIELD_1_SPIM_1.c ****     #if(0u != TFTSHIELD_1_SPIM_1_INTERNAL_RX_INT_ENABLED)
  77:Generated_Source\PSoC5/TFTSHIELD_1_SPIM_1.c ****         CyIntDisable         (TFTSHIELD_1_SPIM_1_RX_ISR_NUMBER);
  61              		.loc 1 77 0
  62 0020 0C4B     		ldr	r3, .L2+4
  63 0022 0122     		movs	r2, #1
  64 0024 1A60     		str	r2, [r3]
  78:Generated_Source\PSoC5/TFTSHIELD_1_SPIM_1.c ****         CyIntSetPriority     (TFTSHIELD_1_SPIM_1_RX_ISR_NUMBER,  TFTSHIELD_1_SPIM_1_RX_ISR_PRIORITY
  65              		.loc 1 78 0
  66 0026 0020     		movs	r0, #0
  67 0028 0721     		movs	r1, #7
  68 002a FFF7FEFF 		bl	CyIntSetPriority
  79:Generated_Source\PSoC5/TFTSHIELD_1_SPIM_1.c ****         (void) CyIntSetVector(TFTSHIELD_1_SPIM_1_RX_ISR_NUMBER, &TFTSHIELD_1_SPIM_1_RX_ISR);
  69              		.loc 1 79 0
  70 002e 0020     		movs	r0, #0
  71 0030 0A49     		ldr	r1, .L2+12
  72 0032 FFF7FEFF 		bl	CyIntSetVector
  80:Generated_Source\PSoC5/TFTSHIELD_1_SPIM_1.c ****     #endif /* (0u != TFTSHIELD_1_SPIM_1_INTERNAL_RX_INT_ENABLED) */
  81:Generated_Source\PSoC5/TFTSHIELD_1_SPIM_1.c **** 
  82:Generated_Source\PSoC5/TFTSHIELD_1_SPIM_1.c ****     /* Clear any stray data from the RX and TX FIFO */
  83:Generated_Source\PSoC5/TFTSHIELD_1_SPIM_1.c ****     TFTSHIELD_1_SPIM_1_ClearFIFO();
  73              		.loc 1 83 0
  74 0036 FFF7FEFF 		bl	TFTSHIELD_1_SPIM_1_ClearFIFO
  84:Generated_Source\PSoC5/TFTSHIELD_1_SPIM_1.c **** 
  85:Generated_Source\PSoC5/TFTSHIELD_1_SPIM_1.c ****     #if(TFTSHIELD_1_SPIM_1_RX_SOFTWARE_BUF_ENABLED)
  86:Generated_Source\PSoC5/TFTSHIELD_1_SPIM_1.c ****         TFTSHIELD_1_SPIM_1_rxBufferFull  = 0u;
  87:Generated_Source\PSoC5/TFTSHIELD_1_SPIM_1.c ****         TFTSHIELD_1_SPIM_1_rxBufferRead  = 0u;
  88:Generated_Source\PSoC5/TFTSHIELD_1_SPIM_1.c ****         TFTSHIELD_1_SPIM_1_rxBufferWrite = 0u;
  89:Generated_Source\PSoC5/TFTSHIELD_1_SPIM_1.c ****     #endif /* (TFTSHIELD_1_SPIM_1_RX_SOFTWARE_BUF_ENABLED) */
  90:Generated_Source\PSoC5/TFTSHIELD_1_SPIM_1.c **** 
  91:Generated_Source\PSoC5/TFTSHIELD_1_SPIM_1.c ****     #if(TFTSHIELD_1_SPIM_1_TX_SOFTWARE_BUF_ENABLED)
  92:Generated_Source\PSoC5/TFTSHIELD_1_SPIM_1.c ****         TFTSHIELD_1_SPIM_1_txBufferFull  = 0u;
  93:Generated_Source\PSoC5/TFTSHIELD_1_SPIM_1.c ****         TFTSHIELD_1_SPIM_1_txBufferRead  = 0u;
  94:Generated_Source\PSoC5/TFTSHIELD_1_SPIM_1.c ****         TFTSHIELD_1_SPIM_1_txBufferWrite = 0u;
  95:Generated_Source\PSoC5/TFTSHIELD_1_SPIM_1.c ****     #endif /* (TFTSHIELD_1_SPIM_1_TX_SOFTWARE_BUF_ENABLED) */
  96:Generated_Source\PSoC5/TFTSHIELD_1_SPIM_1.c **** 
  97:Generated_Source\PSoC5/TFTSHIELD_1_SPIM_1.c ****     (void) TFTSHIELD_1_SPIM_1_ReadTxStatus(); /* Clear Tx status and swStatusTx */
ARM GAS  C:\Users\LilRobby\AppData\Local\Temp\ccgNTm4U.s 			page 4


  75              		.loc 1 97 0
  76 003a FFF7FEFF 		bl	TFTSHIELD_1_SPIM_1_ReadTxStatus
  98:Generated_Source\PSoC5/TFTSHIELD_1_SPIM_1.c ****     (void) TFTSHIELD_1_SPIM_1_ReadRxStatus(); /* Clear Rx status and swStatusRx */
  77              		.loc 1 98 0
  78 003e FFF7FEFF 		bl	TFTSHIELD_1_SPIM_1_ReadRxStatus
  99:Generated_Source\PSoC5/TFTSHIELD_1_SPIM_1.c **** 
 100:Generated_Source\PSoC5/TFTSHIELD_1_SPIM_1.c ****     /* Configure TX and RX interrupt mask */
 101:Generated_Source\PSoC5/TFTSHIELD_1_SPIM_1.c ****     TFTSHIELD_1_SPIM_1_TX_STATUS_MASK_REG = TFTSHIELD_1_SPIM_1_TX_INIT_INTERRUPTS_MASK;
  79              		.loc 1 101 0
  80 0042 074B     		ldr	r3, .L2+16
  81 0044 0822     		movs	r2, #8
  82 0046 1A70     		strb	r2, [r3]
 102:Generated_Source\PSoC5/TFTSHIELD_1_SPIM_1.c ****     TFTSHIELD_1_SPIM_1_RX_STATUS_MASK_REG = TFTSHIELD_1_SPIM_1_RX_INIT_INTERRUPTS_MASK;
  83              		.loc 1 102 0
  84 0048 064B     		ldr	r3, .L2+20
  85 004a 0022     		movs	r2, #0
  86 004c 1A70     		strb	r2, [r3]
 103:Generated_Source\PSoC5/TFTSHIELD_1_SPIM_1.c **** }
  87              		.loc 1 103 0
  88 004e 80BD     		pop	{r7, pc}
  89              	.L3:
  90              		.align	2
  91              	.L2:
  92 0050 8D640040 		.word	1073767565
  93 0054 80E100E0 		.word	-536813184
  94 0058 00000000 		.word	TFTSHIELD_1_SPIM_1_TX_ISR
  95 005c 00000000 		.word	TFTSHIELD_1_SPIM_1_RX_ISR
  96 0060 8B640040 		.word	1073767563
  97 0064 8A640040 		.word	1073767562
  98              		.cfi_endproc
  99              	.LFE0:
 100              		.size	TFTSHIELD_1_SPIM_1_Init, .-TFTSHIELD_1_SPIM_1_Init
 101              		.section	.text.TFTSHIELD_1_SPIM_1_Enable,"ax",%progbits
 102              		.align	2
 103              		.global	TFTSHIELD_1_SPIM_1_Enable
 104              		.thumb
 105              		.thumb_func
 106              		.type	TFTSHIELD_1_SPIM_1_Enable, %function
 107              	TFTSHIELD_1_SPIM_1_Enable:
 108              	.LFB1:
 104:Generated_Source\PSoC5/TFTSHIELD_1_SPIM_1.c **** 
 105:Generated_Source\PSoC5/TFTSHIELD_1_SPIM_1.c **** 
 106:Generated_Source\PSoC5/TFTSHIELD_1_SPIM_1.c **** /*******************************************************************************
 107:Generated_Source\PSoC5/TFTSHIELD_1_SPIM_1.c **** * Function Name: TFTSHIELD_1_SPIM_1_Enable
 108:Generated_Source\PSoC5/TFTSHIELD_1_SPIM_1.c **** ********************************************************************************
 109:Generated_Source\PSoC5/TFTSHIELD_1_SPIM_1.c **** *
 110:Generated_Source\PSoC5/TFTSHIELD_1_SPIM_1.c **** * Summary:
 111:Generated_Source\PSoC5/TFTSHIELD_1_SPIM_1.c **** *  Enable SPIM component.
 112:Generated_Source\PSoC5/TFTSHIELD_1_SPIM_1.c **** *
 113:Generated_Source\PSoC5/TFTSHIELD_1_SPIM_1.c **** * Parameters:
 114:Generated_Source\PSoC5/TFTSHIELD_1_SPIM_1.c **** *  None.
 115:Generated_Source\PSoC5/TFTSHIELD_1_SPIM_1.c **** *
 116:Generated_Source\PSoC5/TFTSHIELD_1_SPIM_1.c **** * Return:
 117:Generated_Source\PSoC5/TFTSHIELD_1_SPIM_1.c **** *  None.
 118:Generated_Source\PSoC5/TFTSHIELD_1_SPIM_1.c **** *
 119:Generated_Source\PSoC5/TFTSHIELD_1_SPIM_1.c **** *******************************************************************************/
 120:Generated_Source\PSoC5/TFTSHIELD_1_SPIM_1.c **** void TFTSHIELD_1_SPIM_1_Enable(void) 
ARM GAS  C:\Users\LilRobby\AppData\Local\Temp\ccgNTm4U.s 			page 5


 121:Generated_Source\PSoC5/TFTSHIELD_1_SPIM_1.c **** {
 109              		.loc 1 121 0
 110              		.cfi_startproc
 111              		@ args = 0, pretend = 0, frame = 8
 112              		@ frame_needed = 1, uses_anonymous_args = 0
 113 0000 80B5     		push	{r7, lr}
 114              		.cfi_def_cfa_offset 8
 115              		.cfi_offset 7, -8
 116              		.cfi_offset 14, -4
 117 0002 82B0     		sub	sp, sp, #8
 118              		.cfi_def_cfa_offset 16
 119 0004 00AF     		add	r7, sp, #0
 120              		.cfi_def_cfa_register 7
 122:Generated_Source\PSoC5/TFTSHIELD_1_SPIM_1.c ****     uint8 enableInterrupts;
 123:Generated_Source\PSoC5/TFTSHIELD_1_SPIM_1.c **** 
 124:Generated_Source\PSoC5/TFTSHIELD_1_SPIM_1.c ****     enableInterrupts = CyEnterCriticalSection();
 121              		.loc 1 124 0
 122 0006 FFF7FEFF 		bl	CyEnterCriticalSection
 123 000a 0346     		mov	r3, r0
 124 000c FB71     		strb	r3, [r7, #7]
 125:Generated_Source\PSoC5/TFTSHIELD_1_SPIM_1.c ****     TFTSHIELD_1_SPIM_1_COUNTER_CONTROL_REG |= TFTSHIELD_1_SPIM_1_CNTR_ENABLE;
 125              		.loc 1 125 0
 126 000e 114A     		ldr	r2, .L5
 127 0010 104B     		ldr	r3, .L5
 128 0012 1B78     		ldrb	r3, [r3]
 129 0014 DBB2     		uxtb	r3, r3
 130 0016 43F02003 		orr	r3, r3, #32
 131 001a DBB2     		uxtb	r3, r3
 132 001c 1370     		strb	r3, [r2]
 126:Generated_Source\PSoC5/TFTSHIELD_1_SPIM_1.c ****     TFTSHIELD_1_SPIM_1_TX_STATUS_ACTL_REG  |= TFTSHIELD_1_SPIM_1_INT_ENABLE;
 133              		.loc 1 126 0
 134 001e 0E4A     		ldr	r2, .L5+4
 135 0020 0D4B     		ldr	r3, .L5+4
 136 0022 1B78     		ldrb	r3, [r3]
 137 0024 DBB2     		uxtb	r3, r3
 138 0026 43F01003 		orr	r3, r3, #16
 139 002a DBB2     		uxtb	r3, r3
 140 002c 1370     		strb	r3, [r2]
 127:Generated_Source\PSoC5/TFTSHIELD_1_SPIM_1.c ****     TFTSHIELD_1_SPIM_1_RX_STATUS_ACTL_REG  |= TFTSHIELD_1_SPIM_1_INT_ENABLE;
 141              		.loc 1 127 0
 142 002e 0B4A     		ldr	r2, .L5+8
 143 0030 0A4B     		ldr	r3, .L5+8
 144 0032 1B78     		ldrb	r3, [r3]
 145 0034 DBB2     		uxtb	r3, r3
 146 0036 43F01003 		orr	r3, r3, #16
 147 003a DBB2     		uxtb	r3, r3
 148 003c 1370     		strb	r3, [r2]
 128:Generated_Source\PSoC5/TFTSHIELD_1_SPIM_1.c ****     CyExitCriticalSection(enableInterrupts);
 149              		.loc 1 128 0
 150 003e FB79     		ldrb	r3, [r7, #7]	@ zero_extendqisi2
 151 0040 1846     		mov	r0, r3
 152 0042 FFF7FEFF 		bl	CyExitCriticalSection
 129:Generated_Source\PSoC5/TFTSHIELD_1_SPIM_1.c **** 
 130:Generated_Source\PSoC5/TFTSHIELD_1_SPIM_1.c ****     #if(0u != TFTSHIELD_1_SPIM_1_INTERNAL_CLOCK)
 131:Generated_Source\PSoC5/TFTSHIELD_1_SPIM_1.c ****         TFTSHIELD_1_SPIM_1_IntClock_Enable();
 132:Generated_Source\PSoC5/TFTSHIELD_1_SPIM_1.c ****     #endif /* (0u != TFTSHIELD_1_SPIM_1_INTERNAL_CLOCK) */
 133:Generated_Source\PSoC5/TFTSHIELD_1_SPIM_1.c **** 
ARM GAS  C:\Users\LilRobby\AppData\Local\Temp\ccgNTm4U.s 			page 6


 134:Generated_Source\PSoC5/TFTSHIELD_1_SPIM_1.c ****     TFTSHIELD_1_SPIM_1_EnableTxInt();
 153              		.loc 1 134 0
 154 0046 FFF7FEFF 		bl	TFTSHIELD_1_SPIM_1_EnableTxInt
 135:Generated_Source\PSoC5/TFTSHIELD_1_SPIM_1.c ****     TFTSHIELD_1_SPIM_1_EnableRxInt();
 155              		.loc 1 135 0
 156 004a FFF7FEFF 		bl	TFTSHIELD_1_SPIM_1_EnableRxInt
 136:Generated_Source\PSoC5/TFTSHIELD_1_SPIM_1.c **** }
 157              		.loc 1 136 0
 158 004e 0837     		adds	r7, r7, #8
 159              		.cfi_def_cfa_offset 8
 160 0050 BD46     		mov	sp, r7
 161              		.cfi_def_cfa_register 13
 162              		@ sp needed
 163 0052 80BD     		pop	{r7, pc}
 164              	.L6:
 165              		.align	2
 166              	.L5:
 167 0054 9D640040 		.word	1073767581
 168 0058 9B640040 		.word	1073767579
 169 005c 9A640040 		.word	1073767578
 170              		.cfi_endproc
 171              	.LFE1:
 172              		.size	TFTSHIELD_1_SPIM_1_Enable, .-TFTSHIELD_1_SPIM_1_Enable
 173              		.section	.text.TFTSHIELD_1_SPIM_1_Start,"ax",%progbits
 174              		.align	2
 175              		.global	TFTSHIELD_1_SPIM_1_Start
 176              		.thumb
 177              		.thumb_func
 178              		.type	TFTSHIELD_1_SPIM_1_Start, %function
 179              	TFTSHIELD_1_SPIM_1_Start:
 180              	.LFB2:
 137:Generated_Source\PSoC5/TFTSHIELD_1_SPIM_1.c **** 
 138:Generated_Source\PSoC5/TFTSHIELD_1_SPIM_1.c **** 
 139:Generated_Source\PSoC5/TFTSHIELD_1_SPIM_1.c **** /*******************************************************************************
 140:Generated_Source\PSoC5/TFTSHIELD_1_SPIM_1.c **** * Function Name: TFTSHIELD_1_SPIM_1_Start
 141:Generated_Source\PSoC5/TFTSHIELD_1_SPIM_1.c **** ********************************************************************************
 142:Generated_Source\PSoC5/TFTSHIELD_1_SPIM_1.c **** *
 143:Generated_Source\PSoC5/TFTSHIELD_1_SPIM_1.c **** * Summary:
 144:Generated_Source\PSoC5/TFTSHIELD_1_SPIM_1.c **** *  Initialize and Enable the SPI Master component.
 145:Generated_Source\PSoC5/TFTSHIELD_1_SPIM_1.c **** *
 146:Generated_Source\PSoC5/TFTSHIELD_1_SPIM_1.c **** * Parameters:
 147:Generated_Source\PSoC5/TFTSHIELD_1_SPIM_1.c **** *  None.
 148:Generated_Source\PSoC5/TFTSHIELD_1_SPIM_1.c **** *
 149:Generated_Source\PSoC5/TFTSHIELD_1_SPIM_1.c **** * Return:
 150:Generated_Source\PSoC5/TFTSHIELD_1_SPIM_1.c **** *  None.
 151:Generated_Source\PSoC5/TFTSHIELD_1_SPIM_1.c **** *
 152:Generated_Source\PSoC5/TFTSHIELD_1_SPIM_1.c **** * Global variables:
 153:Generated_Source\PSoC5/TFTSHIELD_1_SPIM_1.c **** *  TFTSHIELD_1_SPIM_1_initVar - used to check initial configuration, modified on
 154:Generated_Source\PSoC5/TFTSHIELD_1_SPIM_1.c **** *  first function call.
 155:Generated_Source\PSoC5/TFTSHIELD_1_SPIM_1.c **** *
 156:Generated_Source\PSoC5/TFTSHIELD_1_SPIM_1.c **** * Theory:
 157:Generated_Source\PSoC5/TFTSHIELD_1_SPIM_1.c **** *  Enable the clock input to enable operation.
 158:Generated_Source\PSoC5/TFTSHIELD_1_SPIM_1.c **** *
 159:Generated_Source\PSoC5/TFTSHIELD_1_SPIM_1.c **** * Reentrant:
 160:Generated_Source\PSoC5/TFTSHIELD_1_SPIM_1.c **** *  No.
 161:Generated_Source\PSoC5/TFTSHIELD_1_SPIM_1.c **** *
 162:Generated_Source\PSoC5/TFTSHIELD_1_SPIM_1.c **** *******************************************************************************/
ARM GAS  C:\Users\LilRobby\AppData\Local\Temp\ccgNTm4U.s 			page 7


 163:Generated_Source\PSoC5/TFTSHIELD_1_SPIM_1.c **** void TFTSHIELD_1_SPIM_1_Start(void) 
 164:Generated_Source\PSoC5/TFTSHIELD_1_SPIM_1.c **** {
 181              		.loc 1 164 0
 182              		.cfi_startproc
 183              		@ args = 0, pretend = 0, frame = 0
 184              		@ frame_needed = 1, uses_anonymous_args = 0
 185 0000 80B5     		push	{r7, lr}
 186              		.cfi_def_cfa_offset 8
 187              		.cfi_offset 7, -8
 188              		.cfi_offset 14, -4
 189 0002 00AF     		add	r7, sp, #0
 190              		.cfi_def_cfa_register 7
 165:Generated_Source\PSoC5/TFTSHIELD_1_SPIM_1.c ****     if(0u == TFTSHIELD_1_SPIM_1_initVar)
 191              		.loc 1 165 0
 192 0004 054B     		ldr	r3, .L9
 193 0006 1B78     		ldrb	r3, [r3]	@ zero_extendqisi2
 194 0008 002B     		cmp	r3, #0
 195 000a 04D1     		bne	.L8
 166:Generated_Source\PSoC5/TFTSHIELD_1_SPIM_1.c ****     {
 167:Generated_Source\PSoC5/TFTSHIELD_1_SPIM_1.c ****         TFTSHIELD_1_SPIM_1_Init();
 196              		.loc 1 167 0
 197 000c FFF7FEFF 		bl	TFTSHIELD_1_SPIM_1_Init
 168:Generated_Source\PSoC5/TFTSHIELD_1_SPIM_1.c ****         TFTSHIELD_1_SPIM_1_initVar = 1u;
 198              		.loc 1 168 0
 199 0010 024B     		ldr	r3, .L9
 200 0012 0122     		movs	r2, #1
 201 0014 1A70     		strb	r2, [r3]
 202              	.L8:
 169:Generated_Source\PSoC5/TFTSHIELD_1_SPIM_1.c ****     }
 170:Generated_Source\PSoC5/TFTSHIELD_1_SPIM_1.c **** 
 171:Generated_Source\PSoC5/TFTSHIELD_1_SPIM_1.c ****     TFTSHIELD_1_SPIM_1_Enable();
 203              		.loc 1 171 0
 204 0016 FFF7FEFF 		bl	TFTSHIELD_1_SPIM_1_Enable
 172:Generated_Source\PSoC5/TFTSHIELD_1_SPIM_1.c **** }
 205              		.loc 1 172 0
 206 001a 80BD     		pop	{r7, pc}
 207              	.L10:
 208              		.align	2
 209              	.L9:
 210 001c 00000000 		.word	TFTSHIELD_1_SPIM_1_initVar
 211              		.cfi_endproc
 212              	.LFE2:
 213              		.size	TFTSHIELD_1_SPIM_1_Start, .-TFTSHIELD_1_SPIM_1_Start
 214              		.section	.text.TFTSHIELD_1_SPIM_1_Stop,"ax",%progbits
 215              		.align	2
 216              		.global	TFTSHIELD_1_SPIM_1_Stop
 217              		.thumb
 218              		.thumb_func
 219              		.type	TFTSHIELD_1_SPIM_1_Stop, %function
 220              	TFTSHIELD_1_SPIM_1_Stop:
 221              	.LFB3:
 173:Generated_Source\PSoC5/TFTSHIELD_1_SPIM_1.c **** 
 174:Generated_Source\PSoC5/TFTSHIELD_1_SPIM_1.c **** 
 175:Generated_Source\PSoC5/TFTSHIELD_1_SPIM_1.c **** /*******************************************************************************
 176:Generated_Source\PSoC5/TFTSHIELD_1_SPIM_1.c **** * Function Name: TFTSHIELD_1_SPIM_1_Stop
 177:Generated_Source\PSoC5/TFTSHIELD_1_SPIM_1.c **** ********************************************************************************
 178:Generated_Source\PSoC5/TFTSHIELD_1_SPIM_1.c **** *
ARM GAS  C:\Users\LilRobby\AppData\Local\Temp\ccgNTm4U.s 			page 8


 179:Generated_Source\PSoC5/TFTSHIELD_1_SPIM_1.c **** * Summary:
 180:Generated_Source\PSoC5/TFTSHIELD_1_SPIM_1.c **** *  Disable the SPI Master component.
 181:Generated_Source\PSoC5/TFTSHIELD_1_SPIM_1.c **** *
 182:Generated_Source\PSoC5/TFTSHIELD_1_SPIM_1.c **** * Parameters:
 183:Generated_Source\PSoC5/TFTSHIELD_1_SPIM_1.c **** *  None.
 184:Generated_Source\PSoC5/TFTSHIELD_1_SPIM_1.c **** *
 185:Generated_Source\PSoC5/TFTSHIELD_1_SPIM_1.c **** * Return:
 186:Generated_Source\PSoC5/TFTSHIELD_1_SPIM_1.c **** *  None.
 187:Generated_Source\PSoC5/TFTSHIELD_1_SPIM_1.c **** *
 188:Generated_Source\PSoC5/TFTSHIELD_1_SPIM_1.c **** * Theory:
 189:Generated_Source\PSoC5/TFTSHIELD_1_SPIM_1.c **** *  Disable the clock input to enable operation.
 190:Generated_Source\PSoC5/TFTSHIELD_1_SPIM_1.c **** *
 191:Generated_Source\PSoC5/TFTSHIELD_1_SPIM_1.c **** *******************************************************************************/
 192:Generated_Source\PSoC5/TFTSHIELD_1_SPIM_1.c **** void TFTSHIELD_1_SPIM_1_Stop(void) 
 193:Generated_Source\PSoC5/TFTSHIELD_1_SPIM_1.c **** {
 222              		.loc 1 193 0
 223              		.cfi_startproc
 224              		@ args = 0, pretend = 0, frame = 8
 225              		@ frame_needed = 1, uses_anonymous_args = 0
 226 0000 80B5     		push	{r7, lr}
 227              		.cfi_def_cfa_offset 8
 228              		.cfi_offset 7, -8
 229              		.cfi_offset 14, -4
 230 0002 82B0     		sub	sp, sp, #8
 231              		.cfi_def_cfa_offset 16
 232 0004 00AF     		add	r7, sp, #0
 233              		.cfi_def_cfa_register 7
 194:Generated_Source\PSoC5/TFTSHIELD_1_SPIM_1.c ****     uint8 enableInterrupts;
 195:Generated_Source\PSoC5/TFTSHIELD_1_SPIM_1.c **** 
 196:Generated_Source\PSoC5/TFTSHIELD_1_SPIM_1.c ****     enableInterrupts = CyEnterCriticalSection();
 234              		.loc 1 196 0
 235 0006 FFF7FEFF 		bl	CyEnterCriticalSection
 236 000a 0346     		mov	r3, r0
 237 000c FB71     		strb	r3, [r7, #7]
 197:Generated_Source\PSoC5/TFTSHIELD_1_SPIM_1.c ****     TFTSHIELD_1_SPIM_1_TX_STATUS_ACTL_REG &= ((uint8) ~TFTSHIELD_1_SPIM_1_INT_ENABLE);
 238              		.loc 1 197 0
 239 000e 0D4A     		ldr	r2, .L12
 240 0010 0C4B     		ldr	r3, .L12
 241 0012 1B78     		ldrb	r3, [r3]
 242 0014 DBB2     		uxtb	r3, r3
 243 0016 23F01003 		bic	r3, r3, #16
 244 001a DBB2     		uxtb	r3, r3
 245 001c 1370     		strb	r3, [r2]
 198:Generated_Source\PSoC5/TFTSHIELD_1_SPIM_1.c ****     TFTSHIELD_1_SPIM_1_RX_STATUS_ACTL_REG &= ((uint8) ~TFTSHIELD_1_SPIM_1_INT_ENABLE);
 246              		.loc 1 198 0
 247 001e 0A4A     		ldr	r2, .L12+4
 248 0020 094B     		ldr	r3, .L12+4
 249 0022 1B78     		ldrb	r3, [r3]
 250 0024 DBB2     		uxtb	r3, r3
 251 0026 23F01003 		bic	r3, r3, #16
 252 002a DBB2     		uxtb	r3, r3
 253 002c 1370     		strb	r3, [r2]
 199:Generated_Source\PSoC5/TFTSHIELD_1_SPIM_1.c ****     CyExitCriticalSection(enableInterrupts);
 254              		.loc 1 199 0
 255 002e FB79     		ldrb	r3, [r7, #7]	@ zero_extendqisi2
 256 0030 1846     		mov	r0, r3
 257 0032 FFF7FEFF 		bl	CyExitCriticalSection
ARM GAS  C:\Users\LilRobby\AppData\Local\Temp\ccgNTm4U.s 			page 9


 200:Generated_Source\PSoC5/TFTSHIELD_1_SPIM_1.c **** 
 201:Generated_Source\PSoC5/TFTSHIELD_1_SPIM_1.c ****     #if(0u != TFTSHIELD_1_SPIM_1_INTERNAL_CLOCK)
 202:Generated_Source\PSoC5/TFTSHIELD_1_SPIM_1.c ****         TFTSHIELD_1_SPIM_1_IntClock_Disable();
 203:Generated_Source\PSoC5/TFTSHIELD_1_SPIM_1.c ****     #endif /* (0u != TFTSHIELD_1_SPIM_1_INTERNAL_CLOCK) */
 204:Generated_Source\PSoC5/TFTSHIELD_1_SPIM_1.c **** 
 205:Generated_Source\PSoC5/TFTSHIELD_1_SPIM_1.c ****     TFTSHIELD_1_SPIM_1_DisableTxInt();
 258              		.loc 1 205 0
 259 0036 FFF7FEFF 		bl	TFTSHIELD_1_SPIM_1_DisableTxInt
 206:Generated_Source\PSoC5/TFTSHIELD_1_SPIM_1.c ****     TFTSHIELD_1_SPIM_1_DisableRxInt();
 260              		.loc 1 206 0
 261 003a FFF7FEFF 		bl	TFTSHIELD_1_SPIM_1_DisableRxInt
 207:Generated_Source\PSoC5/TFTSHIELD_1_SPIM_1.c **** }
 262              		.loc 1 207 0
 263 003e 0837     		adds	r7, r7, #8
 264              		.cfi_def_cfa_offset 8
 265 0040 BD46     		mov	sp, r7
 266              		.cfi_def_cfa_register 13
 267              		@ sp needed
 268 0042 80BD     		pop	{r7, pc}
 269              	.L13:
 270              		.align	2
 271              	.L12:
 272 0044 9B640040 		.word	1073767579
 273 0048 9A640040 		.word	1073767578
 274              		.cfi_endproc
 275              	.LFE3:
 276              		.size	TFTSHIELD_1_SPIM_1_Stop, .-TFTSHIELD_1_SPIM_1_Stop
 277              		.section	.text.TFTSHIELD_1_SPIM_1_EnableTxInt,"ax",%progbits
 278              		.align	2
 279              		.global	TFTSHIELD_1_SPIM_1_EnableTxInt
 280              		.thumb
 281              		.thumb_func
 282              		.type	TFTSHIELD_1_SPIM_1_EnableTxInt, %function
 283              	TFTSHIELD_1_SPIM_1_EnableTxInt:
 284              	.LFB4:
 208:Generated_Source\PSoC5/TFTSHIELD_1_SPIM_1.c **** 
 209:Generated_Source\PSoC5/TFTSHIELD_1_SPIM_1.c **** 
 210:Generated_Source\PSoC5/TFTSHIELD_1_SPIM_1.c **** /*******************************************************************************
 211:Generated_Source\PSoC5/TFTSHIELD_1_SPIM_1.c **** * Function Name: TFTSHIELD_1_SPIM_1_EnableTxInt
 212:Generated_Source\PSoC5/TFTSHIELD_1_SPIM_1.c **** ********************************************************************************
 213:Generated_Source\PSoC5/TFTSHIELD_1_SPIM_1.c **** *
 214:Generated_Source\PSoC5/TFTSHIELD_1_SPIM_1.c **** * Summary:
 215:Generated_Source\PSoC5/TFTSHIELD_1_SPIM_1.c **** *  Enable internal Tx interrupt generation.
 216:Generated_Source\PSoC5/TFTSHIELD_1_SPIM_1.c **** *
 217:Generated_Source\PSoC5/TFTSHIELD_1_SPIM_1.c **** * Parameters:
 218:Generated_Source\PSoC5/TFTSHIELD_1_SPIM_1.c **** *  None.
 219:Generated_Source\PSoC5/TFTSHIELD_1_SPIM_1.c **** *
 220:Generated_Source\PSoC5/TFTSHIELD_1_SPIM_1.c **** * Return:
 221:Generated_Source\PSoC5/TFTSHIELD_1_SPIM_1.c **** *  None.
 222:Generated_Source\PSoC5/TFTSHIELD_1_SPIM_1.c **** *
 223:Generated_Source\PSoC5/TFTSHIELD_1_SPIM_1.c **** * Theory:
 224:Generated_Source\PSoC5/TFTSHIELD_1_SPIM_1.c **** *  Enable the internal Tx interrupt output -or- the interrupt component itself.
 225:Generated_Source\PSoC5/TFTSHIELD_1_SPIM_1.c **** *
 226:Generated_Source\PSoC5/TFTSHIELD_1_SPIM_1.c **** *******************************************************************************/
 227:Generated_Source\PSoC5/TFTSHIELD_1_SPIM_1.c **** void TFTSHIELD_1_SPIM_1_EnableTxInt(void) 
 228:Generated_Source\PSoC5/TFTSHIELD_1_SPIM_1.c **** {
 285              		.loc 1 228 0
ARM GAS  C:\Users\LilRobby\AppData\Local\Temp\ccgNTm4U.s 			page 10


 286              		.cfi_startproc
 287              		@ args = 0, pretend = 0, frame = 0
 288              		@ frame_needed = 1, uses_anonymous_args = 0
 289              		@ link register save eliminated.
 290 0000 80B4     		push	{r7}
 291              		.cfi_def_cfa_offset 4
 292              		.cfi_offset 7, -4
 293 0002 00AF     		add	r7, sp, #0
 294              		.cfi_def_cfa_register 7
 229:Generated_Source\PSoC5/TFTSHIELD_1_SPIM_1.c ****     #if(0u != TFTSHIELD_1_SPIM_1_INTERNAL_TX_INT_ENABLED)
 230:Generated_Source\PSoC5/TFTSHIELD_1_SPIM_1.c ****         CyIntEnable(TFTSHIELD_1_SPIM_1_TX_ISR_NUMBER);
 295              		.loc 1 230 0
 296 0004 034B     		ldr	r3, .L15
 297 0006 0222     		movs	r2, #2
 298 0008 1A60     		str	r2, [r3]
 231:Generated_Source\PSoC5/TFTSHIELD_1_SPIM_1.c ****     #endif /* (0u != TFTSHIELD_1_SPIM_1_INTERNAL_TX_INT_ENABLED) */
 232:Generated_Source\PSoC5/TFTSHIELD_1_SPIM_1.c **** }
 299              		.loc 1 232 0
 300 000a BD46     		mov	sp, r7
 301              		.cfi_def_cfa_register 13
 302              		@ sp needed
 303 000c 5DF8047B 		ldr	r7, [sp], #4
 304              		.cfi_restore 7
 305              		.cfi_def_cfa_offset 0
 306 0010 7047     		bx	lr
 307              	.L16:
 308 0012 00BF     		.align	2
 309              	.L15:
 310 0014 00E100E0 		.word	-536813312
 311              		.cfi_endproc
 312              	.LFE4:
 313              		.size	TFTSHIELD_1_SPIM_1_EnableTxInt, .-TFTSHIELD_1_SPIM_1_EnableTxInt
 314              		.section	.text.TFTSHIELD_1_SPIM_1_EnableRxInt,"ax",%progbits
 315              		.align	2
 316              		.global	TFTSHIELD_1_SPIM_1_EnableRxInt
 317              		.thumb
 318              		.thumb_func
 319              		.type	TFTSHIELD_1_SPIM_1_EnableRxInt, %function
 320              	TFTSHIELD_1_SPIM_1_EnableRxInt:
 321              	.LFB5:
 233:Generated_Source\PSoC5/TFTSHIELD_1_SPIM_1.c **** 
 234:Generated_Source\PSoC5/TFTSHIELD_1_SPIM_1.c **** 
 235:Generated_Source\PSoC5/TFTSHIELD_1_SPIM_1.c **** /*******************************************************************************
 236:Generated_Source\PSoC5/TFTSHIELD_1_SPIM_1.c **** * Function Name: TFTSHIELD_1_SPIM_1_EnableRxInt
 237:Generated_Source\PSoC5/TFTSHIELD_1_SPIM_1.c **** ********************************************************************************
 238:Generated_Source\PSoC5/TFTSHIELD_1_SPIM_1.c **** *
 239:Generated_Source\PSoC5/TFTSHIELD_1_SPIM_1.c **** * Summary:
 240:Generated_Source\PSoC5/TFTSHIELD_1_SPIM_1.c **** *  Enable internal Rx interrupt generation.
 241:Generated_Source\PSoC5/TFTSHIELD_1_SPIM_1.c **** *
 242:Generated_Source\PSoC5/TFTSHIELD_1_SPIM_1.c **** * Parameters:
 243:Generated_Source\PSoC5/TFTSHIELD_1_SPIM_1.c **** *  None.
 244:Generated_Source\PSoC5/TFTSHIELD_1_SPIM_1.c **** *
 245:Generated_Source\PSoC5/TFTSHIELD_1_SPIM_1.c **** * Return:
 246:Generated_Source\PSoC5/TFTSHIELD_1_SPIM_1.c **** *  None.
 247:Generated_Source\PSoC5/TFTSHIELD_1_SPIM_1.c **** *
 248:Generated_Source\PSoC5/TFTSHIELD_1_SPIM_1.c **** * Theory:
 249:Generated_Source\PSoC5/TFTSHIELD_1_SPIM_1.c **** *  Enable the internal Rx interrupt output -or- the interrupt component itself.
ARM GAS  C:\Users\LilRobby\AppData\Local\Temp\ccgNTm4U.s 			page 11


 250:Generated_Source\PSoC5/TFTSHIELD_1_SPIM_1.c **** *
 251:Generated_Source\PSoC5/TFTSHIELD_1_SPIM_1.c **** *******************************************************************************/
 252:Generated_Source\PSoC5/TFTSHIELD_1_SPIM_1.c **** void TFTSHIELD_1_SPIM_1_EnableRxInt(void) 
 253:Generated_Source\PSoC5/TFTSHIELD_1_SPIM_1.c **** {
 322              		.loc 1 253 0
 323              		.cfi_startproc
 324              		@ args = 0, pretend = 0, frame = 0
 325              		@ frame_needed = 1, uses_anonymous_args = 0
 326              		@ link register save eliminated.
 327 0000 80B4     		push	{r7}
 328              		.cfi_def_cfa_offset 4
 329              		.cfi_offset 7, -4
 330 0002 00AF     		add	r7, sp, #0
 331              		.cfi_def_cfa_register 7
 254:Generated_Source\PSoC5/TFTSHIELD_1_SPIM_1.c ****     #if(0u != TFTSHIELD_1_SPIM_1_INTERNAL_RX_INT_ENABLED)
 255:Generated_Source\PSoC5/TFTSHIELD_1_SPIM_1.c ****         CyIntEnable(TFTSHIELD_1_SPIM_1_RX_ISR_NUMBER);
 332              		.loc 1 255 0
 333 0004 034B     		ldr	r3, .L18
 334 0006 0122     		movs	r2, #1
 335 0008 1A60     		str	r2, [r3]
 256:Generated_Source\PSoC5/TFTSHIELD_1_SPIM_1.c ****     #endif /* (0u != TFTSHIELD_1_SPIM_1_INTERNAL_RX_INT_ENABLED) */
 257:Generated_Source\PSoC5/TFTSHIELD_1_SPIM_1.c **** }
 336              		.loc 1 257 0
 337 000a BD46     		mov	sp, r7
 338              		.cfi_def_cfa_register 13
 339              		@ sp needed
 340 000c 5DF8047B 		ldr	r7, [sp], #4
 341              		.cfi_restore 7
 342              		.cfi_def_cfa_offset 0
 343 0010 7047     		bx	lr
 344              	.L19:
 345 0012 00BF     		.align	2
 346              	.L18:
 347 0014 00E100E0 		.word	-536813312
 348              		.cfi_endproc
 349              	.LFE5:
 350              		.size	TFTSHIELD_1_SPIM_1_EnableRxInt, .-TFTSHIELD_1_SPIM_1_EnableRxInt
 351              		.section	.text.TFTSHIELD_1_SPIM_1_DisableTxInt,"ax",%progbits
 352              		.align	2
 353              		.global	TFTSHIELD_1_SPIM_1_DisableTxInt
 354              		.thumb
 355              		.thumb_func
 356              		.type	TFTSHIELD_1_SPIM_1_DisableTxInt, %function
 357              	TFTSHIELD_1_SPIM_1_DisableTxInt:
 358              	.LFB6:
 258:Generated_Source\PSoC5/TFTSHIELD_1_SPIM_1.c **** 
 259:Generated_Source\PSoC5/TFTSHIELD_1_SPIM_1.c **** 
 260:Generated_Source\PSoC5/TFTSHIELD_1_SPIM_1.c **** /*******************************************************************************
 261:Generated_Source\PSoC5/TFTSHIELD_1_SPIM_1.c **** * Function Name: TFTSHIELD_1_SPIM_1_DisableTxInt
 262:Generated_Source\PSoC5/TFTSHIELD_1_SPIM_1.c **** ********************************************************************************
 263:Generated_Source\PSoC5/TFTSHIELD_1_SPIM_1.c **** *
 264:Generated_Source\PSoC5/TFTSHIELD_1_SPIM_1.c **** * Summary:
 265:Generated_Source\PSoC5/TFTSHIELD_1_SPIM_1.c **** *  Disable internal Tx interrupt generation.
 266:Generated_Source\PSoC5/TFTSHIELD_1_SPIM_1.c **** *
 267:Generated_Source\PSoC5/TFTSHIELD_1_SPIM_1.c **** * Parameters:
 268:Generated_Source\PSoC5/TFTSHIELD_1_SPIM_1.c **** *  None.
 269:Generated_Source\PSoC5/TFTSHIELD_1_SPIM_1.c **** *
ARM GAS  C:\Users\LilRobby\AppData\Local\Temp\ccgNTm4U.s 			page 12


 270:Generated_Source\PSoC5/TFTSHIELD_1_SPIM_1.c **** * Return:
 271:Generated_Source\PSoC5/TFTSHIELD_1_SPIM_1.c **** *  None.
 272:Generated_Source\PSoC5/TFTSHIELD_1_SPIM_1.c **** *
 273:Generated_Source\PSoC5/TFTSHIELD_1_SPIM_1.c **** * Theory:
 274:Generated_Source\PSoC5/TFTSHIELD_1_SPIM_1.c **** *  Disable the internal Tx interrupt output -or- the interrupt component itself.
 275:Generated_Source\PSoC5/TFTSHIELD_1_SPIM_1.c **** *
 276:Generated_Source\PSoC5/TFTSHIELD_1_SPIM_1.c **** *******************************************************************************/
 277:Generated_Source\PSoC5/TFTSHIELD_1_SPIM_1.c **** void TFTSHIELD_1_SPIM_1_DisableTxInt(void) 
 278:Generated_Source\PSoC5/TFTSHIELD_1_SPIM_1.c **** {
 359              		.loc 1 278 0
 360              		.cfi_startproc
 361              		@ args = 0, pretend = 0, frame = 0
 362              		@ frame_needed = 1, uses_anonymous_args = 0
 363              		@ link register save eliminated.
 364 0000 80B4     		push	{r7}
 365              		.cfi_def_cfa_offset 4
 366              		.cfi_offset 7, -4
 367 0002 00AF     		add	r7, sp, #0
 368              		.cfi_def_cfa_register 7
 279:Generated_Source\PSoC5/TFTSHIELD_1_SPIM_1.c ****     #if(0u != TFTSHIELD_1_SPIM_1_INTERNAL_TX_INT_ENABLED)
 280:Generated_Source\PSoC5/TFTSHIELD_1_SPIM_1.c ****         CyIntDisable(TFTSHIELD_1_SPIM_1_TX_ISR_NUMBER);
 369              		.loc 1 280 0
 370 0004 034B     		ldr	r3, .L21
 371 0006 0222     		movs	r2, #2
 372 0008 1A60     		str	r2, [r3]
 281:Generated_Source\PSoC5/TFTSHIELD_1_SPIM_1.c ****     #endif /* (0u != TFTSHIELD_1_SPIM_1_INTERNAL_TX_INT_ENABLED) */
 282:Generated_Source\PSoC5/TFTSHIELD_1_SPIM_1.c **** }
 373              		.loc 1 282 0
 374 000a BD46     		mov	sp, r7
 375              		.cfi_def_cfa_register 13
 376              		@ sp needed
 377 000c 5DF8047B 		ldr	r7, [sp], #4
 378              		.cfi_restore 7
 379              		.cfi_def_cfa_offset 0
 380 0010 7047     		bx	lr
 381              	.L22:
 382 0012 00BF     		.align	2
 383              	.L21:
 384 0014 80E100E0 		.word	-536813184
 385              		.cfi_endproc
 386              	.LFE6:
 387              		.size	TFTSHIELD_1_SPIM_1_DisableTxInt, .-TFTSHIELD_1_SPIM_1_DisableTxInt
 388              		.section	.text.TFTSHIELD_1_SPIM_1_DisableRxInt,"ax",%progbits
 389              		.align	2
 390              		.global	TFTSHIELD_1_SPIM_1_DisableRxInt
 391              		.thumb
 392              		.thumb_func
 393              		.type	TFTSHIELD_1_SPIM_1_DisableRxInt, %function
 394              	TFTSHIELD_1_SPIM_1_DisableRxInt:
 395              	.LFB7:
 283:Generated_Source\PSoC5/TFTSHIELD_1_SPIM_1.c **** 
 284:Generated_Source\PSoC5/TFTSHIELD_1_SPIM_1.c **** 
 285:Generated_Source\PSoC5/TFTSHIELD_1_SPIM_1.c **** /*******************************************************************************
 286:Generated_Source\PSoC5/TFTSHIELD_1_SPIM_1.c **** * Function Name: TFTSHIELD_1_SPIM_1_DisableRxInt
 287:Generated_Source\PSoC5/TFTSHIELD_1_SPIM_1.c **** ********************************************************************************
 288:Generated_Source\PSoC5/TFTSHIELD_1_SPIM_1.c **** *
 289:Generated_Source\PSoC5/TFTSHIELD_1_SPIM_1.c **** * Summary:
ARM GAS  C:\Users\LilRobby\AppData\Local\Temp\ccgNTm4U.s 			page 13


 290:Generated_Source\PSoC5/TFTSHIELD_1_SPIM_1.c **** *  Disable internal Rx interrupt generation.
 291:Generated_Source\PSoC5/TFTSHIELD_1_SPIM_1.c **** *
 292:Generated_Source\PSoC5/TFTSHIELD_1_SPIM_1.c **** * Parameters:
 293:Generated_Source\PSoC5/TFTSHIELD_1_SPIM_1.c **** *  None.
 294:Generated_Source\PSoC5/TFTSHIELD_1_SPIM_1.c **** *
 295:Generated_Source\PSoC5/TFTSHIELD_1_SPIM_1.c **** * Return:
 296:Generated_Source\PSoC5/TFTSHIELD_1_SPIM_1.c **** *  None.
 297:Generated_Source\PSoC5/TFTSHIELD_1_SPIM_1.c **** *
 298:Generated_Source\PSoC5/TFTSHIELD_1_SPIM_1.c **** * Theory:
 299:Generated_Source\PSoC5/TFTSHIELD_1_SPIM_1.c **** *  Disable the internal Rx interrupt output -or- the interrupt component itself.
 300:Generated_Source\PSoC5/TFTSHIELD_1_SPIM_1.c **** *
 301:Generated_Source\PSoC5/TFTSHIELD_1_SPIM_1.c **** *******************************************************************************/
 302:Generated_Source\PSoC5/TFTSHIELD_1_SPIM_1.c **** void TFTSHIELD_1_SPIM_1_DisableRxInt(void) 
 303:Generated_Source\PSoC5/TFTSHIELD_1_SPIM_1.c **** {
 396              		.loc 1 303 0
 397              		.cfi_startproc
 398              		@ args = 0, pretend = 0, frame = 0
 399              		@ frame_needed = 1, uses_anonymous_args = 0
 400              		@ link register save eliminated.
 401 0000 80B4     		push	{r7}
 402              		.cfi_def_cfa_offset 4
 403              		.cfi_offset 7, -4
 404 0002 00AF     		add	r7, sp, #0
 405              		.cfi_def_cfa_register 7
 304:Generated_Source\PSoC5/TFTSHIELD_1_SPIM_1.c ****     #if(0u != TFTSHIELD_1_SPIM_1_INTERNAL_RX_INT_ENABLED)
 305:Generated_Source\PSoC5/TFTSHIELD_1_SPIM_1.c ****         CyIntDisable(TFTSHIELD_1_SPIM_1_RX_ISR_NUMBER);
 406              		.loc 1 305 0
 407 0004 034B     		ldr	r3, .L24
 408 0006 0122     		movs	r2, #1
 409 0008 1A60     		str	r2, [r3]
 306:Generated_Source\PSoC5/TFTSHIELD_1_SPIM_1.c ****     #endif /* (0u != TFTSHIELD_1_SPIM_1_INTERNAL_RX_INT_ENABLED) */
 307:Generated_Source\PSoC5/TFTSHIELD_1_SPIM_1.c **** }
 410              		.loc 1 307 0
 411 000a BD46     		mov	sp, r7
 412              		.cfi_def_cfa_register 13
 413              		@ sp needed
 414 000c 5DF8047B 		ldr	r7, [sp], #4
 415              		.cfi_restore 7
 416              		.cfi_def_cfa_offset 0
 417 0010 7047     		bx	lr
 418              	.L25:
 419 0012 00BF     		.align	2
 420              	.L24:
 421 0014 80E100E0 		.word	-536813184
 422              		.cfi_endproc
 423              	.LFE7:
 424              		.size	TFTSHIELD_1_SPIM_1_DisableRxInt, .-TFTSHIELD_1_SPIM_1_DisableRxInt
 425              		.section	.text.TFTSHIELD_1_SPIM_1_SetTxInterruptMode,"ax",%progbits
 426              		.align	2
 427              		.global	TFTSHIELD_1_SPIM_1_SetTxInterruptMode
 428              		.thumb
 429              		.thumb_func
 430              		.type	TFTSHIELD_1_SPIM_1_SetTxInterruptMode, %function
 431              	TFTSHIELD_1_SPIM_1_SetTxInterruptMode:
 432              	.LFB8:
 308:Generated_Source\PSoC5/TFTSHIELD_1_SPIM_1.c **** 
 309:Generated_Source\PSoC5/TFTSHIELD_1_SPIM_1.c **** 
ARM GAS  C:\Users\LilRobby\AppData\Local\Temp\ccgNTm4U.s 			page 14


 310:Generated_Source\PSoC5/TFTSHIELD_1_SPIM_1.c **** /*******************************************************************************
 311:Generated_Source\PSoC5/TFTSHIELD_1_SPIM_1.c **** * Function Name: TFTSHIELD_1_SPIM_1_SetTxInterruptMode
 312:Generated_Source\PSoC5/TFTSHIELD_1_SPIM_1.c **** ********************************************************************************
 313:Generated_Source\PSoC5/TFTSHIELD_1_SPIM_1.c **** *
 314:Generated_Source\PSoC5/TFTSHIELD_1_SPIM_1.c **** * Summary:
 315:Generated_Source\PSoC5/TFTSHIELD_1_SPIM_1.c **** *  Configure which status bits trigger an interrupt event.
 316:Generated_Source\PSoC5/TFTSHIELD_1_SPIM_1.c **** *
 317:Generated_Source\PSoC5/TFTSHIELD_1_SPIM_1.c **** * Parameters:
 318:Generated_Source\PSoC5/TFTSHIELD_1_SPIM_1.c **** *  intSrc: An or'd combination of the desired status bit masks (defined in the
 319:Generated_Source\PSoC5/TFTSHIELD_1_SPIM_1.c **** *  header file).
 320:Generated_Source\PSoC5/TFTSHIELD_1_SPIM_1.c **** *
 321:Generated_Source\PSoC5/TFTSHIELD_1_SPIM_1.c **** * Return:
 322:Generated_Source\PSoC5/TFTSHIELD_1_SPIM_1.c **** *  None.
 323:Generated_Source\PSoC5/TFTSHIELD_1_SPIM_1.c **** *
 324:Generated_Source\PSoC5/TFTSHIELD_1_SPIM_1.c **** * Theory:
 325:Generated_Source\PSoC5/TFTSHIELD_1_SPIM_1.c **** *  Enables the output of specific status bits to the interrupt controller.
 326:Generated_Source\PSoC5/TFTSHIELD_1_SPIM_1.c **** *
 327:Generated_Source\PSoC5/TFTSHIELD_1_SPIM_1.c **** *******************************************************************************/
 328:Generated_Source\PSoC5/TFTSHIELD_1_SPIM_1.c **** void TFTSHIELD_1_SPIM_1_SetTxInterruptMode(uint8 intSrc) 
 329:Generated_Source\PSoC5/TFTSHIELD_1_SPIM_1.c **** {
 433              		.loc 1 329 0
 434              		.cfi_startproc
 435              		@ args = 0, pretend = 0, frame = 8
 436              		@ frame_needed = 1, uses_anonymous_args = 0
 437              		@ link register save eliminated.
 438 0000 80B4     		push	{r7}
 439              		.cfi_def_cfa_offset 4
 440              		.cfi_offset 7, -4
 441 0002 83B0     		sub	sp, sp, #12
 442              		.cfi_def_cfa_offset 16
 443 0004 00AF     		add	r7, sp, #0
 444              		.cfi_def_cfa_register 7
 445 0006 0346     		mov	r3, r0
 446 0008 FB71     		strb	r3, [r7, #7]
 330:Generated_Source\PSoC5/TFTSHIELD_1_SPIM_1.c ****     TFTSHIELD_1_SPIM_1_TX_STATUS_MASK_REG = intSrc;
 447              		.loc 1 330 0
 448 000a 044A     		ldr	r2, .L27
 449 000c FB79     		ldrb	r3, [r7, #7]
 450 000e 1370     		strb	r3, [r2]
 331:Generated_Source\PSoC5/TFTSHIELD_1_SPIM_1.c **** }
 451              		.loc 1 331 0
 452 0010 0C37     		adds	r7, r7, #12
 453              		.cfi_def_cfa_offset 4
 454 0012 BD46     		mov	sp, r7
 455              		.cfi_def_cfa_register 13
 456              		@ sp needed
 457 0014 5DF8047B 		ldr	r7, [sp], #4
 458              		.cfi_restore 7
 459              		.cfi_def_cfa_offset 0
 460 0018 7047     		bx	lr
 461              	.L28:
 462 001a 00BF     		.align	2
 463              	.L27:
 464 001c 8B640040 		.word	1073767563
 465              		.cfi_endproc
 466              	.LFE8:
 467              		.size	TFTSHIELD_1_SPIM_1_SetTxInterruptMode, .-TFTSHIELD_1_SPIM_1_SetTxInterruptMode
ARM GAS  C:\Users\LilRobby\AppData\Local\Temp\ccgNTm4U.s 			page 15


 468              		.section	.text.TFTSHIELD_1_SPIM_1_SetRxInterruptMode,"ax",%progbits
 469              		.align	2
 470              		.global	TFTSHIELD_1_SPIM_1_SetRxInterruptMode
 471              		.thumb
 472              		.thumb_func
 473              		.type	TFTSHIELD_1_SPIM_1_SetRxInterruptMode, %function
 474              	TFTSHIELD_1_SPIM_1_SetRxInterruptMode:
 475              	.LFB9:
 332:Generated_Source\PSoC5/TFTSHIELD_1_SPIM_1.c **** 
 333:Generated_Source\PSoC5/TFTSHIELD_1_SPIM_1.c **** 
 334:Generated_Source\PSoC5/TFTSHIELD_1_SPIM_1.c **** /*******************************************************************************
 335:Generated_Source\PSoC5/TFTSHIELD_1_SPIM_1.c **** * Function Name: TFTSHIELD_1_SPIM_1_SetRxInterruptMode
 336:Generated_Source\PSoC5/TFTSHIELD_1_SPIM_1.c **** ********************************************************************************
 337:Generated_Source\PSoC5/TFTSHIELD_1_SPIM_1.c **** *
 338:Generated_Source\PSoC5/TFTSHIELD_1_SPIM_1.c **** * Summary:
 339:Generated_Source\PSoC5/TFTSHIELD_1_SPIM_1.c **** *  Configure which status bits trigger an interrupt event.
 340:Generated_Source\PSoC5/TFTSHIELD_1_SPIM_1.c **** *
 341:Generated_Source\PSoC5/TFTSHIELD_1_SPIM_1.c **** * Parameters:
 342:Generated_Source\PSoC5/TFTSHIELD_1_SPIM_1.c **** *  intSrc: An or'd combination of the desired status bit masks (defined in the
 343:Generated_Source\PSoC5/TFTSHIELD_1_SPIM_1.c **** *  header file).
 344:Generated_Source\PSoC5/TFTSHIELD_1_SPIM_1.c **** *
 345:Generated_Source\PSoC5/TFTSHIELD_1_SPIM_1.c **** * Return:
 346:Generated_Source\PSoC5/TFTSHIELD_1_SPIM_1.c **** *  None.
 347:Generated_Source\PSoC5/TFTSHIELD_1_SPIM_1.c **** *
 348:Generated_Source\PSoC5/TFTSHIELD_1_SPIM_1.c **** * Theory:
 349:Generated_Source\PSoC5/TFTSHIELD_1_SPIM_1.c **** *  Enables the output of specific status bits to the interrupt controller.
 350:Generated_Source\PSoC5/TFTSHIELD_1_SPIM_1.c **** *
 351:Generated_Source\PSoC5/TFTSHIELD_1_SPIM_1.c **** *******************************************************************************/
 352:Generated_Source\PSoC5/TFTSHIELD_1_SPIM_1.c **** void TFTSHIELD_1_SPIM_1_SetRxInterruptMode(uint8 intSrc) 
 353:Generated_Source\PSoC5/TFTSHIELD_1_SPIM_1.c **** {
 476              		.loc 1 353 0
 477              		.cfi_startproc
 478              		@ args = 0, pretend = 0, frame = 8
 479              		@ frame_needed = 1, uses_anonymous_args = 0
 480              		@ link register save eliminated.
 481 0000 80B4     		push	{r7}
 482              		.cfi_def_cfa_offset 4
 483              		.cfi_offset 7, -4
 484 0002 83B0     		sub	sp, sp, #12
 485              		.cfi_def_cfa_offset 16
 486 0004 00AF     		add	r7, sp, #0
 487              		.cfi_def_cfa_register 7
 488 0006 0346     		mov	r3, r0
 489 0008 FB71     		strb	r3, [r7, #7]
 354:Generated_Source\PSoC5/TFTSHIELD_1_SPIM_1.c ****     TFTSHIELD_1_SPIM_1_RX_STATUS_MASK_REG  = intSrc;
 490              		.loc 1 354 0
 491 000a 044A     		ldr	r2, .L30
 492 000c FB79     		ldrb	r3, [r7, #7]
 493 000e 1370     		strb	r3, [r2]
 355:Generated_Source\PSoC5/TFTSHIELD_1_SPIM_1.c **** }
 494              		.loc 1 355 0
 495 0010 0C37     		adds	r7, r7, #12
 496              		.cfi_def_cfa_offset 4
 497 0012 BD46     		mov	sp, r7
 498              		.cfi_def_cfa_register 13
 499              		@ sp needed
 500 0014 5DF8047B 		ldr	r7, [sp], #4
ARM GAS  C:\Users\LilRobby\AppData\Local\Temp\ccgNTm4U.s 			page 16


 501              		.cfi_restore 7
 502              		.cfi_def_cfa_offset 0
 503 0018 7047     		bx	lr
 504              	.L31:
 505 001a 00BF     		.align	2
 506              	.L30:
 507 001c 8A640040 		.word	1073767562
 508              		.cfi_endproc
 509              	.LFE9:
 510              		.size	TFTSHIELD_1_SPIM_1_SetRxInterruptMode, .-TFTSHIELD_1_SPIM_1_SetRxInterruptMode
 511              		.section	.text.TFTSHIELD_1_SPIM_1_ReadTxStatus,"ax",%progbits
 512              		.align	2
 513              		.global	TFTSHIELD_1_SPIM_1_ReadTxStatus
 514              		.thumb
 515              		.thumb_func
 516              		.type	TFTSHIELD_1_SPIM_1_ReadTxStatus, %function
 517              	TFTSHIELD_1_SPIM_1_ReadTxStatus:
 518              	.LFB10:
 356:Generated_Source\PSoC5/TFTSHIELD_1_SPIM_1.c **** 
 357:Generated_Source\PSoC5/TFTSHIELD_1_SPIM_1.c **** 
 358:Generated_Source\PSoC5/TFTSHIELD_1_SPIM_1.c **** /*******************************************************************************
 359:Generated_Source\PSoC5/TFTSHIELD_1_SPIM_1.c **** * Function Name: TFTSHIELD_1_SPIM_1_ReadTxStatus
 360:Generated_Source\PSoC5/TFTSHIELD_1_SPIM_1.c **** ********************************************************************************
 361:Generated_Source\PSoC5/TFTSHIELD_1_SPIM_1.c **** *
 362:Generated_Source\PSoC5/TFTSHIELD_1_SPIM_1.c **** * Summary:
 363:Generated_Source\PSoC5/TFTSHIELD_1_SPIM_1.c **** *  Read the Tx status register for the component.
 364:Generated_Source\PSoC5/TFTSHIELD_1_SPIM_1.c **** *
 365:Generated_Source\PSoC5/TFTSHIELD_1_SPIM_1.c **** * Parameters:
 366:Generated_Source\PSoC5/TFTSHIELD_1_SPIM_1.c **** *  None.
 367:Generated_Source\PSoC5/TFTSHIELD_1_SPIM_1.c **** *
 368:Generated_Source\PSoC5/TFTSHIELD_1_SPIM_1.c **** * Return:
 369:Generated_Source\PSoC5/TFTSHIELD_1_SPIM_1.c **** *  Contents of the Tx status register.
 370:Generated_Source\PSoC5/TFTSHIELD_1_SPIM_1.c **** *
 371:Generated_Source\PSoC5/TFTSHIELD_1_SPIM_1.c **** * Global variables:
 372:Generated_Source\PSoC5/TFTSHIELD_1_SPIM_1.c **** *  TFTSHIELD_1_SPIM_1_swStatusTx - used to store in software status register,
 373:Generated_Source\PSoC5/TFTSHIELD_1_SPIM_1.c **** *  modified every function call - resets to zero.
 374:Generated_Source\PSoC5/TFTSHIELD_1_SPIM_1.c **** *
 375:Generated_Source\PSoC5/TFTSHIELD_1_SPIM_1.c **** * Theory:
 376:Generated_Source\PSoC5/TFTSHIELD_1_SPIM_1.c **** *  Allows the user and the API to read the Tx status register for error
 377:Generated_Source\PSoC5/TFTSHIELD_1_SPIM_1.c **** *  detection and flow control.
 378:Generated_Source\PSoC5/TFTSHIELD_1_SPIM_1.c **** *
 379:Generated_Source\PSoC5/TFTSHIELD_1_SPIM_1.c **** * Side Effects:
 380:Generated_Source\PSoC5/TFTSHIELD_1_SPIM_1.c **** *  Clear Tx status register of the component.
 381:Generated_Source\PSoC5/TFTSHIELD_1_SPIM_1.c **** *
 382:Generated_Source\PSoC5/TFTSHIELD_1_SPIM_1.c **** * Reentrant:
 383:Generated_Source\PSoC5/TFTSHIELD_1_SPIM_1.c **** *  No.
 384:Generated_Source\PSoC5/TFTSHIELD_1_SPIM_1.c **** *
 385:Generated_Source\PSoC5/TFTSHIELD_1_SPIM_1.c **** *******************************************************************************/
 386:Generated_Source\PSoC5/TFTSHIELD_1_SPIM_1.c **** uint8 TFTSHIELD_1_SPIM_1_ReadTxStatus(void) 
 387:Generated_Source\PSoC5/TFTSHIELD_1_SPIM_1.c **** {
 519              		.loc 1 387 0
 520              		.cfi_startproc
 521              		@ args = 0, pretend = 0, frame = 8
 522              		@ frame_needed = 1, uses_anonymous_args = 0
 523              		@ link register save eliminated.
 524 0000 80B4     		push	{r7}
 525              		.cfi_def_cfa_offset 4
ARM GAS  C:\Users\LilRobby\AppData\Local\Temp\ccgNTm4U.s 			page 17


 526              		.cfi_offset 7, -4
 527 0002 83B0     		sub	sp, sp, #12
 528              		.cfi_def_cfa_offset 16
 529 0004 00AF     		add	r7, sp, #0
 530              		.cfi_def_cfa_register 7
 388:Generated_Source\PSoC5/TFTSHIELD_1_SPIM_1.c ****     uint8 tmpStatus;
 389:Generated_Source\PSoC5/TFTSHIELD_1_SPIM_1.c **** 
 390:Generated_Source\PSoC5/TFTSHIELD_1_SPIM_1.c ****     #if(TFTSHIELD_1_SPIM_1_TX_SOFTWARE_BUF_ENABLED)
 391:Generated_Source\PSoC5/TFTSHIELD_1_SPIM_1.c ****         /* Disable TX interrupt to protect global veriables */
 392:Generated_Source\PSoC5/TFTSHIELD_1_SPIM_1.c ****         TFTSHIELD_1_SPIM_1_DisableTxInt();
 393:Generated_Source\PSoC5/TFTSHIELD_1_SPIM_1.c **** 
 394:Generated_Source\PSoC5/TFTSHIELD_1_SPIM_1.c ****         tmpStatus = TFTSHIELD_1_SPIM_1_GET_STATUS_TX(TFTSHIELD_1_SPIM_1_swStatusTx);
 395:Generated_Source\PSoC5/TFTSHIELD_1_SPIM_1.c ****         TFTSHIELD_1_SPIM_1_swStatusTx = 0u;
 396:Generated_Source\PSoC5/TFTSHIELD_1_SPIM_1.c **** 
 397:Generated_Source\PSoC5/TFTSHIELD_1_SPIM_1.c ****         TFTSHIELD_1_SPIM_1_EnableTxInt();
 398:Generated_Source\PSoC5/TFTSHIELD_1_SPIM_1.c **** 
 399:Generated_Source\PSoC5/TFTSHIELD_1_SPIM_1.c ****     #else
 400:Generated_Source\PSoC5/TFTSHIELD_1_SPIM_1.c **** 
 401:Generated_Source\PSoC5/TFTSHIELD_1_SPIM_1.c ****         tmpStatus = TFTSHIELD_1_SPIM_1_TX_STATUS_REG;
 531              		.loc 1 401 0
 532 0006 054B     		ldr	r3, .L34
 533 0008 1B78     		ldrb	r3, [r3]
 534 000a FB71     		strb	r3, [r7, #7]
 402:Generated_Source\PSoC5/TFTSHIELD_1_SPIM_1.c **** 
 403:Generated_Source\PSoC5/TFTSHIELD_1_SPIM_1.c ****     #endif /* (TFTSHIELD_1_SPIM_1_TX_SOFTWARE_BUF_ENABLED) */
 404:Generated_Source\PSoC5/TFTSHIELD_1_SPIM_1.c **** 
 405:Generated_Source\PSoC5/TFTSHIELD_1_SPIM_1.c ****     return(tmpStatus);
 535              		.loc 1 405 0
 536 000c FB79     		ldrb	r3, [r7, #7]	@ zero_extendqisi2
 406:Generated_Source\PSoC5/TFTSHIELD_1_SPIM_1.c **** }
 537              		.loc 1 406 0
 538 000e 1846     		mov	r0, r3
 539 0010 0C37     		adds	r7, r7, #12
 540              		.cfi_def_cfa_offset 4
 541 0012 BD46     		mov	sp, r7
 542              		.cfi_def_cfa_register 13
 543              		@ sp needed
 544 0014 5DF8047B 		ldr	r7, [sp], #4
 545              		.cfi_restore 7
 546              		.cfi_def_cfa_offset 0
 547 0018 7047     		bx	lr
 548              	.L35:
 549 001a 00BF     		.align	2
 550              	.L34:
 551 001c 6B640040 		.word	1073767531
 552              		.cfi_endproc
 553              	.LFE10:
 554              		.size	TFTSHIELD_1_SPIM_1_ReadTxStatus, .-TFTSHIELD_1_SPIM_1_ReadTxStatus
 555              		.section	.text.TFTSHIELD_1_SPIM_1_ReadRxStatus,"ax",%progbits
 556              		.align	2
 557              		.global	TFTSHIELD_1_SPIM_1_ReadRxStatus
 558              		.thumb
 559              		.thumb_func
 560              		.type	TFTSHIELD_1_SPIM_1_ReadRxStatus, %function
 561              	TFTSHIELD_1_SPIM_1_ReadRxStatus:
 562              	.LFB11:
 407:Generated_Source\PSoC5/TFTSHIELD_1_SPIM_1.c **** 
ARM GAS  C:\Users\LilRobby\AppData\Local\Temp\ccgNTm4U.s 			page 18


 408:Generated_Source\PSoC5/TFTSHIELD_1_SPIM_1.c **** 
 409:Generated_Source\PSoC5/TFTSHIELD_1_SPIM_1.c **** /*******************************************************************************
 410:Generated_Source\PSoC5/TFTSHIELD_1_SPIM_1.c **** * Function Name: TFTSHIELD_1_SPIM_1_ReadRxStatus
 411:Generated_Source\PSoC5/TFTSHIELD_1_SPIM_1.c **** ********************************************************************************
 412:Generated_Source\PSoC5/TFTSHIELD_1_SPIM_1.c **** *
 413:Generated_Source\PSoC5/TFTSHIELD_1_SPIM_1.c **** * Summary:
 414:Generated_Source\PSoC5/TFTSHIELD_1_SPIM_1.c **** *  Read the Rx status register for the component.
 415:Generated_Source\PSoC5/TFTSHIELD_1_SPIM_1.c **** *
 416:Generated_Source\PSoC5/TFTSHIELD_1_SPIM_1.c **** * Parameters:
 417:Generated_Source\PSoC5/TFTSHIELD_1_SPIM_1.c **** *  None.
 418:Generated_Source\PSoC5/TFTSHIELD_1_SPIM_1.c **** *
 419:Generated_Source\PSoC5/TFTSHIELD_1_SPIM_1.c **** * Return:
 420:Generated_Source\PSoC5/TFTSHIELD_1_SPIM_1.c **** *  Contents of the Rx status register.
 421:Generated_Source\PSoC5/TFTSHIELD_1_SPIM_1.c **** *
 422:Generated_Source\PSoC5/TFTSHIELD_1_SPIM_1.c **** * Global variables:
 423:Generated_Source\PSoC5/TFTSHIELD_1_SPIM_1.c **** *  TFTSHIELD_1_SPIM_1_swStatusRx - used to store in software Rx status register,
 424:Generated_Source\PSoC5/TFTSHIELD_1_SPIM_1.c **** *  modified every function call - resets to zero.
 425:Generated_Source\PSoC5/TFTSHIELD_1_SPIM_1.c **** *
 426:Generated_Source\PSoC5/TFTSHIELD_1_SPIM_1.c **** * Theory:
 427:Generated_Source\PSoC5/TFTSHIELD_1_SPIM_1.c **** *  Allows the user and the API to read the Rx status register for error
 428:Generated_Source\PSoC5/TFTSHIELD_1_SPIM_1.c **** *  detection and flow control.
 429:Generated_Source\PSoC5/TFTSHIELD_1_SPIM_1.c **** *
 430:Generated_Source\PSoC5/TFTSHIELD_1_SPIM_1.c **** * Side Effects:
 431:Generated_Source\PSoC5/TFTSHIELD_1_SPIM_1.c **** *  Clear Rx status register of the component.
 432:Generated_Source\PSoC5/TFTSHIELD_1_SPIM_1.c **** *
 433:Generated_Source\PSoC5/TFTSHIELD_1_SPIM_1.c **** * Reentrant:
 434:Generated_Source\PSoC5/TFTSHIELD_1_SPIM_1.c **** *  No.
 435:Generated_Source\PSoC5/TFTSHIELD_1_SPIM_1.c **** *
 436:Generated_Source\PSoC5/TFTSHIELD_1_SPIM_1.c **** *******************************************************************************/
 437:Generated_Source\PSoC5/TFTSHIELD_1_SPIM_1.c **** uint8 TFTSHIELD_1_SPIM_1_ReadRxStatus(void) 
 438:Generated_Source\PSoC5/TFTSHIELD_1_SPIM_1.c **** {
 563              		.loc 1 438 0
 564              		.cfi_startproc
 565              		@ args = 0, pretend = 0, frame = 8
 566              		@ frame_needed = 1, uses_anonymous_args = 0
 567              		@ link register save eliminated.
 568 0000 80B4     		push	{r7}
 569              		.cfi_def_cfa_offset 4
 570              		.cfi_offset 7, -4
 571 0002 83B0     		sub	sp, sp, #12
 572              		.cfi_def_cfa_offset 16
 573 0004 00AF     		add	r7, sp, #0
 574              		.cfi_def_cfa_register 7
 439:Generated_Source\PSoC5/TFTSHIELD_1_SPIM_1.c ****     uint8 tmpStatus;
 440:Generated_Source\PSoC5/TFTSHIELD_1_SPIM_1.c **** 
 441:Generated_Source\PSoC5/TFTSHIELD_1_SPIM_1.c ****     #if(TFTSHIELD_1_SPIM_1_RX_SOFTWARE_BUF_ENABLED)
 442:Generated_Source\PSoC5/TFTSHIELD_1_SPIM_1.c ****         /* Disable RX interrupt to protect global veriables */
 443:Generated_Source\PSoC5/TFTSHIELD_1_SPIM_1.c ****         TFTSHIELD_1_SPIM_1_DisableRxInt();
 444:Generated_Source\PSoC5/TFTSHIELD_1_SPIM_1.c **** 
 445:Generated_Source\PSoC5/TFTSHIELD_1_SPIM_1.c ****         tmpStatus = TFTSHIELD_1_SPIM_1_GET_STATUS_RX(TFTSHIELD_1_SPIM_1_swStatusRx);
 446:Generated_Source\PSoC5/TFTSHIELD_1_SPIM_1.c ****         TFTSHIELD_1_SPIM_1_swStatusRx = 0u;
 447:Generated_Source\PSoC5/TFTSHIELD_1_SPIM_1.c **** 
 448:Generated_Source\PSoC5/TFTSHIELD_1_SPIM_1.c ****         TFTSHIELD_1_SPIM_1_EnableRxInt();
 449:Generated_Source\PSoC5/TFTSHIELD_1_SPIM_1.c **** 
 450:Generated_Source\PSoC5/TFTSHIELD_1_SPIM_1.c ****     #else
 451:Generated_Source\PSoC5/TFTSHIELD_1_SPIM_1.c **** 
 452:Generated_Source\PSoC5/TFTSHIELD_1_SPIM_1.c ****         tmpStatus = TFTSHIELD_1_SPIM_1_RX_STATUS_REG;
ARM GAS  C:\Users\LilRobby\AppData\Local\Temp\ccgNTm4U.s 			page 19


 575              		.loc 1 452 0
 576 0006 054B     		ldr	r3, .L38
 577 0008 1B78     		ldrb	r3, [r3]
 578 000a FB71     		strb	r3, [r7, #7]
 453:Generated_Source\PSoC5/TFTSHIELD_1_SPIM_1.c **** 
 454:Generated_Source\PSoC5/TFTSHIELD_1_SPIM_1.c ****     #endif /* (TFTSHIELD_1_SPIM_1_RX_SOFTWARE_BUF_ENABLED) */
 455:Generated_Source\PSoC5/TFTSHIELD_1_SPIM_1.c **** 
 456:Generated_Source\PSoC5/TFTSHIELD_1_SPIM_1.c ****     return(tmpStatus);
 579              		.loc 1 456 0
 580 000c FB79     		ldrb	r3, [r7, #7]	@ zero_extendqisi2
 457:Generated_Source\PSoC5/TFTSHIELD_1_SPIM_1.c **** }
 581              		.loc 1 457 0
 582 000e 1846     		mov	r0, r3
 583 0010 0C37     		adds	r7, r7, #12
 584              		.cfi_def_cfa_offset 4
 585 0012 BD46     		mov	sp, r7
 586              		.cfi_def_cfa_register 13
 587              		@ sp needed
 588 0014 5DF8047B 		ldr	r7, [sp], #4
 589              		.cfi_restore 7
 590              		.cfi_def_cfa_offset 0
 591 0018 7047     		bx	lr
 592              	.L39:
 593 001a 00BF     		.align	2
 594              	.L38:
 595 001c 6A640040 		.word	1073767530
 596              		.cfi_endproc
 597              	.LFE11:
 598              		.size	TFTSHIELD_1_SPIM_1_ReadRxStatus, .-TFTSHIELD_1_SPIM_1_ReadRxStatus
 599              		.section	.text.TFTSHIELD_1_SPIM_1_WriteTxData,"ax",%progbits
 600              		.align	2
 601              		.global	TFTSHIELD_1_SPIM_1_WriteTxData
 602              		.thumb
 603              		.thumb_func
 604              		.type	TFTSHIELD_1_SPIM_1_WriteTxData, %function
 605              	TFTSHIELD_1_SPIM_1_WriteTxData:
 606              	.LFB12:
 458:Generated_Source\PSoC5/TFTSHIELD_1_SPIM_1.c **** 
 459:Generated_Source\PSoC5/TFTSHIELD_1_SPIM_1.c **** 
 460:Generated_Source\PSoC5/TFTSHIELD_1_SPIM_1.c **** /*******************************************************************************
 461:Generated_Source\PSoC5/TFTSHIELD_1_SPIM_1.c **** * Function Name: TFTSHIELD_1_SPIM_1_WriteTxData
 462:Generated_Source\PSoC5/TFTSHIELD_1_SPIM_1.c **** ********************************************************************************
 463:Generated_Source\PSoC5/TFTSHIELD_1_SPIM_1.c **** *
 464:Generated_Source\PSoC5/TFTSHIELD_1_SPIM_1.c **** * Summary:
 465:Generated_Source\PSoC5/TFTSHIELD_1_SPIM_1.c **** *  Write a byte of data to be sent across the SPI.
 466:Generated_Source\PSoC5/TFTSHIELD_1_SPIM_1.c **** *
 467:Generated_Source\PSoC5/TFTSHIELD_1_SPIM_1.c **** * Parameters:
 468:Generated_Source\PSoC5/TFTSHIELD_1_SPIM_1.c **** *  txDataByte: The data value to send across the SPI.
 469:Generated_Source\PSoC5/TFTSHIELD_1_SPIM_1.c **** *
 470:Generated_Source\PSoC5/TFTSHIELD_1_SPIM_1.c **** * Return:
 471:Generated_Source\PSoC5/TFTSHIELD_1_SPIM_1.c **** *  None.
 472:Generated_Source\PSoC5/TFTSHIELD_1_SPIM_1.c **** *
 473:Generated_Source\PSoC5/TFTSHIELD_1_SPIM_1.c **** * Global variables:
 474:Generated_Source\PSoC5/TFTSHIELD_1_SPIM_1.c **** *  TFTSHIELD_1_SPIM_1_txBufferWrite - used for the account of the bytes which
 475:Generated_Source\PSoC5/TFTSHIELD_1_SPIM_1.c **** *  have been written down in the TX software buffer, modified every function
 476:Generated_Source\PSoC5/TFTSHIELD_1_SPIM_1.c **** *  call if TX Software Buffer is used.
 477:Generated_Source\PSoC5/TFTSHIELD_1_SPIM_1.c **** *  TFTSHIELD_1_SPIM_1_txBufferRead - used for the account of the bytes which
ARM GAS  C:\Users\LilRobby\AppData\Local\Temp\ccgNTm4U.s 			page 20


 478:Generated_Source\PSoC5/TFTSHIELD_1_SPIM_1.c **** *  have been read from the TX software buffer.
 479:Generated_Source\PSoC5/TFTSHIELD_1_SPIM_1.c **** *  TFTSHIELD_1_SPIM_1_txBuffer[TFTSHIELD_1_SPIM_1_TX_BUFFER_SIZE] - used to store
 480:Generated_Source\PSoC5/TFTSHIELD_1_SPIM_1.c **** *  data to sending, modified every function call if TX Software Buffer is used.
 481:Generated_Source\PSoC5/TFTSHIELD_1_SPIM_1.c **** *
 482:Generated_Source\PSoC5/TFTSHIELD_1_SPIM_1.c **** * Theory:
 483:Generated_Source\PSoC5/TFTSHIELD_1_SPIM_1.c **** *  Allows the user to transmit any byte of data in a single transfer.
 484:Generated_Source\PSoC5/TFTSHIELD_1_SPIM_1.c **** *
 485:Generated_Source\PSoC5/TFTSHIELD_1_SPIM_1.c **** * Side Effects:
 486:Generated_Source\PSoC5/TFTSHIELD_1_SPIM_1.c **** *  If this function is called again before the previous byte is finished then
 487:Generated_Source\PSoC5/TFTSHIELD_1_SPIM_1.c **** *  the next byte will be appended to the transfer with no time between
 488:Generated_Source\PSoC5/TFTSHIELD_1_SPIM_1.c **** *  the byte transfers. Clear Tx status register of the component.
 489:Generated_Source\PSoC5/TFTSHIELD_1_SPIM_1.c **** *
 490:Generated_Source\PSoC5/TFTSHIELD_1_SPIM_1.c **** * Reentrant:
 491:Generated_Source\PSoC5/TFTSHIELD_1_SPIM_1.c **** *  No.
 492:Generated_Source\PSoC5/TFTSHIELD_1_SPIM_1.c **** *
 493:Generated_Source\PSoC5/TFTSHIELD_1_SPIM_1.c **** *******************************************************************************/
 494:Generated_Source\PSoC5/TFTSHIELD_1_SPIM_1.c **** void TFTSHIELD_1_SPIM_1_WriteTxData(uint8 txData) 
 495:Generated_Source\PSoC5/TFTSHIELD_1_SPIM_1.c **** {
 607              		.loc 1 495 0
 608              		.cfi_startproc
 609              		@ args = 0, pretend = 0, frame = 8
 610              		@ frame_needed = 1, uses_anonymous_args = 0
 611              		@ link register save eliminated.
 612 0000 80B4     		push	{r7}
 613              		.cfi_def_cfa_offset 4
 614              		.cfi_offset 7, -4
 615 0002 83B0     		sub	sp, sp, #12
 616              		.cfi_def_cfa_offset 16
 617 0004 00AF     		add	r7, sp, #0
 618              		.cfi_def_cfa_register 7
 619 0006 0346     		mov	r3, r0
 620 0008 FB71     		strb	r3, [r7, #7]
 496:Generated_Source\PSoC5/TFTSHIELD_1_SPIM_1.c ****     #if(TFTSHIELD_1_SPIM_1_TX_SOFTWARE_BUF_ENABLED)
 497:Generated_Source\PSoC5/TFTSHIELD_1_SPIM_1.c **** 
 498:Generated_Source\PSoC5/TFTSHIELD_1_SPIM_1.c ****         uint8 tempStatus;
 499:Generated_Source\PSoC5/TFTSHIELD_1_SPIM_1.c ****         uint8 tmpTxBufferRead;
 500:Generated_Source\PSoC5/TFTSHIELD_1_SPIM_1.c **** 
 501:Generated_Source\PSoC5/TFTSHIELD_1_SPIM_1.c ****         /* Block if TX buffer is FULL: don't overwrite */
 502:Generated_Source\PSoC5/TFTSHIELD_1_SPIM_1.c ****         do
 503:Generated_Source\PSoC5/TFTSHIELD_1_SPIM_1.c ****         {
 504:Generated_Source\PSoC5/TFTSHIELD_1_SPIM_1.c ****             tmpTxBufferRead = TFTSHIELD_1_SPIM_1_txBufferRead;
 505:Generated_Source\PSoC5/TFTSHIELD_1_SPIM_1.c ****             if(0u == tmpTxBufferRead)
 506:Generated_Source\PSoC5/TFTSHIELD_1_SPIM_1.c ****             {
 507:Generated_Source\PSoC5/TFTSHIELD_1_SPIM_1.c ****                 tmpTxBufferRead = (TFTSHIELD_1_SPIM_1_TX_BUFFER_SIZE - 1u);
 508:Generated_Source\PSoC5/TFTSHIELD_1_SPIM_1.c ****             }
 509:Generated_Source\PSoC5/TFTSHIELD_1_SPIM_1.c ****             else
 510:Generated_Source\PSoC5/TFTSHIELD_1_SPIM_1.c ****             {
 511:Generated_Source\PSoC5/TFTSHIELD_1_SPIM_1.c ****                 tmpTxBufferRead--;
 512:Generated_Source\PSoC5/TFTSHIELD_1_SPIM_1.c ****             }
 513:Generated_Source\PSoC5/TFTSHIELD_1_SPIM_1.c **** 
 514:Generated_Source\PSoC5/TFTSHIELD_1_SPIM_1.c ****         }while(tmpTxBufferRead == TFTSHIELD_1_SPIM_1_txBufferWrite);
 515:Generated_Source\PSoC5/TFTSHIELD_1_SPIM_1.c **** 
 516:Generated_Source\PSoC5/TFTSHIELD_1_SPIM_1.c ****         /* Disable TX interrupt to protect global veriables */
 517:Generated_Source\PSoC5/TFTSHIELD_1_SPIM_1.c ****         TFTSHIELD_1_SPIM_1_DisableTxInt();
 518:Generated_Source\PSoC5/TFTSHIELD_1_SPIM_1.c **** 
 519:Generated_Source\PSoC5/TFTSHIELD_1_SPIM_1.c ****         tempStatus = TFTSHIELD_1_SPIM_1_GET_STATUS_TX(TFTSHIELD_1_SPIM_1_swStatusTx);
 520:Generated_Source\PSoC5/TFTSHIELD_1_SPIM_1.c ****         TFTSHIELD_1_SPIM_1_swStatusTx = tempStatus;
ARM GAS  C:\Users\LilRobby\AppData\Local\Temp\ccgNTm4U.s 			page 21


 521:Generated_Source\PSoC5/TFTSHIELD_1_SPIM_1.c **** 
 522:Generated_Source\PSoC5/TFTSHIELD_1_SPIM_1.c **** 
 523:Generated_Source\PSoC5/TFTSHIELD_1_SPIM_1.c ****         if((TFTSHIELD_1_SPIM_1_txBufferRead == TFTSHIELD_1_SPIM_1_txBufferWrite) &&
 524:Generated_Source\PSoC5/TFTSHIELD_1_SPIM_1.c ****            (0u != (TFTSHIELD_1_SPIM_1_swStatusTx & TFTSHIELD_1_SPIM_1_STS_TX_FIFO_NOT_FULL)))
 525:Generated_Source\PSoC5/TFTSHIELD_1_SPIM_1.c ****         {
 526:Generated_Source\PSoC5/TFTSHIELD_1_SPIM_1.c ****             /* Add directly to the TX FIFO */
 527:Generated_Source\PSoC5/TFTSHIELD_1_SPIM_1.c ****             CY_SET_REG8(TFTSHIELD_1_SPIM_1_TXDATA_PTR, txData);
 528:Generated_Source\PSoC5/TFTSHIELD_1_SPIM_1.c ****         }
 529:Generated_Source\PSoC5/TFTSHIELD_1_SPIM_1.c ****         else
 530:Generated_Source\PSoC5/TFTSHIELD_1_SPIM_1.c ****         {
 531:Generated_Source\PSoC5/TFTSHIELD_1_SPIM_1.c ****             /* Add to the TX software buffer */
 532:Generated_Source\PSoC5/TFTSHIELD_1_SPIM_1.c ****             TFTSHIELD_1_SPIM_1_txBufferWrite++;
 533:Generated_Source\PSoC5/TFTSHIELD_1_SPIM_1.c ****             if(TFTSHIELD_1_SPIM_1_txBufferWrite >= TFTSHIELD_1_SPIM_1_TX_BUFFER_SIZE)
 534:Generated_Source\PSoC5/TFTSHIELD_1_SPIM_1.c ****             {
 535:Generated_Source\PSoC5/TFTSHIELD_1_SPIM_1.c ****                 TFTSHIELD_1_SPIM_1_txBufferWrite = 0u;
 536:Generated_Source\PSoC5/TFTSHIELD_1_SPIM_1.c ****             }
 537:Generated_Source\PSoC5/TFTSHIELD_1_SPIM_1.c **** 
 538:Generated_Source\PSoC5/TFTSHIELD_1_SPIM_1.c ****             if(TFTSHIELD_1_SPIM_1_txBufferWrite == TFTSHIELD_1_SPIM_1_txBufferRead)
 539:Generated_Source\PSoC5/TFTSHIELD_1_SPIM_1.c ****             {
 540:Generated_Source\PSoC5/TFTSHIELD_1_SPIM_1.c ****                 TFTSHIELD_1_SPIM_1_txBufferRead++;
 541:Generated_Source\PSoC5/TFTSHIELD_1_SPIM_1.c ****                 if(TFTSHIELD_1_SPIM_1_txBufferRead >= TFTSHIELD_1_SPIM_1_TX_BUFFER_SIZE)
 542:Generated_Source\PSoC5/TFTSHIELD_1_SPIM_1.c ****                 {
 543:Generated_Source\PSoC5/TFTSHIELD_1_SPIM_1.c ****                     TFTSHIELD_1_SPIM_1_txBufferRead = 0u;
 544:Generated_Source\PSoC5/TFTSHIELD_1_SPIM_1.c ****                 }
 545:Generated_Source\PSoC5/TFTSHIELD_1_SPIM_1.c ****                 TFTSHIELD_1_SPIM_1_txBufferFull = 1u;
 546:Generated_Source\PSoC5/TFTSHIELD_1_SPIM_1.c ****             }
 547:Generated_Source\PSoC5/TFTSHIELD_1_SPIM_1.c **** 
 548:Generated_Source\PSoC5/TFTSHIELD_1_SPIM_1.c ****             TFTSHIELD_1_SPIM_1_txBuffer[TFTSHIELD_1_SPIM_1_txBufferWrite] = txData;
 549:Generated_Source\PSoC5/TFTSHIELD_1_SPIM_1.c **** 
 550:Generated_Source\PSoC5/TFTSHIELD_1_SPIM_1.c ****             TFTSHIELD_1_SPIM_1_TX_STATUS_MASK_REG |= TFTSHIELD_1_SPIM_1_STS_TX_FIFO_NOT_FULL;
 551:Generated_Source\PSoC5/TFTSHIELD_1_SPIM_1.c ****         }
 552:Generated_Source\PSoC5/TFTSHIELD_1_SPIM_1.c **** 
 553:Generated_Source\PSoC5/TFTSHIELD_1_SPIM_1.c ****         TFTSHIELD_1_SPIM_1_EnableTxInt();
 554:Generated_Source\PSoC5/TFTSHIELD_1_SPIM_1.c **** 
 555:Generated_Source\PSoC5/TFTSHIELD_1_SPIM_1.c ****     #else
 556:Generated_Source\PSoC5/TFTSHIELD_1_SPIM_1.c **** 
 557:Generated_Source\PSoC5/TFTSHIELD_1_SPIM_1.c ****         while(0u == (TFTSHIELD_1_SPIM_1_TX_STATUS_REG & TFTSHIELD_1_SPIM_1_STS_TX_FIFO_NOT_FULL))
 621              		.loc 1 557 0
 622 000a 00BF     		nop
 623              	.L41:
 624              		.loc 1 557 0 is_stmt 0 discriminator 1
 625 000c 074B     		ldr	r3, .L42
 626 000e 1B78     		ldrb	r3, [r3]
 627 0010 DBB2     		uxtb	r3, r3
 628 0012 03F00403 		and	r3, r3, #4
 629 0016 002B     		cmp	r3, #0
 630 0018 F8D0     		beq	.L41
 558:Generated_Source\PSoC5/TFTSHIELD_1_SPIM_1.c ****         {
 559:Generated_Source\PSoC5/TFTSHIELD_1_SPIM_1.c ****             ; /* Wait for room in FIFO */
 560:Generated_Source\PSoC5/TFTSHIELD_1_SPIM_1.c ****         }
 561:Generated_Source\PSoC5/TFTSHIELD_1_SPIM_1.c **** 
 562:Generated_Source\PSoC5/TFTSHIELD_1_SPIM_1.c ****         /* Put byte in TX FIFO */
 563:Generated_Source\PSoC5/TFTSHIELD_1_SPIM_1.c ****         CY_SET_REG8(TFTSHIELD_1_SPIM_1_TXDATA_PTR, txData);
 631              		.loc 1 563 0 is_stmt 1
 632 001a 054A     		ldr	r2, .L42+4
 633 001c FB79     		ldrb	r3, [r7, #7]
 634 001e 1370     		strb	r3, [r2]
ARM GAS  C:\Users\LilRobby\AppData\Local\Temp\ccgNTm4U.s 			page 22


 564:Generated_Source\PSoC5/TFTSHIELD_1_SPIM_1.c **** 
 565:Generated_Source\PSoC5/TFTSHIELD_1_SPIM_1.c ****     #endif /* (TFTSHIELD_1_SPIM_1_TX_SOFTWARE_BUF_ENABLED) */
 566:Generated_Source\PSoC5/TFTSHIELD_1_SPIM_1.c **** }
 635              		.loc 1 566 0
 636 0020 0C37     		adds	r7, r7, #12
 637              		.cfi_def_cfa_offset 4
 638 0022 BD46     		mov	sp, r7
 639              		.cfi_def_cfa_register 13
 640              		@ sp needed
 641 0024 5DF8047B 		ldr	r7, [sp], #4
 642              		.cfi_restore 7
 643              		.cfi_def_cfa_offset 0
 644 0028 7047     		bx	lr
 645              	.L43:
 646 002a 00BF     		.align	2
 647              	.L42:
 648 002c 6B640040 		.word	1073767531
 649 0030 4D640040 		.word	1073767501
 650              		.cfi_endproc
 651              	.LFE12:
 652              		.size	TFTSHIELD_1_SPIM_1_WriteTxData, .-TFTSHIELD_1_SPIM_1_WriteTxData
 653              		.section	.text.TFTSHIELD_1_SPIM_1_ReadRxData,"ax",%progbits
 654              		.align	2
 655              		.global	TFTSHIELD_1_SPIM_1_ReadRxData
 656              		.thumb
 657              		.thumb_func
 658              		.type	TFTSHIELD_1_SPIM_1_ReadRxData, %function
 659              	TFTSHIELD_1_SPIM_1_ReadRxData:
 660              	.LFB13:
 567:Generated_Source\PSoC5/TFTSHIELD_1_SPIM_1.c **** 
 568:Generated_Source\PSoC5/TFTSHIELD_1_SPIM_1.c **** 
 569:Generated_Source\PSoC5/TFTSHIELD_1_SPIM_1.c **** /*******************************************************************************
 570:Generated_Source\PSoC5/TFTSHIELD_1_SPIM_1.c **** * Function Name: TFTSHIELD_1_SPIM_1_ReadRxData
 571:Generated_Source\PSoC5/TFTSHIELD_1_SPIM_1.c **** ********************************************************************************
 572:Generated_Source\PSoC5/TFTSHIELD_1_SPIM_1.c **** *
 573:Generated_Source\PSoC5/TFTSHIELD_1_SPIM_1.c **** * Summary:
 574:Generated_Source\PSoC5/TFTSHIELD_1_SPIM_1.c **** *  Read the next byte of data received across the SPI.
 575:Generated_Source\PSoC5/TFTSHIELD_1_SPIM_1.c **** *
 576:Generated_Source\PSoC5/TFTSHIELD_1_SPIM_1.c **** * Parameters:
 577:Generated_Source\PSoC5/TFTSHIELD_1_SPIM_1.c **** *  None.
 578:Generated_Source\PSoC5/TFTSHIELD_1_SPIM_1.c **** *
 579:Generated_Source\PSoC5/TFTSHIELD_1_SPIM_1.c **** * Return:
 580:Generated_Source\PSoC5/TFTSHIELD_1_SPIM_1.c **** *  The next byte of data read from the FIFO.
 581:Generated_Source\PSoC5/TFTSHIELD_1_SPIM_1.c **** *
 582:Generated_Source\PSoC5/TFTSHIELD_1_SPIM_1.c **** * Global variables:
 583:Generated_Source\PSoC5/TFTSHIELD_1_SPIM_1.c **** *  TFTSHIELD_1_SPIM_1_rxBufferWrite - used for the account of the bytes which
 584:Generated_Source\PSoC5/TFTSHIELD_1_SPIM_1.c **** *  have been written down in the RX software buffer.
 585:Generated_Source\PSoC5/TFTSHIELD_1_SPIM_1.c **** *  TFTSHIELD_1_SPIM_1_rxBufferRead - used for the account of the bytes which
 586:Generated_Source\PSoC5/TFTSHIELD_1_SPIM_1.c **** *  have been read from the RX software buffer, modified every function
 587:Generated_Source\PSoC5/TFTSHIELD_1_SPIM_1.c **** *  call if RX Software Buffer is used.
 588:Generated_Source\PSoC5/TFTSHIELD_1_SPIM_1.c **** *  TFTSHIELD_1_SPIM_1_rxBuffer[TFTSHIELD_1_SPIM_1_RX_BUFFER_SIZE] - used to store
 589:Generated_Source\PSoC5/TFTSHIELD_1_SPIM_1.c **** *  received data.
 590:Generated_Source\PSoC5/TFTSHIELD_1_SPIM_1.c **** *
 591:Generated_Source\PSoC5/TFTSHIELD_1_SPIM_1.c **** * Theory:
 592:Generated_Source\PSoC5/TFTSHIELD_1_SPIM_1.c **** *  Allows the user to read a byte of data received.
 593:Generated_Source\PSoC5/TFTSHIELD_1_SPIM_1.c **** *
 594:Generated_Source\PSoC5/TFTSHIELD_1_SPIM_1.c **** * Side Effects:
ARM GAS  C:\Users\LilRobby\AppData\Local\Temp\ccgNTm4U.s 			page 23


 595:Generated_Source\PSoC5/TFTSHIELD_1_SPIM_1.c **** *  Will return invalid data if the FIFO is empty. The user should Call
 596:Generated_Source\PSoC5/TFTSHIELD_1_SPIM_1.c **** *  GetRxBufferSize() and if it returns a non-zero value then it is safe to call
 597:Generated_Source\PSoC5/TFTSHIELD_1_SPIM_1.c **** *  ReadByte() function.
 598:Generated_Source\PSoC5/TFTSHIELD_1_SPIM_1.c **** *
 599:Generated_Source\PSoC5/TFTSHIELD_1_SPIM_1.c **** * Reentrant:
 600:Generated_Source\PSoC5/TFTSHIELD_1_SPIM_1.c **** *  No.
 601:Generated_Source\PSoC5/TFTSHIELD_1_SPIM_1.c **** *
 602:Generated_Source\PSoC5/TFTSHIELD_1_SPIM_1.c **** *******************************************************************************/
 603:Generated_Source\PSoC5/TFTSHIELD_1_SPIM_1.c **** uint8 TFTSHIELD_1_SPIM_1_ReadRxData(void) 
 604:Generated_Source\PSoC5/TFTSHIELD_1_SPIM_1.c **** {
 661              		.loc 1 604 0
 662              		.cfi_startproc
 663              		@ args = 0, pretend = 0, frame = 8
 664              		@ frame_needed = 1, uses_anonymous_args = 0
 665              		@ link register save eliminated.
 666 0000 80B4     		push	{r7}
 667              		.cfi_def_cfa_offset 4
 668              		.cfi_offset 7, -4
 669 0002 83B0     		sub	sp, sp, #12
 670              		.cfi_def_cfa_offset 16
 671 0004 00AF     		add	r7, sp, #0
 672              		.cfi_def_cfa_register 7
 605:Generated_Source\PSoC5/TFTSHIELD_1_SPIM_1.c ****     uint8 rxData;
 606:Generated_Source\PSoC5/TFTSHIELD_1_SPIM_1.c **** 
 607:Generated_Source\PSoC5/TFTSHIELD_1_SPIM_1.c ****     #if(TFTSHIELD_1_SPIM_1_RX_SOFTWARE_BUF_ENABLED)
 608:Generated_Source\PSoC5/TFTSHIELD_1_SPIM_1.c **** 
 609:Generated_Source\PSoC5/TFTSHIELD_1_SPIM_1.c ****         /* Disable RX interrupt to protect global veriables */
 610:Generated_Source\PSoC5/TFTSHIELD_1_SPIM_1.c ****         TFTSHIELD_1_SPIM_1_DisableRxInt();
 611:Generated_Source\PSoC5/TFTSHIELD_1_SPIM_1.c **** 
 612:Generated_Source\PSoC5/TFTSHIELD_1_SPIM_1.c ****         if(TFTSHIELD_1_SPIM_1_rxBufferRead != TFTSHIELD_1_SPIM_1_rxBufferWrite)
 613:Generated_Source\PSoC5/TFTSHIELD_1_SPIM_1.c ****         {
 614:Generated_Source\PSoC5/TFTSHIELD_1_SPIM_1.c ****             if(0u == TFTSHIELD_1_SPIM_1_rxBufferFull)
 615:Generated_Source\PSoC5/TFTSHIELD_1_SPIM_1.c ****             {
 616:Generated_Source\PSoC5/TFTSHIELD_1_SPIM_1.c ****                 TFTSHIELD_1_SPIM_1_rxBufferRead++;
 617:Generated_Source\PSoC5/TFTSHIELD_1_SPIM_1.c ****                 if(TFTSHIELD_1_SPIM_1_rxBufferRead >= TFTSHIELD_1_SPIM_1_RX_BUFFER_SIZE)
 618:Generated_Source\PSoC5/TFTSHIELD_1_SPIM_1.c ****                 {
 619:Generated_Source\PSoC5/TFTSHIELD_1_SPIM_1.c ****                     TFTSHIELD_1_SPIM_1_rxBufferRead = 0u;
 620:Generated_Source\PSoC5/TFTSHIELD_1_SPIM_1.c ****                 }
 621:Generated_Source\PSoC5/TFTSHIELD_1_SPIM_1.c ****             }
 622:Generated_Source\PSoC5/TFTSHIELD_1_SPIM_1.c ****             else
 623:Generated_Source\PSoC5/TFTSHIELD_1_SPIM_1.c ****             {
 624:Generated_Source\PSoC5/TFTSHIELD_1_SPIM_1.c ****                 TFTSHIELD_1_SPIM_1_rxBufferFull = 0u;
 625:Generated_Source\PSoC5/TFTSHIELD_1_SPIM_1.c ****             }
 626:Generated_Source\PSoC5/TFTSHIELD_1_SPIM_1.c ****         }
 627:Generated_Source\PSoC5/TFTSHIELD_1_SPIM_1.c **** 
 628:Generated_Source\PSoC5/TFTSHIELD_1_SPIM_1.c ****         rxData = TFTSHIELD_1_SPIM_1_rxBuffer[TFTSHIELD_1_SPIM_1_rxBufferRead];
 629:Generated_Source\PSoC5/TFTSHIELD_1_SPIM_1.c **** 
 630:Generated_Source\PSoC5/TFTSHIELD_1_SPIM_1.c ****         TFTSHIELD_1_SPIM_1_EnableRxInt();
 631:Generated_Source\PSoC5/TFTSHIELD_1_SPIM_1.c **** 
 632:Generated_Source\PSoC5/TFTSHIELD_1_SPIM_1.c ****     #else
 633:Generated_Source\PSoC5/TFTSHIELD_1_SPIM_1.c **** 
 634:Generated_Source\PSoC5/TFTSHIELD_1_SPIM_1.c ****         rxData = CY_GET_REG8(TFTSHIELD_1_SPIM_1_RXDATA_PTR);
 673              		.loc 1 634 0
 674 0006 054B     		ldr	r3, .L46
 675 0008 1B78     		ldrb	r3, [r3]
 676 000a FB71     		strb	r3, [r7, #7]
 635:Generated_Source\PSoC5/TFTSHIELD_1_SPIM_1.c **** 
ARM GAS  C:\Users\LilRobby\AppData\Local\Temp\ccgNTm4U.s 			page 24


 636:Generated_Source\PSoC5/TFTSHIELD_1_SPIM_1.c ****     #endif /* (TFTSHIELD_1_SPIM_1_RX_SOFTWARE_BUF_ENABLED) */
 637:Generated_Source\PSoC5/TFTSHIELD_1_SPIM_1.c **** 
 638:Generated_Source\PSoC5/TFTSHIELD_1_SPIM_1.c ****     return(rxData);
 677              		.loc 1 638 0
 678 000c FB79     		ldrb	r3, [r7, #7]	@ zero_extendqisi2
 639:Generated_Source\PSoC5/TFTSHIELD_1_SPIM_1.c **** }
 679              		.loc 1 639 0
 680 000e 1846     		mov	r0, r3
 681 0010 0C37     		adds	r7, r7, #12
 682              		.cfi_def_cfa_offset 4
 683 0012 BD46     		mov	sp, r7
 684              		.cfi_def_cfa_register 13
 685              		@ sp needed
 686 0014 5DF8047B 		ldr	r7, [sp], #4
 687              		.cfi_restore 7
 688              		.cfi_def_cfa_offset 0
 689 0018 7047     		bx	lr
 690              	.L47:
 691 001a 00BF     		.align	2
 692              	.L46:
 693 001c 5D640040 		.word	1073767517
 694              		.cfi_endproc
 695              	.LFE13:
 696              		.size	TFTSHIELD_1_SPIM_1_ReadRxData, .-TFTSHIELD_1_SPIM_1_ReadRxData
 697              		.section	.text.TFTSHIELD_1_SPIM_1_GetRxBufferSize,"ax",%progbits
 698              		.align	2
 699              		.global	TFTSHIELD_1_SPIM_1_GetRxBufferSize
 700              		.thumb
 701              		.thumb_func
 702              		.type	TFTSHIELD_1_SPIM_1_GetRxBufferSize, %function
 703              	TFTSHIELD_1_SPIM_1_GetRxBufferSize:
 704              	.LFB14:
 640:Generated_Source\PSoC5/TFTSHIELD_1_SPIM_1.c **** 
 641:Generated_Source\PSoC5/TFTSHIELD_1_SPIM_1.c **** 
 642:Generated_Source\PSoC5/TFTSHIELD_1_SPIM_1.c **** /*******************************************************************************
 643:Generated_Source\PSoC5/TFTSHIELD_1_SPIM_1.c **** * Function Name: TFTSHIELD_1_SPIM_1_GetRxBufferSize
 644:Generated_Source\PSoC5/TFTSHIELD_1_SPIM_1.c **** ********************************************************************************
 645:Generated_Source\PSoC5/TFTSHIELD_1_SPIM_1.c **** *
 646:Generated_Source\PSoC5/TFTSHIELD_1_SPIM_1.c **** * Summary:
 647:Generated_Source\PSoC5/TFTSHIELD_1_SPIM_1.c **** *  Returns the number of bytes/words of data currently held in the RX buffer.
 648:Generated_Source\PSoC5/TFTSHIELD_1_SPIM_1.c **** *  If RX Software Buffer not used then function return 0 if FIFO empty or 1 if
 649:Generated_Source\PSoC5/TFTSHIELD_1_SPIM_1.c **** *  FIFO not empty. In another case function return size of RX Software Buffer.
 650:Generated_Source\PSoC5/TFTSHIELD_1_SPIM_1.c **** *
 651:Generated_Source\PSoC5/TFTSHIELD_1_SPIM_1.c **** * Parameters:
 652:Generated_Source\PSoC5/TFTSHIELD_1_SPIM_1.c **** *  None.
 653:Generated_Source\PSoC5/TFTSHIELD_1_SPIM_1.c **** *
 654:Generated_Source\PSoC5/TFTSHIELD_1_SPIM_1.c **** * Return:
 655:Generated_Source\PSoC5/TFTSHIELD_1_SPIM_1.c **** *  Integer count of the number of bytes/words in the RX buffer.
 656:Generated_Source\PSoC5/TFTSHIELD_1_SPIM_1.c **** *
 657:Generated_Source\PSoC5/TFTSHIELD_1_SPIM_1.c **** * Global variables:
 658:Generated_Source\PSoC5/TFTSHIELD_1_SPIM_1.c **** *  TFTSHIELD_1_SPIM_1_rxBufferWrite - used for the account of the bytes which
 659:Generated_Source\PSoC5/TFTSHIELD_1_SPIM_1.c **** *  have been written down in the RX software buffer.
 660:Generated_Source\PSoC5/TFTSHIELD_1_SPIM_1.c **** *  TFTSHIELD_1_SPIM_1_rxBufferRead - used for the account of the bytes which
 661:Generated_Source\PSoC5/TFTSHIELD_1_SPIM_1.c **** *  have been read from the RX software buffer.
 662:Generated_Source\PSoC5/TFTSHIELD_1_SPIM_1.c **** *
 663:Generated_Source\PSoC5/TFTSHIELD_1_SPIM_1.c **** * Side Effects:
 664:Generated_Source\PSoC5/TFTSHIELD_1_SPIM_1.c **** *  Clear status register of the component.
ARM GAS  C:\Users\LilRobby\AppData\Local\Temp\ccgNTm4U.s 			page 25


 665:Generated_Source\PSoC5/TFTSHIELD_1_SPIM_1.c **** *
 666:Generated_Source\PSoC5/TFTSHIELD_1_SPIM_1.c **** *******************************************************************************/
 667:Generated_Source\PSoC5/TFTSHIELD_1_SPIM_1.c **** uint8 TFTSHIELD_1_SPIM_1_GetRxBufferSize(void) 
 668:Generated_Source\PSoC5/TFTSHIELD_1_SPIM_1.c **** {
 705              		.loc 1 668 0
 706              		.cfi_startproc
 707              		@ args = 0, pretend = 0, frame = 8
 708              		@ frame_needed = 1, uses_anonymous_args = 0
 709              		@ link register save eliminated.
 710 0000 80B4     		push	{r7}
 711              		.cfi_def_cfa_offset 4
 712              		.cfi_offset 7, -4
 713 0002 83B0     		sub	sp, sp, #12
 714              		.cfi_def_cfa_offset 16
 715 0004 00AF     		add	r7, sp, #0
 716              		.cfi_def_cfa_register 7
 669:Generated_Source\PSoC5/TFTSHIELD_1_SPIM_1.c ****     uint8 size;
 670:Generated_Source\PSoC5/TFTSHIELD_1_SPIM_1.c **** 
 671:Generated_Source\PSoC5/TFTSHIELD_1_SPIM_1.c ****     #if(TFTSHIELD_1_SPIM_1_RX_SOFTWARE_BUF_ENABLED)
 672:Generated_Source\PSoC5/TFTSHIELD_1_SPIM_1.c **** 
 673:Generated_Source\PSoC5/TFTSHIELD_1_SPIM_1.c ****         /* Disable RX interrupt to protect global veriables */
 674:Generated_Source\PSoC5/TFTSHIELD_1_SPIM_1.c ****         TFTSHIELD_1_SPIM_1_DisableRxInt();
 675:Generated_Source\PSoC5/TFTSHIELD_1_SPIM_1.c **** 
 676:Generated_Source\PSoC5/TFTSHIELD_1_SPIM_1.c ****         if(TFTSHIELD_1_SPIM_1_rxBufferRead == TFTSHIELD_1_SPIM_1_rxBufferWrite)
 677:Generated_Source\PSoC5/TFTSHIELD_1_SPIM_1.c ****         {
 678:Generated_Source\PSoC5/TFTSHIELD_1_SPIM_1.c ****             size = 0u;
 679:Generated_Source\PSoC5/TFTSHIELD_1_SPIM_1.c ****         }
 680:Generated_Source\PSoC5/TFTSHIELD_1_SPIM_1.c ****         else if(TFTSHIELD_1_SPIM_1_rxBufferRead < TFTSHIELD_1_SPIM_1_rxBufferWrite)
 681:Generated_Source\PSoC5/TFTSHIELD_1_SPIM_1.c ****         {
 682:Generated_Source\PSoC5/TFTSHIELD_1_SPIM_1.c ****             size = (TFTSHIELD_1_SPIM_1_rxBufferWrite - TFTSHIELD_1_SPIM_1_rxBufferRead);
 683:Generated_Source\PSoC5/TFTSHIELD_1_SPIM_1.c ****         }
 684:Generated_Source\PSoC5/TFTSHIELD_1_SPIM_1.c ****         else
 685:Generated_Source\PSoC5/TFTSHIELD_1_SPIM_1.c ****         {
 686:Generated_Source\PSoC5/TFTSHIELD_1_SPIM_1.c ****             size = (TFTSHIELD_1_SPIM_1_RX_BUFFER_SIZE - TFTSHIELD_1_SPIM_1_rxBufferRead) + TFTSHIEL
 687:Generated_Source\PSoC5/TFTSHIELD_1_SPIM_1.c ****         }
 688:Generated_Source\PSoC5/TFTSHIELD_1_SPIM_1.c **** 
 689:Generated_Source\PSoC5/TFTSHIELD_1_SPIM_1.c ****         TFTSHIELD_1_SPIM_1_EnableRxInt();
 690:Generated_Source\PSoC5/TFTSHIELD_1_SPIM_1.c **** 
 691:Generated_Source\PSoC5/TFTSHIELD_1_SPIM_1.c ****     #else
 692:Generated_Source\PSoC5/TFTSHIELD_1_SPIM_1.c **** 
 693:Generated_Source\PSoC5/TFTSHIELD_1_SPIM_1.c ****         /* We can only know if there is data in the RX FIFO */
 694:Generated_Source\PSoC5/TFTSHIELD_1_SPIM_1.c ****         size = (0u != (TFTSHIELD_1_SPIM_1_RX_STATUS_REG & TFTSHIELD_1_SPIM_1_STS_RX_FIFO_NOT_EMPTY)
 717              		.loc 1 694 0
 718 0006 094B     		ldr	r3, .L52
 719 0008 1B78     		ldrb	r3, [r3]
 720 000a DBB2     		uxtb	r3, r3
 721 000c 03F02003 		and	r3, r3, #32
 722 0010 002B     		cmp	r3, #0
 723 0012 01D0     		beq	.L49
 724              		.loc 1 694 0 is_stmt 0 discriminator 1
 725 0014 0123     		movs	r3, #1
 726 0016 00E0     		b	.L50
 727              	.L49:
 728              		.loc 1 694 0 discriminator 2
 729 0018 0023     		movs	r3, #0
 730              	.L50:
 731              		.loc 1 694 0 discriminator 4
ARM GAS  C:\Users\LilRobby\AppData\Local\Temp\ccgNTm4U.s 			page 26


 732 001a FB71     		strb	r3, [r7, #7]
 695:Generated_Source\PSoC5/TFTSHIELD_1_SPIM_1.c **** 
 696:Generated_Source\PSoC5/TFTSHIELD_1_SPIM_1.c ****     #endif /* (TFTSHIELD_1_SPIM_1_TX_SOFTWARE_BUF_ENABLED) */
 697:Generated_Source\PSoC5/TFTSHIELD_1_SPIM_1.c **** 
 698:Generated_Source\PSoC5/TFTSHIELD_1_SPIM_1.c ****     return(size);
 733              		.loc 1 698 0 is_stmt 1 discriminator 4
 734 001c FB79     		ldrb	r3, [r7, #7]	@ zero_extendqisi2
 699:Generated_Source\PSoC5/TFTSHIELD_1_SPIM_1.c **** }
 735              		.loc 1 699 0 discriminator 4
 736 001e 1846     		mov	r0, r3
 737 0020 0C37     		adds	r7, r7, #12
 738              		.cfi_def_cfa_offset 4
 739 0022 BD46     		mov	sp, r7
 740              		.cfi_def_cfa_register 13
 741              		@ sp needed
 742 0024 5DF8047B 		ldr	r7, [sp], #4
 743              		.cfi_restore 7
 744              		.cfi_def_cfa_offset 0
 745 0028 7047     		bx	lr
 746              	.L53:
 747 002a 00BF     		.align	2
 748              	.L52:
 749 002c 6A640040 		.word	1073767530
 750              		.cfi_endproc
 751              	.LFE14:
 752              		.size	TFTSHIELD_1_SPIM_1_GetRxBufferSize, .-TFTSHIELD_1_SPIM_1_GetRxBufferSize
 753              		.section	.text.TFTSHIELD_1_SPIM_1_GetTxBufferSize,"ax",%progbits
 754              		.align	2
 755              		.global	TFTSHIELD_1_SPIM_1_GetTxBufferSize
 756              		.thumb
 757              		.thumb_func
 758              		.type	TFTSHIELD_1_SPIM_1_GetTxBufferSize, %function
 759              	TFTSHIELD_1_SPIM_1_GetTxBufferSize:
 760              	.LFB15:
 700:Generated_Source\PSoC5/TFTSHIELD_1_SPIM_1.c **** 
 701:Generated_Source\PSoC5/TFTSHIELD_1_SPIM_1.c **** 
 702:Generated_Source\PSoC5/TFTSHIELD_1_SPIM_1.c **** /*******************************************************************************
 703:Generated_Source\PSoC5/TFTSHIELD_1_SPIM_1.c **** * Function Name: TFTSHIELD_1_SPIM_1_GetTxBufferSize
 704:Generated_Source\PSoC5/TFTSHIELD_1_SPIM_1.c **** ********************************************************************************
 705:Generated_Source\PSoC5/TFTSHIELD_1_SPIM_1.c **** *
 706:Generated_Source\PSoC5/TFTSHIELD_1_SPIM_1.c **** * Summary:
 707:Generated_Source\PSoC5/TFTSHIELD_1_SPIM_1.c **** *  Returns the number of bytes/words of data currently held in the TX buffer.
 708:Generated_Source\PSoC5/TFTSHIELD_1_SPIM_1.c **** *  If TX Software Buffer not used then function return 0 - if FIFO empty, 1 - if
 709:Generated_Source\PSoC5/TFTSHIELD_1_SPIM_1.c **** *  FIFO not full, 4 - if FIFO full. In another case function return size of TX
 710:Generated_Source\PSoC5/TFTSHIELD_1_SPIM_1.c **** *  Software Buffer.
 711:Generated_Source\PSoC5/TFTSHIELD_1_SPIM_1.c **** *
 712:Generated_Source\PSoC5/TFTSHIELD_1_SPIM_1.c **** * Parameters:
 713:Generated_Source\PSoC5/TFTSHIELD_1_SPIM_1.c **** *  None.
 714:Generated_Source\PSoC5/TFTSHIELD_1_SPIM_1.c **** *
 715:Generated_Source\PSoC5/TFTSHIELD_1_SPIM_1.c **** * Return:
 716:Generated_Source\PSoC5/TFTSHIELD_1_SPIM_1.c **** *  Integer count of the number of bytes/words in the TX buffer.
 717:Generated_Source\PSoC5/TFTSHIELD_1_SPIM_1.c **** *
 718:Generated_Source\PSoC5/TFTSHIELD_1_SPIM_1.c **** * Global variables:
 719:Generated_Source\PSoC5/TFTSHIELD_1_SPIM_1.c **** *  TFTSHIELD_1_SPIM_1_txBufferWrite - used for the account of the bytes which
 720:Generated_Source\PSoC5/TFTSHIELD_1_SPIM_1.c **** *  have been written down in the TX software buffer.
 721:Generated_Source\PSoC5/TFTSHIELD_1_SPIM_1.c **** *  TFTSHIELD_1_SPIM_1_txBufferRead - used for the account of the bytes which
 722:Generated_Source\PSoC5/TFTSHIELD_1_SPIM_1.c **** *  have been read from the TX software buffer.
ARM GAS  C:\Users\LilRobby\AppData\Local\Temp\ccgNTm4U.s 			page 27


 723:Generated_Source\PSoC5/TFTSHIELD_1_SPIM_1.c **** *
 724:Generated_Source\PSoC5/TFTSHIELD_1_SPIM_1.c **** * Side Effects:
 725:Generated_Source\PSoC5/TFTSHIELD_1_SPIM_1.c **** *  Clear status register of the component.
 726:Generated_Source\PSoC5/TFTSHIELD_1_SPIM_1.c **** *
 727:Generated_Source\PSoC5/TFTSHIELD_1_SPIM_1.c **** *******************************************************************************/
 728:Generated_Source\PSoC5/TFTSHIELD_1_SPIM_1.c **** uint8  TFTSHIELD_1_SPIM_1_GetTxBufferSize(void) 
 729:Generated_Source\PSoC5/TFTSHIELD_1_SPIM_1.c **** {
 761              		.loc 1 729 0
 762              		.cfi_startproc
 763              		@ args = 0, pretend = 0, frame = 8
 764              		@ frame_needed = 1, uses_anonymous_args = 0
 765              		@ link register save eliminated.
 766 0000 80B4     		push	{r7}
 767              		.cfi_def_cfa_offset 4
 768              		.cfi_offset 7, -4
 769 0002 83B0     		sub	sp, sp, #12
 770              		.cfi_def_cfa_offset 16
 771 0004 00AF     		add	r7, sp, #0
 772              		.cfi_def_cfa_register 7
 730:Generated_Source\PSoC5/TFTSHIELD_1_SPIM_1.c ****     uint8 size;
 731:Generated_Source\PSoC5/TFTSHIELD_1_SPIM_1.c **** 
 732:Generated_Source\PSoC5/TFTSHIELD_1_SPIM_1.c ****     #if(TFTSHIELD_1_SPIM_1_TX_SOFTWARE_BUF_ENABLED)
 733:Generated_Source\PSoC5/TFTSHIELD_1_SPIM_1.c ****         /* Disable TX interrupt to protect global veriables */
 734:Generated_Source\PSoC5/TFTSHIELD_1_SPIM_1.c ****         TFTSHIELD_1_SPIM_1_DisableTxInt();
 735:Generated_Source\PSoC5/TFTSHIELD_1_SPIM_1.c **** 
 736:Generated_Source\PSoC5/TFTSHIELD_1_SPIM_1.c ****         if(TFTSHIELD_1_SPIM_1_txBufferRead == TFTSHIELD_1_SPIM_1_txBufferWrite)
 737:Generated_Source\PSoC5/TFTSHIELD_1_SPIM_1.c ****         {
 738:Generated_Source\PSoC5/TFTSHIELD_1_SPIM_1.c ****             size = 0u;
 739:Generated_Source\PSoC5/TFTSHIELD_1_SPIM_1.c ****         }
 740:Generated_Source\PSoC5/TFTSHIELD_1_SPIM_1.c ****         else if(TFTSHIELD_1_SPIM_1_txBufferRead < TFTSHIELD_1_SPIM_1_txBufferWrite)
 741:Generated_Source\PSoC5/TFTSHIELD_1_SPIM_1.c ****         {
 742:Generated_Source\PSoC5/TFTSHIELD_1_SPIM_1.c ****             size = (TFTSHIELD_1_SPIM_1_txBufferWrite - TFTSHIELD_1_SPIM_1_txBufferRead);
 743:Generated_Source\PSoC5/TFTSHIELD_1_SPIM_1.c ****         }
 744:Generated_Source\PSoC5/TFTSHIELD_1_SPIM_1.c ****         else
 745:Generated_Source\PSoC5/TFTSHIELD_1_SPIM_1.c ****         {
 746:Generated_Source\PSoC5/TFTSHIELD_1_SPIM_1.c ****             size = (TFTSHIELD_1_SPIM_1_TX_BUFFER_SIZE - TFTSHIELD_1_SPIM_1_txBufferRead) + TFTSHIEL
 747:Generated_Source\PSoC5/TFTSHIELD_1_SPIM_1.c ****         }
 748:Generated_Source\PSoC5/TFTSHIELD_1_SPIM_1.c **** 
 749:Generated_Source\PSoC5/TFTSHIELD_1_SPIM_1.c ****         TFTSHIELD_1_SPIM_1_EnableTxInt();
 750:Generated_Source\PSoC5/TFTSHIELD_1_SPIM_1.c **** 
 751:Generated_Source\PSoC5/TFTSHIELD_1_SPIM_1.c ****     #else
 752:Generated_Source\PSoC5/TFTSHIELD_1_SPIM_1.c **** 
 753:Generated_Source\PSoC5/TFTSHIELD_1_SPIM_1.c ****         size = TFTSHIELD_1_SPIM_1_TX_STATUS_REG;
 773              		.loc 1 753 0
 774 0006 0E4B     		ldr	r3, .L59
 775 0008 1B78     		ldrb	r3, [r3]
 776 000a FB71     		strb	r3, [r7, #7]
 754:Generated_Source\PSoC5/TFTSHIELD_1_SPIM_1.c **** 
 755:Generated_Source\PSoC5/TFTSHIELD_1_SPIM_1.c ****         if(0u != (size & TFTSHIELD_1_SPIM_1_STS_TX_FIFO_EMPTY))
 777              		.loc 1 755 0
 778 000c FB79     		ldrb	r3, [r7, #7]	@ zero_extendqisi2
 779 000e 03F00203 		and	r3, r3, #2
 780 0012 002B     		cmp	r3, #0
 781 0014 02D0     		beq	.L55
 756:Generated_Source\PSoC5/TFTSHIELD_1_SPIM_1.c ****         {
 757:Generated_Source\PSoC5/TFTSHIELD_1_SPIM_1.c ****             size = 0u;
 782              		.loc 1 757 0
ARM GAS  C:\Users\LilRobby\AppData\Local\Temp\ccgNTm4U.s 			page 28


 783 0016 0023     		movs	r3, #0
 784 0018 FB71     		strb	r3, [r7, #7]
 785 001a 09E0     		b	.L56
 786              	.L55:
 758:Generated_Source\PSoC5/TFTSHIELD_1_SPIM_1.c ****         }
 759:Generated_Source\PSoC5/TFTSHIELD_1_SPIM_1.c ****         else if(0u != (size & TFTSHIELD_1_SPIM_1_STS_TX_FIFO_NOT_FULL))
 787              		.loc 1 759 0
 788 001c FB79     		ldrb	r3, [r7, #7]	@ zero_extendqisi2
 789 001e 03F00403 		and	r3, r3, #4
 790 0022 002B     		cmp	r3, #0
 791 0024 02D0     		beq	.L57
 760:Generated_Source\PSoC5/TFTSHIELD_1_SPIM_1.c ****         {
 761:Generated_Source\PSoC5/TFTSHIELD_1_SPIM_1.c ****             size = 1u;
 792              		.loc 1 761 0
 793 0026 0123     		movs	r3, #1
 794 0028 FB71     		strb	r3, [r7, #7]
 795 002a 01E0     		b	.L56
 796              	.L57:
 762:Generated_Source\PSoC5/TFTSHIELD_1_SPIM_1.c ****         }
 763:Generated_Source\PSoC5/TFTSHIELD_1_SPIM_1.c ****         else
 764:Generated_Source\PSoC5/TFTSHIELD_1_SPIM_1.c ****         {
 765:Generated_Source\PSoC5/TFTSHIELD_1_SPIM_1.c ****             size = TFTSHIELD_1_SPIM_1_FIFO_SIZE;
 797              		.loc 1 765 0
 798 002c 0423     		movs	r3, #4
 799 002e FB71     		strb	r3, [r7, #7]
 800              	.L56:
 766:Generated_Source\PSoC5/TFTSHIELD_1_SPIM_1.c ****         }
 767:Generated_Source\PSoC5/TFTSHIELD_1_SPIM_1.c **** 
 768:Generated_Source\PSoC5/TFTSHIELD_1_SPIM_1.c ****     #endif /* (TFTSHIELD_1_SPIM_1_TX_SOFTWARE_BUF_ENABLED) */
 769:Generated_Source\PSoC5/TFTSHIELD_1_SPIM_1.c **** 
 770:Generated_Source\PSoC5/TFTSHIELD_1_SPIM_1.c ****     return(size);
 801              		.loc 1 770 0
 802 0030 FB79     		ldrb	r3, [r7, #7]	@ zero_extendqisi2
 771:Generated_Source\PSoC5/TFTSHIELD_1_SPIM_1.c **** }
 803              		.loc 1 771 0
 804 0032 1846     		mov	r0, r3
 805 0034 0C37     		adds	r7, r7, #12
 806              		.cfi_def_cfa_offset 4
 807 0036 BD46     		mov	sp, r7
 808              		.cfi_def_cfa_register 13
 809              		@ sp needed
 810 0038 5DF8047B 		ldr	r7, [sp], #4
 811              		.cfi_restore 7
 812              		.cfi_def_cfa_offset 0
 813 003c 7047     		bx	lr
 814              	.L60:
 815 003e 00BF     		.align	2
 816              	.L59:
 817 0040 6B640040 		.word	1073767531
 818              		.cfi_endproc
 819              	.LFE15:
 820              		.size	TFTSHIELD_1_SPIM_1_GetTxBufferSize, .-TFTSHIELD_1_SPIM_1_GetTxBufferSize
 821              		.section	.text.TFTSHIELD_1_SPIM_1_ClearRxBuffer,"ax",%progbits
 822              		.align	2
 823              		.global	TFTSHIELD_1_SPIM_1_ClearRxBuffer
 824              		.thumb
 825              		.thumb_func
ARM GAS  C:\Users\LilRobby\AppData\Local\Temp\ccgNTm4U.s 			page 29


 826              		.type	TFTSHIELD_1_SPIM_1_ClearRxBuffer, %function
 827              	TFTSHIELD_1_SPIM_1_ClearRxBuffer:
 828              	.LFB16:
 772:Generated_Source\PSoC5/TFTSHIELD_1_SPIM_1.c **** 
 773:Generated_Source\PSoC5/TFTSHIELD_1_SPIM_1.c **** 
 774:Generated_Source\PSoC5/TFTSHIELD_1_SPIM_1.c **** /*******************************************************************************
 775:Generated_Source\PSoC5/TFTSHIELD_1_SPIM_1.c **** * Function Name: TFTSHIELD_1_SPIM_1_ClearRxBuffer
 776:Generated_Source\PSoC5/TFTSHIELD_1_SPIM_1.c **** ********************************************************************************
 777:Generated_Source\PSoC5/TFTSHIELD_1_SPIM_1.c **** *
 778:Generated_Source\PSoC5/TFTSHIELD_1_SPIM_1.c **** * Summary:
 779:Generated_Source\PSoC5/TFTSHIELD_1_SPIM_1.c **** *  Clear the RX RAM buffer by setting the read and write pointers both to zero.
 780:Generated_Source\PSoC5/TFTSHIELD_1_SPIM_1.c **** *
 781:Generated_Source\PSoC5/TFTSHIELD_1_SPIM_1.c **** * Parameters:
 782:Generated_Source\PSoC5/TFTSHIELD_1_SPIM_1.c **** *  None.
 783:Generated_Source\PSoC5/TFTSHIELD_1_SPIM_1.c **** *
 784:Generated_Source\PSoC5/TFTSHIELD_1_SPIM_1.c **** * Return:
 785:Generated_Source\PSoC5/TFTSHIELD_1_SPIM_1.c **** *  None.
 786:Generated_Source\PSoC5/TFTSHIELD_1_SPIM_1.c **** *
 787:Generated_Source\PSoC5/TFTSHIELD_1_SPIM_1.c **** * Global variables:
 788:Generated_Source\PSoC5/TFTSHIELD_1_SPIM_1.c **** *  TFTSHIELD_1_SPIM_1_rxBufferWrite - used for the account of the bytes which
 789:Generated_Source\PSoC5/TFTSHIELD_1_SPIM_1.c **** *  have been written down in the RX software buffer, modified every function
 790:Generated_Source\PSoC5/TFTSHIELD_1_SPIM_1.c **** *  call - resets to zero.
 791:Generated_Source\PSoC5/TFTSHIELD_1_SPIM_1.c **** *  TFTSHIELD_1_SPIM_1_rxBufferRead - used for the account of the bytes which
 792:Generated_Source\PSoC5/TFTSHIELD_1_SPIM_1.c **** *  have been read from the RX software buffer, modified every function call -
 793:Generated_Source\PSoC5/TFTSHIELD_1_SPIM_1.c **** *  resets to zero.
 794:Generated_Source\PSoC5/TFTSHIELD_1_SPIM_1.c **** *
 795:Generated_Source\PSoC5/TFTSHIELD_1_SPIM_1.c **** * Theory:
 796:Generated_Source\PSoC5/TFTSHIELD_1_SPIM_1.c **** *  Setting the pointers to zero makes the system believe there is no data to
 797:Generated_Source\PSoC5/TFTSHIELD_1_SPIM_1.c **** *  read and writing will resume at address 0 overwriting any data that may have
 798:Generated_Source\PSoC5/TFTSHIELD_1_SPIM_1.c **** *  remained in the RAM.
 799:Generated_Source\PSoC5/TFTSHIELD_1_SPIM_1.c **** *
 800:Generated_Source\PSoC5/TFTSHIELD_1_SPIM_1.c **** * Side Effects:
 801:Generated_Source\PSoC5/TFTSHIELD_1_SPIM_1.c **** *  Any received data not read from the RAM buffer will be lost when overwritten.
 802:Generated_Source\PSoC5/TFTSHIELD_1_SPIM_1.c **** *
 803:Generated_Source\PSoC5/TFTSHIELD_1_SPIM_1.c **** * Reentrant:
 804:Generated_Source\PSoC5/TFTSHIELD_1_SPIM_1.c **** *  No.
 805:Generated_Source\PSoC5/TFTSHIELD_1_SPIM_1.c **** *
 806:Generated_Source\PSoC5/TFTSHIELD_1_SPIM_1.c **** *******************************************************************************/
 807:Generated_Source\PSoC5/TFTSHIELD_1_SPIM_1.c **** void TFTSHIELD_1_SPIM_1_ClearRxBuffer(void) 
 808:Generated_Source\PSoC5/TFTSHIELD_1_SPIM_1.c **** {
 829              		.loc 1 808 0
 830              		.cfi_startproc
 831              		@ args = 0, pretend = 0, frame = 0
 832              		@ frame_needed = 1, uses_anonymous_args = 0
 833              		@ link register save eliminated.
 834 0000 80B4     		push	{r7}
 835              		.cfi_def_cfa_offset 4
 836              		.cfi_offset 7, -4
 837 0002 00AF     		add	r7, sp, #0
 838              		.cfi_def_cfa_register 7
 809:Generated_Source\PSoC5/TFTSHIELD_1_SPIM_1.c ****     /* Clear Hardware RX FIFO */
 810:Generated_Source\PSoC5/TFTSHIELD_1_SPIM_1.c ****     while(0u !=(TFTSHIELD_1_SPIM_1_RX_STATUS_REG & TFTSHIELD_1_SPIM_1_STS_RX_FIFO_NOT_EMPTY))
 839              		.loc 1 810 0
 840 0004 01E0     		b	.L62
 841              	.L63:
 811:Generated_Source\PSoC5/TFTSHIELD_1_SPIM_1.c ****     {
 812:Generated_Source\PSoC5/TFTSHIELD_1_SPIM_1.c ****         (void) CY_GET_REG8(TFTSHIELD_1_SPIM_1_RXDATA_PTR);
ARM GAS  C:\Users\LilRobby\AppData\Local\Temp\ccgNTm4U.s 			page 30


 842              		.loc 1 812 0
 843 0006 064B     		ldr	r3, .L64
 844 0008 1B78     		ldrb	r3, [r3]
 845              	.L62:
 810:Generated_Source\PSoC5/TFTSHIELD_1_SPIM_1.c ****     {
 846              		.loc 1 810 0
 847 000a 064B     		ldr	r3, .L64+4
 848 000c 1B78     		ldrb	r3, [r3]
 849 000e DBB2     		uxtb	r3, r3
 850 0010 03F02003 		and	r3, r3, #32
 851 0014 002B     		cmp	r3, #0
 852 0016 F6D1     		bne	.L63
 813:Generated_Source\PSoC5/TFTSHIELD_1_SPIM_1.c ****     }
 814:Generated_Source\PSoC5/TFTSHIELD_1_SPIM_1.c **** 
 815:Generated_Source\PSoC5/TFTSHIELD_1_SPIM_1.c ****     #if(TFTSHIELD_1_SPIM_1_RX_SOFTWARE_BUF_ENABLED)
 816:Generated_Source\PSoC5/TFTSHIELD_1_SPIM_1.c ****         /* Disable RX interrupt to protect global veriables */
 817:Generated_Source\PSoC5/TFTSHIELD_1_SPIM_1.c ****         TFTSHIELD_1_SPIM_1_DisableRxInt();
 818:Generated_Source\PSoC5/TFTSHIELD_1_SPIM_1.c **** 
 819:Generated_Source\PSoC5/TFTSHIELD_1_SPIM_1.c ****         TFTSHIELD_1_SPIM_1_rxBufferFull  = 0u;
 820:Generated_Source\PSoC5/TFTSHIELD_1_SPIM_1.c ****         TFTSHIELD_1_SPIM_1_rxBufferRead  = 0u;
 821:Generated_Source\PSoC5/TFTSHIELD_1_SPIM_1.c ****         TFTSHIELD_1_SPIM_1_rxBufferWrite = 0u;
 822:Generated_Source\PSoC5/TFTSHIELD_1_SPIM_1.c **** 
 823:Generated_Source\PSoC5/TFTSHIELD_1_SPIM_1.c ****         TFTSHIELD_1_SPIM_1_EnableRxInt();
 824:Generated_Source\PSoC5/TFTSHIELD_1_SPIM_1.c ****     #endif /* (TFTSHIELD_1_SPIM_1_RX_SOFTWARE_BUF_ENABLED) */
 825:Generated_Source\PSoC5/TFTSHIELD_1_SPIM_1.c **** }
 853              		.loc 1 825 0
 854 0018 BD46     		mov	sp, r7
 855              		.cfi_def_cfa_register 13
 856              		@ sp needed
 857 001a 5DF8047B 		ldr	r7, [sp], #4
 858              		.cfi_restore 7
 859              		.cfi_def_cfa_offset 0
 860 001e 7047     		bx	lr
 861              	.L65:
 862              		.align	2
 863              	.L64:
 864 0020 5D640040 		.word	1073767517
 865 0024 6A640040 		.word	1073767530
 866              		.cfi_endproc
 867              	.LFE16:
 868              		.size	TFTSHIELD_1_SPIM_1_ClearRxBuffer, .-TFTSHIELD_1_SPIM_1_ClearRxBuffer
 869              		.section	.text.TFTSHIELD_1_SPIM_1_ClearTxBuffer,"ax",%progbits
 870              		.align	2
 871              		.global	TFTSHIELD_1_SPIM_1_ClearTxBuffer
 872              		.thumb
 873              		.thumb_func
 874              		.type	TFTSHIELD_1_SPIM_1_ClearTxBuffer, %function
 875              	TFTSHIELD_1_SPIM_1_ClearTxBuffer:
 876              	.LFB17:
 826:Generated_Source\PSoC5/TFTSHIELD_1_SPIM_1.c **** 
 827:Generated_Source\PSoC5/TFTSHIELD_1_SPIM_1.c **** 
 828:Generated_Source\PSoC5/TFTSHIELD_1_SPIM_1.c **** /*******************************************************************************
 829:Generated_Source\PSoC5/TFTSHIELD_1_SPIM_1.c **** * Function Name: TFTSHIELD_1_SPIM_1_ClearTxBuffer
 830:Generated_Source\PSoC5/TFTSHIELD_1_SPIM_1.c **** ********************************************************************************
 831:Generated_Source\PSoC5/TFTSHIELD_1_SPIM_1.c **** *
 832:Generated_Source\PSoC5/TFTSHIELD_1_SPIM_1.c **** * Summary:
 833:Generated_Source\PSoC5/TFTSHIELD_1_SPIM_1.c **** *  Clear the TX RAM buffer by setting the read and write pointers both to zero.
ARM GAS  C:\Users\LilRobby\AppData\Local\Temp\ccgNTm4U.s 			page 31


 834:Generated_Source\PSoC5/TFTSHIELD_1_SPIM_1.c **** *
 835:Generated_Source\PSoC5/TFTSHIELD_1_SPIM_1.c **** * Parameters:
 836:Generated_Source\PSoC5/TFTSHIELD_1_SPIM_1.c **** *  None.
 837:Generated_Source\PSoC5/TFTSHIELD_1_SPIM_1.c **** *
 838:Generated_Source\PSoC5/TFTSHIELD_1_SPIM_1.c **** * Return:
 839:Generated_Source\PSoC5/TFTSHIELD_1_SPIM_1.c **** *  None.
 840:Generated_Source\PSoC5/TFTSHIELD_1_SPIM_1.c **** *
 841:Generated_Source\PSoC5/TFTSHIELD_1_SPIM_1.c **** * Global variables:
 842:Generated_Source\PSoC5/TFTSHIELD_1_SPIM_1.c **** *  TFTSHIELD_1_SPIM_1_txBufferWrite - used for the account of the bytes which
 843:Generated_Source\PSoC5/TFTSHIELD_1_SPIM_1.c **** *  have been written down in the TX software buffer, modified every function
 844:Generated_Source\PSoC5/TFTSHIELD_1_SPIM_1.c **** *  call - resets to zero.
 845:Generated_Source\PSoC5/TFTSHIELD_1_SPIM_1.c **** *  TFTSHIELD_1_SPIM_1_txBufferRead - used for the account of the bytes which
 846:Generated_Source\PSoC5/TFTSHIELD_1_SPIM_1.c **** *  have been read from the TX software buffer, modified every function call -
 847:Generated_Source\PSoC5/TFTSHIELD_1_SPIM_1.c **** *  resets to zero.
 848:Generated_Source\PSoC5/TFTSHIELD_1_SPIM_1.c **** *
 849:Generated_Source\PSoC5/TFTSHIELD_1_SPIM_1.c **** * Theory:
 850:Generated_Source\PSoC5/TFTSHIELD_1_SPIM_1.c **** *  Setting the pointers to zero makes the system believe there is no data to
 851:Generated_Source\PSoC5/TFTSHIELD_1_SPIM_1.c **** *  read and writing will resume at address 0 overwriting any data that may have
 852:Generated_Source\PSoC5/TFTSHIELD_1_SPIM_1.c **** *  remained in the RAM.
 853:Generated_Source\PSoC5/TFTSHIELD_1_SPIM_1.c **** *
 854:Generated_Source\PSoC5/TFTSHIELD_1_SPIM_1.c **** * Side Effects:
 855:Generated_Source\PSoC5/TFTSHIELD_1_SPIM_1.c **** *  Any data not yet transmitted from the RAM buffer will be lost when
 856:Generated_Source\PSoC5/TFTSHIELD_1_SPIM_1.c **** *  overwritten.
 857:Generated_Source\PSoC5/TFTSHIELD_1_SPIM_1.c **** *
 858:Generated_Source\PSoC5/TFTSHIELD_1_SPIM_1.c **** * Reentrant:
 859:Generated_Source\PSoC5/TFTSHIELD_1_SPIM_1.c **** *  No.
 860:Generated_Source\PSoC5/TFTSHIELD_1_SPIM_1.c **** *
 861:Generated_Source\PSoC5/TFTSHIELD_1_SPIM_1.c **** *******************************************************************************/
 862:Generated_Source\PSoC5/TFTSHIELD_1_SPIM_1.c **** void TFTSHIELD_1_SPIM_1_ClearTxBuffer(void) 
 863:Generated_Source\PSoC5/TFTSHIELD_1_SPIM_1.c **** {
 877              		.loc 1 863 0
 878              		.cfi_startproc
 879              		@ args = 0, pretend = 0, frame = 8
 880              		@ frame_needed = 1, uses_anonymous_args = 0
 881 0000 80B5     		push	{r7, lr}
 882              		.cfi_def_cfa_offset 8
 883              		.cfi_offset 7, -8
 884              		.cfi_offset 14, -4
 885 0002 82B0     		sub	sp, sp, #8
 886              		.cfi_def_cfa_offset 16
 887 0004 00AF     		add	r7, sp, #0
 888              		.cfi_def_cfa_register 7
 864:Generated_Source\PSoC5/TFTSHIELD_1_SPIM_1.c ****     uint8 enableInterrupts;
 865:Generated_Source\PSoC5/TFTSHIELD_1_SPIM_1.c **** 
 866:Generated_Source\PSoC5/TFTSHIELD_1_SPIM_1.c ****     enableInterrupts = CyEnterCriticalSection();
 889              		.loc 1 866 0
 890 0006 FFF7FEFF 		bl	CyEnterCriticalSection
 891 000a 0346     		mov	r3, r0
 892 000c FB71     		strb	r3, [r7, #7]
 867:Generated_Source\PSoC5/TFTSHIELD_1_SPIM_1.c ****     /* Clear TX FIFO */
 868:Generated_Source\PSoC5/TFTSHIELD_1_SPIM_1.c ****     TFTSHIELD_1_SPIM_1_AUX_CONTROL_DP0_REG |= ((uint8)  TFTSHIELD_1_SPIM_1_TX_FIFO_CLR);
 893              		.loc 1 868 0
 894 000e 0B4A     		ldr	r2, .L67
 895 0010 0A4B     		ldr	r3, .L67
 896 0012 1B78     		ldrb	r3, [r3]
 897 0014 DBB2     		uxtb	r3, r3
 898 0016 43F00103 		orr	r3, r3, #1
ARM GAS  C:\Users\LilRobby\AppData\Local\Temp\ccgNTm4U.s 			page 32


 899 001a DBB2     		uxtb	r3, r3
 900 001c 1370     		strb	r3, [r2]
 869:Generated_Source\PSoC5/TFTSHIELD_1_SPIM_1.c ****     TFTSHIELD_1_SPIM_1_AUX_CONTROL_DP0_REG &= ((uint8) ~TFTSHIELD_1_SPIM_1_TX_FIFO_CLR);
 901              		.loc 1 869 0
 902 001e 074A     		ldr	r2, .L67
 903 0020 064B     		ldr	r3, .L67
 904 0022 1B78     		ldrb	r3, [r3]
 905 0024 DBB2     		uxtb	r3, r3
 906 0026 23F00103 		bic	r3, r3, #1
 907 002a DBB2     		uxtb	r3, r3
 908 002c 1370     		strb	r3, [r2]
 870:Generated_Source\PSoC5/TFTSHIELD_1_SPIM_1.c **** 
 871:Generated_Source\PSoC5/TFTSHIELD_1_SPIM_1.c ****     #if(TFTSHIELD_1_SPIM_1_USE_SECOND_DATAPATH)
 872:Generated_Source\PSoC5/TFTSHIELD_1_SPIM_1.c ****         /* Clear TX FIFO for 2nd Datapath */
 873:Generated_Source\PSoC5/TFTSHIELD_1_SPIM_1.c ****         TFTSHIELD_1_SPIM_1_AUX_CONTROL_DP1_REG |= ((uint8)  TFTSHIELD_1_SPIM_1_TX_FIFO_CLR);
 874:Generated_Source\PSoC5/TFTSHIELD_1_SPIM_1.c ****         TFTSHIELD_1_SPIM_1_AUX_CONTROL_DP1_REG &= ((uint8) ~TFTSHIELD_1_SPIM_1_TX_FIFO_CLR);
 875:Generated_Source\PSoC5/TFTSHIELD_1_SPIM_1.c ****     #endif /* (TFTSHIELD_1_SPIM_1_USE_SECOND_DATAPATH) */
 876:Generated_Source\PSoC5/TFTSHIELD_1_SPIM_1.c ****     CyExitCriticalSection(enableInterrupts);
 909              		.loc 1 876 0
 910 002e FB79     		ldrb	r3, [r7, #7]	@ zero_extendqisi2
 911 0030 1846     		mov	r0, r3
 912 0032 FFF7FEFF 		bl	CyExitCriticalSection
 877:Generated_Source\PSoC5/TFTSHIELD_1_SPIM_1.c **** 
 878:Generated_Source\PSoC5/TFTSHIELD_1_SPIM_1.c ****     #if(TFTSHIELD_1_SPIM_1_TX_SOFTWARE_BUF_ENABLED)
 879:Generated_Source\PSoC5/TFTSHIELD_1_SPIM_1.c ****         /* Disable TX interrupt to protect global veriables */
 880:Generated_Source\PSoC5/TFTSHIELD_1_SPIM_1.c ****         TFTSHIELD_1_SPIM_1_DisableTxInt();
 881:Generated_Source\PSoC5/TFTSHIELD_1_SPIM_1.c **** 
 882:Generated_Source\PSoC5/TFTSHIELD_1_SPIM_1.c ****         TFTSHIELD_1_SPIM_1_txBufferFull  = 0u;
 883:Generated_Source\PSoC5/TFTSHIELD_1_SPIM_1.c ****         TFTSHIELD_1_SPIM_1_txBufferRead  = 0u;
 884:Generated_Source\PSoC5/TFTSHIELD_1_SPIM_1.c ****         TFTSHIELD_1_SPIM_1_txBufferWrite = 0u;
 885:Generated_Source\PSoC5/TFTSHIELD_1_SPIM_1.c **** 
 886:Generated_Source\PSoC5/TFTSHIELD_1_SPIM_1.c ****         /* Buffer is EMPTY: disable TX FIFO NOT FULL interrupt */
 887:Generated_Source\PSoC5/TFTSHIELD_1_SPIM_1.c ****         TFTSHIELD_1_SPIM_1_TX_STATUS_MASK_REG &= ((uint8) ~TFTSHIELD_1_SPIM_1_STS_TX_FIFO_NOT_FULL)
 888:Generated_Source\PSoC5/TFTSHIELD_1_SPIM_1.c **** 
 889:Generated_Source\PSoC5/TFTSHIELD_1_SPIM_1.c ****         TFTSHIELD_1_SPIM_1_EnableTxInt();
 890:Generated_Source\PSoC5/TFTSHIELD_1_SPIM_1.c ****     #endif /* (TFTSHIELD_1_SPIM_1_TX_SOFTWARE_BUF_ENABLED) */
 891:Generated_Source\PSoC5/TFTSHIELD_1_SPIM_1.c **** }
 913              		.loc 1 891 0
 914 0036 0837     		adds	r7, r7, #8
 915              		.cfi_def_cfa_offset 8
 916 0038 BD46     		mov	sp, r7
 917              		.cfi_def_cfa_register 13
 918              		@ sp needed
 919 003a 80BD     		pop	{r7, pc}
 920              	.L68:
 921              		.align	2
 922              	.L67:
 923 003c 9D640040 		.word	1073767581
 924              		.cfi_endproc
 925              	.LFE17:
 926              		.size	TFTSHIELD_1_SPIM_1_ClearTxBuffer, .-TFTSHIELD_1_SPIM_1_ClearTxBuffer
 927              		.section	.text.TFTSHIELD_1_SPIM_1_PutArray,"ax",%progbits
 928              		.align	2
 929              		.global	TFTSHIELD_1_SPIM_1_PutArray
 930              		.thumb
 931              		.thumb_func
 932              		.type	TFTSHIELD_1_SPIM_1_PutArray, %function
ARM GAS  C:\Users\LilRobby\AppData\Local\Temp\ccgNTm4U.s 			page 33


 933              	TFTSHIELD_1_SPIM_1_PutArray:
 934              	.LFB18:
 892:Generated_Source\PSoC5/TFTSHIELD_1_SPIM_1.c **** 
 893:Generated_Source\PSoC5/TFTSHIELD_1_SPIM_1.c **** 
 894:Generated_Source\PSoC5/TFTSHIELD_1_SPIM_1.c **** #if(0u != TFTSHIELD_1_SPIM_1_BIDIRECTIONAL_MODE)
 895:Generated_Source\PSoC5/TFTSHIELD_1_SPIM_1.c ****     /*******************************************************************************
 896:Generated_Source\PSoC5/TFTSHIELD_1_SPIM_1.c ****     * Function Name: TFTSHIELD_1_SPIM_1_TxEnable
 897:Generated_Source\PSoC5/TFTSHIELD_1_SPIM_1.c ****     ********************************************************************************
 898:Generated_Source\PSoC5/TFTSHIELD_1_SPIM_1.c ****     *
 899:Generated_Source\PSoC5/TFTSHIELD_1_SPIM_1.c ****     * Summary:
 900:Generated_Source\PSoC5/TFTSHIELD_1_SPIM_1.c ****     *  If the SPI master is configured to use a single bi-directional pin then this
 901:Generated_Source\PSoC5/TFTSHIELD_1_SPIM_1.c ****     *  will set the bi-directional pin to transmit.
 902:Generated_Source\PSoC5/TFTSHIELD_1_SPIM_1.c ****     *
 903:Generated_Source\PSoC5/TFTSHIELD_1_SPIM_1.c ****     * Parameters:
 904:Generated_Source\PSoC5/TFTSHIELD_1_SPIM_1.c ****     *  None.
 905:Generated_Source\PSoC5/TFTSHIELD_1_SPIM_1.c ****     *
 906:Generated_Source\PSoC5/TFTSHIELD_1_SPIM_1.c ****     * Return:
 907:Generated_Source\PSoC5/TFTSHIELD_1_SPIM_1.c ****     *  None.
 908:Generated_Source\PSoC5/TFTSHIELD_1_SPIM_1.c ****     *
 909:Generated_Source\PSoC5/TFTSHIELD_1_SPIM_1.c ****     *******************************************************************************/
 910:Generated_Source\PSoC5/TFTSHIELD_1_SPIM_1.c ****     void TFTSHIELD_1_SPIM_1_TxEnable(void) 
 911:Generated_Source\PSoC5/TFTSHIELD_1_SPIM_1.c ****     {
 912:Generated_Source\PSoC5/TFTSHIELD_1_SPIM_1.c ****         TFTSHIELD_1_SPIM_1_CONTROL_REG |= TFTSHIELD_1_SPIM_1_CTRL_TX_SIGNAL_EN;
 913:Generated_Source\PSoC5/TFTSHIELD_1_SPIM_1.c ****     }
 914:Generated_Source\PSoC5/TFTSHIELD_1_SPIM_1.c **** 
 915:Generated_Source\PSoC5/TFTSHIELD_1_SPIM_1.c **** 
 916:Generated_Source\PSoC5/TFTSHIELD_1_SPIM_1.c ****     /*******************************************************************************
 917:Generated_Source\PSoC5/TFTSHIELD_1_SPIM_1.c ****     * Function Name: TFTSHIELD_1_SPIM_1_TxDisable
 918:Generated_Source\PSoC5/TFTSHIELD_1_SPIM_1.c ****     ********************************************************************************
 919:Generated_Source\PSoC5/TFTSHIELD_1_SPIM_1.c ****     *
 920:Generated_Source\PSoC5/TFTSHIELD_1_SPIM_1.c ****     * Summary:
 921:Generated_Source\PSoC5/TFTSHIELD_1_SPIM_1.c ****     *  If the SPI master is configured to use a single bi-directional pin then this
 922:Generated_Source\PSoC5/TFTSHIELD_1_SPIM_1.c ****     *  will set the bi-directional pin to receive.
 923:Generated_Source\PSoC5/TFTSHIELD_1_SPIM_1.c ****     *
 924:Generated_Source\PSoC5/TFTSHIELD_1_SPIM_1.c ****     * Parameters:
 925:Generated_Source\PSoC5/TFTSHIELD_1_SPIM_1.c ****     *  None.
 926:Generated_Source\PSoC5/TFTSHIELD_1_SPIM_1.c ****     *
 927:Generated_Source\PSoC5/TFTSHIELD_1_SPIM_1.c ****     * Return:
 928:Generated_Source\PSoC5/TFTSHIELD_1_SPIM_1.c ****     *  None.
 929:Generated_Source\PSoC5/TFTSHIELD_1_SPIM_1.c ****     *
 930:Generated_Source\PSoC5/TFTSHIELD_1_SPIM_1.c ****     *******************************************************************************/
 931:Generated_Source\PSoC5/TFTSHIELD_1_SPIM_1.c ****     void TFTSHIELD_1_SPIM_1_TxDisable(void) 
 932:Generated_Source\PSoC5/TFTSHIELD_1_SPIM_1.c ****     {
 933:Generated_Source\PSoC5/TFTSHIELD_1_SPIM_1.c ****         TFTSHIELD_1_SPIM_1_CONTROL_REG &= ((uint8) ~TFTSHIELD_1_SPIM_1_CTRL_TX_SIGNAL_EN);
 934:Generated_Source\PSoC5/TFTSHIELD_1_SPIM_1.c ****     }
 935:Generated_Source\PSoC5/TFTSHIELD_1_SPIM_1.c **** 
 936:Generated_Source\PSoC5/TFTSHIELD_1_SPIM_1.c **** #endif /* (0u != TFTSHIELD_1_SPIM_1_BIDIRECTIONAL_MODE) */
 937:Generated_Source\PSoC5/TFTSHIELD_1_SPIM_1.c **** 
 938:Generated_Source\PSoC5/TFTSHIELD_1_SPIM_1.c **** 
 939:Generated_Source\PSoC5/TFTSHIELD_1_SPIM_1.c **** /*******************************************************************************
 940:Generated_Source\PSoC5/TFTSHIELD_1_SPIM_1.c **** * Function Name: TFTSHIELD_1_SPIM_1_PutArray
 941:Generated_Source\PSoC5/TFTSHIELD_1_SPIM_1.c **** ********************************************************************************
 942:Generated_Source\PSoC5/TFTSHIELD_1_SPIM_1.c **** *
 943:Generated_Source\PSoC5/TFTSHIELD_1_SPIM_1.c **** * Summary:
 944:Generated_Source\PSoC5/TFTSHIELD_1_SPIM_1.c **** *  Write available data from ROM/RAM to the TX buffer while space is available
 945:Generated_Source\PSoC5/TFTSHIELD_1_SPIM_1.c **** *  in the TX buffer. Keep trying until all data is passed to the TX buffer.
 946:Generated_Source\PSoC5/TFTSHIELD_1_SPIM_1.c **** *
ARM GAS  C:\Users\LilRobby\AppData\Local\Temp\ccgNTm4U.s 			page 34


 947:Generated_Source\PSoC5/TFTSHIELD_1_SPIM_1.c **** * Parameters:
 948:Generated_Source\PSoC5/TFTSHIELD_1_SPIM_1.c **** *  *buffer: Pointer to the location in RAM containing the data to send
 949:Generated_Source\PSoC5/TFTSHIELD_1_SPIM_1.c **** *  byteCount: The number of bytes to move to the transmit buffer.
 950:Generated_Source\PSoC5/TFTSHIELD_1_SPIM_1.c **** *
 951:Generated_Source\PSoC5/TFTSHIELD_1_SPIM_1.c **** * Return:
 952:Generated_Source\PSoC5/TFTSHIELD_1_SPIM_1.c **** *  None.
 953:Generated_Source\PSoC5/TFTSHIELD_1_SPIM_1.c **** *
 954:Generated_Source\PSoC5/TFTSHIELD_1_SPIM_1.c **** * Side Effects:
 955:Generated_Source\PSoC5/TFTSHIELD_1_SPIM_1.c **** *  Will stay in this routine until all data has been sent.  May get locked in
 956:Generated_Source\PSoC5/TFTSHIELD_1_SPIM_1.c **** *  this loop if data is not being initiated by the master if there is not
 957:Generated_Source\PSoC5/TFTSHIELD_1_SPIM_1.c **** *  enough room in the TX FIFO.
 958:Generated_Source\PSoC5/TFTSHIELD_1_SPIM_1.c **** *
 959:Generated_Source\PSoC5/TFTSHIELD_1_SPIM_1.c **** * Reentrant:
 960:Generated_Source\PSoC5/TFTSHIELD_1_SPIM_1.c **** *  No.
 961:Generated_Source\PSoC5/TFTSHIELD_1_SPIM_1.c **** *
 962:Generated_Source\PSoC5/TFTSHIELD_1_SPIM_1.c **** *******************************************************************************/
 963:Generated_Source\PSoC5/TFTSHIELD_1_SPIM_1.c **** void TFTSHIELD_1_SPIM_1_PutArray(const uint8 buffer[], uint8 byteCount)
 964:Generated_Source\PSoC5/TFTSHIELD_1_SPIM_1.c ****                                                                           
 965:Generated_Source\PSoC5/TFTSHIELD_1_SPIM_1.c **** {
 935              		.loc 1 965 0
 936              		.cfi_startproc
 937              		@ args = 0, pretend = 0, frame = 16
 938              		@ frame_needed = 1, uses_anonymous_args = 0
 939 0000 80B5     		push	{r7, lr}
 940              		.cfi_def_cfa_offset 8
 941              		.cfi_offset 7, -8
 942              		.cfi_offset 14, -4
 943 0002 84B0     		sub	sp, sp, #16
 944              		.cfi_def_cfa_offset 24
 945 0004 00AF     		add	r7, sp, #0
 946              		.cfi_def_cfa_register 7
 947 0006 7860     		str	r0, [r7, #4]
 948 0008 0B46     		mov	r3, r1
 949 000a FB70     		strb	r3, [r7, #3]
 966:Generated_Source\PSoC5/TFTSHIELD_1_SPIM_1.c ****     uint8 bufIndex;
 967:Generated_Source\PSoC5/TFTSHIELD_1_SPIM_1.c **** 
 968:Generated_Source\PSoC5/TFTSHIELD_1_SPIM_1.c ****     bufIndex = 0u;
 950              		.loc 1 968 0
 951 000c 0023     		movs	r3, #0
 952 000e FB73     		strb	r3, [r7, #15]
 969:Generated_Source\PSoC5/TFTSHIELD_1_SPIM_1.c **** 
 970:Generated_Source\PSoC5/TFTSHIELD_1_SPIM_1.c ****     while(byteCount > 0u)
 953              		.loc 1 970 0
 954 0010 0CE0     		b	.L70
 955              	.L71:
 971:Generated_Source\PSoC5/TFTSHIELD_1_SPIM_1.c ****     {
 972:Generated_Source\PSoC5/TFTSHIELD_1_SPIM_1.c ****         TFTSHIELD_1_SPIM_1_WriteTxData(buffer[bufIndex]);
 956              		.loc 1 972 0
 957 0012 FB7B     		ldrb	r3, [r7, #15]	@ zero_extendqisi2
 958 0014 7A68     		ldr	r2, [r7, #4]
 959 0016 1344     		add	r3, r3, r2
 960 0018 1B78     		ldrb	r3, [r3]	@ zero_extendqisi2
 961 001a 1846     		mov	r0, r3
 962 001c FFF7FEFF 		bl	TFTSHIELD_1_SPIM_1_WriteTxData
 973:Generated_Source\PSoC5/TFTSHIELD_1_SPIM_1.c ****         bufIndex++;
 963              		.loc 1 973 0
 964 0020 FB7B     		ldrb	r3, [r7, #15]	@ zero_extendqisi2
ARM GAS  C:\Users\LilRobby\AppData\Local\Temp\ccgNTm4U.s 			page 35


 965 0022 0133     		adds	r3, r3, #1
 966 0024 FB73     		strb	r3, [r7, #15]
 974:Generated_Source\PSoC5/TFTSHIELD_1_SPIM_1.c ****         byteCount--;
 967              		.loc 1 974 0
 968 0026 FB78     		ldrb	r3, [r7, #3]	@ zero_extendqisi2
 969 0028 013B     		subs	r3, r3, #1
 970 002a FB70     		strb	r3, [r7, #3]
 971              	.L70:
 970:Generated_Source\PSoC5/TFTSHIELD_1_SPIM_1.c ****     {
 972              		.loc 1 970 0
 973 002c FB78     		ldrb	r3, [r7, #3]	@ zero_extendqisi2
 974 002e 002B     		cmp	r3, #0
 975 0030 EFD1     		bne	.L71
 975:Generated_Source\PSoC5/TFTSHIELD_1_SPIM_1.c ****     }
 976:Generated_Source\PSoC5/TFTSHIELD_1_SPIM_1.c **** }
 976              		.loc 1 976 0
 977 0032 1037     		adds	r7, r7, #16
 978              		.cfi_def_cfa_offset 8
 979 0034 BD46     		mov	sp, r7
 980              		.cfi_def_cfa_register 13
 981              		@ sp needed
 982 0036 80BD     		pop	{r7, pc}
 983              		.cfi_endproc
 984              	.LFE18:
 985              		.size	TFTSHIELD_1_SPIM_1_PutArray, .-TFTSHIELD_1_SPIM_1_PutArray
 986              		.section	.text.TFTSHIELD_1_SPIM_1_ClearFIFO,"ax",%progbits
 987              		.align	2
 988              		.global	TFTSHIELD_1_SPIM_1_ClearFIFO
 989              		.thumb
 990              		.thumb_func
 991              		.type	TFTSHIELD_1_SPIM_1_ClearFIFO, %function
 992              	TFTSHIELD_1_SPIM_1_ClearFIFO:
 993              	.LFB19:
 977:Generated_Source\PSoC5/TFTSHIELD_1_SPIM_1.c **** 
 978:Generated_Source\PSoC5/TFTSHIELD_1_SPIM_1.c **** 
 979:Generated_Source\PSoC5/TFTSHIELD_1_SPIM_1.c **** /*******************************************************************************
 980:Generated_Source\PSoC5/TFTSHIELD_1_SPIM_1.c **** * Function Name: TFTSHIELD_1_SPIM_1_ClearFIFO
 981:Generated_Source\PSoC5/TFTSHIELD_1_SPIM_1.c **** ********************************************************************************
 982:Generated_Source\PSoC5/TFTSHIELD_1_SPIM_1.c **** *
 983:Generated_Source\PSoC5/TFTSHIELD_1_SPIM_1.c **** * Summary:
 984:Generated_Source\PSoC5/TFTSHIELD_1_SPIM_1.c **** *  Clear the RX and TX FIFO's of all data for a fresh start.
 985:Generated_Source\PSoC5/TFTSHIELD_1_SPIM_1.c **** *
 986:Generated_Source\PSoC5/TFTSHIELD_1_SPIM_1.c **** * Parameters:
 987:Generated_Source\PSoC5/TFTSHIELD_1_SPIM_1.c **** *  None.
 988:Generated_Source\PSoC5/TFTSHIELD_1_SPIM_1.c **** *
 989:Generated_Source\PSoC5/TFTSHIELD_1_SPIM_1.c **** * Return:
 990:Generated_Source\PSoC5/TFTSHIELD_1_SPIM_1.c **** *  None.
 991:Generated_Source\PSoC5/TFTSHIELD_1_SPIM_1.c **** *
 992:Generated_Source\PSoC5/TFTSHIELD_1_SPIM_1.c **** * Side Effects:
 993:Generated_Source\PSoC5/TFTSHIELD_1_SPIM_1.c **** *  Clear status register of the component.
 994:Generated_Source\PSoC5/TFTSHIELD_1_SPIM_1.c **** *
 995:Generated_Source\PSoC5/TFTSHIELD_1_SPIM_1.c **** *******************************************************************************/
 996:Generated_Source\PSoC5/TFTSHIELD_1_SPIM_1.c **** void TFTSHIELD_1_SPIM_1_ClearFIFO(void) 
 997:Generated_Source\PSoC5/TFTSHIELD_1_SPIM_1.c **** {
 994              		.loc 1 997 0
 995              		.cfi_startproc
 996              		@ args = 0, pretend = 0, frame = 8
ARM GAS  C:\Users\LilRobby\AppData\Local\Temp\ccgNTm4U.s 			page 36


 997              		@ frame_needed = 1, uses_anonymous_args = 0
 998 0000 80B5     		push	{r7, lr}
 999              		.cfi_def_cfa_offset 8
 1000              		.cfi_offset 7, -8
 1001              		.cfi_offset 14, -4
 1002 0002 82B0     		sub	sp, sp, #8
 1003              		.cfi_def_cfa_offset 16
 1004 0004 00AF     		add	r7, sp, #0
 1005              		.cfi_def_cfa_register 7
 998:Generated_Source\PSoC5/TFTSHIELD_1_SPIM_1.c ****     uint8 enableInterrupts;
 999:Generated_Source\PSoC5/TFTSHIELD_1_SPIM_1.c **** 
1000:Generated_Source\PSoC5/TFTSHIELD_1_SPIM_1.c ****     /* Clear Hardware RX FIFO */
1001:Generated_Source\PSoC5/TFTSHIELD_1_SPIM_1.c ****     while(0u !=(TFTSHIELD_1_SPIM_1_RX_STATUS_REG & TFTSHIELD_1_SPIM_1_STS_RX_FIFO_NOT_EMPTY))
 1006              		.loc 1 1001 0
 1007 0006 01E0     		b	.L73
 1008              	.L74:
1002:Generated_Source\PSoC5/TFTSHIELD_1_SPIM_1.c ****     {
1003:Generated_Source\PSoC5/TFTSHIELD_1_SPIM_1.c ****         (void) CY_GET_REG8(TFTSHIELD_1_SPIM_1_RXDATA_PTR);
 1009              		.loc 1 1003 0
 1010 0008 114B     		ldr	r3, .L75
 1011 000a 1B78     		ldrb	r3, [r3]
 1012              	.L73:
1001:Generated_Source\PSoC5/TFTSHIELD_1_SPIM_1.c ****     {
 1013              		.loc 1 1001 0
 1014 000c 114B     		ldr	r3, .L75+4
 1015 000e 1B78     		ldrb	r3, [r3]
 1016 0010 DBB2     		uxtb	r3, r3
 1017 0012 03F02003 		and	r3, r3, #32
 1018 0016 002B     		cmp	r3, #0
 1019 0018 F6D1     		bne	.L74
1004:Generated_Source\PSoC5/TFTSHIELD_1_SPIM_1.c ****     }
1005:Generated_Source\PSoC5/TFTSHIELD_1_SPIM_1.c **** 
1006:Generated_Source\PSoC5/TFTSHIELD_1_SPIM_1.c ****     enableInterrupts = CyEnterCriticalSection();
 1020              		.loc 1 1006 0
 1021 001a FFF7FEFF 		bl	CyEnterCriticalSection
 1022 001e 0346     		mov	r3, r0
 1023 0020 FB71     		strb	r3, [r7, #7]
1007:Generated_Source\PSoC5/TFTSHIELD_1_SPIM_1.c ****     /* Clear TX FIFO */
1008:Generated_Source\PSoC5/TFTSHIELD_1_SPIM_1.c ****     TFTSHIELD_1_SPIM_1_AUX_CONTROL_DP0_REG |= ((uint8)  TFTSHIELD_1_SPIM_1_TX_FIFO_CLR);
 1024              		.loc 1 1008 0
 1025 0022 0D4A     		ldr	r2, .L75+8
 1026 0024 0C4B     		ldr	r3, .L75+8
 1027 0026 1B78     		ldrb	r3, [r3]
 1028 0028 DBB2     		uxtb	r3, r3
 1029 002a 43F00103 		orr	r3, r3, #1
 1030 002e DBB2     		uxtb	r3, r3
 1031 0030 1370     		strb	r3, [r2]
1009:Generated_Source\PSoC5/TFTSHIELD_1_SPIM_1.c ****     TFTSHIELD_1_SPIM_1_AUX_CONTROL_DP0_REG &= ((uint8) ~TFTSHIELD_1_SPIM_1_TX_FIFO_CLR);
 1032              		.loc 1 1009 0
 1033 0032 094A     		ldr	r2, .L75+8
 1034 0034 084B     		ldr	r3, .L75+8
 1035 0036 1B78     		ldrb	r3, [r3]
 1036 0038 DBB2     		uxtb	r3, r3
 1037 003a 23F00103 		bic	r3, r3, #1
 1038 003e DBB2     		uxtb	r3, r3
 1039 0040 1370     		strb	r3, [r2]
1010:Generated_Source\PSoC5/TFTSHIELD_1_SPIM_1.c **** 
ARM GAS  C:\Users\LilRobby\AppData\Local\Temp\ccgNTm4U.s 			page 37


1011:Generated_Source\PSoC5/TFTSHIELD_1_SPIM_1.c ****     #if(TFTSHIELD_1_SPIM_1_USE_SECOND_DATAPATH)
1012:Generated_Source\PSoC5/TFTSHIELD_1_SPIM_1.c ****         /* Clear TX FIFO for 2nd Datapath */
1013:Generated_Source\PSoC5/TFTSHIELD_1_SPIM_1.c ****         TFTSHIELD_1_SPIM_1_AUX_CONTROL_DP1_REG |= ((uint8)  TFTSHIELD_1_SPIM_1_TX_FIFO_CLR);
1014:Generated_Source\PSoC5/TFTSHIELD_1_SPIM_1.c ****         TFTSHIELD_1_SPIM_1_AUX_CONTROL_DP1_REG &= ((uint8) ~TFTSHIELD_1_SPIM_1_TX_FIFO_CLR);
1015:Generated_Source\PSoC5/TFTSHIELD_1_SPIM_1.c ****     #endif /* (TFTSHIELD_1_SPIM_1_USE_SECOND_DATAPATH) */
1016:Generated_Source\PSoC5/TFTSHIELD_1_SPIM_1.c ****     CyExitCriticalSection(enableInterrupts);
 1040              		.loc 1 1016 0
 1041 0042 FB79     		ldrb	r3, [r7, #7]	@ zero_extendqisi2
 1042 0044 1846     		mov	r0, r3
 1043 0046 FFF7FEFF 		bl	CyExitCriticalSection
1017:Generated_Source\PSoC5/TFTSHIELD_1_SPIM_1.c **** }
 1044              		.loc 1 1017 0
 1045 004a 0837     		adds	r7, r7, #8
 1046              		.cfi_def_cfa_offset 8
 1047 004c BD46     		mov	sp, r7
 1048              		.cfi_def_cfa_register 13
 1049              		@ sp needed
 1050 004e 80BD     		pop	{r7, pc}
 1051              	.L76:
 1052              		.align	2
 1053              	.L75:
 1054 0050 5D640040 		.word	1073767517
 1055 0054 6A640040 		.word	1073767530
 1056 0058 9D640040 		.word	1073767581
 1057              		.cfi_endproc
 1058              	.LFE19:
 1059              		.size	TFTSHIELD_1_SPIM_1_ClearFIFO, .-TFTSHIELD_1_SPIM_1_ClearFIFO
 1060              		.section	.text.TFTSHIELD_1_SPIM_1_EnableInt,"ax",%progbits
 1061              		.align	2
 1062              		.global	TFTSHIELD_1_SPIM_1_EnableInt
 1063              		.thumb
 1064              		.thumb_func
 1065              		.type	TFTSHIELD_1_SPIM_1_EnableInt, %function
 1066              	TFTSHIELD_1_SPIM_1_EnableInt:
 1067              	.LFB20:
1018:Generated_Source\PSoC5/TFTSHIELD_1_SPIM_1.c **** 
1019:Generated_Source\PSoC5/TFTSHIELD_1_SPIM_1.c **** 
1020:Generated_Source\PSoC5/TFTSHIELD_1_SPIM_1.c **** /* Following functions are for version Compatibility, they are obsolete.
1021:Generated_Source\PSoC5/TFTSHIELD_1_SPIM_1.c **** *  Please do not use it in new projects.
1022:Generated_Source\PSoC5/TFTSHIELD_1_SPIM_1.c **** */
1023:Generated_Source\PSoC5/TFTSHIELD_1_SPIM_1.c **** 
1024:Generated_Source\PSoC5/TFTSHIELD_1_SPIM_1.c **** 
1025:Generated_Source\PSoC5/TFTSHIELD_1_SPIM_1.c **** /*******************************************************************************
1026:Generated_Source\PSoC5/TFTSHIELD_1_SPIM_1.c **** * Function Name: TFTSHIELD_1_SPIM_1_EnableInt
1027:Generated_Source\PSoC5/TFTSHIELD_1_SPIM_1.c **** ********************************************************************************
1028:Generated_Source\PSoC5/TFTSHIELD_1_SPIM_1.c **** *
1029:Generated_Source\PSoC5/TFTSHIELD_1_SPIM_1.c **** * Summary:
1030:Generated_Source\PSoC5/TFTSHIELD_1_SPIM_1.c **** *  Enable internal interrupt generation.
1031:Generated_Source\PSoC5/TFTSHIELD_1_SPIM_1.c **** *
1032:Generated_Source\PSoC5/TFTSHIELD_1_SPIM_1.c **** * Parameters:
1033:Generated_Source\PSoC5/TFTSHIELD_1_SPIM_1.c **** *  None.
1034:Generated_Source\PSoC5/TFTSHIELD_1_SPIM_1.c **** *
1035:Generated_Source\PSoC5/TFTSHIELD_1_SPIM_1.c **** * Return:
1036:Generated_Source\PSoC5/TFTSHIELD_1_SPIM_1.c **** *  None.
1037:Generated_Source\PSoC5/TFTSHIELD_1_SPIM_1.c **** *
1038:Generated_Source\PSoC5/TFTSHIELD_1_SPIM_1.c **** * Theory:
1039:Generated_Source\PSoC5/TFTSHIELD_1_SPIM_1.c **** *  Enable the internal interrupt output -or- the interrupt component itself.
ARM GAS  C:\Users\LilRobby\AppData\Local\Temp\ccgNTm4U.s 			page 38


1040:Generated_Source\PSoC5/TFTSHIELD_1_SPIM_1.c **** *
1041:Generated_Source\PSoC5/TFTSHIELD_1_SPIM_1.c **** *******************************************************************************/
1042:Generated_Source\PSoC5/TFTSHIELD_1_SPIM_1.c **** void TFTSHIELD_1_SPIM_1_EnableInt(void) 
1043:Generated_Source\PSoC5/TFTSHIELD_1_SPIM_1.c **** {
 1068              		.loc 1 1043 0
 1069              		.cfi_startproc
 1070              		@ args = 0, pretend = 0, frame = 0
 1071              		@ frame_needed = 1, uses_anonymous_args = 0
 1072 0000 80B5     		push	{r7, lr}
 1073              		.cfi_def_cfa_offset 8
 1074              		.cfi_offset 7, -8
 1075              		.cfi_offset 14, -4
 1076 0002 00AF     		add	r7, sp, #0
 1077              		.cfi_def_cfa_register 7
1044:Generated_Source\PSoC5/TFTSHIELD_1_SPIM_1.c ****     TFTSHIELD_1_SPIM_1_EnableRxInt();
 1078              		.loc 1 1044 0
 1079 0004 FFF7FEFF 		bl	TFTSHIELD_1_SPIM_1_EnableRxInt
1045:Generated_Source\PSoC5/TFTSHIELD_1_SPIM_1.c ****     TFTSHIELD_1_SPIM_1_EnableTxInt();
 1080              		.loc 1 1045 0
 1081 0008 FFF7FEFF 		bl	TFTSHIELD_1_SPIM_1_EnableTxInt
1046:Generated_Source\PSoC5/TFTSHIELD_1_SPIM_1.c **** }
 1082              		.loc 1 1046 0
 1083 000c 80BD     		pop	{r7, pc}
 1084              		.cfi_endproc
 1085              	.LFE20:
 1086              		.size	TFTSHIELD_1_SPIM_1_EnableInt, .-TFTSHIELD_1_SPIM_1_EnableInt
 1087 000e 00BF     		.section	.text.TFTSHIELD_1_SPIM_1_DisableInt,"ax",%progbits
 1088              		.align	2
 1089              		.global	TFTSHIELD_1_SPIM_1_DisableInt
 1090              		.thumb
 1091              		.thumb_func
 1092              		.type	TFTSHIELD_1_SPIM_1_DisableInt, %function
 1093              	TFTSHIELD_1_SPIM_1_DisableInt:
 1094              	.LFB21:
1047:Generated_Source\PSoC5/TFTSHIELD_1_SPIM_1.c **** 
1048:Generated_Source\PSoC5/TFTSHIELD_1_SPIM_1.c **** 
1049:Generated_Source\PSoC5/TFTSHIELD_1_SPIM_1.c **** /*******************************************************************************
1050:Generated_Source\PSoC5/TFTSHIELD_1_SPIM_1.c **** * Function Name: TFTSHIELD_1_SPIM_1_DisableInt
1051:Generated_Source\PSoC5/TFTSHIELD_1_SPIM_1.c **** ********************************************************************************
1052:Generated_Source\PSoC5/TFTSHIELD_1_SPIM_1.c **** *
1053:Generated_Source\PSoC5/TFTSHIELD_1_SPIM_1.c **** * Summary:
1054:Generated_Source\PSoC5/TFTSHIELD_1_SPIM_1.c **** *  Disable internal interrupt generation.
1055:Generated_Source\PSoC5/TFTSHIELD_1_SPIM_1.c **** *
1056:Generated_Source\PSoC5/TFTSHIELD_1_SPIM_1.c **** * Parameters:
1057:Generated_Source\PSoC5/TFTSHIELD_1_SPIM_1.c **** *  None.
1058:Generated_Source\PSoC5/TFTSHIELD_1_SPIM_1.c **** *
1059:Generated_Source\PSoC5/TFTSHIELD_1_SPIM_1.c **** * Return:
1060:Generated_Source\PSoC5/TFTSHIELD_1_SPIM_1.c **** *  None.
1061:Generated_Source\PSoC5/TFTSHIELD_1_SPIM_1.c **** *
1062:Generated_Source\PSoC5/TFTSHIELD_1_SPIM_1.c **** * Theory:
1063:Generated_Source\PSoC5/TFTSHIELD_1_SPIM_1.c **** *  Disable the internal interrupt output -or- the interrupt component itself.
1064:Generated_Source\PSoC5/TFTSHIELD_1_SPIM_1.c **** *
1065:Generated_Source\PSoC5/TFTSHIELD_1_SPIM_1.c **** *******************************************************************************/
1066:Generated_Source\PSoC5/TFTSHIELD_1_SPIM_1.c **** void TFTSHIELD_1_SPIM_1_DisableInt(void) 
1067:Generated_Source\PSoC5/TFTSHIELD_1_SPIM_1.c **** {
 1095              		.loc 1 1067 0
 1096              		.cfi_startproc
ARM GAS  C:\Users\LilRobby\AppData\Local\Temp\ccgNTm4U.s 			page 39


 1097              		@ args = 0, pretend = 0, frame = 0
 1098              		@ frame_needed = 1, uses_anonymous_args = 0
 1099 0000 80B5     		push	{r7, lr}
 1100              		.cfi_def_cfa_offset 8
 1101              		.cfi_offset 7, -8
 1102              		.cfi_offset 14, -4
 1103 0002 00AF     		add	r7, sp, #0
 1104              		.cfi_def_cfa_register 7
1068:Generated_Source\PSoC5/TFTSHIELD_1_SPIM_1.c ****     TFTSHIELD_1_SPIM_1_DisableTxInt();
 1105              		.loc 1 1068 0
 1106 0004 FFF7FEFF 		bl	TFTSHIELD_1_SPIM_1_DisableTxInt
1069:Generated_Source\PSoC5/TFTSHIELD_1_SPIM_1.c ****     TFTSHIELD_1_SPIM_1_DisableRxInt();
 1107              		.loc 1 1069 0
 1108 0008 FFF7FEFF 		bl	TFTSHIELD_1_SPIM_1_DisableRxInt
1070:Generated_Source\PSoC5/TFTSHIELD_1_SPIM_1.c **** }
 1109              		.loc 1 1070 0
 1110 000c 80BD     		pop	{r7, pc}
 1111              		.cfi_endproc
 1112              	.LFE21:
 1113              		.size	TFTSHIELD_1_SPIM_1_DisableInt, .-TFTSHIELD_1_SPIM_1_DisableInt
 1114 000e 00BF     		.section	.text.TFTSHIELD_1_SPIM_1_SetInterruptMode,"ax",%progbits
 1115              		.align	2
 1116              		.global	TFTSHIELD_1_SPIM_1_SetInterruptMode
 1117              		.thumb
 1118              		.thumb_func
 1119              		.type	TFTSHIELD_1_SPIM_1_SetInterruptMode, %function
 1120              	TFTSHIELD_1_SPIM_1_SetInterruptMode:
 1121              	.LFB22:
1071:Generated_Source\PSoC5/TFTSHIELD_1_SPIM_1.c **** 
1072:Generated_Source\PSoC5/TFTSHIELD_1_SPIM_1.c **** 
1073:Generated_Source\PSoC5/TFTSHIELD_1_SPIM_1.c **** /*******************************************************************************
1074:Generated_Source\PSoC5/TFTSHIELD_1_SPIM_1.c **** * Function Name: TFTSHIELD_1_SPIM_1_SetInterruptMode
1075:Generated_Source\PSoC5/TFTSHIELD_1_SPIM_1.c **** ********************************************************************************
1076:Generated_Source\PSoC5/TFTSHIELD_1_SPIM_1.c **** *
1077:Generated_Source\PSoC5/TFTSHIELD_1_SPIM_1.c **** * Summary:
1078:Generated_Source\PSoC5/TFTSHIELD_1_SPIM_1.c **** *  Configure which status bits trigger an interrupt event.
1079:Generated_Source\PSoC5/TFTSHIELD_1_SPIM_1.c **** *
1080:Generated_Source\PSoC5/TFTSHIELD_1_SPIM_1.c **** * Parameters:
1081:Generated_Source\PSoC5/TFTSHIELD_1_SPIM_1.c **** *  intSrc: An or'd combination of the desired status bit masks (defined in the
1082:Generated_Source\PSoC5/TFTSHIELD_1_SPIM_1.c **** *  header file).
1083:Generated_Source\PSoC5/TFTSHIELD_1_SPIM_1.c **** *
1084:Generated_Source\PSoC5/TFTSHIELD_1_SPIM_1.c **** * Return:
1085:Generated_Source\PSoC5/TFTSHIELD_1_SPIM_1.c **** *  None.
1086:Generated_Source\PSoC5/TFTSHIELD_1_SPIM_1.c **** *
1087:Generated_Source\PSoC5/TFTSHIELD_1_SPIM_1.c **** * Theory:
1088:Generated_Source\PSoC5/TFTSHIELD_1_SPIM_1.c **** *  Enables the output of specific status bits to the interrupt controller.
1089:Generated_Source\PSoC5/TFTSHIELD_1_SPIM_1.c **** *
1090:Generated_Source\PSoC5/TFTSHIELD_1_SPIM_1.c **** *******************************************************************************/
1091:Generated_Source\PSoC5/TFTSHIELD_1_SPIM_1.c **** void TFTSHIELD_1_SPIM_1_SetInterruptMode(uint8 intSrc) 
1092:Generated_Source\PSoC5/TFTSHIELD_1_SPIM_1.c **** {
 1122              		.loc 1 1092 0
 1123              		.cfi_startproc
 1124              		@ args = 0, pretend = 0, frame = 8
 1125              		@ frame_needed = 1, uses_anonymous_args = 0
 1126              		@ link register save eliminated.
 1127 0000 80B4     		push	{r7}
 1128              		.cfi_def_cfa_offset 4
ARM GAS  C:\Users\LilRobby\AppData\Local\Temp\ccgNTm4U.s 			page 40


 1129              		.cfi_offset 7, -4
 1130 0002 83B0     		sub	sp, sp, #12
 1131              		.cfi_def_cfa_offset 16
 1132 0004 00AF     		add	r7, sp, #0
 1133              		.cfi_def_cfa_register 7
 1134 0006 0346     		mov	r3, r0
 1135 0008 FB71     		strb	r3, [r7, #7]
1093:Generated_Source\PSoC5/TFTSHIELD_1_SPIM_1.c ****     TFTSHIELD_1_SPIM_1_TX_STATUS_MASK_REG  = (intSrc & ((uint8) ~TFTSHIELD_1_SPIM_1_STS_SPI_IDLE));
 1136              		.loc 1 1093 0
 1137 000a 074A     		ldr	r2, .L80
 1138 000c FB79     		ldrb	r3, [r7, #7]
 1139 000e 23F01003 		bic	r3, r3, #16
 1140 0012 DBB2     		uxtb	r3, r3
 1141 0014 1370     		strb	r3, [r2]
1094:Generated_Source\PSoC5/TFTSHIELD_1_SPIM_1.c ****     TFTSHIELD_1_SPIM_1_RX_STATUS_MASK_REG  =  intSrc;
 1142              		.loc 1 1094 0
 1143 0016 054A     		ldr	r2, .L80+4
 1144 0018 FB79     		ldrb	r3, [r7, #7]
 1145 001a 1370     		strb	r3, [r2]
1095:Generated_Source\PSoC5/TFTSHIELD_1_SPIM_1.c **** }
 1146              		.loc 1 1095 0
 1147 001c 0C37     		adds	r7, r7, #12
 1148              		.cfi_def_cfa_offset 4
 1149 001e BD46     		mov	sp, r7
 1150              		.cfi_def_cfa_register 13
 1151              		@ sp needed
 1152 0020 5DF8047B 		ldr	r7, [sp], #4
 1153              		.cfi_restore 7
 1154              		.cfi_def_cfa_offset 0
 1155 0024 7047     		bx	lr
 1156              	.L81:
 1157 0026 00BF     		.align	2
 1158              	.L80:
 1159 0028 8B640040 		.word	1073767563
 1160 002c 8A640040 		.word	1073767562
 1161              		.cfi_endproc
 1162              	.LFE22:
 1163              		.size	TFTSHIELD_1_SPIM_1_SetInterruptMode, .-TFTSHIELD_1_SPIM_1_SetInterruptMode
 1164              		.section	.text.TFTSHIELD_1_SPIM_1_ReadStatus,"ax",%progbits
 1165              		.align	2
 1166              		.global	TFTSHIELD_1_SPIM_1_ReadStatus
 1167              		.thumb
 1168              		.thumb_func
 1169              		.type	TFTSHIELD_1_SPIM_1_ReadStatus, %function
 1170              	TFTSHIELD_1_SPIM_1_ReadStatus:
 1171              	.LFB23:
1096:Generated_Source\PSoC5/TFTSHIELD_1_SPIM_1.c **** 
1097:Generated_Source\PSoC5/TFTSHIELD_1_SPIM_1.c **** 
1098:Generated_Source\PSoC5/TFTSHIELD_1_SPIM_1.c **** /*******************************************************************************
1099:Generated_Source\PSoC5/TFTSHIELD_1_SPIM_1.c **** * Function Name: TFTSHIELD_1_SPIM_1_ReadStatus
1100:Generated_Source\PSoC5/TFTSHIELD_1_SPIM_1.c **** ********************************************************************************
1101:Generated_Source\PSoC5/TFTSHIELD_1_SPIM_1.c **** *
1102:Generated_Source\PSoC5/TFTSHIELD_1_SPIM_1.c **** * Summary:
1103:Generated_Source\PSoC5/TFTSHIELD_1_SPIM_1.c **** *  Read the status register for the component.
1104:Generated_Source\PSoC5/TFTSHIELD_1_SPIM_1.c **** *
1105:Generated_Source\PSoC5/TFTSHIELD_1_SPIM_1.c **** * Parameters:
1106:Generated_Source\PSoC5/TFTSHIELD_1_SPIM_1.c **** *  None.
ARM GAS  C:\Users\LilRobby\AppData\Local\Temp\ccgNTm4U.s 			page 41


1107:Generated_Source\PSoC5/TFTSHIELD_1_SPIM_1.c **** *
1108:Generated_Source\PSoC5/TFTSHIELD_1_SPIM_1.c **** * Return:
1109:Generated_Source\PSoC5/TFTSHIELD_1_SPIM_1.c **** *  Contents of the status register.
1110:Generated_Source\PSoC5/TFTSHIELD_1_SPIM_1.c **** *
1111:Generated_Source\PSoC5/TFTSHIELD_1_SPIM_1.c **** * Global variables:
1112:Generated_Source\PSoC5/TFTSHIELD_1_SPIM_1.c **** *  TFTSHIELD_1_SPIM_1_swStatus - used to store in software status register,
1113:Generated_Source\PSoC5/TFTSHIELD_1_SPIM_1.c **** *  modified every function call - resets to zero.
1114:Generated_Source\PSoC5/TFTSHIELD_1_SPIM_1.c **** *
1115:Generated_Source\PSoC5/TFTSHIELD_1_SPIM_1.c **** * Theory:
1116:Generated_Source\PSoC5/TFTSHIELD_1_SPIM_1.c **** *  Allows the user and the API to read the status register for error detection
1117:Generated_Source\PSoC5/TFTSHIELD_1_SPIM_1.c **** *  and flow control.
1118:Generated_Source\PSoC5/TFTSHIELD_1_SPIM_1.c **** *
1119:Generated_Source\PSoC5/TFTSHIELD_1_SPIM_1.c **** * Side Effects:
1120:Generated_Source\PSoC5/TFTSHIELD_1_SPIM_1.c **** *  Clear status register of the component.
1121:Generated_Source\PSoC5/TFTSHIELD_1_SPIM_1.c **** *
1122:Generated_Source\PSoC5/TFTSHIELD_1_SPIM_1.c **** * Reentrant:
1123:Generated_Source\PSoC5/TFTSHIELD_1_SPIM_1.c **** *  No.
1124:Generated_Source\PSoC5/TFTSHIELD_1_SPIM_1.c **** *
1125:Generated_Source\PSoC5/TFTSHIELD_1_SPIM_1.c **** *******************************************************************************/
1126:Generated_Source\PSoC5/TFTSHIELD_1_SPIM_1.c **** uint8 TFTSHIELD_1_SPIM_1_ReadStatus(void) 
1127:Generated_Source\PSoC5/TFTSHIELD_1_SPIM_1.c **** {
 1172              		.loc 1 1127 0
 1173              		.cfi_startproc
 1174              		@ args = 0, pretend = 0, frame = 8
 1175              		@ frame_needed = 1, uses_anonymous_args = 0
 1176              		@ link register save eliminated.
 1177 0000 80B4     		push	{r7}
 1178              		.cfi_def_cfa_offset 4
 1179              		.cfi_offset 7, -4
 1180 0002 83B0     		sub	sp, sp, #12
 1181              		.cfi_def_cfa_offset 16
 1182 0004 00AF     		add	r7, sp, #0
 1183              		.cfi_def_cfa_register 7
1128:Generated_Source\PSoC5/TFTSHIELD_1_SPIM_1.c ****     uint8 tmpStatus;
1129:Generated_Source\PSoC5/TFTSHIELD_1_SPIM_1.c **** 
1130:Generated_Source\PSoC5/TFTSHIELD_1_SPIM_1.c ****     #if(TFTSHIELD_1_SPIM_1_TX_SOFTWARE_BUF_ENABLED || TFTSHIELD_1_SPIM_1_RX_SOFTWARE_BUF_ENABLED)
1131:Generated_Source\PSoC5/TFTSHIELD_1_SPIM_1.c **** 
1132:Generated_Source\PSoC5/TFTSHIELD_1_SPIM_1.c ****         TFTSHIELD_1_SPIM_1_DisableInt();
1133:Generated_Source\PSoC5/TFTSHIELD_1_SPIM_1.c **** 
1134:Generated_Source\PSoC5/TFTSHIELD_1_SPIM_1.c ****         tmpStatus  = TFTSHIELD_1_SPIM_1_GET_STATUS_RX(TFTSHIELD_1_SPIM_1_swStatusRx);
1135:Generated_Source\PSoC5/TFTSHIELD_1_SPIM_1.c ****         tmpStatus |= TFTSHIELD_1_SPIM_1_GET_STATUS_TX(TFTSHIELD_1_SPIM_1_swStatusTx);
1136:Generated_Source\PSoC5/TFTSHIELD_1_SPIM_1.c ****         tmpStatus &= ((uint8) ~TFTSHIELD_1_SPIM_1_STS_SPI_IDLE);
1137:Generated_Source\PSoC5/TFTSHIELD_1_SPIM_1.c **** 
1138:Generated_Source\PSoC5/TFTSHIELD_1_SPIM_1.c ****         TFTSHIELD_1_SPIM_1_swStatusTx = 0u;
1139:Generated_Source\PSoC5/TFTSHIELD_1_SPIM_1.c ****         TFTSHIELD_1_SPIM_1_swStatusRx = 0u;
1140:Generated_Source\PSoC5/TFTSHIELD_1_SPIM_1.c **** 
1141:Generated_Source\PSoC5/TFTSHIELD_1_SPIM_1.c ****         TFTSHIELD_1_SPIM_1_EnableInt();
1142:Generated_Source\PSoC5/TFTSHIELD_1_SPIM_1.c **** 
1143:Generated_Source\PSoC5/TFTSHIELD_1_SPIM_1.c ****     #else
1144:Generated_Source\PSoC5/TFTSHIELD_1_SPIM_1.c **** 
1145:Generated_Source\PSoC5/TFTSHIELD_1_SPIM_1.c ****         tmpStatus  = TFTSHIELD_1_SPIM_1_RX_STATUS_REG;
 1184              		.loc 1 1145 0
 1185 0006 0A4B     		ldr	r3, .L84
 1186 0008 1B78     		ldrb	r3, [r3]
 1187 000a FB71     		strb	r3, [r7, #7]
1146:Generated_Source\PSoC5/TFTSHIELD_1_SPIM_1.c ****         tmpStatus |= TFTSHIELD_1_SPIM_1_TX_STATUS_REG;
 1188              		.loc 1 1146 0
ARM GAS  C:\Users\LilRobby\AppData\Local\Temp\ccgNTm4U.s 			page 42


 1189 000c 094B     		ldr	r3, .L84+4
 1190 000e 1B78     		ldrb	r3, [r3]
 1191 0010 DAB2     		uxtb	r2, r3
 1192 0012 FB79     		ldrb	r3, [r7, #7]
 1193 0014 1343     		orrs	r3, r3, r2
 1194 0016 FB71     		strb	r3, [r7, #7]
1147:Generated_Source\PSoC5/TFTSHIELD_1_SPIM_1.c ****         tmpStatus &= ((uint8) ~TFTSHIELD_1_SPIM_1_STS_SPI_IDLE);
 1195              		.loc 1 1147 0
 1196 0018 FB79     		ldrb	r3, [r7, #7]
 1197 001a 23F01003 		bic	r3, r3, #16
 1198 001e FB71     		strb	r3, [r7, #7]
1148:Generated_Source\PSoC5/TFTSHIELD_1_SPIM_1.c **** 
1149:Generated_Source\PSoC5/TFTSHIELD_1_SPIM_1.c ****     #endif /* (TFTSHIELD_1_SPIM_1_TX_SOFTWARE_BUF_ENABLED || TFTSHIELD_1_SPIM_1_RX_SOFTWARE_BUF_ENA
1150:Generated_Source\PSoC5/TFTSHIELD_1_SPIM_1.c **** 
1151:Generated_Source\PSoC5/TFTSHIELD_1_SPIM_1.c ****     return(tmpStatus);
 1199              		.loc 1 1151 0
 1200 0020 FB79     		ldrb	r3, [r7, #7]	@ zero_extendqisi2
1152:Generated_Source\PSoC5/TFTSHIELD_1_SPIM_1.c **** }
 1201              		.loc 1 1152 0
 1202 0022 1846     		mov	r0, r3
 1203 0024 0C37     		adds	r7, r7, #12
 1204              		.cfi_def_cfa_offset 4
 1205 0026 BD46     		mov	sp, r7
 1206              		.cfi_def_cfa_register 13
 1207              		@ sp needed
 1208 0028 5DF8047B 		ldr	r7, [sp], #4
 1209              		.cfi_restore 7
 1210              		.cfi_def_cfa_offset 0
 1211 002c 7047     		bx	lr
 1212              	.L85:
 1213 002e 00BF     		.align	2
 1214              	.L84:
 1215 0030 6A640040 		.word	1073767530
 1216 0034 6B640040 		.word	1073767531
 1217              		.cfi_endproc
 1218              	.LFE23:
 1219              		.size	TFTSHIELD_1_SPIM_1_ReadStatus, .-TFTSHIELD_1_SPIM_1_ReadStatus
 1220              		.text
 1221              	.Letext0:
 1222              		.file 2 "Generated_Source\\PSoC5\\cytypes.h"