ARM GAS  C:\Users\Robert\AppData\Local\Temp\cc5lrpol.s 			page 1


   1              		.syntax unified
   2              		.cpu cortex-m3
   3              		.fpu softvfp
   4              		.eabi_attribute 20, 1
   5              		.eabi_attribute 21, 1
   6              		.eabi_attribute 23, 3
   7              		.eabi_attribute 24, 1
   8              		.eabi_attribute 25, 1
   9              		.eabi_attribute 26, 1
  10              		.eabi_attribute 30, 6
  11              		.eabi_attribute 34, 1
  12              		.eabi_attribute 18, 4
  13              		.thumb
  14              		.file	"main.c"
  15              		.text
  16              	.Ltext0:
  17              		.cfi_sections	.debug_frame
  18              		.comm	cursor_x,2,2
  19              		.comm	cursor_y,2,2
  20              		.comm	textcolor,2,2
  21              		.comm	textbgcolor,2,2
  22              		.comm	textsize,1,1
  23              		.comm	rotation,1,1
  24              		.comm	wrap,1,1
  25              		.comm	_width,4,4
  26              		.comm	_height,4,4
  27              		.comm	oldcolor,4,4
  28              		.comm	currentcolor,4,4
  29              		.section	.text.main,"ax",%progbits
  30              		.align	2
  31              		.global	main
  32              		.thumb
  33              		.thumb_func
  34              		.type	main, %function
  35              	main:
  36              	.LFB56:
  37              		.file 1 ".\\main.c"
   1:.\main.c      **** /*******************************************************************************
   2:.\main.c      **** * \file main.c
   3:.\main.c      **** * \brief This file is used to demonstrate the TFTSHIELD API.
   4:.\main.c      **** *
   5:.\main.c      **** * Version 1.0
   6:.\main.c      **** *
   7:.\main.c      **** * \author Robert Barron
   8:.\main.c      **** *
   9:.\main.c      **** * \bug 
  10:.\main.c      **** *******************************************************************************/
  11:.\main.c      **** #include <project.h>
  12:.\main.c      **** #include "stdio.h"
  13:.\main.c      **** 
  14:.\main.c      **** // This is calibration data for the raw touch data to the screen coordinates
  15:.\main.c      **** #define TS_MINX 150
  16:.\main.c      **** #define TS_MINY 130
  17:.\main.c      **** #define TS_MAXX 3800
  18:.\main.c      **** #define TS_MAXY 4000
  19:.\main.c      **** // Size of the color selection boxes and the paintbrush size
  20:.\main.c      **** #define BOXSIZE 40
ARM GAS  C:\Users\Robert\AppData\Local\Temp\cc5lrpol.s 			page 2


  21:.\main.c      **** #define PENRADIUS 3
  22:.\main.c      **** int oldcolor, currentcolor;
  23:.\main.c      **** 
  24:.\main.c      **** long mapCoor(long x, long in_min, long in_max, long out_min, long out_max);
  25:.\main.c      **** 
  26:.\main.c      **** 
  27:.\main.c      **** int main()
  28:.\main.c      **** {   
  38              		.loc 1 28 0
  39              		.cfi_startproc
  40              		@ args = 0, pretend = 0, frame = 64
  41              		@ frame_needed = 1, uses_anonymous_args = 0
  42 0000 80B5     		push	{r7, lr}
  43              	.LCFI0:
  44              		.cfi_def_cfa_offset 8
  45              		.cfi_offset 7, -8
  46              		.cfi_offset 14, -4
  47 0002 92B0     		sub	sp, sp, #72
  48              	.LCFI1:
  49              		.cfi_def_cfa_offset 80
  50 0004 02AF     		add	r7, sp, #8
  51              	.LCFI2:
  52              		.cfi_def_cfa 7, 72
  29:.\main.c      ****     //initializes tft
  30:.\main.c      ****     CyDelay(1000);
  53              		.loc 1 30 0
  54 0006 4FF47A70 		mov	r0, #1000
  55 000a FFF7FEFF 		bl	CyDelay
  31:.\main.c      ****     Clock_1_SetDividerValue(24);
  56              		.loc 1 31 0
  57 000e 4FF01700 		mov	r0, #23
  58 0012 4FF00101 		mov	r1, #1
  59 0016 FFF7FEFF 		bl	Clock_1_SetDividerRegister
  32:.\main.c      ****     CyDelay(10);
  60              		.loc 1 32 0
  61 001a 4FF00A00 		mov	r0, #10
  62 001e FFF7FEFF 		bl	CyDelay
  33:.\main.c      ****     //TFTSHIELD_1_StartTouch();
  34:.\main.c      ****     bool touch_en = 0;
  63              		.loc 1 34 0
  64 0022 4FF00003 		mov	r3, #0
  65 0026 87F83F30 		strb	r3, [r7, #63]
  35:.\main.c      ****     
  36:.\main.c      ****     if(TFTSHIELD_1_StartTouch())
  66              		.loc 1 36 0
  67 002a FFF7FEFF 		bl	TFTSHIELD_1_StartTouch
  68 002e 0346     		mov	r3, r0
  69 0030 002B     		cmp	r3, #0
  70 0032 03D0     		beq	.L2
  37:.\main.c      ****     {
  38:.\main.c      ****        touch_en = 1;
  71              		.loc 1 38 0
  72 0034 4FF00103 		mov	r3, #1
  73 0038 87F83F30 		strb	r3, [r7, #63]
  74              	.L2:
  39:.\main.c      ****     }
  40:.\main.c      ****     
ARM GAS  C:\Users\Robert\AppData\Local\Temp\cc5lrpol.s 			page 3


  41:.\main.c      ****     Clock_1_SetDividerValue(1);
  75              		.loc 1 41 0
  76 003c 4FF00000 		mov	r0, #0
  77 0040 4FF00101 		mov	r1, #1
  78 0044 FFF7FEFF 		bl	Clock_1_SetDividerRegister
  42:.\main.c      ****     CyDelay(10);
  79              		.loc 1 42 0
  80 0048 4FF00A00 		mov	r0, #10
  81 004c FFF7FEFF 		bl	CyDelay
  43:.\main.c      ****     TFTSHIELD_1_Start();
  82              		.loc 1 43 0
  83 0050 FFF7FEFF 		bl	TFTSHIELD_1_Start
  44:.\main.c      ****     
  45:.\main.c      ****     TFTSHIELD_1_FillScreen(BLACK);
  84              		.loc 1 45 0
  85 0054 4FF00000 		mov	r0, #0
  86 0058 FFF7FEFF 		bl	TFTSHIELD_1_FillScreen
  46:.\main.c      ****     //start at 0,0 for text
  47:.\main.c      ****     TFTSHIELD_1_SetCursor(0,0);
  87              		.loc 1 47 0
  88 005c 4FF00000 		mov	r0, #0
  89 0060 4FF00001 		mov	r1, #0
  90 0064 FFF7FEFF 		bl	TFTSHIELD_1_SetCursor
  48:.\main.c      ****     TFTSHIELD_1_SetTextColor(WHITE);  
  91              		.loc 1 48 0
  92 0068 4FF6FF70 		movw	r0, #65535
  93 006c FFF7FEFF 		bl	TFTSHIELD_1_SetTextColor
  49:.\main.c      ****     TFTSHIELD_1_SetTextSize(2);
  94              		.loc 1 49 0
  95 0070 4FF00200 		mov	r0, #2
  96 0074 FFF7FEFF 		bl	TFTSHIELD_1_SetTextSize
  50:.\main.c      ****     
  51:.\main.c      ****     //landscape orientation
  52:.\main.c      ****     //TFTSHIELD_1_SetRotation(1);
  53:.\main.c      ****     //TFTSHIELD_1_PrintString("tft lcd screen with word wrap working blah blah blah");
  54:.\main.c      ****     
  55:.\main.c      ****     //TFTSHIELD_1_DrawLine(50, 150, 100, 150, GREEN);
  56:.\main.c      ****    // TFTSHIELD_1_DrawLine(35, 100, 35 , 200, BLUE);
  57:.\main.c      ****     //TFTSHIELD_1_FillCircle(100,100,10,MAGENTA);
  58:.\main.c      ****     
  59:.\main.c      ****     //TFTSHIELD_1_FillRect(150, 150, 75,75, YELLOW);
  60:.\main.c      ****     if(touch_en)
  61:.\main.c      ****     {
  62:.\main.c      ****         //TFTSHIELD_1_PrintString("GO1");
  63:.\main.c      ****     }
  64:.\main.c      ****     //initializes touchscreen
  65:.\main.c      ****     //clock must be set to 1MHZ when polling the touchscreen..
  66:.\main.c      ****     Clock_1_SetDividerValue(24);
  97              		.loc 1 66 0
  98 0078 4FF01700 		mov	r0, #23
  99 007c 4FF00101 		mov	r1, #1
 100 0080 FFF7FEFF 		bl	Clock_1_SetDividerRegister
  67:.\main.c      ****     CyDelay(10);
 101              		.loc 1 67 0
 102 0084 4FF00A00 		mov	r0, #10
 103 0088 FFF7FEFF 		bl	CyDelay
  68:.\main.c      ****     
ARM GAS  C:\Users\Robert\AppData\Local\Temp\cc5lrpol.s 			page 4


  69:.\main.c      ****     //int touchon = 0;
  70:.\main.c      ****     if(TFTSHIELD_1_StartTouch())
 104              		.loc 1 70 0
 105 008c FFF7FEFF 		bl	TFTSHIELD_1_StartTouch
  71:.\main.c      ****     {
  72:.\main.c      ****          //touchon = 1;  
  73:.\main.c      ****         /*Clock_1_SetDividerValue(1);
  74:.\main.c      ****         CyDelay(1);
  75:.\main.c      ****         TFTSHIELD_1_PrintString("     GO2");
  76:.\main.c      ****         Clock_1_SetDividerValue(24);*/
  77:.\main.c      ****     }
  78:.\main.c      ****     
  79:.\main.c      ****     Clock_1_SetDividerValue(1);
 106              		.loc 1 79 0
 107 0090 4FF00000 		mov	r0, #0
 108 0094 4FF00101 		mov	r1, #1
 109 0098 FFF7FEFF 		bl	Clock_1_SetDividerRegister
  80:.\main.c      ****     CyDelay(10);
 110              		.loc 1 80 0
 111 009c 4FF00A00 		mov	r0, #10
 112 00a0 FFF7FEFF 		bl	CyDelay
  81:.\main.c      ****    // make the color selection boxes
  82:.\main.c      ****     TFTSHIELD_1_FillRect(0, 0, BOXSIZE, BOXSIZE,RED);
 113              		.loc 1 82 0
 114 00a4 4FF47843 		mov	r3, #63488
 115 00a8 0093     		str	r3, [sp, #0]
 116 00aa 4FF00000 		mov	r0, #0
 117 00ae 4FF00001 		mov	r1, #0
 118 00b2 4FF02802 		mov	r2, #40
 119 00b6 4FF02803 		mov	r3, #40
 120 00ba FFF7FEFF 		bl	TFTSHIELD_1_FillRect
  83:.\main.c      ****     TFTSHIELD_1_FillRect(BOXSIZE, 0, BOXSIZE, BOXSIZE, YELLOW);
 121              		.loc 1 83 0
 122 00be 4FF6E073 		movw	r3, #65504
 123 00c2 0093     		str	r3, [sp, #0]
 124 00c4 4FF02800 		mov	r0, #40
 125 00c8 4FF00001 		mov	r1, #0
 126 00cc 4FF02802 		mov	r2, #40
 127 00d0 4FF02803 		mov	r3, #40
 128 00d4 FFF7FEFF 		bl	TFTSHIELD_1_FillRect
  84:.\main.c      ****     TFTSHIELD_1_FillRect(BOXSIZE*2, 0, BOXSIZE, BOXSIZE, GREEN);
 129              		.loc 1 84 0
 130 00d8 4FF4FC63 		mov	r3, #2016
 131 00dc 0093     		str	r3, [sp, #0]
 132 00de 4FF05000 		mov	r0, #80
 133 00e2 4FF00001 		mov	r1, #0
 134 00e6 4FF02802 		mov	r2, #40
 135 00ea 4FF02803 		mov	r3, #40
 136 00ee FFF7FEFF 		bl	TFTSHIELD_1_FillRect
  85:.\main.c      ****     TFTSHIELD_1_FillRect(BOXSIZE*3, 0, BOXSIZE, BOXSIZE, CYAN);
 137              		.loc 1 85 0
 138 00f2 40F2FF73 		movw	r3, #2047
 139 00f6 0093     		str	r3, [sp, #0]
 140 00f8 4FF07800 		mov	r0, #120
 141 00fc 4FF00001 		mov	r1, #0
 142 0100 4FF02802 		mov	r2, #40
 143 0104 4FF02803 		mov	r3, #40
ARM GAS  C:\Users\Robert\AppData\Local\Temp\cc5lrpol.s 			page 5


 144 0108 FFF7FEFF 		bl	TFTSHIELD_1_FillRect
  86:.\main.c      ****     TFTSHIELD_1_FillRect(BOXSIZE*4, 0, BOXSIZE, BOXSIZE, BLUE);
 145              		.loc 1 86 0
 146 010c 4FF01F03 		mov	r3, #31
 147 0110 0093     		str	r3, [sp, #0]
 148 0112 4FF0A000 		mov	r0, #160
 149 0116 4FF00001 		mov	r1, #0
 150 011a 4FF02802 		mov	r2, #40
 151 011e 4FF02803 		mov	r3, #40
 152 0122 FFF7FEFF 		bl	TFTSHIELD_1_FillRect
  87:.\main.c      ****     TFTSHIELD_1_FillRect(BOXSIZE*5, 0, BOXSIZE, BOXSIZE, MAGENTA);
 153              		.loc 1 87 0
 154 0126 4FF61F03 		movw	r3, #63519
 155 012a 0093     		str	r3, [sp, #0]
 156 012c 4FF0C800 		mov	r0, #200
 157 0130 4FF00001 		mov	r1, #0
 158 0134 4FF02802 		mov	r2, #40
 159 0138 4FF02803 		mov	r3, #40
 160 013c FFF7FEFF 		bl	TFTSHIELD_1_FillRect
  88:.\main.c      ****  
  89:.\main.c      ****   // select the current color 'red'
  90:.\main.c      ****   TFTSHIELD_1_FillRect(0, 0, BOXSIZE, BOXSIZE,WHITE);
 161              		.loc 1 90 0
 162 0140 4FF6FF73 		movw	r3, #65535
 163 0144 0093     		str	r3, [sp, #0]
 164 0146 4FF00000 		mov	r0, #0
 165 014a 4FF00001 		mov	r1, #0
 166 014e 4FF02802 		mov	r2, #40
 167 0152 4FF02803 		mov	r3, #40
 168 0156 FFF7FEFF 		bl	TFTSHIELD_1_FillRect
  91:.\main.c      ****   currentcolor = RED;
 169              		.loc 1 91 0
 170 015a 40F20003 		movw	r3, #:lower16:currentcolor
 171 015e C0F20003 		movt	r3, #:upper16:currentcolor
 172 0162 4FF47842 		mov	r2, #63488
 173 0166 1A60     		str	r2, [r3, #0]
 174 0168 00E0     		b	.L16
 175              	.L17:
  92:.\main.c      ****     
  93:.\main.c      ****     for(;;)
  94:.\main.c      ****     {
  95:.\main.c      ****         Clock_1_SetDividerValue(24);
  96:.\main.c      ****         uint16_t x, y;
  97:.\main.c      ****         uint8_t z, buf;
  98:.\main.c      ****         char buffer[50];
  99:.\main.c      ****         //Clock_1_SetDividerValue(24);
 100:.\main.c      ****         CyDelay(1);
 101:.\main.c      ****         if(TFTSHIELD_1_Touched())
 102:.\main.c      ****         {
 103:.\main.c      ****            
 104:.\main.c      ****             TFTSHIELD_1_ReadData(&x,&y,&z);
 105:.\main.c      ****             x = mapCoor(x, TS_MINX, TS_MAXX, 0, 240);
 106:.\main.c      ****             y = mapCoor(y, TS_MINY, TS_MAXY, 0, 320);    
 107:.\main.c      ****            
 108:.\main.c      ****             Clock_1_SetDividerValue(1);
 109:.\main.c      ****             if (y < BOXSIZE) {
 110:.\main.c      ****                  oldcolor = currentcolor;
ARM GAS  C:\Users\Robert\AppData\Local\Temp\cc5lrpol.s 			page 6


 111:.\main.c      **** 
 112:.\main.c      ****                  if (x < BOXSIZE) 
 113:.\main.c      ****                  { 
 114:.\main.c      ****                    currentcolor = RED; 
 115:.\main.c      ****                    TFTSHIELD_1_DrawRect(0, 0, BOXSIZE, BOXSIZE, WHITE);
 116:.\main.c      ****                  } else if (x < BOXSIZE*2) {
 117:.\main.c      ****                    currentcolor = YELLOW;
 118:.\main.c      ****                    TFTSHIELD_1_DrawRect(BOXSIZE, 0, BOXSIZE, BOXSIZE, WHITE);
 119:.\main.c      ****                  } else if (x < BOXSIZE*3) {
 120:.\main.c      ****                    currentcolor = GREEN;
 121:.\main.c      ****                    TFTSHIELD_1_DrawRect(BOXSIZE*2, 0, BOXSIZE, BOXSIZE, WHITE);
 122:.\main.c      ****                  } else if (x < BOXSIZE*4) {
 123:.\main.c      ****                    currentcolor = CYAN;
 124:.\main.c      ****                    TFTSHIELD_1_DrawRect(BOXSIZE*3, 0, BOXSIZE, BOXSIZE, WHITE);
 125:.\main.c      ****                  } else if (x < BOXSIZE*5) {
 126:.\main.c      ****                    currentcolor = BLUE;
 127:.\main.c      ****                    TFTSHIELD_1_DrawRect(BOXSIZE*4, 0, BOXSIZE, BOXSIZE,WHITE);
 128:.\main.c      ****                  } else if (x < BOXSIZE*6) {
 129:.\main.c      ****                    currentcolor = MAGENTA;
 130:.\main.c      ****                    TFTSHIELD_1_DrawRect(BOXSIZE*5, 0, BOXSIZE, BOXSIZE, WHITE);
 131:.\main.c      ****                  }
 132:.\main.c      **** 
 133:.\main.c      ****                  if (oldcolor != currentcolor) 
 134:.\main.c      ****                 {
 135:.\main.c      ****                     if (oldcolor == RED) 
 136:.\main.c      ****                       TFTSHIELD_1_FillRect(0, 0, BOXSIZE, BOXSIZE, RED);
 137:.\main.c      ****                     if (oldcolor == YELLOW) 
 138:.\main.c      ****                       TFTSHIELD_1_FillRect(BOXSIZE, 0, BOXSIZE, BOXSIZE, YELLOW);
 139:.\main.c      ****                     if (oldcolor == GREEN) 
 140:.\main.c      ****                       TFTSHIELD_1_FillRect(BOXSIZE*2, 0, BOXSIZE, BOXSIZE, GREEN);
 141:.\main.c      ****                     if (oldcolor == CYAN) 
 142:.\main.c      ****                       TFTSHIELD_1_FillRect(BOXSIZE*3, 0, BOXSIZE, BOXSIZE, CYAN);
 143:.\main.c      ****                     if (oldcolor == BLUE) 
 144:.\main.c      ****                       TFTSHIELD_1_FillRect(BOXSIZE*4, 0, BOXSIZE, BOXSIZE, BLUE);
 145:.\main.c      ****                     if (oldcolor == MAGENTA) 
 146:.\main.c      ****                       TFTSHIELD_1_FillRect(BOXSIZE*5, 0, BOXSIZE, BOXSIZE, MAGENTA);
 147:.\main.c      ****                 }
 148:.\main.c      ****               }
 149:.\main.c      ****             if (((y-PENRADIUS) > BOXSIZE) && ((y+PENRADIUS) < 320))
 150:.\main.c      ****             {
 151:.\main.c      ****                 TFTSHIELD_1_FillCircle(x, y, PENRADIUS, currentcolor);
 152:.\main.c      ****             }
 153:.\main.c      ****         
 154:.\main.c      ****         }   
 155:.\main.c      ****     }
 176              		.loc 1 155 0
 177 016a 00BF     		nop
 178              	.L16:
 179              	.LBB2:
  95:.\main.c      ****         Clock_1_SetDividerValue(24);
 180              		.loc 1 95 0
 181 016c 4FF01700 		mov	r0, #23
 182 0170 4FF00101 		mov	r1, #1
 183 0174 FFF7FEFF 		bl	Clock_1_SetDividerRegister
 100:.\main.c      ****         CyDelay(1);
 184              		.loc 1 100 0
 185 0178 4FF00100 		mov	r0, #1
ARM GAS  C:\Users\Robert\AppData\Local\Temp\cc5lrpol.s 			page 7


 186 017c FFF7FEFF 		bl	CyDelay
 101:.\main.c      ****         if(TFTSHIELD_1_Touched())
 187              		.loc 1 101 0
 188 0180 FFF7FEFF 		bl	TFTSHIELD_1_Touched
 189 0184 0346     		mov	r3, r0
 190 0186 002B     		cmp	r3, #0
 191 0188 EFD0     		beq	.L17
 104:.\main.c      ****             TFTSHIELD_1_ReadData(&x,&y,&z);
 192              		.loc 1 104 0
 193 018a 07F13C01 		add	r1, r7, #60
 194 018e 07F13A02 		add	r2, r7, #58
 195 0192 07F13903 		add	r3, r7, #57
 196 0196 0846     		mov	r0, r1
 197 0198 1146     		mov	r1, r2
 198 019a 1A46     		mov	r2, r3
 199 019c FFF7FEFF 		bl	TFTSHIELD_1_ReadData
 105:.\main.c      ****             x = mapCoor(x, TS_MINX, TS_MAXX, 0, 240);
 200              		.loc 1 105 0
 201 01a0 BB8F     		ldrh	r3, [r7, #60]
 202 01a2 4FF0F002 		mov	r2, #240
 203 01a6 0092     		str	r2, [sp, #0]
 204 01a8 1846     		mov	r0, r3
 205 01aa 4FF09601 		mov	r1, #150
 206 01ae 40F6D862 		movw	r2, #3800
 207 01b2 4FF00003 		mov	r3, #0
 208 01b6 FFF7FEFF 		bl	mapCoor
 209 01ba 0346     		mov	r3, r0
 210 01bc 9BB2     		uxth	r3, r3
 211 01be BB87     		strh	r3, [r7, #60]	@ movhi
 106:.\main.c      ****             y = mapCoor(y, TS_MINY, TS_MAXY, 0, 320);    
 212              		.loc 1 106 0
 213 01c0 7B8F     		ldrh	r3, [r7, #58]
 214 01c2 4FF4A072 		mov	r2, #320
 215 01c6 0092     		str	r2, [sp, #0]
 216 01c8 1846     		mov	r0, r3
 217 01ca 4FF08201 		mov	r1, #130
 218 01ce 4FF47A62 		mov	r2, #4000
 219 01d2 4FF00003 		mov	r3, #0
 220 01d6 FFF7FEFF 		bl	mapCoor
 221 01da 0346     		mov	r3, r0
 222 01dc 9BB2     		uxth	r3, r3
 223 01de 7B87     		strh	r3, [r7, #58]	@ movhi
 108:.\main.c      ****             Clock_1_SetDividerValue(1);
 224              		.loc 1 108 0
 225 01e0 4FF00000 		mov	r0, #0
 226 01e4 4FF00101 		mov	r1, #1
 227 01e8 FFF7FEFF 		bl	Clock_1_SetDividerRegister
 109:.\main.c      ****             if (y < BOXSIZE) {
 228              		.loc 1 109 0
 229 01ec 7B8F     		ldrh	r3, [r7, #58]
 230 01ee 272B     		cmp	r3, #39
 231 01f0 00F22581 		bhi	.L4
 110:.\main.c      ****                  oldcolor = currentcolor;
 232              		.loc 1 110 0
 233 01f4 40F20003 		movw	r3, #:lower16:currentcolor
 234 01f8 C0F20003 		movt	r3, #:upper16:currentcolor
 235 01fc 1A68     		ldr	r2, [r3, #0]
ARM GAS  C:\Users\Robert\AppData\Local\Temp\cc5lrpol.s 			page 8


 236 01fe 40F20003 		movw	r3, #:lower16:oldcolor
 237 0202 C0F20003 		movt	r3, #:upper16:oldcolor
 238 0206 1A60     		str	r2, [r3, #0]
 112:.\main.c      ****                  if (x < BOXSIZE) 
 239              		.loc 1 112 0
 240 0208 BB8F     		ldrh	r3, [r7, #60]
 241 020a 272B     		cmp	r3, #39
 242 020c 14D8     		bhi	.L5
 114:.\main.c      ****                    currentcolor = RED; 
 243              		.loc 1 114 0
 244 020e 40F20003 		movw	r3, #:lower16:currentcolor
 245 0212 C0F20003 		movt	r3, #:upper16:currentcolor
 246 0216 4FF47842 		mov	r2, #63488
 247 021a 1A60     		str	r2, [r3, #0]
 115:.\main.c      ****                    TFTSHIELD_1_DrawRect(0, 0, BOXSIZE, BOXSIZE, WHITE);
 248              		.loc 1 115 0
 249 021c 4FF6FF73 		movw	r3, #65535
 250 0220 0093     		str	r3, [sp, #0]
 251 0222 4FF00000 		mov	r0, #0
 252 0226 4FF00001 		mov	r1, #0
 253 022a 4FF02802 		mov	r2, #40
 254 022e 4FF02803 		mov	r3, #40
 255 0232 FFF7FEFF 		bl	TFTSHIELD_1_DrawRect
 256 0236 76E0     		b	.L6
 257              	.L5:
 116:.\main.c      ****                  } else if (x < BOXSIZE*2) {
 258              		.loc 1 116 0
 259 0238 BB8F     		ldrh	r3, [r7, #60]
 260 023a 4F2B     		cmp	r3, #79
 261 023c 14D8     		bhi	.L7
 117:.\main.c      ****                    currentcolor = YELLOW;
 262              		.loc 1 117 0
 263 023e 40F20003 		movw	r3, #:lower16:currentcolor
 264 0242 C0F20003 		movt	r3, #:upper16:currentcolor
 265 0246 4FF6E072 		movw	r2, #65504
 266 024a 1A60     		str	r2, [r3, #0]
 118:.\main.c      ****                    TFTSHIELD_1_DrawRect(BOXSIZE, 0, BOXSIZE, BOXSIZE, WHITE);
 267              		.loc 1 118 0
 268 024c 4FF6FF73 		movw	r3, #65535
 269 0250 0093     		str	r3, [sp, #0]
 270 0252 4FF02800 		mov	r0, #40
 271 0256 4FF00001 		mov	r1, #0
 272 025a 4FF02802 		mov	r2, #40
 273 025e 4FF02803 		mov	r3, #40
 274 0262 FFF7FEFF 		bl	TFTSHIELD_1_DrawRect
 275 0266 5EE0     		b	.L6
 276              	.L7:
 119:.\main.c      ****                  } else if (x < BOXSIZE*3) {
 277              		.loc 1 119 0
 278 0268 BB8F     		ldrh	r3, [r7, #60]
 279 026a 772B     		cmp	r3, #119
 280 026c 14D8     		bhi	.L8
 120:.\main.c      ****                    currentcolor = GREEN;
 281              		.loc 1 120 0
 282 026e 40F20003 		movw	r3, #:lower16:currentcolor
 283 0272 C0F20003 		movt	r3, #:upper16:currentcolor
 284 0276 4FF4FC62 		mov	r2, #2016
ARM GAS  C:\Users\Robert\AppData\Local\Temp\cc5lrpol.s 			page 9


 285 027a 1A60     		str	r2, [r3, #0]
 121:.\main.c      ****                    TFTSHIELD_1_DrawRect(BOXSIZE*2, 0, BOXSIZE, BOXSIZE, WHITE);
 286              		.loc 1 121 0
 287 027c 4FF6FF73 		movw	r3, #65535
 288 0280 0093     		str	r3, [sp, #0]
 289 0282 4FF05000 		mov	r0, #80
 290 0286 4FF00001 		mov	r1, #0
 291 028a 4FF02802 		mov	r2, #40
 292 028e 4FF02803 		mov	r3, #40
 293 0292 FFF7FEFF 		bl	TFTSHIELD_1_DrawRect
 294 0296 46E0     		b	.L6
 295              	.L8:
 122:.\main.c      ****                  } else if (x < BOXSIZE*4) {
 296              		.loc 1 122 0
 297 0298 BB8F     		ldrh	r3, [r7, #60]
 298 029a 9F2B     		cmp	r3, #159
 299 029c 14D8     		bhi	.L9
 123:.\main.c      ****                    currentcolor = CYAN;
 300              		.loc 1 123 0
 301 029e 40F20003 		movw	r3, #:lower16:currentcolor
 302 02a2 C0F20003 		movt	r3, #:upper16:currentcolor
 303 02a6 40F2FF72 		movw	r2, #2047
 304 02aa 1A60     		str	r2, [r3, #0]
 124:.\main.c      ****                    TFTSHIELD_1_DrawRect(BOXSIZE*3, 0, BOXSIZE, BOXSIZE, WHITE);
 305              		.loc 1 124 0
 306 02ac 4FF6FF73 		movw	r3, #65535
 307 02b0 0093     		str	r3, [sp, #0]
 308 02b2 4FF07800 		mov	r0, #120
 309 02b6 4FF00001 		mov	r1, #0
 310 02ba 4FF02802 		mov	r2, #40
 311 02be 4FF02803 		mov	r3, #40
 312 02c2 FFF7FEFF 		bl	TFTSHIELD_1_DrawRect
 313 02c6 2EE0     		b	.L6
 314              	.L9:
 125:.\main.c      ****                  } else if (x < BOXSIZE*5) {
 315              		.loc 1 125 0
 316 02c8 BB8F     		ldrh	r3, [r7, #60]
 317 02ca C72B     		cmp	r3, #199
 318 02cc 14D8     		bhi	.L10
 126:.\main.c      ****                    currentcolor = BLUE;
 319              		.loc 1 126 0
 320 02ce 40F20003 		movw	r3, #:lower16:currentcolor
 321 02d2 C0F20003 		movt	r3, #:upper16:currentcolor
 322 02d6 4FF01F02 		mov	r2, #31
 323 02da 1A60     		str	r2, [r3, #0]
 127:.\main.c      ****                    TFTSHIELD_1_DrawRect(BOXSIZE*4, 0, BOXSIZE, BOXSIZE,WHITE);
 324              		.loc 1 127 0
 325 02dc 4FF6FF73 		movw	r3, #65535
 326 02e0 0093     		str	r3, [sp, #0]
 327 02e2 4FF0A000 		mov	r0, #160
 328 02e6 4FF00001 		mov	r1, #0
 329 02ea 4FF02802 		mov	r2, #40
 330 02ee 4FF02803 		mov	r3, #40
 331 02f2 FFF7FEFF 		bl	TFTSHIELD_1_DrawRect
 332 02f6 16E0     		b	.L6
 333              	.L10:
 128:.\main.c      ****                  } else if (x < BOXSIZE*6) {
ARM GAS  C:\Users\Robert\AppData\Local\Temp\cc5lrpol.s 			page 10


 334              		.loc 1 128 0
 335 02f8 BB8F     		ldrh	r3, [r7, #60]
 336 02fa EF2B     		cmp	r3, #239
 337 02fc 13D8     		bhi	.L6
 129:.\main.c      ****                    currentcolor = MAGENTA;
 338              		.loc 1 129 0
 339 02fe 40F20003 		movw	r3, #:lower16:currentcolor
 340 0302 C0F20003 		movt	r3, #:upper16:currentcolor
 341 0306 4FF61F02 		movw	r2, #63519
 342 030a 1A60     		str	r2, [r3, #0]
 130:.\main.c      ****                    TFTSHIELD_1_DrawRect(BOXSIZE*5, 0, BOXSIZE, BOXSIZE, WHITE);
 343              		.loc 1 130 0
 344 030c 4FF6FF73 		movw	r3, #65535
 345 0310 0093     		str	r3, [sp, #0]
 346 0312 4FF0C800 		mov	r0, #200
 347 0316 4FF00001 		mov	r1, #0
 348 031a 4FF02802 		mov	r2, #40
 349 031e 4FF02803 		mov	r3, #40
 350 0322 FFF7FEFF 		bl	TFTSHIELD_1_DrawRect
 351              	.L6:
 133:.\main.c      ****                  if (oldcolor != currentcolor) 
 352              		.loc 1 133 0
 353 0326 40F20003 		movw	r3, #:lower16:oldcolor
 354 032a C0F20003 		movt	r3, #:upper16:oldcolor
 355 032e 1A68     		ldr	r2, [r3, #0]
 356 0330 40F20003 		movw	r3, #:lower16:currentcolor
 357 0334 C0F20003 		movt	r3, #:upper16:currentcolor
 358 0338 1B68     		ldr	r3, [r3, #0]
 359 033a 9A42     		cmp	r2, r3
 360 033c 7FD0     		beq	.L4
 135:.\main.c      ****                     if (oldcolor == RED) 
 361              		.loc 1 135 0
 362 033e 40F20003 		movw	r3, #:lower16:oldcolor
 363 0342 C0F20003 		movt	r3, #:upper16:oldcolor
 364 0346 1B68     		ldr	r3, [r3, #0]
 365 0348 B3F5784F 		cmp	r3, #63488
 366 034c 0CD1     		bne	.L11
 136:.\main.c      ****                       TFTSHIELD_1_FillRect(0, 0, BOXSIZE, BOXSIZE, RED);
 367              		.loc 1 136 0
 368 034e 4FF47843 		mov	r3, #63488
 369 0352 0093     		str	r3, [sp, #0]
 370 0354 4FF00000 		mov	r0, #0
 371 0358 4FF00001 		mov	r1, #0
 372 035c 4FF02802 		mov	r2, #40
 373 0360 4FF02803 		mov	r3, #40
 374 0364 FFF7FEFF 		bl	TFTSHIELD_1_FillRect
 375              	.L11:
 137:.\main.c      ****                     if (oldcolor == YELLOW) 
 376              		.loc 1 137 0
 377 0368 40F20003 		movw	r3, #:lower16:oldcolor
 378 036c C0F20003 		movt	r3, #:upper16:oldcolor
 379 0370 1A68     		ldr	r2, [r3, #0]
 380 0372 4FF6E073 		movw	r3, #65504
 381 0376 9A42     		cmp	r2, r3
 382 0378 0CD1     		bne	.L12
 138:.\main.c      ****                       TFTSHIELD_1_FillRect(BOXSIZE, 0, BOXSIZE, BOXSIZE, YELLOW);
 383              		.loc 1 138 0
ARM GAS  C:\Users\Robert\AppData\Local\Temp\cc5lrpol.s 			page 11


 384 037a 4FF6E073 		movw	r3, #65504
 385 037e 0093     		str	r3, [sp, #0]
 386 0380 4FF02800 		mov	r0, #40
 387 0384 4FF00001 		mov	r1, #0
 388 0388 4FF02802 		mov	r2, #40
 389 038c 4FF02803 		mov	r3, #40
 390 0390 FFF7FEFF 		bl	TFTSHIELD_1_FillRect
 391              	.L12:
 139:.\main.c      ****                     if (oldcolor == GREEN) 
 392              		.loc 1 139 0
 393 0394 40F20003 		movw	r3, #:lower16:oldcolor
 394 0398 C0F20003 		movt	r3, #:upper16:oldcolor
 395 039c 1B68     		ldr	r3, [r3, #0]
 396 039e B3F5FC6F 		cmp	r3, #2016
 397 03a2 0CD1     		bne	.L13
 140:.\main.c      ****                       TFTSHIELD_1_FillRect(BOXSIZE*2, 0, BOXSIZE, BOXSIZE, GREEN);
 398              		.loc 1 140 0
 399 03a4 4FF4FC63 		mov	r3, #2016
 400 03a8 0093     		str	r3, [sp, #0]
 401 03aa 4FF05000 		mov	r0, #80
 402 03ae 4FF00001 		mov	r1, #0
 403 03b2 4FF02802 		mov	r2, #40
 404 03b6 4FF02803 		mov	r3, #40
 405 03ba FFF7FEFF 		bl	TFTSHIELD_1_FillRect
 406              	.L13:
 141:.\main.c      ****                     if (oldcolor == CYAN) 
 407              		.loc 1 141 0
 408 03be 40F20003 		movw	r3, #:lower16:oldcolor
 409 03c2 C0F20003 		movt	r3, #:upper16:oldcolor
 410 03c6 1A68     		ldr	r2, [r3, #0]
 411 03c8 40F2FF73 		movw	r3, #2047
 412 03cc 9A42     		cmp	r2, r3
 413 03ce 0CD1     		bne	.L14
 142:.\main.c      ****                       TFTSHIELD_1_FillRect(BOXSIZE*3, 0, BOXSIZE, BOXSIZE, CYAN);
 414              		.loc 1 142 0
 415 03d0 40F2FF73 		movw	r3, #2047
 416 03d4 0093     		str	r3, [sp, #0]
 417 03d6 4FF07800 		mov	r0, #120
 418 03da 4FF00001 		mov	r1, #0
 419 03de 4FF02802 		mov	r2, #40
 420 03e2 4FF02803 		mov	r3, #40
 421 03e6 FFF7FEFF 		bl	TFTSHIELD_1_FillRect
 422              	.L14:
 143:.\main.c      ****                     if (oldcolor == BLUE) 
 423              		.loc 1 143 0
 424 03ea 40F20003 		movw	r3, #:lower16:oldcolor
 425 03ee C0F20003 		movt	r3, #:upper16:oldcolor
 426 03f2 1B68     		ldr	r3, [r3, #0]
 427 03f4 1F2B     		cmp	r3, #31
 428 03f6 0CD1     		bne	.L15
 144:.\main.c      ****                       TFTSHIELD_1_FillRect(BOXSIZE*4, 0, BOXSIZE, BOXSIZE, BLUE);
 429              		.loc 1 144 0
 430 03f8 4FF01F03 		mov	r3, #31
 431 03fc 0093     		str	r3, [sp, #0]
 432 03fe 4FF0A000 		mov	r0, #160
 433 0402 4FF00001 		mov	r1, #0
 434 0406 4FF02802 		mov	r2, #40
ARM GAS  C:\Users\Robert\AppData\Local\Temp\cc5lrpol.s 			page 12


 435 040a 4FF02803 		mov	r3, #40
 436 040e FFF7FEFF 		bl	TFTSHIELD_1_FillRect
 437              	.L15:
 145:.\main.c      ****                     if (oldcolor == MAGENTA) 
 438              		.loc 1 145 0
 439 0412 40F20003 		movw	r3, #:lower16:oldcolor
 440 0416 C0F20003 		movt	r3, #:upper16:oldcolor
 441 041a 1A68     		ldr	r2, [r3, #0]
 442 041c 4FF61F03 		movw	r3, #63519
 443 0420 9A42     		cmp	r2, r3
 444 0422 0CD1     		bne	.L4
 146:.\main.c      ****                       TFTSHIELD_1_FillRect(BOXSIZE*5, 0, BOXSIZE, BOXSIZE, MAGENTA);
 445              		.loc 1 146 0
 446 0424 4FF61F03 		movw	r3, #63519
 447 0428 0093     		str	r3, [sp, #0]
 448 042a 4FF0C800 		mov	r0, #200
 449 042e 4FF00001 		mov	r1, #0
 450 0432 4FF02802 		mov	r2, #40
 451 0436 4FF02803 		mov	r3, #40
 452 043a FFF7FEFF 		bl	TFTSHIELD_1_FillRect
 453              	.L4:
 149:.\main.c      ****             if (((y-PENRADIUS) > BOXSIZE) && ((y+PENRADIUS) < 320))
 454              		.loc 1 149 0
 455 043e 7B8F     		ldrh	r3, [r7, #58]
 456 0440 A3F10303 		sub	r3, r3, #3
 457 0444 282B     		cmp	r3, #40
 458 0446 7FF790AE 		ble	.L17
 149:.\main.c      ****             if (((y-PENRADIUS) > BOXSIZE) && ((y+PENRADIUS) < 320))
 459              		.loc 1 149 0 is_stmt 0 discriminator 1
 460 044a 7B8F     		ldrh	r3, [r7, #58]
 461 044c 03F10302 		add	r2, r3, #3
 462 0450 40F23F13 		movw	r3, #319
 463 0454 9A42     		cmp	r2, r3
 464 0456 3FF788AE 		bgt	.L17
 151:.\main.c      ****                 TFTSHIELD_1_FillCircle(x, y, PENRADIUS, currentcolor);
 465              		.loc 1 151 0 is_stmt 1
 466 045a BB8F     		ldrh	r3, [r7, #60]
 467 045c 99B2     		uxth	r1, r3
 468 045e 7B8F     		ldrh	r3, [r7, #58]
 469 0460 9AB2     		uxth	r2, r3
 470 0462 40F20003 		movw	r3, #:lower16:currentcolor
 471 0466 C0F20003 		movt	r3, #:upper16:currentcolor
 472 046a 1B68     		ldr	r3, [r3, #0]
 473 046c 9BB2     		uxth	r3, r3
 474 046e 09B2     		sxth	r1, r1
 475 0470 12B2     		sxth	r2, r2
 476 0472 0846     		mov	r0, r1
 477 0474 1146     		mov	r1, r2
 478 0476 4FF00302 		mov	r2, #3
 479 047a FFF7FEFF 		bl	TFTSHIELD_1_FillCircle
 480              	.LBE2:
 481              		.loc 1 155 0
 482 047e 74E6     		b	.L17
 483              		.cfi_endproc
 484              	.LFE56:
 485              		.size	main, .-main
 486              		.section	.text.mapCoor,"ax",%progbits
ARM GAS  C:\Users\Robert\AppData\Local\Temp\cc5lrpol.s 			page 13


 487              		.align	2
 488              		.global	mapCoor
 489              		.thumb
 490              		.thumb_func
 491              		.type	mapCoor, %function
 492              	mapCoor:
 493              	.LFB57:
 156:.\main.c      **** }
 157:.\main.c      **** 
 158:.\main.c      **** long mapCoor(long x, long in_min, long in_max, long out_min, long out_max)
 159:.\main.c      **** {
 494              		.loc 1 159 0
 495              		.cfi_startproc
 496              		@ args = 4, pretend = 0, frame = 16
 497              		@ frame_needed = 1, uses_anonymous_args = 0
 498              		@ link register save eliminated.
 499 0000 80B4     		push	{r7}
 500              	.LCFI3:
 501              		.cfi_def_cfa_offset 4
 502              		.cfi_offset 7, -4
 503 0002 85B0     		sub	sp, sp, #20
 504              	.LCFI4:
 505              		.cfi_def_cfa_offset 24
 506 0004 00AF     		add	r7, sp, #0
 507              	.LCFI5:
 508              		.cfi_def_cfa_register 7
 509 0006 F860     		str	r0, [r7, #12]
 510 0008 B960     		str	r1, [r7, #8]
 511 000a 7A60     		str	r2, [r7, #4]
 512 000c 3B60     		str	r3, [r7, #0]
 160:.\main.c      ****   return (x - in_min) * (out_max - out_min) / (in_max - in_min) + out_min;
 513              		.loc 1 160 0
 514 000e FA68     		ldr	r2, [r7, #12]
 515 0010 BB68     		ldr	r3, [r7, #8]
 516 0012 D31A     		subs	r3, r2, r3
 517 0014 B969     		ldr	r1, [r7, #24]
 518 0016 3A68     		ldr	r2, [r7, #0]
 519 0018 8A1A     		subs	r2, r1, r2
 520 001a 02FB03F2 		mul	r2, r2, r3
 521 001e 7968     		ldr	r1, [r7, #4]
 522 0020 BB68     		ldr	r3, [r7, #8]
 523 0022 CB1A     		subs	r3, r1, r3
 524 0024 92FBF3F2 		sdiv	r2, r2, r3
 525 0028 3B68     		ldr	r3, [r7, #0]
 526 002a D318     		adds	r3, r2, r3
 161:.\main.c      **** }
 527              		.loc 1 161 0
 528 002c 1846     		mov	r0, r3
 529 002e 07F11407 		add	r7, r7, #20
 530 0032 BD46     		mov	sp, r7
 531 0034 80BC     		pop	{r7}
 532 0036 7047     		bx	lr
 533              		.cfi_endproc
 534              	.LFE57:
 535              		.size	mapCoor, .-mapCoor
 536              		.text
 537              	.Letext0:
ARM GAS  C:\Users\Robert\AppData\Local\Temp\cc5lrpol.s 			page 14


 538              		.file 2 "c:\\program files (x86)\\cypress\\psoc creator\\3.0\\psoc creator\\import\\gnu_cs\\arm\\4
 539              		.file 3 "./Generated_Source/PSoC5/TFTSHIELD_1.h"
 540              		.file 4 "./Generated_Source/PSoC5/core_cm3.h"