ARM GAS  C:\Users\Robert\AppData\Local\Temp\cc5lrpol.s 			page 1


   1              		.syntax unified
   2              		.cpu cortex-m3
   3              		.fpu softvfp
   4              		.eabi_attribute 20, 1
   5              		.eabi_attribute 21, 1
   6              		.eabi_attribute 23, 3
   7              		.eabi_attribute 24, 1
   8              		.eabi_attribute 25, 1
   9              		.eabi_attribute 26, 1
  10              		.eabi_attribute 30, 6
  11              		.eabi_attribute 34, 1
  12              		.eabi_attribute 18, 4
  13              		.thumb
  14              		.file	"main.c"
  15              		.text
  16              	.Ltext0:
  17              		.cfi_sections	.debug_frame
  18              		.comm	cursor_x,2,2
  19              		.comm	cursor_y,2,2
  20              		.comm	textcolor,2,2
  21              		.comm	textbgcolor,2,2
  22              		.comm	textsize,1,1
  23              		.comm	rotation,1,1
  24              		.comm	wrap,1,1
  25              		.comm	_width,4,4
  26              		.comm	_height,4,4
  27              		.comm	oldcolor,4,4
  28              		.comm	currentcolor,4,4
  29              		.section	.text.main,"ax",%progbits
  30              		.align	2
  31              		.global	main
  32              		.thumb
  33              		.thumb_func
  34              		.type	main, %function
  35              	main:
  36              	.LFB56:
  37              		.file 1 ".\\main.c"
   1:.\main.c      **** /*******************************************************************************
   2:.\main.c      **** * \file main.c
   3:.\main.c      **** * \brief This file is used to demonstrate the TFTSHIELD API.
   4:.\main.c      **** *
   5:.\main.c      **** * Version 1.0
   6:.\main.c      **** *
   7:.\main.c      **** * \author Robert Barron
   8:.\main.c      **** *
   9:.\main.c      **** * \bug 
  10:.\main.c      **** *******************************************************************************/
  11:.\main.c      **** #include <project.h>
  12:.\main.c      **** #include "stdio.h"
  13:.\main.c      **** 
  14:.\main.c      **** // This is calibration data for the raw touch data to the screen coordinates
  15:.\main.c      **** #define TS_MINX 150
  16:.\main.c      **** #define TS_MINY 130
  17:.\main.c      **** #define TS_MAXX 3800
  18:.\main.c      **** #define TS_MAXY 4000
  19:.\main.c      **** // Size of the color selection boxes and the paintbrush size
  20:.\main.c      **** #define BOXSIZE 40
ARM GAS  C:\Users\Robert\AppData\Local\Temp\cc5lrpol.s 			page 2


  21:.\main.c      **** #define PENRADIUS 3
  22:.\main.c      **** int oldcolor, currentcolor;
  23:.\main.c      **** 
  24:.\main.c      **** long mapCoor(long x, long in_min, long in_max, long out_min, long out_max);
  25:.\main.c      **** 
  26:.\main.c      **** 
  27:.\main.c      **** int main()
  28:.\main.c      **** {   
  38              		.loc 1 28 0
  39              		.cfi_startproc
  40              		@ args = 0, pretend = 0, frame = 64
  41              		@ frame_needed = 1, uses_anonymous_args = 0
  42 0000 80B5     		push	{r7, lr}
  43              	.LCFI0:
  44              		.cfi_def_cfa_offset 8
  45              		.cfi_offset 7, -8
  46              		.cfi_offset 14, -4
  47 0002 92B0     		sub	sp, sp, #72
  48              	.LCFI1:
  49              		.cfi_def_cfa_offset 80
  50 0004 02AF     		add	r7, sp, #8
  51              	.LCFI2:
  52              		.cfi_def_cfa 7, 72
  29:.\main.c      ****     //initializes tft
  30:.\main.c      ****     CyDelay(1000);
  53              		.loc 1 30 0
  54 0006 4FF47A70 		mov	r0, #1000
  55 000a FFF7FEFF 		bl	CyDelay
  31:.\main.c      ****     Clock_1_SetDividerValue(24);
  56              		.loc 1 31 0
  57 000e 4FF01700 		mov	r0, #23
  58 0012 4FF00101 		mov	r1, #1
  59 0016 FFF7FEFF 		bl	Clock_1_SetDividerRegister
  32:.\main.c      ****     CyDelay(10);
  60              		.loc 1 32 0
  61 001a 4FF00A00 		mov	r0, #10
  62 001e FFF7FEFF 		bl	CyDelay
  33:.\main.c      ****     //TFTSHIELD_1_StartTouch();
  34:.\main.c      ****     bool touch_en = 0;
  63              		.loc 1 34 0
  64 0022 4FF00003 		mov	r3, #0
  65 0026 87F83F30 		strb	r3, [r7, #63]
  35:.\main.c      ****     
  36:.\main.c      ****     if(TFTSHIELD_1_StartTouch())
  66              		.loc 1 36 0
  67 002a FFF7FEFF 		bl	TFTSHIELD_1_StartTouch
  68 002e 0346     		mov	r3, r0
  69 0030 002B     		cmp	r3, #0
  70 0032 03D0     		beq	.L2
  37:.\main.c      ****     {
  38:.\main.c      ****        touch_en = 1;
  71              		.loc 1 38 0
  72 0034 4FF00103 		mov	r3, #1
  73 0038 87F83F30 		strb	r3, [r7, #63]
  74              	.L2:
  39:.\main.c      ****     }
  40:.\main.c      ****     
ARM GAS  C:\Users\Robert\AppData\Local\Temp\cc5lrpol.s 			page 3


  41:.\main.c      ****     Clock_1_SetDividerValue(1);
  75              		.loc 1 41 0
  76 003c 4FF00000 		mov	r0, #0
  77 0040 4FF00101 		mov	r1, #1
  78 0044 FFF7FEFF 		bl	Clock_1_SetDividerRegister
  42:.\main.c      ****     CyDelay(10);
  79              		.loc 1 42 0
  80 0048 4FF00A00 		mov	r0, #10
  81 004c FFF7FEFF 		bl	CyDelay
  43:.\main.c      ****     TFTSHIELD_1_Start();
  82              		.loc 1 43 0
  83 0050 FFF7FEFF 		bl	TFTSHIELD_1_Start
  44:.\main.c      ****     
  45:.\main.c      ****     TFTSHIELD_1_FillScreen(BLACK);
  84              		.loc 1 45 0
  85 0054 4FF00000 		mov	r0, #0
  86 0058 FFF7FEFF 		bl	TFTSHIELD_1_FillScreen
  46:.\main.c      ****     //start at 0,0 for text
  47:.\main.c      ****     TFTSHIELD_1_SetCursor(0,0);
  87              		.loc 1 47 0
  88 005c 4FF00000 		mov	r0, #0
  89 0060 4FF00001 		mov	r1, #0
  90 0064 FFF7FEFF 		bl	TFTSHIELD_1_SetCursor
  48:.\main.c      ****     TFTSHIELD_1_SetTextColor(WHITE);  
  91              		.loc 1 48 0
  92 0068 4FF6FF70 		movw	r0, #65535
  93 006c FFF7FEFF 		bl	TFTSHIELD_1_SetTextColor
  49:.\main.c      ****     TFTSHIELD_1_SetTextSize(2);
  94              		.loc 1 49 0
  95 0070 4FF00200 		mov	r0, #2
  96 0074 FFF7FEFF 		bl	TFTSHIELD_1_SetTextSize
  50:.\main.c      ****     
  51:.\main.c      ****     //landscape orientation
  52:.\main.c      ****     //TFTSHIELD_1_SetRotation(1);
  53:.\main.c      ****     //TFTSHIELD_1_PrintString("tft lcd screen with word wrap working blah blah blah");
  54:.\main.c      ****     
  55:.\main.c      ****     //TFTSHIELD_1_DrawLine(50, 150, 100, 150, GREEN);
  56:.\main.c      ****    // TFTSHIELD_1_DrawLine(35, 100, 35 , 200, BLUE);
  57:.\main.c      ****     //TFTSHIELD_1_FillCircle(100,100,10,MAGENTA);
  58:.\main.c      ****     
  59:.\main.c      ****     //TFTSHIELD_1_FillRect(150, 150, 75,75, YELLOW);
  60:.\main.c      ****     if(touch_en)
  61:.\main.c      ****     {
  62:.\main.c      ****         //TFTSHIELD_1_PrintString("GO1");
  63:.\main.c      ****     }
  64:.\main.c      ****     //initializes touchscreen
  65:.\main.c      ****     //clock must be set to 1MHZ when polling the touchscreen..
  66:.\main.c      ****     Clock_1_SetDividerValue(24);
  97              		.loc 1 66 0
  98 0078 4FF01700 		mov	r0, #23
  99 007c 4FF00101 		mov	r1, #1
 100 0080 FFF7FEFF 		bl	Clock_1_SetDividerRegister
  67:.\main.c      ****     CyDelay(10);
 101              		.loc 1 67 0
 102 0084 4FF00A00 		mov	r0, #10
 103 0088 FFF7FEFF 		bl	CyDelay
  68:.\main.c      ****     
ARM GAS  C:\Users\Robert\AppData\Local\Temp\cc5lrpol.s 			page 4


  69:.\main.c      ****     //int touchon = 0;
  70:.\main.c      ****     if(TFTSHIELD_1_StartTouch())
 104              		.loc 1 70 0
 105 008c FFF7FEFF 		bl	TFTSHIELD_1_StartTouch
  71:.\main.c      ****     {
  72:.\main.c      ****          //touchon = 1;  
  73:.\main.c      ****         /*Clock_1_SetDividerValue(1);
  74:.\main.c      ****         CyDelay(1);
  75:.\main.c      ****         TFTSHIELD_1_PrintString("     GO2");
  76:.\main.c      ****         Clock_1_SetDividerValue(24);*/
  77:.\main.c      ****     }
  78:.\main.c      ****     
  79:.\main.c      ****     Clock_1_SetDividerValue(1);
 106              		.loc 1 79 0
 107 0090 4FF00000 		mov	r0, #0
 108 0094 4FF00101 		mov	r1, #1
 109 0098 FFF7FEFF 		bl	Clock_1_SetDividerRegister
  80:.\main.c      ****     CyDelay(10);
 110              		.loc 1 80 0
 111 009c 4FF00A00 		mov	r0, #10
 112 00a0 FFF7FEFF 		bl	CyDelay
  81:.\main.c      ****    // make the color selection boxes
  82:.\main.c      ****     TFTSHIELD_1_FillRect(0, 0, BOXSIZE, BOXSIZE,RED);
 113              		.loc 1 82 0
 114 00a4 4FF47843 		mov	r3, #63488
 115 00a8 0093     		str	r3, [sp, #0]
 116 00aa 4FF00000 		mov	r0, #0
 117 00ae 4FF00001 		mov	r1, #0
 118 00b2 4FF02802 		mov	r2, #40
 119 00b6 4FF02803 		mov	r3, #40
 120 00ba FFF7FEFF 		bl	TFTSHIELD_1_FillRect
  83:.\main.c      ****     TFTSHIELD_1_FillRect(BOXSIZE, 0, BOXSIZE, BOXSIZE, YELLOW);
 121              		.loc 1 83 0
 122 00be 4FF6E073 		movw	r3, #65504
 123 00c2 0093     		str	r3, [sp, #0]
 124 00c4 4FF02800 		mov	r0, #40
 125 00c8 4FF00001 		mov	r1, #0
 126 00cc 4FF02802 		mov	r2, #40
 127 00d0 4FF02803 		mov	r3, #40
 128 00d4 FFF7FEFF 		bl	TFTSHIELD_1_FillRect
  84:.\main.c      ****     TFTSHIELD_1_FillRect(BOXSIZE*2, 0, BOXSIZE, BOXSIZE, GREEN);
 129              		.loc 1 84 0
 130 00d8 4FF4FC63 		mov	r3, #2016
 131 00dc 0093     		str	r3, [sp, #0]
 132 00de 4FF05000 		mov	r0, #80
 133 00e2 4FF00001 		mov	r1, #0
 134 00e6 4FF02802 		mov	r2, #40
 135 00ea 4FF02803 		mov	r3, #40
 136 00ee FFF7FEFF 		bl	TFTSHIELD_1_FillRect
  85:.\main.c      ****     TFTSHIELD_1_FillRect(BOXSIZE*3, 0, BOXSIZE, BOXSIZE, CYAN);
 137              		.loc 1 85 0
 138 00f2 40F2FF73 		movw	r3, #2047
 139 00f6 0093     		str	r3, [sp, #0]
 140 00f8 4FF07800 		mov	r0, #120
 141 00fc 4FF00001 		mov	r1, #0
 142 0100 4FF02802 		mov	r2, #40
 143 0104 4FF02803 		mov	r3, #40
ARM GAS  C:\Users\Robert\AppData\Local\Temp\cc5lrpol.s 			page 5


 144 0108 FFF7FEFF 		bl	TFTSHIELD_1_FillRect
  86:.\main.c      ****     TFTSHIELD_1_FillRect(BOXSIZE*4, 0, BOXSIZE, BOXSIZE, BLUE);
 145              		.loc 1 86 0
 146 010c 4FF01F03 		mov	r3, #31
 147 0110 0093     		str	r3, [sp, #0]
 148 0112 4FF0A000 		mov	r0, #160
 149 0116 4FF00001 		mov	r1, #0
 150 011a 4FF02802 		mov	r2, #40
 151 011e 4FF02803 		mov	r3, #40
 152 0122 FFF7FEFF 		bl	TFTSHIELD_1_FillRect
  87:.\main.c      ****     TFTSHIELD_1_FillRect(BOXSIZE*5, 0, BOXSIZE, BOXSIZE, MAGENTA);
 153              		.loc 1 87 0
 154 0126 4FF61F03 		movw	r3, #63519
 155 012a 0093     		str	r3, [sp, #0]
 156 012c 4FF0C800 		mov	r0, #200
 157 0130 4FF00001 		mov	r1, #0
 158 0134 4FF02802 		mov	r2, #40
 159 0138 4FF02803 		mov	r3, #40
 160 013c FFF7FEFF 		bl	TFTSHIELD_1_FillRect
  88:.\main.c      ****  
  89:.\main.c      ****   // select the current color 'red'
  90:.\main.c      ****   TFTSHIELD_1_FillRect(0, 0, BOXSIZE, BOXSIZE,WHITE);
 161              		.loc 1 90 0
 162 0140 4FF6FF73 		movw	r3, #65535
 163 0144 0093     		str	r3, [sp, #0]
 164 0146 4FF00000 		mov	r0, #0
 165 014a 4FF00001 		mov	r1, #0
 166 014e 4FF02802 		mov	r2, #40
 167 0152 4FF02803 		mov	r3, #40
 168 0156 FFF7FEFF 		bl	TFTSHIELD_1_FillRect
  91:.\main.c      ****   currentcolor = RED;
 169              		.loc 1 91 0
 170 015a 40F20003 		movw	r3, #:lower16:currentcolor
 171 015e C0F20003 		movt	r3, #:upper16:currentcolor
 172 0162 4FF47842 		mov	r2, #63488
 173 0166 1A60     		str	r2, [r3, #0]
 174 0168 00E0     		b	.L16
 175              	.L17:
  92:.\main.c      ****     
  93:.\main.c      ****     for(;;)
  94:.\main.c      ****     {
  95:.\main.c      ****         Clock_1_SetDividerValue(24);
  96:.\main.c      ****         uint16_t x, y;
  97:.\main.c      ****         uint8_t z, buf;
  98:.\main.c      ****         char buffer[50];
  99:.\main.c      ****         //Clock_1_SetDividerValue(24);
 100:.\main.c      ****         CyDelay(1);
 101:.\main.c      ****         if(TFTSHIELD_1_Touched())
 102:.\main.c      ****         {
 103:.\main.c      ****            
 104:.\main.c      ****             TFTSHIELD_1_ReadData(&x,&y,&z);
 105:.\main.c      ****             x = mapCoor(x, TS_MINX, TS_MAXX, 0, 240);
 106:.\main.c      ****             y = mapCoor(y, TS_MINY, TS_MAXY, 0, 320);    
 107:.\main.c      ****            
 108:.\main.c      ****             Clock_1_SetDividerValue(1);
 109:.\main.c      ****             if (y < BOXSIZE) {
 110:.\main.c      ****                  oldcolor = currentcolor;
ARM GAS  C:\Users\Robert\AppData\Local\Temp\cc5lrpol.s 			page 6


 111:.\main.c      **** 
 112:.\main.c      ****                  if (x < BOXSIZE) 
 113:.\main.c      ****                  { 
 114:.\main.c      ****                    currentcolor = RED; 
 115:.\main.c      ****                    TFTSHIELD_1_DrawRect(0, 0, BOXSIZE, BOXSIZE, WHITE);
 116:.\main.c      ****                  } else if (x < BOXSIZE*2) {
 117:.\main.c      ****                    currentcolor = YELLOW;
 118:.\main.c      ****                    TFTSHIELD_1_DrawRect(BOXSIZE, 0, BOXSIZE, BOXSIZE, WHITE);
 119:.\main.c      ****                  } else if (x < BOXSIZE*3) {
 120:.\main.c      ****                    currentcolor = GREEN;
 121:.\main.c      ****                    TFTSHIELD_1_DrawRect(BOXSIZE*2, 0, BOXSIZE, BOXSIZE, WHITE);
 122:.\main.c      ****                  } else if (x < BOXSIZE*4) {
 123:.\main.c      ****                    currentcolor = CYAN;
 124:.\main.c      ****                    TFTSHIELD_1_DrawRect(BOXSIZE*3, 0, BOXSIZE, BOXSIZE, WHITE);
 125:.\main.c      ****                  } else if (x < BOXSIZE*5) {
 126:.\main.c      ****                    currentcolor = BLUE;
 127:.\main.c      ****                    TFTSHIELD_1_DrawRect(BOXSIZE*4, 0, BOXSIZE, BOXSIZE,WHITE);
 128:.\main.c      ****                  } else if (x < BOXSIZE*6) {
 129:.\main.c      ****                    currentcolor = MAGENTA;
 130:.\main.c      ****                    TFTSHIELD_1_DrawRect(BOXSIZE*5, 0, BOXSIZE, BOXSIZE, WHITE);
 131:.\main.c      ****                  }
 132:.\main.c      **** 
 133:.\main.c      ****                  if (oldcolor != currentcolor) 
 134:.\main.c      ****                 {
 135:.\main.c      ****                     if (oldcolor == RED) 
 136:.\main.c      ****                       TFTSHIELD_1_FillRect(0, 0, BOXSIZE, BOXSIZE, RED);
 137:.\main.c      ****                     if (oldcolor == YELLOW) 
 138:.\main.c      ****                       TFTSHIELD_1_FillRect(BOXSIZE, 0, BOXSIZE, BOXSIZE, YELLOW);
 139:.\main.c      ****                     if (oldcolor == GREEN) 
 140:.\main.c      ****                       TFTSHIELD_1_FillRect(BOXSIZE*2, 0, BOXSIZE, BOXSIZE, GREEN);
 141:.\main.c      ****                     if (oldcolor == CYAN) 
 142:.\main.c      ****                       TFTSHIELD_1_FillRect(BOXSIZE*3, 0, BOXSIZE, BOXSIZE, CYAN);
 143:.\main.c      ****                     if (oldcolor == BLUE) 
 144:.\main.c      ****                       TFTSHIELD_1_FillRect(BOXSIZE*4, 0, BOXSIZE, BOXSIZE, BLUE);
 145:.\main.c      ****                     if (oldcolor == MAGENTA) 
 146:.\main.c      ****                       TFTSHIELD_1_FillRect(BOXSIZE*5, 0, BOXSIZE, BOXSIZE, MAGENTA);
 147:.\main.c      ****                 }
 148:.\main.c      ****               }
 149:.\main.c      ****             if (((y-PENRADIUS) > BOXSIZE) && ((y+PENRADIUS) < 320))
 150:.\main.c      ****             {
 151:.\main.c      ****                 TFTSHIELD_1_FillCircle(x, y, PENRADIUS, currentcolor);
 152:.\main.c      ****             }
 153:.\main.c      ****         
 154:.\main.c      ****         }   
 155:.\main.c      ****     }
 176              		.loc 1 155 0
 177 016a 00BF     		nop
 178              	.L16:
 179              	.LBB2:
  95:.\main.c      ****         Clock_1_SetDividerValue(24);
 180              		.loc 1 95 0
 181 016c 4FF01700 		mov	r0, #23
 182 0170 4FF00101 		mov	r1, #1
 183 0174 FFF7FEFF 		bl	Clock_1_SetDividerRegister
 100:.\main.c      ****         CyDelay(1);
 184              		.loc 1 100 0
 185 0178 4FF00100 		mov	r0, #1
ARM GAS  C:\Users\Robert\AppData\Local\Temp\cc5lrpol.s 			page 7


 186 017c FFF7FEFF 		bl	CyDelay
 101:.\main.c      ****         if(TFTSHIELD_1_Touched())
 187              		.loc 1 101 0
 188 0180 FFF7FEFF 		bl	TFTSHIELD_1_Touched
 189 0184 0346     		mov	r3, r0
 190 0186 002B     		cmp	r3, #0
 191 0188 EFD0     		beq	.L17
 104:.\main.c      ****             TFTSHIELD_1_ReadData(&x,&y,&z);
 192              		.loc 1 104 0
 193 018a 07F13C01 		add	r1, r7, #60
 194 018e 07F13A02 		add	r2, r7, #58
 195 0192 07F13903 		add	r3, r7, #57
 196 0196 0846     		mov	r0, r1
 197 0198 1146     		mov	r1, r2
 198 019a 1A46     		mov	r2, r3
 199 019c FFF7FEFF 		bl	TFTSHIELD_1_ReadData
 105:.\main.c      ****             x = mapCoor(x, TS_MINX, TS_MAXX, 0, 240);
 200              		.loc 1 105 0
 201 01a0 BB8F     		ldrh	r3, [r7, #60]
 202 01a2 4FF0F002 		mov	r2, #240
 203 01a6 0092     		str	r2, [sp, #0]
 204 01a8 1846     		mov	r0, r3
 205 01aa 4FF09601 		mov	r1, #150
 206 01ae 40F6D862 		movw	r2, #3800
 207 01b2 4FF00003 		mov	r3, #0
 208 01b6 FFF7FEFF 		bl	mapCoor
 209 01ba 0346     		mov	r3, r0
 210 01bc 9BB2     		uxth	r3, r3
 211 01be BB87     		strh	r3, [r7, #60]	@ movhi
 106:.\main.c      ****             y = mapCoor(y, TS_MINY, TS_MAXY, 0, 320);    
 212              		.loc 1 106 0
 213 01c0 7B8F     		ldrh	r3, [r7, #58]
 214 01c2 4FF4A072 		mov	r2, #320
 215 01c6 0092     		str	r2, [sp, #0]
 216 01c8 1846     		mov	r0, r3
 217 01ca 4FF08201 		mov	r1, #130
 218 01ce 4FF47A62 		mov	r2, #4000
 219 01d2 4FF00003 		mov	r3, #0
 220 01d6 FFF7FEFF 		bl	mapCoor
 221 01da 0346     		mov	r3, r0
 222 01dc 9BB2     		uxth	r3, r3
 223 01de 7B87     		strh	r3, [r7, #58]	@ movhi
 108:.\main.c      ****             Clock_1_SetDividerValue(1);
 224              		.loc 1 108 0
 225 01e0 4FF00000 		mov	r0, #0
 226 01e4 4FF00101 		mov	r1, #1
 227 01e8 FFF7FEFF 		bl	Clock_1_SetDividerRegister
 109:.\main.c      ****             if (y < BOXSIZE) {
 228              		.loc 1 109 0
 229 01ec 7B8F     		ldrh	r3, [r7, #58]
 230 01ee 272B     		cmp	r3, #39
 231 01f0 00F22581 		bhi	.L4
 110:.\main.c      ****                  oldcolor = currentcolor;
 232              		.loc 1 110 0
 233 01f4 40F20003 		movw	r3, #:lower16:currentcolor
 234 01f8 C0F20003 		movt	r3, #:upper16:currentcolor
 235 01fc 1A68     		ldr	r2, [r3, #0]
ARM GAS  C:\Users\Robert\AppData\Local\Temp\cc5lrpol.s 			page 8


 236 01fe 40F20003 		movw	r3, #:lower16:oldcolor
 237 0202 C0F20003 		movt	r3, #:upper16:oldcolor
 238 0206 1A60     		str	r2, [r3, #0]
 112:.\main.c      ****                  if (x < BOXSIZE) 
 239              		.loc 1 112 0
 240 0208 BB8F     		ldrh	r3, [r7, #60]
 241 020a 272B     		cmp	r3, #39
 242 020c 14D8     		bhi	.L5
 114:.\main.c      ****                    currentcolor = RED; 
 243              		.loc 1 114 0
 244 020e 40F20003 		movw	r3, #:lower16:currentcolor
 245 0212 C0F20003 		movt	r3, #:upper16:currentcolor
 246 0216 4FF47842 		mov	r2, #63488
 247 021a 1A60     		str	r2, [r3, #0]
 115:.\main.c      ****                    TFTSHIELD_1_DrawRect(0, 0, BOXSIZE, BOXSIZE, WHITE);
 248              		.loc 1 115 0
 249 021c 4FF6FF73 		movw	r3, #65535
 250 0220 0093     		str	r3, [sp, #0]
 251 0222 4FF00000 		mov	r0, #0
 252 0226 4FF00001 		mov	r1, #0
 253 022a 4FF02802 		mov	r2, #40
 254 022e 4FF02803 		mov	r3, #40
 255 0232 FFF7FEFF 		bl	TFTSHIELD_1_DrawRect
 256 0236 76E0     		b	.L6
 257              	.L5:
 116:.\main.c      ****                  } else if (x < BOXSIZE*2) {
 258              		.loc 1 116 0
 259 0238 BB8F     		ldrh	r3, [r7, #60]
 260 023a 4F2B     		cmp	r3, #79
 261 023c 14D8     		bhi	.L7
 117:.\main.c      ****                    currentcolor = YELLOW;
 262              		.loc 1 117 0
 263 023e 40F20003 		movw	r3, #:lower16:currentcolor
 264 0242 C0F20003 		movt	r3, #:upper16:currentcolor
 265 0246 4FF6E072 		movw	r2, #65504
 266 024a 1A60     		str	r2, [r3, #0]
 118:.\main.c      ****                    TFTSHIELD_1_DrawRect(BOXSIZE, 0, BOXSIZE, BOXSIZE, WHITE);
 267              		.loc 1 118 0
 268 024c 4FF6FF73 		movw	r3, #65535
 269 0250 0093     		str	r3, [sp, #0]
 270 0252 4FF02800 		mov	r0, #40
 271 0256 4FF00001 		mov	r1, #0
 272 025a 4FF02802 		mov	r2, #40
 273 025e 4FF02803 		mov	r3, #40
 274 0262 FFF7FEFF 		bl	TFTSHIELD_1_DrawRect
 275 0266 5EE0     		b	.L6
 276              	.L7:
 119:.\main.c      ****                  } else if (x < BOXSIZE*3) {
 277              		.loc 1 119 0
 278 0268 BB8F     		ldrh	r3, [r7, #60]
 279 026a 772B     		cmp	r3, #119
 280 026c 14D8     		bhi	.L8
 120:.\main.c      ****                    currentcolor = GREEN;
 281              		.loc 1 120 0
 282 026e 40F20003 		movw	r3, #:lower16:currentcolor
 283 0272 C0F20003 		movt	r3, #:upper16:currentcolor
 284 0276 4FF4FC62 		mov	r2, #2016
ARM GAS  C:\Users\Robert\AppData\Local\Temp\cc5lrpol.s 			page 9


 285 027a 1A60     		str	r2, [r3, #0]
 121:.\main.c      ****                    TFTSHIELD_1_DrawRect(BOXSIZE*2, 0, BOXSIZE, BOXSIZE, WHITE);
 286              		.loc 1 121 0
 287 027c 4FF6FF73 		movw	r3, #65535
 288 0280 0093     		str	r3, [sp, #0]
 289 0282 4FF05000 		mov	r0, #80
 290 0286 4FF00001 		mov	r1, #0
 291 028a 4FF02802 		mov	r2, #40
 292 028e 4FF02803 		mov	r3, #40
 293 0292 FFF7FEFF 		bl	TFTSHIELD_1_DrawRect
 294 0296 46E0     		b	.L6
 295              	.L8:
 122:.\main.c      ****                  } else if (x < BOXSIZE*4) {
 296              		.loc 1 122 0
 297 0298 BB8F     		ldrh	r3, [r7, #60]
 298 029a 9F2B     		cmp	r3, #159
 299 029c 14D8     		bhi	.L9
 123:.\main.c      ****                    currentcolor = CYAN;
 300              		.loc 1 123 0
 301 029e 40F20003 		movw	r3, #:lower16:currentcolor
 302 02a2 C0F20003 		movt	r3, #:upper16:currentcolor
 303 02a6 40F2FF72 		movw	r2, #2047
 304 02aa 1A60     		str	r2, [r3, #0]
 124:.\main.c      ****                    TFTSHIELD_1_DrawRect(BOXSIZE*3, 0, BOXSIZE, BOXSIZE, WHITE);
 305              		.loc 1 124 0
 306 02ac 4FF6FF73 		movw	r3, #65535
 307 02b0 0093     		str	r3, [sp, #0]
 308 02b2 4FF07800 		mov	r0, #120
 309 02b6 4FF00001 		mov	r1, #0
 310 02ba 4FF02802 		mov	r2, #40
 311 02be 4FF02803 		mov	r3, #40
 312 02c2 FFF7FEFF 		bl	TFTSHIELD_1_DrawRect
 313 02c6 2EE0     		b	.L6
 314              	.L9:
 125:.\main.c      ****                  } else if (x < BOXSIZE*5) {
 315              		.loc 1 125 0
 316 02c8 BB8F     		ldrh	r3, [r7, #60]
 317 02ca C72B     		cmp	r3, #199
 318 02cc 14D8     		bhi	.L10
 126:.\main.c      ****                    currentcolor = BLUE;
 319              		.loc 1 126 0
 320 02ce 40F20003 		movw	r3, #:lower16:currentcolor
 321 02d2 C0F20003 		movt	r3, #:upper16:currentcolor
 322 02d6 4FF01F02 		mov	r2, #31
 323 02da 1A60     		str	r2, [r3, #0]
 127:.\main.c      ****                    TFTSHIELD_1_DrawRect(BOXSIZE*4, 0, BOXSIZE, BOXSIZE,WHITE);
 324              		.loc 1 127 0
 325 02dc 4FF6FF73 		movw	r3, #65535
 326 02e0 0093     		str	r3, [sp, #0]
 327 02e2 4FF0A000 		mov	r0, #160
 328 02e6 4FF00001 		mov	r1, #0
 329 02ea 4FF02802 		mov	r2, #40
 330 02ee 4FF02803 		mov	r3, #40
 331 02f2 FFF7FEFF 		bl	TFTSHIELD_1_DrawRect
 332 02f6 16E0     		b	.L6
 333              	.L10:
 128:.\main.c      ****                  } else if (x < BOXSIZE*6) {
ARM GAS  C:\Users\Robert\AppData\Local\Temp\cc5lrpol.s 			page 10


 334              		.loc 1 128 0
 335 02f8 BB8F     		ldrh	r3, [r7, #60]
 336 02fa EF2B     		cmp	r3, #239
 337 02fc 13D8     		bhi	.L6
 129:.\main.c      ****                    currentcolor = MAGENTA;
 338              		.loc 1 129 0
 339 02fe 40F20003 		movw	r3, #:lower16:currentcolor
 340 0302 C0F20003 		movt	r3, #:upper16:currentcolor
 341 0306 4FF61F02 		movw	r2, #63519
 342 030a 1A60     		str	r2, [r3, #0]
 130:.\main.c      ****                    TFTSHIELD_1_DrawRect(BOXSIZE*5, 0, BOXSIZE, BOXSIZE, WHITE);
 343              		.loc 1 130 0
 344 030c 4FF6FF73 		movw	r3, #65535
 345 0310 0093     		str	r3, [sp, #0]
 346 0312 4FF0C800 		mov	r0, #200
 347 0316 4FF00001 		mov	r1, #0
 348 031a 4FF02802 		mov	r2, #40
 349 031e 4FF02803 		mov	r3, #40
 350 0322 FFF7FEFF 		bl	TFTSHIELD_1_DrawRect
 351              	.L6:
 133:.\main.c      ****                  if (oldcolor != currentcolor) 
 352              		.loc 1 133 0
 353 0326 40F20003 		movw	r3, #:lower16:oldcolor
 354 032a C0F20003 		movt	r3, #:upper16:oldcolor
 355 032e 1A68     		ldr	r2, [r3, #0]
 356 0330 40F20003 		movw	r3, #:lower16:currentcolor
 357 0334 C0F20003 		movt	r3, #:upper16:currentcolor
 358 0338 1B68     		ldr	r3, [r3, #0]
 359 033a 9A42     		cmp	r2, r3
 360 033c 7FD0     		beq	.L4
 135:.\main.c      ****                     if (oldcolor == RED) 
 361              		.loc 1 135 0
 362 033e 40F20003 		movw	r3, #:lower16:oldcolor
 363 0342 C0F20003 		movt	r3, #:upper16:oldcolor
 364 0346 1B68     		ldr	r3, [r3, #0]
 365 0348 B3F5784F 		cmp	r3, #63488
 366 034c 0CD1     		bne	.L11
 136:.\main.c      ****                       TFTSHIELD_1_FillRect(0, 0, BOXSIZE, BOXSIZE, RED);
 367              		.loc 1 136 0
 368 034e 4FF47843 		mov	r3, #63488
 369 0352 0093     		str	r3, [sp, #0]
 370 0354 4FF00000 		mov	r0, #0
 371 0358 4FF00001 		mov	r1, #0
 372 035c 4FF02802 		mov	r2, #40
 373 0360 4FF02803 		mov	r3, #40
 374 0364 FFF7FEFF 		bl	TFTSHIELD_1_FillRect
 375              	.L11:
 137:.\main.c      ****                     if (oldcolor == YELLOW) 
 376              		.loc 1 137 0
 377 0368 40F20003 		movw	r3, #:lower16:oldcolor
 378 036c C0F20003 		movt	r3, #:upper16:oldcolor
 379 0370 1A68     		ldr	r2, [r3, #0]
 380 0372 4FF6E073 		movw	r3, #65504
 381 0376 9A42     		cmp	r2, r3
 382 0378 0CD1     		bne	.L12
 138:.\main.c      ****                       TFTSHIELD_1_FillRect(BOXSIZE, 0, BOXSIZE, BOXSIZE, YELLOW);
 383              		.loc 1 138 0
ARM GAS  C:\Users\Robert\AppData\Local\Temp\cc5lrpol.s 			page 11


 384 037a 4FF6E073 		movw	r3, #65504
 385 037e 0093     		str	r3, [sp, #0]
 386 0380 4FF02800 		mov	r0, #40
 387 0384 4FF00001 		mov	r1, #0
 388 0388 4FF02802 		mov	r2, #40
 389 038c 4FF02803 		mov	r3, #40
 390 0390 FFF7FEFF 		bl	TFTSHIELD_1_FillRect
 391              	.L12:
 139:.\main.c      ****                     if (oldcolor == GREEN) 
 392              		.loc 1 139 0
 393 0394 40F20003 		movw	r3, #:lower16:oldcolor
 394 0398 C0F20003 		movt	r3, #:upper16:oldcolor
 395 039c 1B68     		ldr	r3, [r3, #0]
 396 039e B3F5FC6F 		cmp	r3, #2016
 397 03a2 0CD1     		bne	.L13
 140:.\main.c      ****                       TFTSHIELD_1_FillRect(BOXSIZE*2, 0, BOXSIZE, BOXSIZE, GREEN);
 398              		.loc 1 140 0
 399 03a4 4FF4FC63 		mov	r3, #2016
 400 03a8 0093     		str	r3, [sp, #0]
 401 03aa 4FF05000 		mov	r0, #80
 402 03ae 4FF00001 		mov	r1, #0
 403 03b2 4FF02802 		mov	r2, #40
 404 03b6 4FF02803 		mov	r3, #40
 405 03ba FFF7FEFF 		bl	TFTSHIELD_1_FillRect
 406              	.L13:
 141:.\main.c      ****                     if (oldcolor == CYAN) 
 407              		.loc 1 141 0
 408 03be 40F20003 		movw	r3, #:lower16:oldcolor
 409 03c2 C0F20003 		movt	r3, #:upper16:oldcolor
 410 03c6 1A68     		ldr	r2, [r3, #0]
 411 03c8 40F2FF73 		movw	r3, #2047
 412 03cc 9A42     		cmp	r2, r3
 413 03ce 0CD1     		bne	.L14
 142:.\main.c      ****                       TFTSHIELD_1_FillRect(BOXSIZE*3, 0, BOXSIZE, BOXSIZE, CYAN);
 414              		.loc 1 142 0
 415 03d0 40F2FF73 		movw	r3, #2047
 416 03d4 0093     		str	r3, [sp, #0]
 417 03d6 4FF07800 		mov	r0, #120
 418 03da 4FF00001 		mov	r1, #0
 419 03de 4FF02802 		mov	r2, #40
 420 03e2 4FF02803 		mov	r3, #40
 421 03e6 FFF7FEFF 		bl	TFTSHIELD_1_FillRect
 422              	.L14:
 143:.\main.c      ****                     if (oldcolor == BLUE) 
 423              		.loc 1 143 0
 424 03ea 40F20003 		movw	r3, #:lower16:oldcolor
 425 03ee C0F20003 		movt	r3, #:upper16:oldcolor
 426 03f2 1B68     		ldr	r3, [r3, #0]
 427 03f4 1F2B     		cmp	r3, #31
 428 03f6 0CD1     		bne	.L15
 144:.\main.c      ****                       TFTSHIELD_1_FillRect(BOXSIZE*4, 0, BOXSIZE, BOXSIZE, BLUE);
 429              		.loc 1 144 0
 430 03f8 4FF01F03 		mov	r3, #31
 431 03fc 0093     		str	r3, [sp, #0]
 432 03fe 4FF0A000 		mov	r0, #160
 433 0402 4FF00001 		mov	r1, #0
 434 0406 4FF02802 		mov	r2, #40
ARM GAS  C:\Users\Robert\AppData\Local\Temp\cc5lrpol.s 			page 12


 435 040a 4FF02803 		mov	r3, #40
 436 040e FFF7FEFF 		bl	TFTSHIELD_1_FillRect
 437              	.L15:
 145:.\main.c      ****                     if (oldcolor == MAGENTA) 
 438              		.loc 1 145 0
 439 0412 40F20003 		movw	r3, #:lower16:oldcolor
 440 0416 C0F20003 		movt	r3, #:upper16:oldcolor
 441 041a 1A68     		ldr	r2, [r3, #0]
 442 041c 4FF61F03 		movw	r3, #63519
 443 0420 9A42     		cmp	r2, r3
 444 0422 0CD1     		bne	.L4
 146:.\main.c      ****                       TFTSHIELD_1_FillRect(BOXSIZE*5, 0, BOXSIZE, BOXSIZE, MAGENTA);
 445              		.loc 1 146 0
 446 0424 4FF61F03 		movw	r3, #63519
 447 0428 0093     		str	r3, [sp, #0]
 448 042a 4FF0C800 		mov	r0, #200
 449 042e 4FF00001 		mov	r1, #0
 450 0432 4FF02802 		mov	r2, #40
 451 0436 4FF02803 		mov	r3, #40
 452 043a FFF7FEFF 		bl	TFTSHIELD_1_FillRect
 453              	.L4:
 149:.\main.c      ****             if (((y-PENRADIUS) > BOXSIZE) && ((y+PENRADIUS) < 320))
 454              		.loc 1 149 0
 455 043e 7B8F     		ldrh	r3, [r7, #58]
 456 0440 A3F10303 		sub	r3, r3, #3
 457 0444 282B     		cmp	r3, #40
 458 0446 7FF790AE 		ble	.L17
 149:.\main.c      ****             if (((y-PENRADIUS) > BOXSIZE) && ((y+PENRADIUS) < 320))
 459              		.loc 1 149 0 is_stmt 0 discriminator 1
 460 044a 7B8F     		ldrh	r3, [r7, #58]
 461 044c 03F10302 		add	r2, r3, #3
 462 0450 40F23F13 		movw	r3, #319
 463 0454 9A42     		cmp	r2, r3
 464 0456 3FF788AE 		bgt	.L17
 151:.\main.c      ****                 TFTSHIELD_1_FillCircle(x, y, PENRADIUS, currentcolor);
 465              		.loc 1 151 0 is_stmt 1
 466 045a BB8F     		ldrh	r3, [r7, #60]
 467 045c 99B2     		uxth	r1, r3
 468 045e 7B8F     		ldrh	r3, [r7, #58]
 469 0460 9AB2     		uxth	r2, r3
 470 0462 40F20003 		movw	r3, #:lower16:currentcolor
 471 0466 C0F20003 		movt	r3, #:upper16:currentcolor
 472 046a 1B68     		ldr	r3, [r3, #0]
 473 046c 9BB2     		uxth	r3, r3
 474 046e 09B2     		sxth	r1, r1
 475 0470 12B2     		sxth	r2, r2
 476 0472 0846     		mov	r0, r1
 477 0474 1146     		mov	r1, r2
 478 0476 4FF00302 		mov	r2, #3
 479 047a FFF7FEFF 		bl	TFTSHIELD_1_FillCircle
 480              	.LBE2:
 481              		.loc 1 155 0
 482 047e 74E6     		b	.L17
 483              		.cfi_endproc
 484              	.LFE56:
 485              		.size	main, .-main
 486              		.section	.text.mapCoor,"ax",%progbits
ARM GAS  C:\Users\Robert\AppData\Local\Temp\cc5lrpol.s 			page 13


 487              		.align	2
 488              		.global	mapCoor
 489              		.thumb
 490              		.thumb_func
 491              		.type	mapCoor, %function
 492              	mapCoor:
 493              	.LFB57:
 156:.\main.c      **** }
 157:.\main.c      **** 
 158:.\main.c      **** long mapCoor(long x, long in_min, long in_max, long out_min, long out_max)
 159:.\main.c      **** {
 494              		.loc 1 159 0
 495              		.cfi_startproc
 496              		@ args = 4, pretend = 0, frame = 16
 497              		@ frame_needed = 1, uses_anonymous_args = 0
 498              		@ link register save eliminated.
 499 0000 80B4     		push	{r7}
 500              	.LCFI3:
 501              		.cfi_def_cfa_offset 4
 502              		.cfi_offset 7, -4
 503 0002 85B0     		sub	sp, sp, #20
 504              	.LCFI4:
 505              		.cfi_def_cfa_offset 24
 506 0004 00AF     		add	r7, sp, #0
 507              	.LCFI5:
 508              		.cfi_def_cfa_register 7
 509 0006 F860     		str	r0, [r7, #12]
 510 0008 B960     		str	r1, [r7, #8]
 511 000a 7A60     		str	r2, [r7, #4]
 512 000c 3B60     		str	r3, [r7, #0]
 160:.\main.c      ****   return (x - in_min) * (out_max - out_min) / (in_max - in_min) + out_min;
 513              		.loc 1 160 0
 514 000e FA68     		ldr	r2, [r7, #12]
 515 0010 BB68     		ldr	r3, [r7, #8]
 516 0012 D31A     		subs	r3, r2, r3
 517 0014 B969     		ldr	r1, [r7, #24]
 518 0016 3A68     		ldr	r2, [r7, #0]
 519 0018 8A1A     		subs	r2, r1, r2
 520 001a 02FB03F2 		mul	r2, r2, r3
 521 001e 7968     		ldr	r1, [r7, #4]
 522 0020 BB68     		ldr	r3, [r7, #8]
 523 0022 CB1A     		subs	r3, r1, r3
 524 0024 92FBF3F2 		sdiv	r2, r2, r3
 525 0028 3B68     		ldr	r3, [r7, #0]
 526 002a D318     		adds	r3, r2, r3
 161:.\main.c      **** }
 527              		.loc 1 161 0
 528 002c 1846     		mov	r0, r3
 529 002e 07F11407 		add	r7, r7, #20
 530 0032 BD46     		mov	sp, r7
 531 0034 80BC     		pop	{r7}
 532 0036 7047     		bx	lr
 533              		.cfi_endproc
 534              	.LFE57:
 535              		.size	mapCoor, .-mapCoor
 536              		.text
 537              	.Letext0:
ARM GAS  C:\Users\Robert\AppData\Local\Temp\cc5lrpol.s 			page 14


 538              		.file 2 "c:\\program files (x86)\\cypress\\psoc creator\\3.0\\psoc creator\\import\\gnu_cs\\arm\\4
 539              		.file 3 "./Generated_Source/PSoC5/TFTSHIELD_1.h"
 540              		.file 4 "./Generated_Source/PSoC5/core_cm3.h"
 541              		.section	.debug_info,"",%progbits
 542              	.Ldebug_info0:
 543 0000 7B020000 		.4byte	0x27b
 544 0004 0200     		.2byte	0x2
 545 0006 00000000 		.4byte	.Ldebug_abbrev0
 546 000a 04       		.byte	0x4
 547 000b 01       		.uleb128 0x1
 548 000c A0010000 		.4byte	.LASF36
 549 0010 01       		.byte	0x1
 550 0011 54000000 		.4byte	.LASF37
 551 0015 B7000000 		.4byte	.LASF38
 552 0019 00000000 		.4byte	.Ldebug_ranges0+0
 553 001d 00000000 		.4byte	0
 554 0021 00000000 		.4byte	0
 555 0025 00000000 		.4byte	.Ldebug_line0
 556 0029 02       		.uleb128 0x2
 557 002a 01       		.byte	0x1
 558 002b 06       		.byte	0x6
 559 002c 03020000 		.4byte	.LASF0
 560 0030 03       		.uleb128 0x3
 561 0031 3D010000 		.4byte	.LASF2
 562 0035 02       		.byte	0x2
 563 0036 2A       		.byte	0x2a
 564 0037 3B000000 		.4byte	0x3b
 565 003b 02       		.uleb128 0x2
 566 003c 01       		.byte	0x1
 567 003d 08       		.byte	0x8
 568 003e 46000000 		.4byte	.LASF1
 569 0042 03       		.uleb128 0x3
 570 0043 45010000 		.4byte	.LASF3
 571 0047 02       		.byte	0x2
 572 0048 35       		.byte	0x35
 573 0049 4D000000 		.4byte	0x4d
 574 004d 02       		.uleb128 0x2
 575 004e 02       		.byte	0x2
 576 004f 05       		.byte	0x5
 577 0050 86010000 		.4byte	.LASF4
 578 0054 03       		.uleb128 0x3
 579 0055 97010000 		.4byte	.LASF5
 580 0059 02       		.byte	0x2
 581 005a 36       		.byte	0x36
 582 005b 5F000000 		.4byte	0x5f
 583 005f 02       		.uleb128 0x2
 584 0060 02       		.byte	0x2
 585 0061 07       		.byte	0x7
 586 0062 64000000 		.4byte	.LASF6
 587 0066 03       		.uleb128 0x3
 588 0067 56010000 		.4byte	.LASF7
 589 006b 02       		.byte	0x2
 590 006c 4F       		.byte	0x4f
 591 006d 71000000 		.4byte	0x71
 592 0071 02       		.uleb128 0x2
 593 0072 04       		.byte	0x4
 594 0073 05       		.byte	0x5
ARM GAS  C:\Users\Robert\AppData\Local\Temp\cc5lrpol.s 			page 15


 595 0074 F5010000 		.4byte	.LASF8
 596 0078 02       		.uleb128 0x2
 597 0079 04       		.byte	0x4
 598 007a 07       		.byte	0x7
 599 007b 96000000 		.4byte	.LASF9
 600 007f 02       		.uleb128 0x2
 601 0080 08       		.byte	0x8
 602 0081 05       		.byte	0x5
 603 0082 67010000 		.4byte	.LASF10
 604 0086 02       		.uleb128 0x2
 605 0087 08       		.byte	0x8
 606 0088 07       		.byte	0x7
 607 0089 26010000 		.4byte	.LASF11
 608 008d 04       		.uleb128 0x4
 609 008e 04       		.byte	0x4
 610 008f 05       		.byte	0x5
 611 0090 696E7400 		.ascii	"int\000"
 612 0094 02       		.uleb128 0x2
 613 0095 04       		.byte	0x4
 614 0096 07       		.byte	0x7
 615 0097 10010000 		.4byte	.LASF12
 616 009b 02       		.uleb128 0x2
 617 009c 04       		.byte	0x4
 618 009d 04       		.byte	0x4
 619 009e 37000000 		.4byte	.LASF13
 620 00a2 02       		.uleb128 0x2
 621 00a3 08       		.byte	0x8
 622 00a4 04       		.byte	0x4
 623 00a5 19000000 		.4byte	.LASF14
 624 00a9 02       		.uleb128 0x2
 625 00aa 01       		.byte	0x1
 626 00ab 08       		.byte	0x8
 627 00ac FE010000 		.4byte	.LASF15
 628 00b0 02       		.uleb128 0x2
 629 00b1 04       		.byte	0x4
 630 00b2 07       		.byte	0x7
 631 00b3 5E010000 		.4byte	.LASF16
 632 00b7 05       		.uleb128 0x5
 633 00b8 01       		.byte	0x1
 634 00b9 B2000000 		.4byte	.LASF39
 635 00bd 01       		.byte	0x1
 636 00be 1B       		.byte	0x1b
 637 00bf 8D000000 		.4byte	0x8d
 638 00c3 00000000 		.4byte	.LFB56
 639 00c7 80040000 		.4byte	.LFE56
 640 00cb 00000000 		.4byte	.LLST0
 641 00cf 01       		.byte	0x1
 642 00d0 2B010000 		.4byte	0x12b
 643 00d4 06       		.uleb128 0x6
 644 00d5 4D010000 		.4byte	.LASF17
 645 00d9 01       		.byte	0x1
 646 00da 22       		.byte	0x22
 647 00db 2B010000 		.4byte	0x12b
 648 00df 02       		.byte	0x2
 649 00e0 91       		.byte	0x91
 650 00e1 77       		.sleb128 -9
 651 00e2 07       		.uleb128 0x7
ARM GAS  C:\Users\Robert\AppData\Local\Temp\cc5lrpol.s 			page 16


 652 00e3 6C010000 		.4byte	.LBB2
 653 00e7 7E040000 		.4byte	.LBE2
 654 00eb 08       		.uleb128 0x8
 655 00ec 7800     		.ascii	"x\000"
 656 00ee 01       		.byte	0x1
 657 00ef 60       		.byte	0x60
 658 00f0 54000000 		.4byte	0x54
 659 00f4 02       		.byte	0x2
 660 00f5 91       		.byte	0x91
 661 00f6 74       		.sleb128 -12
 662 00f7 08       		.uleb128 0x8
 663 00f8 7900     		.ascii	"y\000"
 664 00fa 01       		.byte	0x1
 665 00fb 60       		.byte	0x60
 666 00fc 54000000 		.4byte	0x54
 667 0100 02       		.byte	0x2
 668 0101 91       		.byte	0x91
 669 0102 72       		.sleb128 -14
 670 0103 08       		.uleb128 0x8
 671 0104 7A00     		.ascii	"z\000"
 672 0106 01       		.byte	0x1
 673 0107 61       		.byte	0x61
 674 0108 30000000 		.4byte	0x30
 675 010c 02       		.byte	0x2
 676 010d 91       		.byte	0x91
 677 010e 71       		.sleb128 -15
 678 010f 09       		.uleb128 0x9
 679 0110 62756600 		.ascii	"buf\000"
 680 0114 01       		.byte	0x1
 681 0115 61       		.byte	0x61
 682 0116 30000000 		.4byte	0x30
 683 011a 06       		.uleb128 0x6
 684 011b 90010000 		.4byte	.LASF18
 685 011f 01       		.byte	0x1
 686 0120 62       		.byte	0x62
 687 0121 32010000 		.4byte	0x132
 688 0125 03       		.byte	0x3
 689 0126 91       		.byte	0x91
 690 0127 BC7F     		.sleb128 -68
 691 0129 00       		.byte	0
 692 012a 00       		.byte	0
 693 012b 02       		.uleb128 0x2
 694 012c 01       		.byte	0x1
 695 012d 02       		.byte	0x2
 696 012e 17020000 		.4byte	.LASF19
 697 0132 0A       		.uleb128 0xa
 698 0133 A9000000 		.4byte	0xa9
 699 0137 42010000 		.4byte	0x142
 700 013b 0B       		.uleb128 0xb
 701 013c B0000000 		.4byte	0xb0
 702 0140 31       		.byte	0x31
 703 0141 00       		.byte	0
 704 0142 0C       		.uleb128 0xc
 705 0143 01       		.byte	0x1
 706 0144 0F020000 		.4byte	.LASF40
 707 0148 01       		.byte	0x1
 708 0149 9E       		.byte	0x9e
ARM GAS  C:\Users\Robert\AppData\Local\Temp\cc5lrpol.s 			page 17


 709 014a 01       		.byte	0x1
 710 014b 71000000 		.4byte	0x71
 711 014f 00000000 		.4byte	.LFB57
 712 0153 38000000 		.4byte	.LFE57
 713 0157 3A000000 		.4byte	.LLST1
 714 015b 01       		.byte	0x1
 715 015c A5010000 		.4byte	0x1a5
 716 0160 0D       		.uleb128 0xd
 717 0161 7800     		.ascii	"x\000"
 718 0163 01       		.byte	0x1
 719 0164 9E       		.byte	0x9e
 720 0165 71000000 		.4byte	0x71
 721 0169 02       		.byte	0x2
 722 016a 91       		.byte	0x91
 723 016b 74       		.sleb128 -12
 724 016c 0E       		.uleb128 0xe
 725 016d 5D000000 		.4byte	.LASF20
 726 0171 01       		.byte	0x1
 727 0172 9E       		.byte	0x9e
 728 0173 71000000 		.4byte	0x71
 729 0177 02       		.byte	0x2
 730 0178 91       		.byte	0x91
 731 0179 70       		.sleb128 -16
 732 017a 0E       		.uleb128 0xe
 733 017b 20000000 		.4byte	.LASF21
 734 017f 01       		.byte	0x1
 735 0180 9E       		.byte	0x9e
 736 0181 71000000 		.4byte	0x71
 737 0185 02       		.byte	0x2
 738 0186 91       		.byte	0x91
 739 0187 6C       		.sleb128 -20
 740 0188 0E       		.uleb128 0xe
 741 0189 2F000000 		.4byte	.LASF22
 742 018d 01       		.byte	0x1
 743 018e 9E       		.byte	0x9e
 744 018f 71000000 		.4byte	0x71
 745 0193 02       		.byte	0x2
 746 0194 91       		.byte	0x91
 747 0195 68       		.sleb128 -24
 748 0196 0E       		.uleb128 0xe
 749 0197 27000000 		.4byte	.LASF23
 750 019b 01       		.byte	0x1
 751 019c 9E       		.byte	0x9e
 752 019d 71000000 		.4byte	0x71
 753 01a1 02       		.byte	0x2
 754 01a2 91       		.byte	0x91
 755 01a3 00       		.sleb128 0
 756 01a4 00       		.byte	0
 757 01a5 0F       		.uleb128 0xf
 758 01a6 77000000 		.4byte	.LASF24
 759 01aa 03       		.byte	0x3
 760 01ab 6D       		.byte	0x6d
 761 01ac 42000000 		.4byte	0x42
 762 01b0 01       		.byte	0x1
 763 01b1 05       		.byte	0x5
 764 01b2 03       		.byte	0x3
 765 01b3 00000000 		.4byte	cursor_x
ARM GAS  C:\Users\Robert\AppData\Local\Temp\cc5lrpol.s 			page 18


 766 01b7 0F       		.uleb128 0xf
 767 01b8 80000000 		.4byte	.LASF25
 768 01bc 03       		.byte	0x3
 769 01bd 6E       		.byte	0x6e
 770 01be 42000000 		.4byte	0x42
 771 01c2 01       		.byte	0x1
 772 01c3 05       		.byte	0x5
 773 01c4 03       		.byte	0x3
 774 01c5 00000000 		.4byte	cursor_y
 775 01c9 0F       		.uleb128 0xf
 776 01ca A8000000 		.4byte	.LASF26
 777 01ce 03       		.byte	0x3
 778 01cf 6F       		.byte	0x6f
 779 01d0 54000000 		.4byte	0x54
 780 01d4 01       		.byte	0x1
 781 01d5 05       		.byte	0x5
 782 01d6 03       		.byte	0x3
 783 01d7 00000000 		.4byte	textcolor
 784 01db 0F       		.uleb128 0xf
 785 01dc E9010000 		.4byte	.LASF27
 786 01e0 03       		.byte	0x3
 787 01e1 70       		.byte	0x70
 788 01e2 54000000 		.4byte	0x54
 789 01e6 01       		.byte	0x1
 790 01e7 05       		.byte	0x5
 791 01e8 03       		.byte	0x3
 792 01e9 00000000 		.4byte	textbgcolor
 793 01ed 0F       		.uleb128 0xf
 794 01ee 75010000 		.4byte	.LASF28
 795 01f2 03       		.byte	0x3
 796 01f3 71       		.byte	0x71
 797 01f4 30000000 		.4byte	0x30
 798 01f8 01       		.byte	0x1
 799 01f9 05       		.byte	0x5
 800 01fa 03       		.byte	0x3
 801 01fb 00000000 		.4byte	textsize
 802 01ff 0F       		.uleb128 0xf
 803 0200 1D010000 		.4byte	.LASF29
 804 0204 03       		.byte	0x3
 805 0205 72       		.byte	0x72
 806 0206 30000000 		.4byte	0x30
 807 020a 01       		.byte	0x1
 808 020b 05       		.byte	0x5
 809 020c 03       		.byte	0x3
 810 020d 00000000 		.4byte	rotation
 811 0211 0F       		.uleb128 0xf
 812 0212 07000000 		.4byte	.LASF30
 813 0216 03       		.byte	0x3
 814 0217 73       		.byte	0x73
 815 0218 30000000 		.4byte	0x30
 816 021c 01       		.byte	0x1
 817 021d 05       		.byte	0x5
 818 021e 03       		.byte	0x3
 819 021f 00000000 		.4byte	wrap
 820 0223 0F       		.uleb128 0xf
 821 0224 00000000 		.4byte	.LASF31
 822 0228 03       		.byte	0x3
ARM GAS  C:\Users\Robert\AppData\Local\Temp\cc5lrpol.s 			page 19


 823 0229 74       		.byte	0x74
 824 022a 8D000000 		.4byte	0x8d
 825 022e 01       		.byte	0x1
 826 022f 05       		.byte	0x5
 827 0230 03       		.byte	0x3
 828 0231 00000000 		.4byte	_width
 829 0235 0F       		.uleb128 0xf
 830 0236 7E010000 		.4byte	.LASF32
 831 023a 03       		.byte	0x3
 832 023b 75       		.byte	0x75
 833 023c 8D000000 		.4byte	0x8d
 834 0240 01       		.byte	0x1
 835 0241 05       		.byte	0x5
 836 0242 03       		.byte	0x3
 837 0243 00000000 		.4byte	_height
 838 0247 10       		.uleb128 0x10
 839 0248 89000000 		.4byte	.LASF33
 840 024c 04       		.byte	0x4
 841 024d 1606     		.2byte	0x616
 842 024f 55020000 		.4byte	0x255
 843 0253 01       		.byte	0x1
 844 0254 01       		.byte	0x1
 845 0255 11       		.uleb128 0x11
 846 0256 66000000 		.4byte	0x66
 847 025a 0F       		.uleb128 0xf
 848 025b 3D000000 		.4byte	.LASF34
 849 025f 01       		.byte	0x1
 850 0260 16       		.byte	0x16
 851 0261 8D000000 		.4byte	0x8d
 852 0265 01       		.byte	0x1
 853 0266 05       		.byte	0x5
 854 0267 03       		.byte	0x3
 855 0268 00000000 		.4byte	oldcolor
 856 026c 0F       		.uleb128 0xf
 857 026d 0C000000 		.4byte	.LASF35
 858 0271 01       		.byte	0x1
 859 0272 16       		.byte	0x16
 860 0273 8D000000 		.4byte	0x8d
 861 0277 01       		.byte	0x1
 862 0278 05       		.byte	0x5
 863 0279 03       		.byte	0x3
 864 027a 00000000 		.4byte	currentcolor
 865 027e 00       		.byte	0
 866              		.section	.debug_abbrev,"",%progbits
 867              	.Ldebug_abbrev0:
 868 0000 01       		.uleb128 0x1
 869 0001 11       		.uleb128 0x11
 870 0002 01       		.byte	0x1
 871 0003 25       		.uleb128 0x25
 872 0004 0E       		.uleb128 0xe
 873 0005 13       		.uleb128 0x13
 874 0006 0B       		.uleb128 0xb
 875 0007 03       		.uleb128 0x3
 876 0008 0E       		.uleb128 0xe
 877 0009 1B       		.uleb128 0x1b
 878 000a 0E       		.uleb128 0xe
 879 000b 55       		.uleb128 0x55
ARM GAS  C:\Users\Robert\AppData\Local\Temp\cc5lrpol.s 			page 20


 880 000c 06       		.uleb128 0x6
 881 000d 11       		.uleb128 0x11
 882 000e 01       		.uleb128 0x1
 883 000f 52       		.uleb128 0x52
 884 0010 01       		.uleb128 0x1
 885 0011 10       		.uleb128 0x10
 886 0012 06       		.uleb128 0x6
 887 0013 00       		.byte	0
 888 0014 00       		.byte	0
 889 0015 02       		.uleb128 0x2
 890 0016 24       		.uleb128 0x24
 891 0017 00       		.byte	0
 892 0018 0B       		.uleb128 0xb
 893 0019 0B       		.uleb128 0xb
 894 001a 3E       		.uleb128 0x3e
 895 001b 0B       		.uleb128 0xb
 896 001c 03       		.uleb128 0x3
 897 001d 0E       		.uleb128 0xe
 898 001e 00       		.byte	0
 899 001f 00       		.byte	0
 900 0020 03       		.uleb128 0x3
 901 0021 16       		.uleb128 0x16
 902 0022 00       		.byte	0
 903 0023 03       		.uleb128 0x3
 904 0024 0E       		.uleb128 0xe
 905 0025 3A       		.uleb128 0x3a
 906 0026 0B       		.uleb128 0xb
 907 0027 3B       		.uleb128 0x3b
 908 0028 0B       		.uleb128 0xb
 909 0029 49       		.uleb128 0x49
 910 002a 13       		.uleb128 0x13
 911 002b 00       		.byte	0
 912 002c 00       		.byte	0
 913 002d 04       		.uleb128 0x4
 914 002e 24       		.uleb128 0x24
 915 002f 00       		.byte	0
 916 0030 0B       		.uleb128 0xb
 917 0031 0B       		.uleb128 0xb
 918 0032 3E       		.uleb128 0x3e
 919 0033 0B       		.uleb128 0xb
 920 0034 03       		.uleb128 0x3
 921 0035 08       		.uleb128 0x8
 922 0036 00       		.byte	0
 923 0037 00       		.byte	0
 924 0038 05       		.uleb128 0x5
 925 0039 2E       		.uleb128 0x2e
 926 003a 01       		.byte	0x1
 927 003b 3F       		.uleb128 0x3f
 928 003c 0C       		.uleb128 0xc
 929 003d 03       		.uleb128 0x3
 930 003e 0E       		.uleb128 0xe
 931 003f 3A       		.uleb128 0x3a
 932 0040 0B       		.uleb128 0xb
 933 0041 3B       		.uleb128 0x3b
 934 0042 0B       		.uleb128 0xb
 935 0043 49       		.uleb128 0x49
 936 0044 13       		.uleb128 0x13
ARM GAS  C:\Users\Robert\AppData\Local\Temp\cc5lrpol.s 			page 21


 937 0045 11       		.uleb128 0x11
 938 0046 01       		.uleb128 0x1
 939 0047 12       		.uleb128 0x12
 940 0048 01       		.uleb128 0x1
 941 0049 40       		.uleb128 0x40
 942 004a 06       		.uleb128 0x6
 943 004b 9642     		.uleb128 0x2116
 944 004d 0C       		.uleb128 0xc
 945 004e 01       		.uleb128 0x1
 946 004f 13       		.uleb128 0x13
 947 0050 00       		.byte	0
 948 0051 00       		.byte	0
 949 0052 06       		.uleb128 0x6
 950 0053 34       		.uleb128 0x34
 951 0054 00       		.byte	0
 952 0055 03       		.uleb128 0x3
 953 0056 0E       		.uleb128 0xe
 954 0057 3A       		.uleb128 0x3a
 955 0058 0B       		.uleb128 0xb
 956 0059 3B       		.uleb128 0x3b
 957 005a 0B       		.uleb128 0xb
 958 005b 49       		.uleb128 0x49
 959 005c 13       		.uleb128 0x13
 960 005d 02       		.uleb128 0x2
 961 005e 0A       		.uleb128 0xa
 962 005f 00       		.byte	0
 963 0060 00       		.byte	0
 964 0061 07       		.uleb128 0x7
 965 0062 0B       		.uleb128 0xb
 966 0063 01       		.byte	0x1
 967 0064 11       		.uleb128 0x11
 968 0065 01       		.uleb128 0x1
 969 0066 12       		.uleb128 0x12
 970 0067 01       		.uleb128 0x1
 971 0068 00       		.byte	0
 972 0069 00       		.byte	0
 973 006a 08       		.uleb128 0x8
 974 006b 34       		.uleb128 0x34
 975 006c 00       		.byte	0
 976 006d 03       		.uleb128 0x3
 977 006e 08       		.uleb128 0x8
 978 006f 3A       		.uleb128 0x3a
 979 0070 0B       		.uleb128 0xb
 980 0071 3B       		.uleb128 0x3b
 981 0072 0B       		.uleb128 0xb
 982 0073 49       		.uleb128 0x49
 983 0074 13       		.uleb128 0x13
 984 0075 02       		.uleb128 0x2
 985 0076 0A       		.uleb128 0xa
 986 0077 00       		.byte	0
 987 0078 00       		.byte	0
 988 0079 09       		.uleb128 0x9
 989 007a 34       		.uleb128 0x34
 990 007b 00       		.byte	0
 991 007c 03       		.uleb128 0x3
 992 007d 08       		.uleb128 0x8
 993 007e 3A       		.uleb128 0x3a
ARM GAS  C:\Users\Robert\AppData\Local\Temp\cc5lrpol.s 			page 22


 994 007f 0B       		.uleb128 0xb
 995 0080 3B       		.uleb128 0x3b
 996 0081 0B       		.uleb128 0xb
 997 0082 49       		.uleb128 0x49
 998 0083 13       		.uleb128 0x13
 999 0084 00       		.byte	0
 1000 0085 00       		.byte	0
 1001 0086 0A       		.uleb128 0xa
 1002 0087 01       		.uleb128 0x1
 1003 0088 01       		.byte	0x1
 1004 0089 49       		.uleb128 0x49
 1005 008a 13       		.uleb128 0x13
 1006 008b 01       		.uleb128 0x1
 1007 008c 13       		.uleb128 0x13
 1008 008d 00       		.byte	0
 1009 008e 00       		.byte	0
 1010 008f 0B       		.uleb128 0xb
 1011 0090 21       		.uleb128 0x21
 1012 0091 00       		.byte	0
 1013 0092 49       		.uleb128 0x49
 1014 0093 13       		.uleb128 0x13
 1015 0094 2F       		.uleb128 0x2f
 1016 0095 0B       		.uleb128 0xb
 1017 0096 00       		.byte	0
 1018 0097 00       		.byte	0
 1019 0098 0C       		.uleb128 0xc
 1020 0099 2E       		.uleb128 0x2e
 1021 009a 01       		.byte	0x1
 1022 009b 3F       		.uleb128 0x3f
 1023 009c 0C       		.uleb128 0xc
 1024 009d 03       		.uleb128 0x3
 1025 009e 0E       		.uleb128 0xe
 1026 009f 3A       		.uleb128 0x3a
 1027 00a0 0B       		.uleb128 0xb
 1028 00a1 3B       		.uleb128 0x3b
 1029 00a2 0B       		.uleb128 0xb
 1030 00a3 27       		.uleb128 0x27
 1031 00a4 0C       		.uleb128 0xc
 1032 00a5 49       		.uleb128 0x49
 1033 00a6 13       		.uleb128 0x13
 1034 00a7 11       		.uleb128 0x11
 1035 00a8 01       		.uleb128 0x1
 1036 00a9 12       		.uleb128 0x12
 1037 00aa 01       		.uleb128 0x1
 1038 00ab 40       		.uleb128 0x40
 1039 00ac 06       		.uleb128 0x6
 1040 00ad 9742     		.uleb128 0x2117
 1041 00af 0C       		.uleb128 0xc
 1042 00b0 01       		.uleb128 0x1
 1043 00b1 13       		.uleb128 0x13
 1044 00b2 00       		.byte	0
 1045 00b3 00       		.byte	0
 1046 00b4 0D       		.uleb128 0xd
 1047 00b5 05       		.uleb128 0x5
 1048 00b6 00       		.byte	0
 1049 00b7 03       		.uleb128 0x3
 1050 00b8 08       		.uleb128 0x8
ARM GAS  C:\Users\Robert\AppData\Local\Temp\cc5lrpol.s 			page 23


 1051 00b9 3A       		.uleb128 0x3a
 1052 00ba 0B       		.uleb128 0xb
 1053 00bb 3B       		.uleb128 0x3b
 1054 00bc 0B       		.uleb128 0xb
 1055 00bd 49       		.uleb128 0x49
 1056 00be 13       		.uleb128 0x13
 1057 00bf 02       		.uleb128 0x2
 1058 00c0 0A       		.uleb128 0xa
 1059 00c1 00       		.byte	0
 1060 00c2 00       		.byte	0
 1061 00c3 0E       		.uleb128 0xe
 1062 00c4 05       		.uleb128 0x5
 1063 00c5 00       		.byte	0
 1064 00c6 03       		.uleb128 0x3
 1065 00c7 0E       		.uleb128 0xe
 1066 00c8 3A       		.uleb128 0x3a
 1067 00c9 0B       		.uleb128 0xb
 1068 00ca 3B       		.uleb128 0x3b
 1069 00cb 0B       		.uleb128 0xb
 1070 00cc 49       		.uleb128 0x49
 1071 00cd 13       		.uleb128 0x13
 1072 00ce 02       		.uleb128 0x2
 1073 00cf 0A       		.uleb128 0xa
 1074 00d0 00       		.byte	0
 1075 00d1 00       		.byte	0
 1076 00d2 0F       		.uleb128 0xf
 1077 00d3 34       		.uleb128 0x34
 1078 00d4 00       		.byte	0
 1079 00d5 03       		.uleb128 0x3
 1080 00d6 0E       		.uleb128 0xe
 1081 00d7 3A       		.uleb128 0x3a
 1082 00d8 0B       		.uleb128 0xb
 1083 00d9 3B       		.uleb128 0x3b
 1084 00da 0B       		.uleb128 0xb
 1085 00db 49       		.uleb128 0x49
 1086 00dc 13       		.uleb128 0x13
 1087 00dd 3F       		.uleb128 0x3f
 1088 00de 0C       		.uleb128 0xc
 1089 00df 02       		.uleb128 0x2
 1090 00e0 0A       		.uleb128 0xa
 1091 00e1 00       		.byte	0
 1092 00e2 00       		.byte	0
 1093 00e3 10       		.uleb128 0x10
 1094 00e4 34       		.uleb128 0x34
 1095 00e5 00       		.byte	0
 1096 00e6 03       		.uleb128 0x3
 1097 00e7 0E       		.uleb128 0xe
 1098 00e8 3A       		.uleb128 0x3a
 1099 00e9 0B       		.uleb128 0xb
 1100 00ea 3B       		.uleb128 0x3b
 1101 00eb 05       		.uleb128 0x5
 1102 00ec 49       		.uleb128 0x49
 1103 00ed 13       		.uleb128 0x13
 1104 00ee 3F       		.uleb128 0x3f
 1105 00ef 0C       		.uleb128 0xc
 1106 00f0 3C       		.uleb128 0x3c
 1107 00f1 0C       		.uleb128 0xc
ARM GAS  C:\Users\Robert\AppData\Local\Temp\cc5lrpol.s 			page 24


 1108 00f2 00       		.byte	0
 1109 00f3 00       		.byte	0
 1110 00f4 11       		.uleb128 0x11
 1111 00f5 35       		.uleb128 0x35
 1112 00f6 00       		.byte	0
 1113 00f7 49       		.uleb128 0x49
 1114 00f8 13       		.uleb128 0x13
 1115 00f9 00       		.byte	0
 1116 00fa 00       		.byte	0
 1117 00fb 00       		.byte	0
 1118              		.section	.debug_loc,"",%progbits
 1119              	.Ldebug_loc0:
 1120              	.LLST0:
 1121 0000 00000000 		.4byte	.LFB56
 1122 0004 02000000 		.4byte	.LCFI0
 1123 0008 0200     		.2byte	0x2
 1124 000a 7D       		.byte	0x7d
 1125 000b 00       		.sleb128 0
 1126 000c 02000000 		.4byte	.LCFI0
 1127 0010 04000000 		.4byte	.LCFI1
 1128 0014 0200     		.2byte	0x2
 1129 0016 7D       		.byte	0x7d
 1130 0017 08       		.sleb128 8
 1131 0018 04000000 		.4byte	.LCFI1
 1132 001c 06000000 		.4byte	.LCFI2
 1133 0020 0300     		.2byte	0x3
 1134 0022 7D       		.byte	0x7d
 1135 0023 D000     		.sleb128 80
 1136 0025 06000000 		.4byte	.LCFI2
 1137 0029 80040000 		.4byte	.LFE56
 1138 002d 0300     		.2byte	0x3
 1139 002f 77       		.byte	0x77
 1140 0030 C800     		.sleb128 72
 1141 0032 00000000 		.4byte	0
 1142 0036 00000000 		.4byte	0
 1143              	.LLST1:
 1144 003a 00000000 		.4byte	.LFB57
 1145 003e 02000000 		.4byte	.LCFI3
 1146 0042 0200     		.2byte	0x2
 1147 0044 7D       		.byte	0x7d
 1148 0045 00       		.sleb128 0
 1149 0046 02000000 		.4byte	.LCFI3
 1150 004a 04000000 		.4byte	.LCFI4
 1151 004e 0200     		.2byte	0x2
 1152 0050 7D       		.byte	0x7d
 1153 0051 04       		.sleb128 4
 1154 0052 04000000 		.4byte	.LCFI4
 1155 0056 06000000 		.4byte	.LCFI5
 1156 005a 0200     		.2byte	0x2
 1157 005c 7D       		.byte	0x7d
 1158 005d 18       		.sleb128 24
 1159 005e 06000000 		.4byte	.LCFI5
 1160 0062 38000000 		.4byte	.LFE57
 1161 0066 0200     		.2byte	0x2
 1162 0068 77       		.byte	0x77
 1163 0069 18       		.sleb128 24
 1164 006a 00000000 		.4byte	0
ARM GAS  C:\Users\Robert\AppData\Local\Temp\cc5lrpol.s 			page 25


 1165 006e 00000000 		.4byte	0
 1166              		.section	.debug_aranges,"",%progbits
 1167 0000 24000000 		.4byte	0x24
 1168 0004 0200     		.2byte	0x2
 1169 0006 00000000 		.4byte	.Ldebug_info0
 1170 000a 04       		.byte	0x4
 1171 000b 00       		.byte	0
 1172 000c 0000     		.2byte	0
 1173 000e 0000     		.2byte	0
 1174 0010 00000000 		.4byte	.LFB56
 1175 0014 80040000 		.4byte	.LFE56-.LFB56
 1176 0018 00000000 		.4byte	.LFB57
 1177 001c 38000000 		.4byte	.LFE57-.LFB57
 1178 0020 00000000 		.4byte	0
 1179 0024 00000000 		.4byte	0
 1180              		.section	.debug_ranges,"",%progbits
 1181              	.Ldebug_ranges0:
 1182 0000 00000000 		.4byte	.LFB56
 1183 0004 80040000 		.4byte	.LFE56
 1184 0008 00000000 		.4byte	.LFB57
 1185 000c 38000000 		.4byte	.LFE57
 1186 0010 00000000 		.4byte	0
 1187 0014 00000000 		.4byte	0
 1188              		.section	.debug_line,"",%progbits
 1189              	.Ldebug_line0:
 1190 0000 7B010000 		.section	.debug_str,"MS",%progbits,1
 1190      0200FD00 
 1190      00000201 
 1190      FB0E0D00 
 1190      01010101 
 1191              	.LASF31:
 1192 0000 5F776964 		.ascii	"_width\000"
 1192      746800
 1193              	.LASF30:
 1194 0007 77726170 		.ascii	"wrap\000"
 1194      00
 1195              	.LASF35:
 1196 000c 63757272 		.ascii	"currentcolor\000"
 1196      656E7463 
 1196      6F6C6F72 
 1196      00
 1197              	.LASF14:
 1198 0019 646F7562 		.ascii	"double\000"
 1198      6C6500
 1199              	.LASF21:
 1200 0020 696E5F6D 		.ascii	"in_max\000"
 1200      617800
 1201              	.LASF23:
 1202 0027 6F75745F 		.ascii	"out_max\000"
 1202      6D617800 
 1203              	.LASF22:
 1204 002f 6F75745F 		.ascii	"out_min\000"
 1204      6D696E00 
 1205              	.LASF13:
 1206 0037 666C6F61 		.ascii	"float\000"
 1206      7400
 1207              	.LASF34:
ARM GAS  C:\Users\Robert\AppData\Local\Temp\cc5lrpol.s 			page 26


 1208 003d 6F6C6463 		.ascii	"oldcolor\000"
 1208      6F6C6F72 
 1208      00
 1209              	.LASF1:
 1210 0046 756E7369 		.ascii	"unsigned char\000"
 1210      676E6564 
 1210      20636861 
 1210      7200
 1211              	.LASF37:
 1212 0054 2E5C6D61 		.ascii	".\\main.c\000"
 1212      696E2E63 
 1212      00
 1213              	.LASF20:
 1214 005d 696E5F6D 		.ascii	"in_min\000"
 1214      696E00
 1215              	.LASF6:
 1216 0064 73686F72 		.ascii	"short unsigned int\000"
 1216      7420756E 
 1216      7369676E 
 1216      65642069 
 1216      6E7400
 1217              	.LASF24:
 1218 0077 63757273 		.ascii	"cursor_x\000"
 1218      6F725F78 
 1218      00
 1219              	.LASF25:
 1220 0080 63757273 		.ascii	"cursor_y\000"
 1220      6F725F79 
 1220      00
 1221              	.LASF33:
 1222 0089 49544D5F 		.ascii	"ITM_RxBuffer\000"
 1222      52784275 
 1222      66666572 
 1222      00
 1223              	.LASF9:
 1224 0096 6C6F6E67 		.ascii	"long unsigned int\000"
 1224      20756E73 
 1224      69676E65 
 1224      6420696E 
 1224      7400
 1225              	.LASF26:
 1226 00a8 74657874 		.ascii	"textcolor\000"
 1226      636F6C6F 
 1226      7200
 1227              	.LASF39:
 1228 00b2 6D61696E 		.ascii	"main\000"
 1228      00
 1229              	.LASF38:
 1230 00b7 433A5C55 		.ascii	"C:\\Users\\Robert\\Dropbox\\RPiSoC\\Projects\\tft_t"
 1230      73657273 
 1230      5C526F62 
 1230      6572745C 
 1230      44726F70 
 1231 00e4 6573742E 		.ascii	"est.Bundle01_Rev_b - touch\\touchpaint.cydsn\000"
 1231      42756E64 
 1231      6C653031 
 1231      5F526576 
ARM GAS  C:\Users\Robert\AppData\Local\Temp\cc5lrpol.s 			page 27


 1231      5F62202D 
 1232              	.LASF12:
 1233 0110 756E7369 		.ascii	"unsigned int\000"
 1233      676E6564 
 1233      20696E74 
 1233      00
 1234              	.LASF29:
 1235 011d 726F7461 		.ascii	"rotation\000"
 1235      74696F6E 
 1235      00
 1236              	.LASF11:
 1237 0126 6C6F6E67 		.ascii	"long long unsigned int\000"
 1237      206C6F6E 
 1237      6720756E 
 1237      7369676E 
 1237      65642069 
 1238              	.LASF2:
 1239 013d 75696E74 		.ascii	"uint8_t\000"
 1239      385F7400 
 1240              	.LASF3:
 1241 0145 696E7431 		.ascii	"int16_t\000"
 1241      365F7400 
 1242              	.LASF17:
 1243 014d 746F7563 		.ascii	"touch_en\000"
 1243      685F656E 
 1243      00
 1244              	.LASF7:
 1245 0156 696E7433 		.ascii	"int32_t\000"
 1245      325F7400 
 1246              	.LASF16:
 1247 015e 73697A65 		.ascii	"sizetype\000"
 1247      74797065 
 1247      00
 1248              	.LASF10:
 1249 0167 6C6F6E67 		.ascii	"long long int\000"
 1249      206C6F6E 
 1249      6720696E 
 1249      7400
 1250              	.LASF28:
 1251 0175 74657874 		.ascii	"textsize\000"
 1251      73697A65 
 1251      00
 1252              	.LASF32:
 1253 017e 5F686569 		.ascii	"_height\000"
 1253      67687400 
 1254              	.LASF4:
 1255 0186 73686F72 		.ascii	"short int\000"
 1255      7420696E 
 1255      7400
 1256              	.LASF18:
 1257 0190 62756666 		.ascii	"buffer\000"
 1257      657200
 1258              	.LASF5:
 1259 0197 75696E74 		.ascii	"uint16_t\000"
 1259      31365F74 
 1259      00
 1260              	.LASF36:
ARM GAS  C:\Users\Robert\AppData\Local\Temp\cc5lrpol.s 			page 28


 1261 01a0 474E5520 		.ascii	"GNU C 4.7.3 20130312 (release) [ARM/embedded-4_7-br"
 1261      4320342E 
 1261      372E3320 
 1261      32303133 
 1261      30333132 
 1262 01d3 616E6368 		.ascii	"anch revision 196615]\000"
 1262      20726576 
 1262      6973696F 
 1262      6E203139 
 1262      36363135 
 1263              	.LASF27:
 1264 01e9 74657874 		.ascii	"textbgcolor\000"
 1264      6267636F 
 1264      6C6F7200 
 1265              	.LASF8:
 1266 01f5 6C6F6E67 		.ascii	"long int\000"
 1266      20696E74 
 1266      00
 1267              	.LASF15:
 1268 01fe 63686172 		.ascii	"char\000"
 1268      00
 1269              	.LASF0:
 1270 0203 7369676E 		.ascii	"signed char\000"
 1270      65642063 
 1270      68617200 
 1271              	.LASF40:
 1272 020f 6D617043 		.ascii	"mapCoor\000"
 1272      6F6F7200 
 1273              	.LASF19:
 1274 0217 5F426F6F 		.ascii	"_Bool\000"
 1274      6C00
 1275              		.ident	"GCC: (GNU Tools for ARM Embedded Processors) 4.7.3 20130312 (release) [ARM/embedded-4_7-br
